 HPB_bot

 Timestamp is 5a9c41b6 (Sun Mar 04 18:57:58 2018)

 Preferred load address is 10000000

 Start         Length     Name                   Class
 0001:00000000 000000a5H .text$di                CODE
 0001:000000b0 0009693fH .text$mn                CODE
 0001:000969f0 000017a9H .text$x                 CODE
 0001:000981a0 0000004cH .text$yd                CODE
 0002:00000000 00000188H .idata$5                DATA
 0002:00000188 00000004H .CRT$XCA                DATA
 0002:0000018c 00000018H .CRT$XCU                DATA
 0002:000001a4 00000004H .CRT$XCZ                DATA
 0002:000001a8 00000004H .CRT$XIA                DATA
 0002:000001ac 00000014H .CRT$XIC                DATA
 0002:000001c0 00000004H .CRT$XIZ                DATA
 0002:000001c4 00000004H .CRT$XPA                DATA
 0002:000001c8 00000008H .CRT$XPX                DATA
 0002:000001d0 00000004H .CRT$XPXA               DATA
 0002:000001d4 00000004H .CRT$XPZ                DATA
 0002:000001d8 00000004H .CRT$XTA                DATA
 0002:000001dc 00000004H .CRT$XTZ                DATA
 0002:000001e0 0001d348H .rdata                  DATA
 0002:0001d528 00000074H .rdata$debug            DATA
 0002:0001d59c 00001aacH .rdata$r                DATA
 0002:0001f050 00000138H .rdata$sxdata           DATA
 0002:0001f188 00000004H .rtc$IAA                DATA
 0002:0001f18c 00000004H .rtc$IZZ                DATA
 0002:0001f190 00000004H .rtc$TAA                DATA
 0002:0001f194 00000004H .rtc$TZZ                DATA
 0002:0001f198 00002254H .xdata$x                DATA
 0002:000213f0 000000f5H .edata                  DATA
 0002:000214e8 00000028H .idata$2                DATA
 0002:00021510 00000014H .idata$3                DATA
 0002:00021524 00000188H .idata$4                DATA
 0002:000216ac 0000072eH .idata$6                DATA
 0003:00000000 00001690H .data                   DATA
 0003:00001690 00000c43H .data$r                 DATA
 0003:000022e0 000c4580H .bss                    DATA
 0004:00000000 00000058H .rsrc$01                DATA
 0004:00000060 00000180H .rsrc$02                DATA

  Address         Publics by Value              Rva+Base       Lib:Object

 0000:00000000       ___guard_fids_table        00000000     <absolute>
 0000:00000000       ___guard_fids_count        00000000     <absolute>
 0000:00000000       __except_list              00000000     <absolute>
 0000:00000000       ___guard_flags             00000000     <absolute>
 0000:0000004e       ___safe_se_handler_count   0000004e     <absolute>
 0000:00000000       ___ImageBase               10000000     <linker-defined>
 0001:000000b0       ??0CBits@@QAE@I@Z          100010b0 f   bits.obj
 0001:000000d0       ??0CBits@@QAE@PAV0@@Z      100010d0 f   bits.obj
 0001:000000f0       ??0CGenericHeader@@QAE@HH@Z 100010f0 f i bits.obj
 0001:00000120       ??0CGenericHeader@@QAE@XZ  10001120 f i bits.obj
 0001:00000130       ??8CGenericHeader@@QAEHV0@@Z 10001130 f i bits.obj
 0001:00000170       ??_H@YGXPAXIHP6EPAX0@Z@Z   10001170 f i bits.obj
 0001:000001a0       ?clear@CBits@@QAEXXZ       100011a0 f   bits.obj
 0001:000001c0       ?copy@CBits@@QAEXPAV1@@Z   100011c0 f   bits.obj
 0001:000001f0       ?freeMemory@CBits@@QAEXXZ  100011f0 f   bits.obj
 0001:00000210       ?getBit@CBits@@QAEHH@Z     10001210 f   bits.obj
 0001:00000250       ?getBits@CBits@@QAEPAEXZ   10001250 f i bits.obj
 0001:00000260       ?getHeader@CGenericHeader@@QAEPBDXZ 10001260 f i bits.obj
 0001:00000270       ?load@CBits@@QAEXPAU_iobuf@@@Z 10001270 f   bits.obj
 0001:00000390       ?numBits@CBits@@QAEIXZ     10001390 f i bits.obj
 0001:000003a0       ?randomize@CBits@@QAEXXZ   100013a0 f   bits.obj
 0001:00000400       ?read@CGenericHeader@@QAEHPAU_iobuf@@V1@@Z 10001400 f i bits.obj
 0001:00000480       ?save@CBits@@QAEXPAU_iobuf@@@Z 10001480 f   bits.obj
 0001:000004f0       ?setBit@CBits@@QAEXHH@Z    100014f0 f   bits.obj
 0001:00000540       ?setup@CBits@@QAEXH@Z      10001540 f   bits.obj
 0001:00000570       ?size@CBits@@QAEHXZ        10001570 f   bits.obj
 0001:000005b0       ?write@CGenericHeader@@QAEXPAU_iobuf@@@Z 100015b0 f i bits.obj
 0001:000005d0       _hypot                     100015d0 f i bits.obj
 0001:00000600       ??$_Allocate@H@std@@YAPAHIPAH@Z 10001600 f i bot.obj
 0001:00000630       ??$_Allocate@M@std@@YAPAMIPAM@Z 10001630 f i bot.obj
 0001:00000660       ??$_Allocate@PAUedict_s@@@std@@YAPAPAUedict_s@@IPAPAU1@@Z 10001660 f i bot.obj
 0001:00000690       ??$_Allocate@PBD@std@@YAPAPBDIPAPBD@Z 10001690 f i bot.obj
 0001:000006c0       ??$_Allocate@VCActionUtility@@@std@@YAPAVCActionUtility@@IPAV1@@Z 100016c0 f i bot.obj
 0001:000006f0       ??$_Allocate@VCRememberPosition@@@std@@YAPAVCRememberPosition@@IPAV1@@Z 100016f0 f i bot.obj
 0001:00000730       ??$_Destroy_range@U?$_Wrap_alloc@V?$allocator@H@std@@@std@@@std@@YAXPAH0AAU?$_Wrap_alloc@V?$allocator@H@std@@@0@@Z 10001730 f i bot.obj
 0001:00000740       ??$_Destroy_range@U?$_Wrap_alloc@V?$allocator@H@std@@@std@@@std@@YAXPAH0AAU?$_Wrap_alloc@V?$allocator@H@std@@@0@U_Scalar_ptr_iterator_tag@0@@Z 10001740 f i bot.obj
 0001:00000750       ??$_Destroy_range@U?$_Wrap_alloc@V?$allocator@M@std@@@std@@@std@@YAXPAM0AAU?$_Wrap_alloc@V?$allocator@M@std@@@0@@Z 10001750 f i bot.obj
 0001:00000760       ??$_Destroy_range@U?$_Wrap_alloc@V?$allocator@M@std@@@std@@@std@@YAXPAM0AAU?$_Wrap_alloc@V?$allocator@M@std@@@0@U_Scalar_ptr_iterator_tag@0@@Z 10001760 f i bot.obj
 0001:00000770       ??$_Destroy_range@U?$_Wrap_alloc@V?$allocator@PAUedict_s@@@std@@@std@@@std@@YAXPAPAUedict_s@@0AAU?$_Wrap_alloc@V?$allocator@PAUedict_s@@@std@@@0@@Z 10001770 f i bot.obj
 0001:00000780       ??$_Destroy_range@U?$_Wrap_alloc@V?$allocator@PAUedict_s@@@std@@@std@@@std@@YAXPAPAUedict_s@@0AAU?$_Wrap_alloc@V?$allocator@PAUedict_s@@@std@@@0@U_Scalar_ptr_iterator_tag@0@@Z 10001780 f i bot.obj
 0001:00000790       ??$_Destroy_range@U?$_Wrap_alloc@V?$allocator@PAVIIndividual@@@std@@@std@@@std@@YAXPAPAVIIndividual@@0AAU?$_Wrap_alloc@V?$allocator@PAVIIndividual@@@std@@@0@@Z 10001790 f i bot.obj
 0001:000007a0       ??$_Destroy_range@U?$_Wrap_alloc@V?$allocator@PAVIIndividual@@@std@@@std@@@std@@YAXPAPAVIIndividual@@0AAU?$_Wrap_alloc@V?$allocator@PAVIIndividual@@@std@@@0@U_Scalar_ptr_iterator_tag@0@@Z 100017a0 f i bot.obj
 0001:000007b0       ??$_Destroy_range@U?$_Wrap_alloc@V?$allocator@PBD@std@@@std@@@std@@YAXPAPBD0AAU?$_Wrap_alloc@V?$allocator@PBD@std@@@0@@Z 100017b0 f i bot.obj
 0001:000007c0       ??$_Destroy_range@U?$_Wrap_alloc@V?$allocator@PBD@std@@@std@@@std@@YAXPAPBD0AAU?$_Wrap_alloc@V?$allocator@PBD@std@@@0@U_Scalar_ptr_iterator_tag@0@@Z 100017c0 f i bot.obj
 0001:000007d0       ??$_Destroy_range@U?$_Wrap_alloc@V?$allocator@VCActionUtility@@@std@@@std@@@std@@YAXPAVCActionUtility@@0AAU?$_Wrap_alloc@V?$allocator@VCActionUtility@@@std@@@0@@Z 100017d0 f i bot.obj
 0001:000007e0       ??$_Destroy_range@U?$_Wrap_alloc@V?$allocator@VCActionUtility@@@std@@@std@@@std@@YAXPAVCActionUtility@@0AAU?$_Wrap_alloc@V?$allocator@VCActionUtility@@@std@@@0@U_Nonscalar_ptr_iterator_tag@0@@Z 100017e0 f i bot.obj
 0001:000007f0       ??$_Destroy_range@U?$_Wrap_alloc@V?$allocator@VCRememberPosition@@@std@@@std@@@std@@YAXPAVCRememberPosition@@0AAU?$_Wrap_alloc@V?$allocator@VCRememberPosition@@@std@@@0@@Z 100017f0 f i bot.obj
 0001:00000800       ??$_Destroy_range@U?$_Wrap_alloc@V?$allocator@VCRememberPosition@@@std@@@std@@@std@@YAXPAVCRememberPosition@@0AAU?$_Wrap_alloc@V?$allocator@VCRememberPosition@@@std@@@0@U_Nonscalar_ptr_iterator_tag@0@@Z 10001800 f i bot.obj
 0001:00000810       ??$_Destroy_range@U?$_Wrap_alloc@V?$allocator@VTSObjective@@@std@@@std@@@std@@YAXPAVTSObjective@@0AAU?$_Wrap_alloc@V?$allocator@VTSObjective@@@std@@@0@@Z 10001810 f i bot.obj
 0001:00000820       ??$_Destroy_range@U?$_Wrap_alloc@V?$allocator@VTSObjective@@@std@@@std@@@std@@YAXPAVTSObjective@@0AAU?$_Wrap_alloc@V?$allocator@VTSObjective@@@std@@@0@U_Nonscalar_ptr_iterator_tag@0@@Z 10001820 f i bot.obj
 0001:00000830       ??$_Move@PAVCRememberPosition@@PAV1@@std@@YAPAVCRememberPosition@@PAV1@00@Z 10001830 f i bot.obj
 0001:00000870       ??$_Move@PAVCRememberPosition@@PAV1@@std@@YAPAVCRememberPosition@@PAV1@00U_Nonscalar_ptr_iterator_tag@0@@Z 10001870 f i bot.obj
 0001:000008b0       ??$_Ptr_cat@HH@std@@YA?AU_Scalar_ptr_iterator_tag@0@PAH0@Z 100018b0 f i bot.obj
 0001:000008c0       ??$_Ptr_cat@MM@std@@YA?AU_Scalar_ptr_iterator_tag@0@PAM0@Z 100018c0 f i bot.obj
 0001:000008d0       ??$_Ptr_cat@MM@std@@YA?AU_Scalar_ptr_iterator_tag@0@PBMPAM@Z 100018d0 f i bot.obj
 0001:000008e0       ??$_Ptr_cat@PAUedict_s@@PAU1@@std@@YA?AU_Scalar_ptr_iterator_tag@0@PAPAUedict_s@@0@Z 100018e0 f i bot.obj
 0001:000008f0       ??$_Ptr_cat@PAVIIndividual@@PAV1@@std@@YA?AU_Scalar_ptr_iterator_tag@0@PAPAVIIndividual@@0@Z 100018f0 f i bot.obj
 0001:00000900       ??$_Ptr_cat@PBDPBD@std@@YA?AU_Scalar_ptr_iterator_tag@0@PAPBD0@Z 10001900 f i bot.obj
 0001:00000910       ??$_Ptr_cat@VCActionUtility@@V1@@std@@YA?AU_Nonscalar_ptr_iterator_tag@0@PAVCActionUtility@@0@Z 10001910 f i bot.obj
 0001:00000920       ??$_Ptr_cat@VCRememberPosition@@V1@@std@@YA?AU_Nonscalar_ptr_iterator_tag@0@PAVCRememberPosition@@0@Z 10001920 f i bot.obj
 0001:00000930       ??$_Ptr_cat@VTSObjective@@V1@@std@@YA?AU_Nonscalar_ptr_iterator_tag@0@PAVTSObjective@@0@Z 10001930 f i bot.obj
 0001:00000940       ??$_Rechecked@PAHPAH@std@@YAAAPAHAAPAHPAH@Z 10001940 f i bot.obj
 0001:00000950       ??$_Rechecked@PAMPAM@std@@YAAAPAMAAPAMPAM@Z 10001950 f i bot.obj
 0001:00000960       ??$_Rechecked@PAPAUedict_s@@PAPAU1@@std@@YAAAPAPAUedict_s@@AAPAPAU1@PAPAU1@@Z 10001960 f i bot.obj
 0001:00000970       ??$_Rechecked@PAPBDPAPBD@std@@YAAAPAPBDAAPAPBDPAPBD@Z 10001970 f i bot.obj
 0001:00000980       ??$_Rechecked@PAVCActionUtility@@PAV1@@std@@YAAAPAVCActionUtility@@AAPAV1@PAV1@@Z 10001980 f i bot.obj
 0001:00000990       ??$_Rechecked@PAVCRememberPosition@@PAV1@@std@@YAAAPAVCRememberPosition@@AAPAV1@PAV1@@Z 10001990 f i bot.obj
 0001:000009a0       ??$_Ucopy@V?$_Vector_const_iterator@V?$_Vector_val@U?$_Simple_types@M@std@@@std@@@std@@@?$vector@MV?$allocator@M@std@@@std@@IAEPAMV?$_Vector_const_iterator@V?$_Vector_val@U?$_Simple_types@M@std@@@std@@@1@0PAM@Z 100019a0 f i bot.obj
 0001:000009d0       ??$_Umove@PAH@?$vector@HV?$allocator@H@std@@@std@@IAEPAHPAH00@Z 100019d0 f i bot.obj
 0001:00000a00       ??$_Umove@PAM@?$vector@MV?$allocator@M@std@@@std@@IAEPAMPAM00@Z 10001a00 f i bot.obj
 0001:00000a30       ??$_Umove@PAPAUedict_s@@@?$vector@PAUedict_s@@V?$allocator@PAUedict_s@@@std@@@std@@IAEPAPAUedict_s@@PAPAU2@00@Z 10001a30 f i bot.obj
 0001:00000a60       ??$_Umove@PAPBD@?$vector@PBDV?$allocator@PBD@std@@@std@@IAEPAPBDPAPBD00@Z 10001a60 f i bot.obj
 0001:00000a90       ??$_Umove@PAVCActionUtility@@@?$vector@VCActionUtility@@V?$allocator@VCActionUtility@@@std@@@std@@IAEPAVCActionUtility@@PAV2@00@Z 10001a90 f i bot.obj
 0001:00000ac0       ??$_Umove@PAVCRememberPosition@@@?$vector@VCRememberPosition@@V?$allocator@VCRememberPosition@@@std@@@std@@IAEPAVCRememberPosition@@PAV2@00@Z 10001ac0 f i bot.obj
 0001:00000af0       ??$_Unchecked@PAH@std@@YAPAHPAH@Z 10001af0 f i bot.obj
 0001:00000b00       ??$_Unchecked@PAM@std@@YAPAMPAM@Z 10001b00 f i bot.obj
 0001:00000b10       ??$_Unchecked@PAPAUedict_s@@@std@@YAPAPAUedict_s@@PAPAU1@@Z 10001b10 f i bot.obj
 0001:00000b20       ??$_Unchecked@PAPBD@std@@YAPAPBDPAPBD@Z 10001b20 f i bot.obj
 0001:00000b30       ??$_Unchecked@PAVCActionUtility@@@std@@YAPAVCActionUtility@@PAV1@@Z 10001b30 f i bot.obj
 0001:00000b40       ??$_Unchecked@PAVCRememberPosition@@@std@@YAPAVCRememberPosition@@PAV1@@Z 10001b40 f i bot.obj
 0001:00000b50       ??$_Unchecked@V?$_Vector_val@U?$_Simple_types@M@std@@@std@@@std@@YAPBMV?$_Vector_const_iterator@V?$_Vector_val@U?$_Simple_types@M@std@@@std@@@0@@Z 10001b50 f i bot.obj
 0001:00000b60       ??$_Uninit_copy@$$CBMM@std@@YAPAMPBM0PAMAAU?$_Wrap_alloc@V?$allocator@M@std@@@0@U_Scalar_ptr_iterator_tag@0@@Z 10001b60 f i bot.obj
 0001:00000b90       ??$_Uninit_copy@PBMPAMU?$_Wrap_alloc@V?$allocator@M@std@@@std@@@std@@YAPAMPBM0PAMAAU?$_Wrap_alloc@V?$allocator@M@std@@@0@@Z 10001b90 f i bot.obj
 0001:00000bc0       ??$_Uninit_move@HHH@std@@YAPAHPAH00AAU?$_Wrap_alloc@V?$allocator@H@std@@@0@0U_Scalar_ptr_iterator_tag@0@@Z 10001bc0 f i bot.obj
 0001:00000bf0       ??$_Uninit_move@MMM@std@@YAPAMPAM00AAU?$_Wrap_alloc@V?$allocator@M@std@@@0@0U_Scalar_ptr_iterator_tag@0@@Z 10001bf0 f i bot.obj
 0001:00000c20       ??$_Uninit_move@PAHPAHU?$_Wrap_alloc@V?$allocator@H@std@@@std@@@std@@YAPAHPAH00AAU?$_Wrap_alloc@V?$allocator@H@std@@@0@@Z 10001c20 f i bot.obj
 0001:00000c50       ??$_Uninit_move@PAMPAMU?$_Wrap_alloc@V?$allocator@M@std@@@std@@@std@@YAPAMPAM00AAU?$_Wrap_alloc@V?$allocator@M@std@@@0@@Z 10001c50 f i bot.obj
 0001:00000c80       ??$_Uninit_move@PAPAUedict_s@@PAPAU1@U?$_Wrap_alloc@V?$allocator@PAUedict_s@@@std@@@std@@@std@@YAPAPAUedict_s@@PAPAU1@00AAU?$_Wrap_alloc@V?$allocator@PAUedict_s@@@std@@@0@@Z 10001c80 f i bot.obj
 0001:00000cb0       ??$_Uninit_move@PAPBDPAPBDU?$_Wrap_alloc@V?$allocator@PBD@std@@@std@@@std@@YAPAPBDPAPBD00AAU?$_Wrap_alloc@V?$allocator@PBD@std@@@0@@Z 10001cb0 f i bot.obj
 0001:00000ce0       ??$_Uninit_move@PAUedict_s@@PAU1@PAU1@@std@@YAPAPAUedict_s@@PAPAU1@00AAU?$_Wrap_alloc@V?$allocator@PAUedict_s@@@std@@@0@0U_Scalar_ptr_iterator_tag@0@@Z 10001ce0 f i bot.obj
 0001:00000d10       ??$_Uninit_move@PAVCActionUtility@@PAV1@U?$_Wrap_alloc@V?$allocator@VCActionUtility@@@std@@@std@@@std@@YAPAVCActionUtility@@PAV1@00AAU?$_Wrap_alloc@V?$allocator@VCActionUtility@@@std@@@0@@Z 10001d10 f i bot.obj
 0001:00000d40       ??$_Uninit_move@PAVCActionUtility@@PAV1@V?$allocator@VCActionUtility@@@std@@V1@@std@@YAPAVCActionUtility@@PAV1@00AAU?$_Wrap_alloc@V?$allocator@VCActionUtility@@@std@@@0@0U_Nonscalar_ptr_iterator_tag@0@@Z 10001d40 f i bot.obj
 0001:00000d80       ??$_Uninit_move@PAVCRememberPosition@@PAV1@U?$_Wrap_alloc@V?$allocator@VCRememberPosition@@@std@@@std@@@std@@YAPAVCRememberPosition@@PAV1@00AAU?$_Wrap_alloc@V?$allocator@VCRememberPosition@@@std@@@0@@Z 10001d80 f i bot.obj
 0001:00000db0       ??$_Uninit_move@PAVCRememberPosition@@PAV1@V?$allocator@VCRememberPosition@@@std@@V1@@std@@YAPAVCRememberPosition@@PAV1@00AAU?$_Wrap_alloc@V?$allocator@VCRememberPosition@@@std@@@0@0U_Nonscalar_ptr_iterator_tag@0@@Z 10001db0 f i bot.obj
 0001:00000e30       ??$_Uninit_move@PBDPBDPBD@std@@YAPAPBDPAPBD00AAU?$_Wrap_alloc@V?$allocator@PBD@std@@@0@0U_Scalar_ptr_iterator_tag@0@@Z 10001e30 f i bot.obj
 0001:00000e60       ??$_Uninitialized_copy@V?$_Vector_const_iterator@V?$_Vector_val@U?$_Simple_types@M@std@@@std@@@std@@PAMU?$_Wrap_alloc@V?$allocator@M@std@@@2@@std@@YAPAMV?$_Vector_const_iterator@V?$_Vector_val@U?$_Simple_types@M@std@@@std@@@0@0PAMAAU?$_Wrap_alloc@V?$allocator@M@std@@@0@@Z 10001e60 f i bot.obj
 0001:00000e90       ??$_Uninitialized_move@PAHPAHU?$_Wrap_alloc@V?$allocator@H@std@@@std@@@std@@YAPAHPAH00AAU?$_Wrap_alloc@V?$allocator@H@std@@@0@@Z 10001e90 f i bot.obj
 0001:00000ec0       ??$_Uninitialized_move@PAMPAMU?$_Wrap_alloc@V?$allocator@M@std@@@std@@@std@@YAPAMPAM00AAU?$_Wrap_alloc@V?$allocator@M@std@@@0@@Z 10001ec0 f i bot.obj
 0001:00000ef0       ??$_Uninitialized_move@PAPAUedict_s@@PAPAU1@U?$_Wrap_alloc@V?$allocator@PAUedict_s@@@std@@@std@@@std@@YAPAPAUedict_s@@PAPAU1@00AAU?$_Wrap_alloc@V?$allocator@PAUedict_s@@@std@@@0@@Z 10001ef0 f i bot.obj
 0001:00000f20       ??$_Uninitialized_move@PAPBDPAPBDU?$_Wrap_alloc@V?$allocator@PBD@std@@@std@@@std@@YAPAPBDPAPBD00AAU?$_Wrap_alloc@V?$allocator@PBD@std@@@0@@Z 10001f20 f i bot.obj
 0001:00000f50       ??$_Uninitialized_move@PAVCActionUtility@@PAV1@U?$_Wrap_alloc@V?$allocator@VCActionUtility@@@std@@@std@@@std@@YAPAVCActionUtility@@PAV1@00AAU?$_Wrap_alloc@V?$allocator@VCActionUtility@@@std@@@0@@Z 10001f50 f i bot.obj
 0001:00000f70       ??$_Uninitialized_move@PAVCRememberPosition@@PAV1@U?$_Wrap_alloc@V?$allocator@VCRememberPosition@@@std@@@std@@@std@@YAPAVCRememberPosition@@PAV1@00AAU?$_Wrap_alloc@V?$allocator@VCRememberPosition@@@std@@@0@@Z 10001f70 f i bot.obj
 0001:00000f90       ??$_Val_type@PAH@std@@YAPAHPAH@Z 10001f90 f i bot.obj
 0001:00000fa0       ??$_Val_type@PAM@std@@YAPAMPAM@Z 10001fa0 f i bot.obj
 0001:00000fb0       ??$_Val_type@PAPAUedict_s@@@std@@YAPAPAUedict_s@@PAPAU1@@Z 10001fb0 f i bot.obj
 0001:00000fc0       ??$_Val_type@PAPBD@std@@YAPAPBDPAPBD@Z 10001fc0 f i bot.obj
 0001:00000fd0       ??$_Val_type@PAVCActionUtility@@@std@@YAPAVCActionUtility@@PAV1@@Z 10001fd0 f i bot.obj
 0001:00000fe0       ??$_Val_type@PAVCRememberPosition@@@std@@YAPAVCRememberPosition@@PAV1@@Z 10001fe0 f i bot.obj
 0001:00000ff0       ??$addressof@$$CBH@std@@YAPBHABH@Z 10001ff0 f i bot.obj
 0001:00001000       ??$addressof@$$CBM@std@@YAPBMABM@Z 10002000 f i bot.obj
 0001:00001010       ??$addressof@$$CBVCRememberPosition@@@std@@YAPBVCRememberPosition@@ABV1@@Z 10002010 f i bot.obj
 0001:00001020       ??$addressof@M@std@@YAPAMAAM@Z 10002020 f i bot.obj
 0001:00001030       ??$addressof@QAUedict_s@@@std@@YAPBQAUedict_s@@ABQAU1@@Z 10002030 f i bot.obj
 0001:00001040       ??$addressof@QBD@std@@YAPBQBDABQBD@Z 10002040 f i bot.obj
 0001:00001050       ??$addressof@VCActionUtility@@@std@@YAPAVCActionUtility@@AAV1@@Z 10002050 f i bot.obj
 0001:00001060       ??$construct@HAAH@?$_Wrap_alloc@V?$allocator@H@std@@@std@@QAEXPAHAAH@Z 10002060 f i bot.obj
 0001:00001080       ??$construct@HAAH@?$allocator@H@std@@QAEXPAHAAH@Z 10002080 f i bot.obj
 0001:000010a0       ??$construct@HAAH@?$allocator_traits@V?$allocator@H@std@@@std@@SAXAAV?$allocator@H@1@PAHAAH@Z 100020a0 f i bot.obj
 0001:000010c0       ??$construct@HABH@?$_Wrap_alloc@V?$allocator@H@std@@@std@@QAEXPAHABH@Z 100020c0 f i bot.obj
 0001:000010e0       ??$construct@HABH@?$allocator_traits@V?$allocator@H@std@@@std@@SAXAAV?$allocator@H@1@PAHABH@Z 100020e0 f i bot.obj
 0001:00001100       ??$construct@MAAM@?$_Wrap_alloc@V?$allocator@M@std@@@std@@QAEXPAMAAM@Z 10002100 f i bot.obj
 0001:00001120       ??$construct@MAAM@?$allocator@M@std@@QAEXPAMAAM@Z 10002120 f i bot.obj
 0001:00001140       ??$construct@MAAM@?$allocator_traits@V?$allocator@M@std@@@std@@SAXAAV?$allocator@M@1@PAMAAM@Z 10002140 f i bot.obj
 0001:00001160       ??$construct@MABM@?$_Wrap_alloc@V?$allocator@M@std@@@std@@QAEXPAMABM@Z 10002160 f i bot.obj
 0001:00001180       ??$construct@MABM@?$allocator_traits@V?$allocator@M@std@@@std@@SAXAAV?$allocator@M@1@PAMABM@Z 10002180 f i bot.obj
 0001:000011a0       ??$construct@MM@?$_Wrap_alloc@V?$allocator@M@std@@@std@@QAEXPAM$$QAM@Z 100021a0 f i bot.obj
 0001:000011c0       ??$construct@MM@?$allocator@M@std@@QAEXPAM$$QAM@Z 100021c0 f i bot.obj
 0001:000011e0       ??$construct@MM@?$allocator_traits@V?$allocator@M@std@@@std@@SAXAAV?$allocator@M@1@PAM$$QAM@Z 100021e0 f i bot.obj
 0001:00001200       ??$construct@PAUedict_s@@AAPAU1@@?$_Wrap_alloc@V?$allocator@PAUedict_s@@@std@@@std@@QAEXPAPAUedict_s@@AAPAU2@@Z 10002200 f i bot.obj
 0001:00001220       ??$construct@PAUedict_s@@AAPAU1@@?$allocator@PAUedict_s@@@std@@QAEXPAPAUedict_s@@AAPAU2@@Z 10002220 f i bot.obj
 0001:00001240       ??$construct@PAUedict_s@@AAPAU1@@?$allocator_traits@V?$allocator@PAUedict_s@@@std@@@std@@SAXAAV?$allocator@PAUedict_s@@@1@PAPAUedict_s@@AAPAU3@@Z 10002240 f i bot.obj
 0001:00001260       ??$construct@PAUedict_s@@ABQAU1@@?$_Wrap_alloc@V?$allocator@PAUedict_s@@@std@@@std@@QAEXPAPAUedict_s@@ABQAU2@@Z 10002260 f i bot.obj
 0001:00001280       ??$construct@PAUedict_s@@ABQAU1@@?$allocator_traits@V?$allocator@PAUedict_s@@@std@@@std@@SAXAAV?$allocator@PAUedict_s@@@1@PAPAUedict_s@@ABQAU3@@Z 10002280 f i bot.obj
 0001:000012a0       ??$construct@PBDAAPBD@?$_Wrap_alloc@V?$allocator@PBD@std@@@std@@QAEXPAPBDAAPBD@Z 100022a0 f i bot.obj
 0001:000012c0       ??$construct@PBDAAPBD@?$allocator@PBD@std@@QAEXPAPBDAAPBD@Z 100022c0 f i bot.obj
 0001:000012e0       ??$construct@PBDAAPBD@?$allocator_traits@V?$allocator@PBD@std@@@std@@SAXAAV?$allocator@PBD@1@PAPBDAAPBD@Z 100022e0 f i bot.obj
 0001:00001300       ??$construct@PBDABQBD@?$_Wrap_alloc@V?$allocator@PBD@std@@@std@@QAEXPAPBDABQBD@Z 10002300 f i bot.obj
 0001:00001320       ??$construct@PBDABQBD@?$allocator_traits@V?$allocator@PBD@std@@@std@@SAXAAV?$allocator@PBD@1@PAPBDABQBD@Z 10002320 f i bot.obj
 0001:00001340       ??$construct@VCActionUtility@@V1@@?$_Wrap_alloc@V?$allocator@VCActionUtility@@@std@@@std@@QAEXPAVCActionUtility@@$$QAV2@@Z 10002340 f i bot.obj
 0001:00001360       ??$construct@VCActionUtility@@V1@@?$allocator@VCActionUtility@@@std@@QAEXPAVCActionUtility@@$$QAV2@@Z 10002360 f i bot.obj
 0001:00001380       ??$construct@VCActionUtility@@V1@@?$allocator_traits@V?$allocator@VCActionUtility@@@std@@@std@@SAXAAV?$allocator@VCActionUtility@@@1@PAVCActionUtility@@$$QAV3@@Z 10002380 f i bot.obj
 0001:000013a0       ??$construct@VCRememberPosition@@AAV1@@?$_Wrap_alloc@V?$allocator@VCRememberPosition@@@std@@@std@@QAEXPAVCRememberPosition@@AAV2@@Z 100023a0 f i bot.obj
 0001:000013f0       ??$construct@VCRememberPosition@@AAV1@@?$allocator@VCRememberPosition@@@std@@QAEXPAVCRememberPosition@@AAV2@@Z 100023f0 f i bot.obj
 0001:00001440       ??$construct@VCRememberPosition@@AAV1@@?$allocator_traits@V?$allocator@VCRememberPosition@@@std@@@std@@SAXAAV?$allocator@VCRememberPosition@@@1@PAVCRememberPosition@@AAV3@@Z 10002440 f i bot.obj
 0001:00001490       ??$construct@VCRememberPosition@@ABV1@@?$_Wrap_alloc@V?$allocator@VCRememberPosition@@@std@@@std@@QAEXPAVCRememberPosition@@ABV2@@Z 10002490 f i bot.obj
 0001:000014e0       ??$construct@VCRememberPosition@@ABV1@@?$allocator_traits@V?$allocator@VCRememberPosition@@@std@@@std@@SAXAAV?$allocator@VCRememberPosition@@@1@PAVCRememberPosition@@ABV3@@Z 100024e0 f i bot.obj
 0001:00001530       ??$construct@VCRememberPosition@@V1@@?$_Wrap_alloc@V?$allocator@VCRememberPosition@@@std@@@std@@QAEXPAVCRememberPosition@@$$QAV2@@Z 10002530 f i bot.obj
 0001:00001580       ??$construct@VCRememberPosition@@V1@@?$allocator@VCRememberPosition@@@std@@QAEXPAVCRememberPosition@@$$QAV2@@Z 10002580 f i bot.obj
 0001:000015d0       ??$construct@VCRememberPosition@@V1@@?$allocator_traits@V?$allocator@VCRememberPosition@@@std@@@std@@SAXAAV?$allocator@VCRememberPosition@@@1@PAVCRememberPosition@@$$QAV3@@Z 100025d0 f i bot.obj
 0001:00001620       ??$destroy@VCActionUtility@@@?$_Wrap_alloc@V?$allocator@VCActionUtility@@@std@@@std@@QAEXPAVCActionUtility@@@Z 10002620 f i bot.obj
 0001:00001630       ??$destroy@VCActionUtility@@@?$allocator@VCActionUtility@@@std@@QAEXPAVCActionUtility@@@Z 10002630 f i bot.obj
 0001:00001640       ??$destroy@VCActionUtility@@@?$allocator_traits@V?$allocator@VCActionUtility@@@std@@@std@@SAXAAV?$allocator@VCActionUtility@@@1@PAVCActionUtility@@@Z 10002640 f i bot.obj
 0001:00001650       ??$destroy@VCRememberPosition@@@?$_Wrap_alloc@V?$allocator@VCRememberPosition@@@std@@@std@@QAEXPAVCRememberPosition@@@Z 10002650 f i bot.obj
 0001:00001660       ??$destroy@VCRememberPosition@@@?$allocator@VCRememberPosition@@@std@@QAEXPAVCRememberPosition@@@Z 10002660 f i bot.obj
 0001:00001670       ??$destroy@VCRememberPosition@@@?$allocator_traits@V?$allocator@VCRememberPosition@@@std@@@std@@SAXAAV?$allocator@VCRememberPosition@@@1@PAVCRememberPosition@@@Z 10002670 f i bot.obj
 0001:00001680       ??$destroy@VTSObjective@@@?$_Wrap_alloc@V?$allocator@VTSObjective@@@std@@@std@@QAEXPAVTSObjective@@@Z 10002680 f i bot.obj
 0001:00001690       ??$destroy@VTSObjective@@@?$allocator@VTSObjective@@@std@@QAEXPAVTSObjective@@@Z 10002690 f i bot.obj
 0001:000016a0       ??$destroy@VTSObjective@@@?$allocator_traits@V?$allocator@VTSObjective@@@std@@@std@@SAXAAV?$allocator@VTSObjective@@@1@PAVTSObjective@@@Z 100026a0 f i bot.obj
 0001:000016b0       ??$forward@AAH@std@@YAAAHAAH@Z 100026b0 f i bot.obj
 0001:000016c0       ??$forward@AAM@std@@YAAAMAAM@Z 100026c0 f i bot.obj
 0001:000016d0       ??$forward@AAPAUedict_s@@@std@@YAAAPAUedict_s@@AAPAU1@@Z 100026d0 f i bot.obj
 0001:000016e0       ??$forward@AAPBD@std@@YAAAPBDAAPBD@Z 100026e0 f i bot.obj
 0001:000016f0       ??$forward@AAVCRememberPosition@@@std@@YAAAVCRememberPosition@@AAV1@@Z 100026f0 f i bot.obj
 0001:00001700       ??$forward@ABH@std@@YAABHABH@Z 10002700 f i bot.obj
 0001:00001710       ??$forward@ABM@std@@YAABMABM@Z 10002710 f i bot.obj
 0001:00001720       ??$forward@ABQAUedict_s@@@std@@YAABQAUedict_s@@ABQAU1@@Z 10002720 f i bot.obj
 0001:00001730       ??$forward@ABQBD@std@@YAABQBDABQBD@Z 10002730 f i bot.obj
 0001:00001740       ??$forward@ABVCRememberPosition@@@std@@YAABVCRememberPosition@@ABV1@@Z 10002740 f i bot.obj
 0001:00001750       ??$forward@M@std@@YA$$QAMAAM@Z 10002750 f i bot.obj
 0001:00001760       ??$forward@VCActionUtility@@@std@@YA$$QAVCActionUtility@@AAV1@@Z 10002760 f i bot.obj
 0001:00001770       ??$forward@VCRememberPosition@@@std@@YA$$QAVCRememberPosition@@AAV1@@Z 10002770 f i bot.obj
 0001:00001780       ??$move@AAVCRememberPosition@@@std@@YA$$QAVCRememberPosition@@AAV1@@Z 10002780 f i bot.obj
 0001:00001790       ??0?$_Vector_alloc@$0A@U?$_Vec_base_types@HV?$allocator@H@std@@@std@@@std@@QAE@ABV?$allocator@H@1@@Z 10002790 f i bot.obj
 0001:000017b0       ??0?$_Vector_alloc@$0A@U?$_Vec_base_types@MV?$allocator@M@std@@@std@@@std@@QAE@ABV?$allocator@M@1@@Z 100027b0 f i bot.obj
 0001:000017d0       ??0?$_Vector_alloc@$0A@U?$_Vec_base_types@PAUedict_s@@V?$allocator@PAUedict_s@@@std@@@std@@@std@@QAE@ABV?$allocator@PAUedict_s@@@1@@Z 100027d0 f i bot.obj
 0001:000017f0       ??0?$_Vector_alloc@$0A@U?$_Vec_base_types@PAVIIndividual@@V?$allocator@PAVIIndividual@@@std@@@std@@@std@@QAE@ABV?$allocator@PAVIIndividual@@@1@@Z 100027f0 f i bot.obj
 0001:00001810       ??0?$_Vector_alloc@$0A@U?$_Vec_base_types@PBDV?$allocator@PBD@std@@@std@@@std@@QAE@ABV?$allocator@PBD@1@@Z 10002810 f i bot.obj
 0001:00001830       ??0?$_Vector_alloc@$0A@U?$_Vec_base_types@VCActionUtility@@V?$allocator@VCActionUtility@@@std@@@std@@@std@@QAE@ABV?$allocator@VCActionUtility@@@1@@Z 10002830 f i bot.obj
 0001:00001850       ??0?$_Vector_const_iterator@V?$_Vector_val@U?$_Simple_types@M@std@@@std@@@std@@QAE@PAMPBU_Container_base0@1@@Z 10002850 f i bot.obj
 0001:00001860       ??0?$_Vector_const_iterator@V?$_Vector_val@U?$_Simple_types@VCRememberPosition@@@std@@@std@@@std@@QAE@PAVCRememberPosition@@PBU_Container_base0@1@@Z 10002860 f i bot.obj
 0001:00001870       ??0?$_Vector_const_iterator@V?$_Vector_val@U?$_Simple_types@VCRememberPosition@@@std@@@std@@@std@@QAE@XZ 10002870 f i bot.obj
 0001:00001880       ??0?$_Vector_iterator@V?$_Vector_val@U?$_Simple_types@VCRememberPosition@@@std@@@std@@@std@@QAE@PAVCRememberPosition@@PBU_Container_base0@1@@Z 10002880 f i bot.obj
 0001:00001890       ??0?$_Vector_iterator@V?$_Vector_val@U?$_Simple_types@VCRememberPosition@@@std@@@std@@@std@@QAE@XZ 10002890 f i bot.obj
 0001:000018a0       ??0?$_Vector_val@U?$_Simple_types@H@std@@@std@@QAE@XZ 100028a0 f i bot.obj
 0001:000018c0       ??0?$_Vector_val@U?$_Simple_types@M@std@@@std@@QAE@XZ 100028c0 f i bot.obj
 0001:000018e0       ??0?$_Vector_val@U?$_Simple_types@PAUedict_s@@@std@@@std@@QAE@XZ 100028e0 f i bot.obj
 0001:00001900       ??0?$_Vector_val@U?$_Simple_types@PAVIIndividual@@@std@@@std@@QAE@XZ 10002900 f i bot.obj
 0001:00001920       ??0?$_Vector_val@U?$_Simple_types@PBD@std@@@std@@QAE@XZ 10002920 f i bot.obj
 0001:00001940       ??0?$_Vector_val@U?$_Simple_types@VCActionUtility@@@std@@@std@@QAE@XZ 10002940 f i bot.obj
 0001:00001960       ??0?$_Wrap_alloc@V?$allocator@H@std@@@std@@QAE@XZ 10002960 f i bot.obj
 0001:00001970       ??0?$_Wrap_alloc@V?$allocator@M@std@@@std@@QAE@ABV?$allocator@M@1@@Z 10002970 f i bot.obj
 0001:00001980       ??0?$_Wrap_alloc@V?$allocator@M@std@@@std@@QAE@XZ 10002980 f i bot.obj
 0001:00001990       ??0?$_Wrap_alloc@V?$allocator@PAUedict_s@@@std@@@std@@QAE@XZ 10002990 f i bot.obj
 0001:000019a0       ??0?$_Wrap_alloc@V?$allocator@PAVIIndividual@@@std@@@std@@QAE@XZ 100029a0 f i bot.obj
 0001:000019b0       ??0?$_Wrap_alloc@V?$allocator@PBD@std@@@std@@QAE@XZ 100029b0 f i bot.obj
 0001:000019c0       ??0?$_Wrap_alloc@V?$allocator@VCActionUtility@@@std@@@std@@QAE@XZ 100029c0 f i bot.obj
 0001:000019d0       ??0?$_Wrap_alloc@V?$allocator@VCRememberPosition@@@std@@@std@@QAE@XZ 100029d0 f i bot.obj
 0001:000019e0       ??0?$_Wrap_alloc@V?$allocator@VTSObjective@@@std@@@std@@QAE@XZ 100029e0 f i bot.obj
 0001:000019f0       ??0?$allocator@H@std@@QAE@XZ 100029f0 f i bot.obj
 0001:00001a00       ??0?$allocator@M@std@@QAE@ABV01@@Z 10002a00 f i bot.obj
 0001:00001a10       ??0?$allocator@M@std@@QAE@XZ 10002a10 f i bot.obj
 0001:00001a20       ??0?$allocator@PAUedict_s@@@std@@QAE@XZ 10002a20 f i bot.obj
 0001:00001a30       ??0?$allocator@PAVIIndividual@@@std@@QAE@XZ 10002a30 f i bot.obj
 0001:00001a40       ??0?$allocator@PBD@std@@QAE@XZ 10002a40 f i bot.obj
 0001:00001a50       ??0?$allocator@VCActionUtility@@@std@@QAE@XZ 10002a50 f i bot.obj
 0001:00001a60       ??0?$allocator@VCRememberPosition@@@std@@QAE@XZ 10002a60 f i bot.obj
 0001:00001a70       ??0?$allocator@VTSObjective@@@std@@QAE@XZ 10002a70 f i bot.obj
 0001:00001a80       ??0?$dataNode@H@@QAE@XZ    10002a80 f i bot.obj
 0001:00001a90       ??0?$dataNode@PAUedict_s@@@@QAE@XZ 10002a90 f i bot.obj
 0001:00001aa0       ??0?$dataNode@PAVCBotSquad@@@@QAE@XZ 10002aa0 f i bot.obj
 0001:00001ab0       ??0?$dataNode@VCBotFailedPath@@@@QAE@XZ 10002ab0 f i bot.obj
 0001:00001ad0       ??0?$dataNode@VCBotTask@@@@QAE@XZ 10002ad0 f i bot.obj
 0001:00001af0       ??0?$dataNode@VCStructure@@@@QAE@XZ 10002af0 f i bot.obj
 0001:00001b10       ??0?$dataNode@VMyEHandle@@@@QAE@XZ 10002b10 f i bot.obj
 0001:00001b20       ??0?$dataQueue@VCBotTask@@@@QAE@XZ 10002b20 f i bot.obj
 0001:00001b30       ??0?$dataStack@H@@QAE@XZ   10002b30 f i bot.obj
 0001:00001b40       ??0?$dataStack@PAUedict_s@@@@QAE@XZ 10002b40 f i bot.obj
 0001:00001b50       ??0?$dataStack@PAVCMasterEntity@@@@QAE@XZ 10002b50 f i bot.obj
 0001:00001b60       ??0?$dataStack@VCStructure@@@@QAE@XZ 10002b60 f i bot.obj
 0001:00001b70       ??0?$dataStack@VMyEHandle@@@@QAE@XZ 10002b70 f i bot.obj
 0001:00001b80       ??0?$dataUnconstArray@H@@QAE@XZ 10002b80 f i bot.obj
 0001:00001ba0       ??0?$dataUnconstArray@PAUedict_s@@@@QAE@XZ 10002ba0 f i bot.obj
 0001:00001bc0       ??0?$dataUnconstArray@PBD@@QAE@XZ 10002bc0 f i bot.obj
 0001:00001be0       ??0?$vector@HV?$allocator@H@std@@@std@@QAE@XZ 10002be0 f i bot.obj
 0001:00001c00       ??0?$vector@MV?$allocator@M@std@@@std@@QAE@ABV01@@Z 10002c00 f i bot.obj
 0001:00001c60       ??0?$vector@MV?$allocator@M@std@@@std@@QAE@XZ 10002c60 f i bot.obj
 0001:00001c80       ??0?$vector@PAUedict_s@@V?$allocator@PAUedict_s@@@std@@@std@@QAE@XZ 10002c80 f i bot.obj
 0001:00001ca0       ??0?$vector@PAVIIndividual@@V?$allocator@PAVIIndividual@@@std@@@std@@QAE@XZ 10002ca0 f i bot.obj
 0001:00001cc0       ??0?$vector@PBDV?$allocator@PBD@std@@@std@@QAE@XZ 10002cc0 f i bot.obj
 0001:00001ce0       ??0?$vector@VCActionUtility@@V?$allocator@VCActionUtility@@@std@@@std@@QAE@XZ 10002ce0 f i bot.obj
 0001:00001d00       ??0CActionUtilities@@QAE@XZ 10002d00 f i bot.obj
 0001:00001d20       ??0CActionUtility@@QAE@W4eCanDoStuff@@M@Z 10002d20 f i bot.obj
 0001:00001d40       ??0CBotFailedPath@@QAE@PAUpath@@@Z 10002d40 f i bot.obj
 0001:00001d60       ??0CBotFailedPath@@QAE@XZ  10002d60 f i bot.obj
 0001:00001d70       ??0CBotSquad@@QAE@PAUedict_s@@0@Z 10002d70 f i bot.obj
 0001:00001e20       ??0CBotTask@@QAE@ABV0@@Z   10002e20 f i bot.obj
 0001:00001e80       ??0CBotTask@@QAE@W4eBotTask@@HPAUedict_s@@HMVVector@@M@Z 10002e80 f i bot.obj
 0001:00001f00       ??0CBotTask@@QAE@XZ        10002f00 f i bot.obj
 0001:00001f20       ??0CGA@@QAE@H@Z            10002f20 f i bot.obj
 0001:00001fe0       ??0CIntGAValues@@QAE@H@Z   10002fe0 f i bot.obj
 0001:00002000       ??0CLearnedHeader@@QAE@H@Z 10003000 f   bot.obj
 0001:00002030       ??0CPopulation@@QAE@XZ     10003030 f i bot.obj
 0001:00002050       ??0CRememberPosition@@QAE@ABV0@@Z 10003050 f i bot.obj
 0001:00002090       ??0CRememberPosition@@QAE@VVector@@PAUedict_s@@@Z 10003090 f i bot.obj
 0001:000020c0       ??0CRouletteSelection@@QAE@XZ 100030c0 f i bot.obj
 0001:000020d0       ??0CStructure@@QAE@PAUedict_s@@@Z 100030d0 f i bot.obj
 0001:000020f0       ??0CStructure@@QAE@XZ      100030f0 f i bot.obj
 0001:00002110       ??0CStructures@@QAE@XZ     10003110 f i bot.obj
 0001:00002160       ??0IIndividual@@QAE@XZ     10003160 f i bot.obj
 0001:00002170       ??0ISelection@@QAE@XZ      10003170 f i bot.obj
 0001:00002180       ??0TSObjective@@QAE@ABV0@@Z 10003180 f i bot.obj
 0001:000021b0       ??0TraceResult@@QAE@XZ     100031b0 f i bot.obj
 0001:000021c0       ??0Vector@@QAE@ABV0@@Z     100031c0 f i bot.obj
 0001:000021e0       ??0Vector@@QAE@MMM@Z       100031e0 f i bot.obj
 0001:00002210       ??0Vector@@QAE@QAM@Z       10003210 f i bot.obj
 0001:00002230       ??0Vector@@QAE@XZ          10003230 f i bot.obj
 0001:00002240       ??0usercmd_s@@QAE@XZ       10003240 f i bot.obj
 0001:00002250       ??1?$dataUnconstArray@H@@QAE@XZ 10003250 f i bot.obj
 0001:00002280       ??1?$dataUnconstArray@PAUedict_s@@@@QAE@XZ 10003280 f i bot.obj
 0001:000022b0       ??1?$dataUnconstArray@PBD@@QAE@XZ 100032b0 f i bot.obj
 0001:000022e0       ??1?$vector@HV?$allocator@H@std@@@std@@QAE@XZ 100032e0 f i bot.obj
 0001:00002310       ??1?$vector@MV?$allocator@M@std@@@std@@QAE@XZ 10003310 f i bot.obj
 0001:00002340       ??1?$vector@PAUedict_s@@V?$allocator@PAUedict_s@@@std@@@std@@QAE@XZ 10003340 f i bot.obj
 0001:00002370       ??1?$vector@PAVIIndividual@@V?$allocator@PAVIIndividual@@@std@@@std@@QAE@XZ 10003370 f i bot.obj
 0001:000023a0       ??1?$vector@PBDV?$allocator@PBD@std@@@std@@QAE@XZ 100033a0 f i bot.obj
 0001:000023d0       ??1?$vector@VCActionUtility@@V?$allocator@VCActionUtility@@@std@@@std@@QAE@XZ 100033d0 f i bot.obj
 0001:00002400       ??1CActionUtilities@@QAE@XZ 10003400 f i bot.obj
 0001:00002430       ??1CBotGAValues@@QAE@XZ    10003430 f i bot.obj
 0001:00002460       ??1CBotSquad@@QAE@XZ       10003460 f i bot.obj
 0001:000024a0       ??1CBotVisibles@@QAE@XZ    100034a0 f i bot.obj
 0001:000024d0       ??1CGA@@QAE@XZ             100034d0 f i bot.obj
 0001:00002520       ??1CPerceptron@@QAE@XZ     10003520 f i bot.obj
 0001:00002590       ??1CPopulation@@QAE@XZ     10003590 f i bot.obj
 0001:000025c0       ??2@YAPAXIPAX@Z            100035c0 f i bot.obj
 0001:000025d0       ??3@YAXPAX0@Z              100035d0 f i bot.obj
 0001:000025e0       ??8?$_Vector_const_iterator@V?$_Vector_val@U?$_Simple_types@VCRememberPosition@@@std@@@std@@@std@@QBE_NABV01@@Z 100035e0 f i bot.obj
 0001:00002600       ??8CBotTask@@QAEHABV0@@Z   10003600 f   bot.obj
 0001:00002680       ??8CLearnedHeader@@QAEHV0@@Z 10003680 f   bot.obj
 0001:000026e0       ??8CRememberPosition@@QAEHV0@@Z 100036e0 f i bot.obj
 0001:00002710       ??8CStructure@@QAEHV0@@Z   10003710 f i bot.obj
 0001:00002730       ??8Vector@@QBEHABV0@@Z     10003730 f i bot.obj
 0001:00002770       ??9?$_Vector_const_iterator@V?$_Vector_val@U?$_Simple_types@VCRememberPosition@@@std@@@std@@@std@@QBE_NABV01@@Z 10003770 f i bot.obj
 0001:00002790       ??9CLearnedHeader@@QAEHV0@@Z 10003790 f i bot.obj
 0001:000027d0       ??9Vector@@QBEHABV0@@Z     100037d0 f i bot.obj
 0001:00002820       ??A?$dataUnconstArray@VCRememberPosition@@@@QAEAAVCRememberPosition@@H@Z 10003820 f i bot.obj
 0001:00002870       ??A?$vector@HV?$allocator@H@std@@@std@@QAEAAHI@Z 10003870 f i bot.obj
 0001:00002880       ??A?$vector@PADV?$allocator@PAD@std@@@std@@QAEAAPADI@Z 10003880 f i bot.obj
 0001:00002890       ??A?$vector@PAUedict_s@@V?$allocator@PAUedict_s@@@std@@@std@@QAEAAPAUedict_s@@I@Z 10003890 f i bot.obj
 0001:000028a0       ??A?$vector@PBDV?$allocator@PBD@std@@@std@@QAEAAPBDI@Z 100038a0 f i bot.obj
 0001:000028b0       ??A?$vector@VCActionUtility@@V?$allocator@VCActionUtility@@@std@@@std@@QAEAAVCActionUtility@@I@Z 100038b0 f i bot.obj
 0001:000028c0       ??A?$vector@VCRememberPosition@@V?$allocator@VCRememberPosition@@@std@@@std@@QAEAAVCRememberPosition@@I@Z 100038c0 f i bot.obj
 0001:000028e0       ??A?$vector@VTSObjective@@V?$allocator@VTSObjective@@@std@@@std@@QAEAAVTSObjective@@I@Z 100038e0 f i bot.obj
 0001:00002900       ??BVector@@QAEPAMXZ        10003900 f i bot.obj
 0001:00002910       ??D?$_Vector_const_iterator@V?$_Vector_val@U?$_Simple_types@VCRememberPosition@@@std@@@std@@@std@@QBEABVCRememberPosition@@XZ 10003910 f i bot.obj
 0001:00002920       ??D?$_Vector_iterator@V?$_Vector_val@U?$_Simple_types@VCRememberPosition@@@std@@@std@@@std@@QBEAAVCRememberPosition@@XZ 10003920 f i bot.obj
 0001:00002930       ??D@YA?AVVector@@MABV0@@Z  10003930 f i bot.obj
 0001:00002970       ??DVector@@QBE?AV0@M@Z     10003970 f i bot.obj
 0001:000029b0       ??E?$_Vector_const_iterator@V?$_Vector_val@U?$_Simple_types@VCRememberPosition@@@std@@@std@@@std@@QAEAAV01@XZ 100039b0 f i bot.obj
 0001:000029c0       ??E?$_Vector_iterator@V?$_Vector_val@U?$_Simple_types@VCRememberPosition@@@std@@@std@@@std@@QAEAAV01@XZ 100039c0 f i bot.obj
 0001:000029d0       ??GVector@@QBE?AV0@ABV0@@Z 100039d0 f i bot.obj
 0001:00002a10       ??GVector@@QBE?AV0@XZ      10003a10 f i bot.obj
 0001:00002a50       ??HVector@@QBE?AV0@ABV0@@Z 10003a50 f i bot.obj
 0001:00002a90       ??KVector@@QBE?AV0@M@Z     10003a90 f i bot.obj
 0001:00002ad0       ??_GCBotGAValues@@QAEPAXI@Z 10003ad0 f i bot.obj
 0001:00002b20       ??_GCBotSquad@@QAEPAXI@Z   10003b20 f i bot.obj
 0001:00002b50       ??_GCBotVisibles@@QAEPAXI@Z 10003b50 f i bot.obj
 0001:00002ba0       ??_GCGA@@QAEPAXI@Z         10003ba0 f i bot.obj
 0001:00002c10       ??_GCPerceptron@@QAEPAXI@Z 10003c10 f i bot.obj
 0001:00002c40       ?Add@?$dataQueue@VCBotTask@@@@QAEXABVCBotTask@@@Z 10003c40 f i bot.obj
 0001:00002cc0       ?Add@?$dataUnconstArray@H@@QAEXH@Z 10003cc0 f i bot.obj
 0001:00002cd0       ?Add@?$dataUnconstArray@PAUedict_s@@@@QAEXQAUedict_s@@@Z 10003cd0 f i bot.obj
 0001:00002ce0       ?Add@?$dataUnconstArray@PBD@@QAEXQBD@Z 10003ce0 f i bot.obj
 0001:00002cf0       ?Add@?$dataUnconstArray@VCRememberPosition@@@@QAEXVCRememberPosition@@@Z 10003cf0 f i bot.obj
 0001:00002d00       ?AddFailedPath@CBotFailedPaths@@QAEXPAUpath@@@Z 10003d00 f i bot.obj
 0001:00002d70       ?AddFront@?$dataQueue@VCBotTask@@@@QAEXABVCBotTask@@@Z 10003d70 f i bot.obj
 0001:00002de0       ?AddMember@CBotSquad@@QAEXPAUedict_s@@@Z 10003de0 f i bot.obj
 0001:00002e40       ?AddPriorityTask@CBot@@QAEXABVCBotTask@@@Z 10003e40 f   bot.obj
 0001:00002e70       ?AddSquadMember@CBotSquads@@QAEPAVCBotSquad@@PAUedict_s@@0@Z 10003e70 f   bot.obj
 0001:00003060       ?AddStructure@CStructures@@QAEXPAUedict_s@@H@Z 10004060 f i bot.obj
 0001:00003100       ?AddTask@CBot@@QAEXABVCBotTask@@@Z 10004100 f   bot.obj
 0001:00003110       ?AddTaskToEnd@CBotTasks@@QAEXABVCBotTask@@@Z 10004110 f i bot.obj
 0001:00003120       ?AddTaskToFront@CBotTasks@@QAEXABVCBotTask@@@Z 10004120 f i bot.obj
 0001:00003140       ?AddToSquad@CBot@@QAEXPAUedict_s@@@Z 10004140 f   bot.obj
 0001:000031e0       ?AddVisitedResourceTower@CBot@@QAEXPAUedict_s@@@Z 100041e0 f   bot.obj
 0001:00003240       ?AltButton@CBot@@QAEXXZ    10004240 f i bot.obj
 0001:00003260       ?AssertMessage@@YAXHPADZZ  10004260 f   bot.obj
 0001:00003290       ?AverageRepOnServer@CBotReputations@@QAEHXZ 10004290 f i bot.obj
 0001:000032d0       ?Blocked@CBot@@QAEXPAUedict_s@@@Z 100042d0 f   bot.obj
 0001:00003340       ?BotChat@CBot@@QAEXW4eBotChatType@@PAUedict_s@@H@Z 10004340 f   bot.obj
 0001:00003720       ?BotCommand@CBot@@QAEXXZ   10004720 f   bot.obj
 0001:00003b60       ?BotEvent@CBot@@QAEXW4eBotEvent@@PAUedict_s@@1PAM@Z 10004b60 f   bot.obj
 0001:00004860       ?BotFile_Write@@YAXPAD@Z   10005860 f   bot.obj
 0001:00004900       ?BotFunc_BreakableIsEnemy@@YAHPAUedict_s@@0@Z 10005900 f   bot.obj
 0001:000049b0       ?BotFunc_ChangeAngles@@YAXPAM000@Z 100059b0 f   bot.obj
 0001:00004a90       ?BotFunc_DecreaseRep@@YAHHMM@Z 10005a90 f   bot.obj
 0001:00004b10       ?BotFunc_DistanceBetweenEdicts@@YAMPAUedict_s@@0@Z 10005b10 f   bot.obj
 0001:00004b80       ?BotFunc_EntityIsMoving@@YAHPAUentvars_s@@@Z 10005b80 f   bot.obj
 0001:00004c10       ?BotFunc_FillString@@YAHPADPBD1H@Z 10005c10 f   bot.obj
 0001:00004d40       ?BotFunc_FindNearestButton@@YAPAUedict_s@@VVector@@PAUentvars_s@@PAV2@@Z 10005d40 f   bot.obj
 0001:00005060       ?BotFunc_FindRandomEntity@@YAPAUedict_s@@PAD@Z 10006060 f   bot.obj
 0001:00005200       ?BotFunc_GetBitSetOf@@YAHH@Z 10006200 f   bot.obj
 0001:00005220       ?BotFunc_GetRandomPlayerName@@YAPBDPAVCBot@@H@Z 10006220 f   bot.obj
 0001:000053d0       ?BotFunc_GetStructureForGorgeBuild@@YAHPAUentvars_s@@0@Z 100063d0 f   bot.obj
 0001:000056d0       ?BotFunc_GetStructuresToBuildForEntity@@YAHW4AvHUser3@@PAH111@Z 100066d0 f   bot.obj
 0001:000057c0       ?BotFunc_IncreaseRep@@YAHHMM@Z 100067c0 f   bot.obj
 0001:00005800       ?BotFunc_IsLongRangeWeapon@@YAHH@Z 10006800 f   bot.obj
 0001:00005860       ?BotFunc_MakeSquad@@YAXPAVCClient@@@Z 10006860 f   bot.obj
 0001:000058d0       ?BotHasEnemy@CBotCam@@QAEHXZ 100068d0 f i bot.obj
 0001:000058f0       ?BotMessage@@YAXPAUedict_s@@HPADZZ 100068f0 f   bot.obj
 0001:00005a30       ?BotPrintTalkMessage@@YAXPADZZ 10006a30 f   bot.obj
 0001:00005a90       ?BotPrintTalkMessageOne@@YAXPAUedict_s@@PADZZ 10006a90 f   bot.obj
 0001:00005ad0       ?BotSquadLeaderThink@CBot@@QAEXXZ 10006ad0 f   bot.obj
 0001:00005b10       ?BotWantsCombatItem@CBot@@QAEHH@Z 10006b10 f i bot.obj
 0001:00005b30       ?BugMessage@@YAXPAUedict_s@@PADZZ 10006b30 f   bot.obj
 0001:00005b90       ?CanAddToSquad@CBot@@QAEHPAUedict_s@@@Z 10006b90 f   bot.obj
 0001:00005be0       ?CanAvoid@CBot@@QAEHPAUedict_s@@MM@Z 10006be0 f   bot.obj
 0001:00006050       ?CanBuild@CBot@@QAEHPAUedict_s@@PAH@Z 10007050 f   bot.obj
 0001:00006150       ?CanFire@CMasterEntity@@QAE?AW4eMasterType@@PAUedict_s@@@Z 10007150 f   bot.obj
 0001:000061a0       ?CanGetMorePrimaryAmmo@CBotWeapon@@QAEHXZ 100071a0 f i bot.obj
 0001:000061f0       ?CanPickup@CBot@@QAEHPAUedict_s@@@Z 100071f0 f   bot.obj
 0001:00006500       ?CanShootSecondary@CBotWeapon@@QAEHXZ 10007500 f i bot.obj
 0001:00006520       ?CanUseTank@CBot@@QAEHPAUedict_s@@@Z 10007520 f i bot.obj
 0001:00006560       ?ChangeAngles@CBot@@QAEXPAM000@Z 10007560 f   bot.obj
 0001:00006580       ?ChangeFormation@CBotSquad@@QAEXW4eSquadForm@@@Z 10007580 f i bot.obj
 0001:00006590       ?ChangeLeader@CBotSquad@@QAEXXZ 10007590 f i bot.obj
 0001:00006610       ?ChangeLeader@CBotSquads@@QAEXPAVCBotSquad@@@Z 10007610 f   bot.obj
 0001:000066c0       ?ChangeScheduleDesc@CBotTask@@QAEXW4eScheduleDesc@@@Z 100076c0 f i bot.obj
 0001:000066d0       ?CheckStuck@CBot@@AAEXXZ   100076d0 f   bot.obj
 0001:00006cc0       ?ChooseFromStack@?$dataStack@H@@QAEHXZ 10007cc0 f i bot.obj
 0001:00006cd0       ?ChooseFromStack@?$dataStack@PAUedict_s@@@@QAEPAUedict_s@@XZ 10007cd0 f i bot.obj
 0001:00006ce0       ?ChooseFromStack@?$dataStack@PAVCBotSquad@@@@QAEPAVCBotSquad@@XZ 10007ce0 f i bot.obj
 0001:00006cf0       ?ChooseFromStack@?$dataStack@PAVCMasterEntity@@@@QAEPAVCMasterEntity@@XZ 10007cf0 f i bot.obj
 0001:00006d00       ?ChooseFromStack@?$dataStack@VMyEHandle@@@@QAE?AVMyEHandle@@XZ 10007d00 f i bot.obj
 0001:00006d20       ?ChoosePointerFrom@?$dataQueue@VCBotTask@@@@QAEPAVCBotTask@@XZ 10007d20 f i bot.obj
 0001:00006d30       ?ChoosePointerFromStack@?$dataStack@VCBotFailedPath@@@@QAEPAVCBotFailedPath@@XZ 10007d30 f i bot.obj
 0001:00006d40       ?ChoosePointerFromStack@?$dataStack@VCBotReputation@@@@QAEPAVCBotReputation@@XZ 10007d40 f i bot.obj
 0001:00006d50       ?ChoosePointerFromStack@?$dataStack@VCStructure@@@@QAEPAVCStructure@@XZ 10007d50 f i bot.obj
 0001:00006d60       ?ChoosePointerFromStack@?$dataStack@VCTFCBackpack@@@@QAEPAVCTFCBackpack@@XZ 10007d60 f i bot.obj
 0001:00006d70       ?ChoosePointerFromStack@?$dataStack@VMyEHandle@@@@QAEPAVMyEHandle@@XZ 10007d70 f i bot.obj
 0001:00006d80       ?Clear@?$dataUnconstArray@H@@QAEXXZ 10007d80 f i bot.obj
 0001:00006d90       ?Clear@?$dataUnconstArray@PAUedict_s@@@@QAEXXZ 10007d90 f i bot.obj
 0001:00006da0       ?Clear@?$dataUnconstArray@PBD@@QAEXXZ 10007da0 f i bot.obj
 0001:00006db0       ?Clear@?$dataUnconstArray@VTSObjective@@@@QAEXXZ 10007db0 f i bot.obj
 0001:00006dc0       ?ClearFailedPaths@CBotFailedPaths@@QAEXXZ 10007dc0 f i bot.obj
 0001:00006df0       ?ClearSquad@CBot@@QAEXXZ   10007df0 f i bot.obj
 0001:00006e10       ?CrossProduct@@YA?AVVector@@ABV1@0@Z 10007e10 f i bot.obj
 0001:00006e70       ?CurrentRep@CBotReputation@@QAEHXZ 10007e70 f i bot.obj
 0001:00006e80       ?CurrentTask@CBotTasks@@QAEPAVCBotTask@@XZ 10007e80 f i bot.obj
 0001:00006e90       ?DebugMessage@@YAXHPAUedict_s@@HPADZZ 10007e90 f   bot.obj
 0001:000070b0       ?DecreaseRep@CBotReputations@@QAEXH@Z 100080b0 f i bot.obj
 0001:00007100       ?Destroy@?$dataQueue@VCBotTask@@@@QAEXXZ 10008100 f i bot.obj
 0001:00007140       ?Destroy@?$dataStack@H@@QAEXXZ 10008140 f i bot.obj
 0001:00007170       ?Destroy@?$dataStack@PAUedict_s@@@@QAEXXZ 10008170 f i bot.obj
 0001:000071a0       ?Destroy@?$dataStack@VCBotFailedPath@@@@QAEXXZ 100081a0 f i bot.obj
 0001:000071d0       ?Destroy@?$dataStack@VCBotReputation@@@@QAEXXZ 100081d0 f i bot.obj
 0001:00007200       ?Destroy@?$dataStack@VCStructure@@@@QAEXXZ 10008200 f i bot.obj
 0001:00007230       ?Destroy@?$dataStack@VMyEHandle@@@@QAEXXZ 10008230 f i bot.obj
 0001:00007260       ?Destroy@?$dataUnconstArray@H@@QAEXXZ 10008260 f i bot.obj
 0001:00007270       ?Destroy@?$dataUnconstArray@PAUedict_s@@@@QAEXXZ 10008270 f i bot.obj
 0001:00007280       ?Destroy@?$dataUnconstArray@PBD@@QAEXXZ 10008280 f i bot.obj
 0001:00007290       ?Destroy@?$dataUnconstArray@VTSObjective@@@@QAEXXZ 10008290 f i bot.obj
 0001:000072a0       ?Destroy@CBotReputations@@QAEXXZ 100082a0 f i bot.obj
 0001:000072d0       ?DistanceFrom@CBot@@QAEMABVVector@@H@Z 100082d0 f   bot.obj
 0001:000073b0       ?DistanceFromEdict@CBot@@QAEMPAUedict_s@@@Z 100083b0 f   bot.obj
 0001:000073e0       ?DoTasks@CBot@@AAEXXZ      100083e0 f   bot.obj
 0001:0000e720       ?DotProduct@@YAMABVVector@@0@Z 1000f720 f i bot.obj
 0001:0000e740       ?DotProductFromOrigin@CBot@@QAEMPAVVector@@@Z 1000f740 f   bot.obj
 0001:0000e8a0       ?Duck@CBot@@QAEXXZ         1000f8a0 f i bot.obj
 0001:0000e8b0       ?DuckAndJump@CBot@@QAEXXZ  1000f8b0 f   bot.obj
 0001:0000e920       ?ENT@@YAPAUedict_s@@H@Z    1000f920 f i bot.obj
 0001:0000e930       ?ENT@@YAPAUedict_s@@PBUentvars_s@@@Z 1000f930 f i bot.obj
 0001:0000e940       ?ENTINDEX@@YAHPAUedict_s@@@Z 1000f940 f i bot.obj
 0001:0000e950       ?EnemyDown@CBot@@QAEXPAUedict_s@@@Z 1000f950 f   bot.obj
 0001:0000e960       ?EnemyFound@CBot@@QAEXPAUedict_s@@@Z 1000f960 f   bot.obj
 0001:0000ed20       ?EntityIsAlien@@YAHPAUedict_s@@@Z 1000fd20 f   bot.obj
 0001:0000ed50       ?EntityIsAlienStruct@@YAHPAUedict_s@@@Z 1000fd50 f   bot.obj
 0001:0000ed80       ?EntityIsAlive@@YAHPAUedict_s@@@Z 1000fd80 f   bot.obj
 0001:0000ede0       ?EntityIsBuildable@@YAHPAUedict_s@@@Z 1000fde0 f   bot.obj
 0001:0000ee00       ?EntityIsCommander@@YAHPAUedict_s@@@Z 1000fe00 f   bot.obj
 0001:0000ee20       ?EntityIsMarine@@YAHPAUedict_s@@@Z 1000fe20 f   bot.obj
 0001:0000ee40       ?EntityIsMarineStruct@@YAHPAUedict_s@@@Z 1000fe40 f   bot.obj
 0001:0000eea0       ?EntityIsSelectable@@YAHPAUedict_s@@@Z 1000fea0 f   bot.obj
 0001:0000eed0       ?EntityIsWeldable@@YAHPAUedict_s@@@Z 1000fed0 f   bot.obj
 0001:0000f060       ?FIND_ENTITY_BY_TARGET@@YAPAUedict_s@@PAU1@PBD@Z 10010060 f i bot.obj
 0001:0000f080       ?FIND_ENTITY_BY_TARGETNAME@@YAPAUedict_s@@PAU1@PBD@Z 10010080 f i bot.obj
 0001:0000f0a0       ?FInViewCone@CBot@@QAEHPAVVector@@@Z 100100a0 f   bot.obj
 0001:0000f0f0       ?FNullEnt@@YAHH@Z          100100f0 f i bot.obj
 0001:0000f100       ?FNullEnt@@YAHPBUedict_s@@@Z 10010100 f i bot.obj
 0001:0000f130       ?FStrEq@@YAHPBD0@Z         10010130 f i bot.obj
 0001:0000f180       ?FVisible@CBot@@QAEHABVVector@@@Z 10010180 f   bot.obj
 0001:0000f200       ?FVisible@CBot@@QAEHPAUedict_s@@@Z 10010200 f   bot.obj
 0001:0000f3c0       ?FacingIdeal@CBot@@QAEHXZ  100103c0 f   bot.obj
 0001:0000f470       ?FindBackPack@CBot@@QAEXHHHHHHH@Z 10010470 f   bot.obj
 0001:0000f680       ?FindButton@CMasterEntity@@QAEPAUedict_s@@VVector@@@Z 10010680 f   bot.obj
 0001:0000f930       ?FindEnemy@CBot@@QAEPAUedict_s@@XZ 10010930 f   bot.obj
 0001:0000fdd0       ?FinishSchedule@CBotTasks@@QAEHH@Z 10010dd0 f i bot.obj
 0001:0000fe30       ?FinishSchedule@CBotTasks@@QAEHW4eScheduleDesc@@@Z 10010e30 f i bot.obj
 0001:0000fe90       ?FinishedCurrentTask@CBotTasks@@QAEXH@Z 10010e90 f i bot.obj
 0001:0000fef0       ?FlapWings@CBot@@AAEXXZ    10010ef0 f   bot.obj
 0001:0000ff50       ?FlushTasks@CBotTasks@@QAEXXZ 10010f50 f i bot.obj
 0001:0000ff90       ?FreeLocalMemory@CBot@@QAEXXZ 10010f90 f   bot.obj
 0001:000104a0       ?FreeLocalMemory@CStructures@@QAEXXZ 100114a0 f i bot.obj
 0001:000104e0       ?GET_PRIVATE@@YAPAXPAUedict_s@@@Z 100114e0 f i bot.obj
 0001:00010500       ?Get@MyEHandle@@QBEPAUedict_s@@XZ 10011500 f i bot.obj
 0001:00010520       ?GetAimVector@CBot@@QAE?AVVector@@PAUedict_s@@@Z 10011520 f   bot.obj
 0001:00010d60       ?GetButtonForEntity@CMasterEntities@@QAEPAUedict_s@@PAU2@VVector@@@Z 10011d60 f i bot.obj
 0001:00010dc0       ?GetClassname@CBotWeapon@@QAEPADXZ 10011dc0 f i bot.obj
 0001:00010dd0       ?GetClassname@CWeapon@@QAEPADXZ 10011dd0 f i bot.obj
 0001:00010de0       ?GetClientByEdict@CClients@@QAEPAVCClient@@PAUedict_s@@@Z 10011de0 f i bot.obj
 0001:00010e30       ?GetClientByIndex@CClients@@QAEPAVCClient@@H@Z 10011e30 f i bot.obj
 0001:00010e50       ?GetClimbType@CBot@@QAE?AW4eClimbType@@XZ 10011e50 f   bot.obj
 0001:00010f50       ?GetCommander@CBotGlobals@@QAEPAUedict_s@@XZ 10011f50 f i bot.obj
 0001:00010f60       ?GetEntity@CStructure@@QAEPAUedict_s@@XZ 10011f60 f i bot.obj
 0001:00010f70       ?GetFormationPosition@CBotSquad@@QAEHPAUedict_s@@@Z 10011f70 f i bot.obj
 0001:00010fc0       ?GetFormationVector@CBotSquad@@QAE?AVVector@@PAUedict_s@@@Z 10011fc0 f   bot.obj
 0001:000113d0       ?GetFrontPointer@?$dataQueue@VCBotTask@@@@QAEPAVCBotTask@@XZ 100123d0 f i bot.obj
 0001:000113e0       ?GetGunPosition@CBot@@QAE?AVVector@@XZ 100123e0 f i bot.obj
 0001:00011430       ?GetHeadInfoPointer@?$dataStack@H@@QAEPAHXZ 10012430 f i bot.obj
 0001:00011440       ?GetID@CBotWeapon@@QBEHXZ  10012440 f i bot.obj
 0001:00011450       ?GetLadderAngles@CBot@@QAE?AVVector@@XZ 10012450 f i bot.obj
 0001:00011480       ?GetLadderDir@CBot@@QAEHH@Z 10012480 f   bot.obj
 0001:00011530       ?GetLeader@CBotSquad@@QBEPAUedict_s@@XZ 10012530 f i bot.obj
 0001:00011540       ?GetMaster@CMasterEntities@@AAEPAVCMasterEntity@@PAUedict_s@@@Z 10012540 f i bot.obj
 0001:00011570       ?GetNewScheduleId@CBotTasks@@QAEHXZ 10012570 f i bot.obj
 0001:000115c0       ?GetNextWaypoint@CBot@@QAEHXZ 100125c0 f i bot.obj
 0001:00011600       ?GetPlayer@CClient@@QBEPAUedict_s@@XZ 10012600 f i bot.obj
 0001:00011610       ?GetPlayerRepId@CClient@@QBEHXZ 10012610 f i bot.obj
 0001:00011620       ?GetPrimaryWeaponId@CBotWeapons@@QAEHXZ 10012620 f i bot.obj
 0001:00011660       ?GetRep@CBotReputations@@QAEPAVCBotReputation@@H@Z 10012660 f i bot.obj
 0001:00011690       ?GetScheduleDesc@CBotTask@@QAE?AW4eScheduleDesc@@XZ 10012690 f i bot.obj
 0001:000116a0       ?GetScheduleId@CBotTask@@QBEHXZ 100126a0 f i bot.obj
 0001:000116b0       ?GetSecondaryWeaponId@CBotWeapons@@QAEHXZ 100126b0 f i bot.obj
 0001:000116f0       ?GetSpread@CBotSquad@@QBEMXZ 100126f0 f i bot.obj
 0001:00011700       ?GetStructureType@CStructure@@QAEHXZ 10012700 f i bot.obj
 0001:00011710       ?GetTask@CBotTasks@@QAEXW4eBotTask@@PAVCBotTask@@@Z 10012710 f i bot.obj
 0001:000117f0       ?GetTeam@CBot@@QAEHXZ      100127f0 f   bot.obj
 0001:00011800       ?GetThingsToBuild@CThingToBuild@@QAEXPAH000@Z 10012800 f i bot.obj
 0001:00011830       ?GetUsingTank@CBot@@QAEPAUedict_s@@XZ 10012830 f i bot.obj
 0001:00011840       ?GetVector@?$CTypeVector@F@@QBE?AVVector@@XZ 10012840 f i bot.obj
 0001:00011880       ?GetWeapon@CBotWeapons@@QAEPAVCBotWeapon@@H@Z 10012880 f i bot.obj
 0001:000118a0       ?GetWeapon@CWeapons@@QAEPAVCWeapon@@H@Z 100128a0 f i bot.obj
 0001:000118c0       ?GiveSchedIdDescription@CBotTasks@@QAEXHW4eScheduleDesc@@@Z 100128c0 f i bot.obj
 0001:00011910       ?HasCondition@CBot@@QAEHH@Z 10012910 f i bot.obj
 0001:00011930       ?HasJetPack@CBot@@QAEHXZ   10012930 f i bot.obj
 0001:00011960       ?HasPath@CBotTask@@QBEHXZ  10012960 f i bot.obj
 0001:00011970       ?HasSchedule@CBotTasks@@QAEHW4eScheduleDesc@@@Z 10012970 f i bot.obj
 0001:000119c0       ?HasSeenEnemy@CBot@@QAEHPAUedict_s@@@Z 100129c0 f   bot.obj
 0001:000119e0       ?HasTask@CBotTasks@@QAEHVCBotTask@@@Z 100129e0 f i bot.obj
 0001:00011a60       ?HasTask@CBotTasks@@QAEHW4eBotTask@@@Z 10012a60 f i bot.obj
 0001:00011ab0       ?HasUpgraded@CBot@@QAEHH@Z 10012ab0 f   bot.obj
 0001:00011b10       ?HasUser4Mask@CBot@@QAEHH@Z 10012b10 f i bot.obj
 0001:00011b30       ?HasVisitedResourceTower@CBot@@QAEHPAUedict_s@@@Z 10012b30 f   bot.obj
 0001:00011b70       ?HasWeapon@CBot@@QAEHH@Z   10012b70 f   bot.obj
 0001:00011b90       ?HasWeapon@CBotWeapons@@QAEHPAUedict_s@@H@Z 10012b90 f i bot.obj
 0001:00011bc0       ?HearSound@CBot@@QAEXW4eSoundType@@VVector@@PAUedict_s@@@Z 10012bc0 f   bot.obj
 0001:00012040       ?INDEXENT@@YAPAUedict_s@@H@Z 10013040 f i bot.obj
 0001:00012050       ?Impulse@CBot@@QAEXH@Z     10013050 f i bot.obj
 0001:00012070       ?InSquad@CBot@@QAEHPAVCBotSquad@@@Z 10013070 f i bot.obj
 0001:00012090       ?IncreaseRep@CBotReputations@@QAEXH@Z 10013090 f i bot.obj
 0001:000120e0       ?Init@?$dataQueue@VCBotTask@@@@QAEXXZ 100130e0 f i bot.obj
 0001:000120f0       ?Init@?$dataStack@H@@QAEXXZ 100130f0 f i bot.obj
 0001:00012100       ?Init@?$dataStack@PAUedict_s@@@@QAEXXZ 10013100 f i bot.obj
 0001:00012110       ?Init@?$dataStack@PAVCBotSquad@@@@QAEXXZ 10013110 f i bot.obj
 0001:00012120       ?Init@?$dataStack@PAVCMasterEntity@@@@QAEXXZ 10013120 f i bot.obj
 0001:00012130       ?Init@?$dataStack@VCBotFailedPath@@@@QAEXXZ 10013130 f i bot.obj
 0001:00012140       ?Init@?$dataStack@VCBotReputation@@@@QAEXXZ 10013140 f i bot.obj
 0001:00012150       ?Init@?$dataStack@VCStructure@@@@QAEXXZ 10013150 f i bot.obj
 0001:00012160       ?Init@?$dataStack@VMyEHandle@@@@QAEXXZ 10013160 f i bot.obj
 0001:00012170       ?Init@?$dataUnconstArray@H@@QAEXXZ 10013170 f i bot.obj
 0001:00012180       ?Init@?$dataUnconstArray@PAUedict_s@@@@QAEXXZ 10013180 f i bot.obj
 0001:00012190       ?Init@?$dataUnconstArray@PBD@@QAEXXZ 10013190 f i bot.obj
 0001:000121a0       ?Init@?$dataUnconstArray@VTSObjective@@@@QAEXXZ 100131a0 f i bot.obj
 0001:000121b0       ?Init@CBot@@QAEXXZ         100131b0 f   bot.obj
 0001:000123f0       ?Init@CBotReputations@@QAEXXZ 100133f0 f i bot.obj
 0001:00012400       ?Init@CBotSquad@@QAEXXZ    10013400 f i bot.obj
 0001:00012440       ?Instance@CBaseEntity@@SAPAV1@PAUedict_s@@@Z 10013440 f i bot.obj
 0001:00012460       ?Instance@CBaseEntity@@SAPAV1@PAUentvars_s@@@Z 10013460 f i bot.obj
 0001:00012490       ?IsAlien@CBot@@QAEHXZ      10013490 f   bot.obj
 0001:000124b0       ?IsAlive@CBot@@QAEHXZ      100134b0 f i bot.obj
 0001:000124e0       ?IsCombatMap@CBotGlobals@@QAEHXZ 100134e0 f i bot.obj
 0001:000124f0       ?IsCommander@CBot@@QAEHXZ  100134f0 f   bot.obj
 0001:00012520       ?IsConfigSettingOn@CBotGlobals@@QAEHH@Z 10013520 f i bot.obj
 0001:00012540       ?IsCrouchMode@CBotSquad@@QAEHXZ 10013540 f i bot.obj
 0001:00012550       ?IsCurrentWeapon@CBot@@QAEHH@Z 10013550 f i bot.obj
 0001:00012570       ?IsDebugLevelOn@CBotGlobals@@QAEHH@Z 10013570 f i bot.obj
 0001:00012590       ?IsEmpty@?$dataQueue@VCBotTask@@@@QAEHXZ 10013590 f i bot.obj
 0001:000125b0       ?IsEmpty@?$dataStack@H@@QAEHXZ 100135b0 f i bot.obj
 0001:000125c0       ?IsEmpty@?$dataStack@PAUedict_s@@@@QAEHXZ 100135c0 f i bot.obj
 0001:000125d0       ?IsEmpty@?$dataStack@PAVCBotSquad@@@@QAEHXZ 100135d0 f i bot.obj
 0001:000125e0       ?IsEmpty@?$dataStack@PAVCMasterEntity@@@@QAEHXZ 100135e0 f i bot.obj
 0001:000125f0       ?IsEmpty@?$dataStack@VCBotFailedPath@@@@QAEHXZ 100135f0 f i bot.obj
 0001:00012600       ?IsEmpty@?$dataStack@VCBotReputation@@@@QAEHXZ 10013600 f i bot.obj
 0001:00012610       ?IsEmpty@?$dataStack@VCStructure@@@@QAEHXZ 10013610 f i bot.obj
 0001:00012620       ?IsEmpty@?$dataStack@VCTFCBackpack@@@@QAEHXZ 10013620 f i bot.obj
 0001:00012630       ?IsEmpty@?$dataStack@VMyEHandle@@@@QAEHXZ 10013630 f i bot.obj
 0001:00012640       ?IsEmpty@?$dataUnconstArray@H@@QAE_NXZ 10013640 f i bot.obj
 0001:00012650       ?IsEmpty@?$dataUnconstArray@PAD@@QAE_NXZ 10013650 f i bot.obj
 0001:00012660       ?IsEmpty@?$dataUnconstArray@PAUedict_s@@@@QAE_NXZ 10013660 f i bot.obj
 0001:00012670       ?IsEmpty@?$dataUnconstArray@PBD@@QAE_NXZ 10013670 f i bot.obj
 0001:00012680       ?IsEmpty@?$dataUnconstArray@VCRememberPosition@@@@QAE_NXZ 10013680 f i bot.obj
 0001:00012690       ?IsEmpty@?$dataUnconstArray@VTSObjective@@@@QAE_NXZ 10013690 f i bot.obj
 0001:000126a0       ?IsEnemy@CBot@@QAEHPAUedict_s@@@Z 100136a0 f   bot.obj
 0001:000131f0       ?IsFade@CBot@@QAEHXZ       100141f0 f   bot.obj
 0001:00013220       ?IsForEntity@CMasterEntity@@QAEHPAUedict_s@@@Z 10014220 f i bot.obj
 0001:00013240       ?IsForPath@CBotFailedPath@@QBEHPAUpath@@@Z 10014240 f i bot.obj
 0001:00013260       ?IsForPlayer@CBotReputation@@QAEHH@Z 10014260 f i bot.obj
 0001:00013280       ?IsGestating@CBot@@QAEHXZ  10014280 f   bot.obj
 0001:000132b0       ?IsGorge@CBot@@QAEHXZ      100142b0 f   bot.obj
 0001:000132e0       ?IsHoldingMiniGun@CBot@@QAEHXZ 100142e0 f   bot.obj
 0001:00013310       ?IsInReadyRoom@CBot@@QAEHXZ 10014310 f   bot.obj
 0001:00013330       ?IsInVisibleList@CBot@@QAEHPAUedict_s@@@Z 10014330 f   bot.obj
 0001:00013350       ?IsLeader@CBotSquad@@QBEHPAUedict_s@@@Z 10014350 f i bot.obj
 0001:00013370       ?IsLerk@CBot@@QAEHXZ       10014370 f   bot.obj
 0001:000133a0       ?IsMarine@CBot@@QAEHXZ     100143a0 f   bot.obj
 0001:000133d0       ?IsMelee@CBotWeapon@@QAEHXZ 100143d0 f i bot.obj
 0001:000133e0       ?IsMember@?$dataQueue@VCBotTask@@@@QAEHVCBotTask@@@Z 100143e0 f i bot.obj
 0001:00013420       ?IsMember@?$dataStack@H@@QAEHH@Z 10014420 f i bot.obj
 0001:00013450       ?IsMember@?$dataStack@VCStructure@@@@QAEHVCStructure@@@Z 10014450 f i bot.obj
 0001:00013480       ?IsMember@?$dataUnconstArray@PAUedict_s@@@@QAEHPAUedict_s@@@Z 10014480 f i bot.obj
 0001:000134c0       ?IsMember@CBotSquad@@QAEHPAUedict_s@@@Z 100144c0 f i bot.obj
 0001:00013520       ?IsMod@CBotGlobals@@QAEHH@Z 10014520 f i bot.obj
 0001:00013540       ?IsNS@CBotGlobals@@QAEHXZ  10014540 f i bot.obj
 0001:00013550       ?IsOfSchedule@CBotTask@@QAEHW4eScheduleDesc@@@Z 10014550 f i bot.obj
 0001:00013570       ?IsOnLadder@CBot@@QAEHXZ   10014570 f i bot.obj
 0001:00013590       ?IsOnos@CBot@@QAEHXZ       10014590 f   bot.obj
 0001:000135c0       ?IsPrimary@CBotWeapon@@QAEHXZ 100145c0 f i bot.obj
 0001:000135d0       ?IsProneMode@CBotSquad@@QAEHXZ 100145d0 f i bot.obj
 0001:000135e0       ?IsSecondary@CBotWeapon@@QAEHXZ 100145e0 f i bot.obj
 0001:000135f0       ?IsSkulk@CBot@@QAEHXZ      100145f0 f   bot.obj
 0001:00013620       ?IsSquadLeader@CBot@@QAEHXZ 10014620 f i bot.obj
 0001:00013640       ?IsStealthMode@CBotSquad@@QAEHXZ 10014640 f i bot.obj
 0001:00013650       ?IsUnderAttack@CStructure@@QAEHXZ 10014650 f i bot.obj
 0001:00013670       ?IsUsed@CBot@@QAEHXZ       10014670 f i bot.obj
 0001:00013690       ?IsUsed@CClient@@QAEHXZ    10014690 f i bot.obj
 0001:000136a0       ?IsUsingTank@CBot@@QAEHXZ  100146a0 f   bot.obj
 0001:00013710       ?IsValid@CStructure@@QAEHXZ 10014710 f i bot.obj
 0001:00013760       ?IsVectorSet@?$CTypeVector@F@@QAEHXZ 10014760 f i bot.obj
 0001:00013770       ?IsWallSticking@CBot@@QAEHXZ 10014770 f i bot.obj
 0001:000137a0       ?Jump@CBot@@QAEXXZ         100147a0 f i bot.obj
 0001:000137b0       ?JumpAndDuck@CBot@@QAEXXZ  100147b0 f   bot.obj
 0001:00013880       ?LadderAnglesSet@CBot@@QAEHXZ 10014880 f i bot.obj
 0001:00013890       ?Length2D@Vector@@QBEMXZ   10014890 f i bot.obj
 0001:000138d0       ?Length@Vector@@QBEMXZ     100148d0 f i bot.obj
 0001:00013920       ?LookForNewTasks@CBot@@QAEXXZ 10014920 f   bot.obj
 0001:00018af0       ?MaxPrimaryAmmo@CWeapon@@QAEHXZ 10019af0 f i bot.obj
 0001:00018b00       ?NS_AmountOfEnergy@CBot@@QAEMXZ 10019b00 f i bot.obj
 0001:00018b30       ?NeedMetal@CBot@@QAEXHHH@Z 10019b30 f   bot.obj
 0001:00018d40       ?NoTasksLeft@CBotTasks@@QAEHXZ 10019d40 f i bot.obj
 0001:00018d60       ?Normalize@Vector@@QBE?AV1@XZ 10019d60 f i bot.obj
 0001:00018e10       ?NotStartedGame@CBot@@QAEHXZ 10019e10 f   bot.obj
 0001:00018ef0       ?OFFSET@@YAHPBUedict_s@@@Z 10019ef0 f i bot.obj
 0001:00018f00       ?OutOfAmmo@CBotWeapon@@QAEHXZ 10019f00 f i bot.obj
 0001:00018f20       ?PlayerStandingOnMe@CBot@@QAEPAUedict_s@@XZ 10019f20 f   bot.obj
 0001:00018fa0       ?Pop@?$dataStack@VMyEHandle@@@@QAE?AVMyEHandle@@XZ 10019fa0 f i bot.obj
 0001:00018fd0       ?PrimMinRange@CBotWeapon@@QAEMXZ 10019fd0 f i bot.obj
 0001:00018ff0       ?PrimaryAmmo@CBotWeapon@@QAEHXZ 10019ff0 f i bot.obj
 0001:00019000       ?PrimaryAttack@CBot@@QAEHXZ 1001a000 f   bot.obj
 0001:00019090       ?PrimaryInRange@CBotWeapon@@QAEHM@Z 1001a090 f i bot.obj
 0001:00019100       ?Push@?$dataStack@H@@QAEXH@Z 1001a100 f i bot.obj
 0001:00019150       ?Push@?$dataStack@PAUedict_s@@@@QAEXQAUedict_s@@@Z 1001a150 f i bot.obj
 0001:000191a0       ?Push@?$dataStack@PAVCBotSquad@@@@QAEXQAVCBotSquad@@@Z 1001a1a0 f i bot.obj
 0001:000191f0       ?Push@?$dataStack@VCBotFailedPath@@@@QAEXVCBotFailedPath@@@Z 1001a1f0 f i bot.obj
 0001:00019240       ?Push@?$dataStack@VCStructure@@@@QAEXVCStructure@@@Z 1001a240 f i bot.obj
 0001:00019290       ?Push@?$dataStack@VMyEHandle@@@@QAEXVMyEHandle@@@Z 1001a290 f i bot.obj
 0001:000192d0       ?Random@?$dataUnconstArray@H@@QAEHXZ 1001a2d0 f i bot.obj
 0001:00019300       ?Random@?$dataUnconstArray@PAD@@QAEPADXZ 1001a300 f i bot.obj
 0001:00019330       ?Random@?$dataUnconstArray@PAUedict_s@@@@QAEPAUedict_s@@XZ 1001a330 f i bot.obj
 0001:00019360       ?Random@?$dataUnconstArray@PBD@@QAEPBDXZ 1001a360 f i bot.obj
 0001:00019390       ?Random@?$dataUnconstArray@VTSObjective@@@@QAE?AVTSObjective@@XZ 1001a390 f i bot.obj
 0001:000193f0       ?Reload@CBot@@QAEXXZ       1001a3f0 f i bot.obj
 0001:00019410       ?RememberPosition@CBot@@QAEXVVector@@PAUedict_s@@H@Z 1001a410 f   bot.obj
 0001:00019470       ?Remove@?$dataStack@PAVCBotSquad@@@@QAEHQAVCBotSquad@@@Z 1001a470 f i bot.obj
 0001:000194e0       ?Remove@?$dataUnconstArray@VCRememberPosition@@@@QAEXVCRememberPosition@@@Z 1001a4e0 f i bot.obj
 0001:000195b0       ?RemoveByPointer@?$dataQueue@VCBotTask@@@@QAEHPBVCBotTask@@@Z 1001a5b0 f i bot.obj
 0001:00019650       ?RemoveByPointer@?$dataStack@VCStructure@@@@QAEHPBVCStructure@@@Z 1001a650 f i bot.obj
 0001:000196c0       ?RemoveByPointer@?$dataStack@VMyEHandle@@@@QAEHPBVMyEHandle@@@Z 1001a6c0 f i bot.obj
 0001:00019730       ?RemoveCondition@CBot@@QAEXH@Z 1001a730 f i bot.obj
 0001:00019750       ?RemoveFront@?$dataQueue@VCBotTask@@@@QAEXXZ 1001a750 f i bot.obj
 0001:00019790       ?RemoveMySquad@CBot@@QAEHXZ 1001a790 f   bot.obj
 0001:000197d0       ?RemovePaths@CBotTasks@@QAEXXZ 1001a7d0 f i bot.obj
 0001:00019820       ?RemoveSameTask@CBotTasks@@QAEXABVCBotTask@@@Z 1001a820 f i bot.obj
 0001:000198f0       ?RemoveSimilarTask@CBotTasks@@QAEXW4eBotTask@@@Z 1001a8f0 f i bot.obj
 0001:00019950       ?RemoveSquad@CBotSquads@@QAEXPAVCBotSquad@@@Z 1001a950 f   bot.obj
 0001:00019a50       ?RemoveTimedOutSchedules@CBotTasks@@QAEXXZ 1001aa50 f i bot.obj
 0001:00019ae0       ?RepairSentry@CBot@@AAEXH@Z 1001aae0 f   bot.obj
 0001:00019cc0       ?ReplyToMessage@CBot@@QAEXPADPAUedict_s@@H@Z 1001acc0 f   bot.obj
 0001:00019da0       ?ReturnAllToFormation@CBotSquad@@QAEXXZ 1001ada0 f   bot.obj
 0001:00019ec0       ?RunForCover@CBot@@QAEXVVector@@HH@Z 1001aec0 f   bot.obj
 0001:0001a240       ?RunPlayerMove@CBot@@QAEXXZ 1001b240 f   bot.obj
 0001:0001a3e0       ?SUB_CallUseToggle@CBaseEntity@@QAEXXZ 1001b3e0 f i bot.obj
 0001:0001a400       ?SawSpy@CBot@@AAEXPAUedict_s@@@Z 1001b400 f i bot.obj
 0001:0001a440       ?SayInPosition@CBot@@QAEXXZ 1001b440 f   bot.obj
 0001:0001a4c0       ?SecondaryAmmo@CBotWeapon@@QAEHXZ 1001b4c0 f i bot.obj
 0001:0001a4d0       ?SecondaryAttack@CBot@@QAEHXZ 1001b4d0 f i bot.obj
 0001:0001a500       ?SecondaryInRange@CBotWeapon@@QAEHM@Z 1001b500 f i bot.obj
 0001:0001a530       ?SentryNeedsRepaired@CBot@@AAEHXZ 1001b530 f   bot.obj
 0001:0001a5b0       ?Set@MyEHandle@@QAEXPAUedict_s@@@Z 1001b5b0 f i bot.obj
 0001:0001a5d0       ?SetCombatType@CBotSquad@@QAEXW4eCombatType@@@Z 1001b5d0 f i bot.obj
 0001:0001a6a0       ?SetCurrentBot@CBotCam@@QAEXPAVCBot@@@Z 1001b6a0 f i bot.obj
 0001:0001a6e0       ?SetEdict@CBot@@QAEXPAUedict_s@@@Z 1001b6e0 f   bot.obj
 0001:0001a730       ?SetEdict@CBotTask@@QAEXPAUedict_s@@@Z 1001b730 f i bot.obj
 0001:0001a740       ?SetFloat@CBotTask@@QAEXM@Z 1001b740 f i bot.obj
 0001:0001a760       ?SetInt@CBotTask@@QAEXH@Z  1001b760 f i bot.obj
 0001:0001a770       ?SetLadderAngles@CBot@@QAEXVVector@@@Z 1001b770 f i bot.obj
 0001:0001a7a0       ?SetLeader@CBotSquad@@QAEXPAUedict_s@@@Z 1001b7a0 f i bot.obj
 0001:0001a7b0       ?SetMoveVector@CBot@@QAEXABVVector@@@Z 1001b7b0 f   bot.obj
 0001:0001a7e0       ?SetPathInfo@CBotTask@@QAEXH@Z 1001b7e0 f i bot.obj
 0001:0001a7f0       ?SetSquad@CBot@@QAEXPAVCBotSquad@@@Z 1001b7f0 f i bot.obj
 0001:0001a810       ?SetTimeToComplete@CBotTask@@QAEXM@Z 1001b810 f i bot.obj
 0001:0001a830       ?SetTimeToCompleteSchedule@CBotTasks@@QAEXHM@Z 1001b830 f i bot.obj
 0001:0001a890       ?SetVector@?$CTypeVector@F@@QAEXVVector@@@Z 1001b890 f i bot.obj
 0001:0001a8c0       ?SetVector@CBotTask@@QAEXVVector@@@Z 1001b8c0 f i bot.obj
 0001:0001a8e0       ?SetViewAngles@CBot@@QAEXABVVector@@@Z 1001b8e0 f   bot.obj
 0001:0001ad20       ?Size@?$dataUnconstArray@VCRememberPosition@@@@QAEHXZ 1001bd20 f i bot.obj
 0001:0001ad40       ?SpawnInit@CBot@@QAEXH@Z   1001bd40 f   bot.obj
 0001:0001bab0       ?SquadCanShoot@CBotSquad@@QAEHXZ 1001cab0 f i bot.obj
 0001:0001bac0       ?StandingOnPlayer@CBot@@QAEPAUedict_s@@XZ 1001cac0 f   bot.obj
 0001:0001bae0       ?StartGame@CBot@@QAEXXZ    1001cae0 f   bot.obj
 0001:0001bff0       ?StopMoving@CBot@@QAEXXZ   1001cff0 f   bot.obj
 0001:0001c000       ?SwitchWeapon@CBot@@QAEHH@Z 1001d000 f   bot.obj
 0001:0001c240       ?TFC_UpdateFlagInfo@CBot@@QAEXXZ 1001d240 f   bot.obj
 0001:0001c2a0       ?TFC_teamsAreAllies@CBotGlobals@@QAEHHH@Z 1001d2a0 f i bot.obj
 0001:0001c2d0       ?Task@CBotTask@@QBE?AW4eBotTask@@XZ 1001d2d0 f i bot.obj
 0001:0001c2e0       ?TaskEdict@CBotTask@@QBEPAUedict_s@@XZ 1001d2e0 f i bot.obj
 0001:0001c2f0       ?TaskFloat@CBotTask@@QBEMXZ 1001d2f0 f i bot.obj
 0001:0001c300       ?TaskInt@CBotTask@@QBEHXZ  1001d300 f i bot.obj
 0001:0001c310       ?TaskVector@CBotTask@@QBE?AVVector@@XZ 1001d310 f i bot.obj
 0001:0001c330       ?Think@CBot@@QAEXXZ        1001d330 f   bot.obj
 0001:0001dee0       ?ThinkSpyOnTeam@CBot@@QAEHPAUedict_s@@@Z 1001eee0 f   bot.obj
 0001:0001e070       ?ThrowGrenade@CBot@@QAEXPAUedict_s@@HH@Z 1001f070 f   bot.obj
 0001:0001e1a0       ?ThrowingGrenade@CBot@@QAEHXZ 1001f1a0 f   bot.obj
 0001:0001e1d0       ?Tick@CStructures@@QAEPAUedict_s@@PAH@Z 1001f1d0 f i bot.obj
 0001:0001e3d0       ?TimeToComplete@CBotTask@@QAEMXZ 1001f3d0 f i bot.obj
 0001:0001e3e0       ?TimedOut@CBotTask@@QAEHXZ 1001f3e0 f i bot.obj
 0001:0001e410       ?Touch@CBot@@QAEHPAUedict_s@@@Z 1001f410 f   bot.obj
 0001:0001eda0       ?UnSet@?$CTypeVector@F@@QAEXXZ 1001fda0 f i bot.obj
 0001:0001edb0       ?UnSetLadderAngleAndMovement@CBot@@QAEXXZ 1001fdb0 f i bot.obj
 0001:0001edd0       ?UnderAttack@CStructure@@QAEXXZ 1001fdd0 f i bot.obj
 0001:0001edf0       ?Update@CStructure@@QAEXXZ 1001fdf0 f i bot.obj
 0001:0001ee50       ?UpdateCondition@CBot@@QAEXH@Z 1001fe50 f i bot.obj
 0001:0001ee60       ?UpdateConditions@CBot@@QAEXXZ 1001fe60 f   bot.obj
 0001:0001f000       ?UpdateMsec@CBot@@QAEXXZ   10020000 f   bot.obj
 0001:0001f030       ?UpdateRep@CBotReputation@@QAEXH@Z 10020030 f i bot.obj
 0001:0001f040       ?UpdateVisibles@CBot@@QAEHXZ 10020040 f   bot.obj
 0001:00020990       ?Use@CBot@@QAEXXZ          10021990 f i bot.obj
 0001:000209a0       ?UseTank@CBot@@QAEXPAUedict_s@@@Z 100219a0 f   bot.obj
 0001:00020ad0       ?WantToFindEnemy@CBot@@QAEHXZ 10021ad0 f   bot.obj
 0001:00020b80       ?WantToFollowEnemy@CBot@@QAEHPAUedict_s@@@Z 10021b80 f   bot.obj
 0001:00020f30       ?WantToLeaveGame@CBot@@QAEHXZ 10021f30 f   bot.obj
 0001:00020fe0       ?WorkMoveDirection@CBot@@QAEXXZ 10021fe0 f   bot.obj
 0001:00021ce0       ?WorkViewAngles@CBot@@QAEXXZ 10022ce0 f   bot.obj
 0001:000222b0       ?_Adopt@_Iterator_base0@std@@QAEXPBX@Z 100232b0 f i bot.obj
 0001:000222c0       ?_Buy@?$vector@MV?$allocator@M@std@@@std@@IAE_NI@Z 100232c0 f i bot.obj
 0001:00022330       ?_Compat@?$_Vector_const_iterator@V?$_Vector_val@U?$_Simple_types@VCRememberPosition@@@std@@@std@@@std@@QBEXABV12@@Z 10023330 f i bot.obj
 0001:00022340       ?_Destroy@?$vector@HV?$allocator@H@std@@@std@@IAEXPAH0@Z 10023340 f i bot.obj
 0001:00022350       ?_Destroy@?$vector@MV?$allocator@M@std@@@std@@IAEXPAM0@Z 10023350 f i bot.obj
 0001:00022360       ?_Destroy@?$vector@PAUedict_s@@V?$allocator@PAUedict_s@@@std@@@std@@IAEXPAPAUedict_s@@0@Z 10023360 f i bot.obj
 0001:00022370       ?_Destroy@?$vector@PAVIIndividual@@V?$allocator@PAVIIndividual@@@std@@@std@@IAEXPAPAVIIndividual@@0@Z 10023370 f i bot.obj
 0001:00022380       ?_Destroy@?$vector@PBDV?$allocator@PBD@std@@@std@@IAEXPAPBD0@Z 10023380 f i bot.obj
 0001:00022390       ?_Destroy@?$vector@VCActionUtility@@V?$allocator@VCActionUtility@@@std@@@std@@IAEXPAVCActionUtility@@0@Z 10023390 f i bot.obj
 0001:000223a0       ?_Destroy@?$vector@VCRememberPosition@@V?$allocator@VCRememberPosition@@@std@@@std@@IAEXPAVCRememberPosition@@0@Z 100233a0 f i bot.obj
 0001:000223b0       ?_Destroy@?$vector@VTSObjective@@V?$allocator@VTSObjective@@@std@@@std@@IAEXPAVTSObjective@@0@Z 100233b0 f i bot.obj
 0001:000223c0       ?_Getal@?$_Vector_alloc@$0A@U?$_Vec_base_types@HV?$allocator@H@std@@@std@@@std@@QBE?AU?$_Wrap_alloc@V?$allocator@H@std@@@2@XZ 100233c0 f i bot.obj
 0001:000223d0       ?_Getal@?$_Vector_alloc@$0A@U?$_Vec_base_types@MV?$allocator@M@std@@@std@@@std@@QBE?AU?$_Wrap_alloc@V?$allocator@M@std@@@2@XZ 100233d0 f i bot.obj
 0001:000223e0       ?_Getal@?$_Vector_alloc@$0A@U?$_Vec_base_types@PAUedict_s@@V?$allocator@PAUedict_s@@@std@@@std@@@std@@QBE?AU?$_Wrap_alloc@V?$allocator@PAUedict_s@@@std@@@2@XZ 100233e0 f i bot.obj
 0001:000223f0       ?_Getal@?$_Vector_alloc@$0A@U?$_Vec_base_types@PAVIIndividual@@V?$allocator@PAVIIndividual@@@std@@@std@@@std@@QBE?AU?$_Wrap_alloc@V?$allocator@PAVIIndividual@@@std@@@2@XZ 100233f0 f i bot.obj
 0001:00022400       ?_Getal@?$_Vector_alloc@$0A@U?$_Vec_base_types@PBDV?$allocator@PBD@std@@@std@@@std@@QBE?AU?$_Wrap_alloc@V?$allocator@PBD@std@@@2@XZ 10023400 f i bot.obj
 0001:00022410       ?_Getal@?$_Vector_alloc@$0A@U?$_Vec_base_types@VCActionUtility@@V?$allocator@VCActionUtility@@@std@@@std@@@std@@QBE?AU?$_Wrap_alloc@V?$allocator@VCActionUtility@@@std@@@2@XZ 10023410 f i bot.obj
 0001:00022420       ?_Getal@?$_Vector_alloc@$0A@U?$_Vec_base_types@VCRememberPosition@@V?$allocator@VCRememberPosition@@@std@@@std@@@std@@QBE?AU?$_Wrap_alloc@V?$allocator@VCRememberPosition@@@std@@@2@XZ 10023420 f i bot.obj
 0001:00022430       ?_Getal@?$_Vector_alloc@$0A@U?$_Vec_base_types@VTSObjective@@V?$allocator@VTSObjective@@@std@@@std@@@std@@QBE?AU?$_Wrap_alloc@V?$allocator@VTSObjective@@@std@@@2@XZ 10023430 f i bot.obj
 0001:00022440       ?_Grow_to@?$vector@HV?$allocator@H@std@@@std@@IBEII@Z 10023440 f i bot.obj
 0001:00022480       ?_Grow_to@?$vector@MV?$allocator@M@std@@@std@@IBEII@Z 10023480 f i bot.obj
 0001:000224c0       ?_Grow_to@?$vector@PAUedict_s@@V?$allocator@PAUedict_s@@@std@@@std@@IBEII@Z 100234c0 f i bot.obj
 0001:00022500       ?_Grow_to@?$vector@PBDV?$allocator@PBD@std@@@std@@IBEII@Z 10023500 f i bot.obj
 0001:00022540       ?_Grow_to@?$vector@VCActionUtility@@V?$allocator@VCActionUtility@@@std@@@std@@IBEII@Z 10023540 f i bot.obj
 0001:00022580       ?_Grow_to@?$vector@VCRememberPosition@@V?$allocator@VCRememberPosition@@@std@@@std@@IBEII@Z 10023580 f i bot.obj
 0001:000225d0       ?_Inside@?$vector@HV?$allocator@H@std@@@std@@IBE_NPBH@Z 100235d0 f i bot.obj
 0001:000225f0       ?_Inside@?$vector@MV?$allocator@M@std@@@std@@IBE_NPBM@Z 100235f0 f i bot.obj
 0001:00022610       ?_Inside@?$vector@PAUedict_s@@V?$allocator@PAUedict_s@@@std@@@std@@IBE_NPBQAUedict_s@@@Z 10023610 f i bot.obj
 0001:00022630       ?_Inside@?$vector@PBDV?$allocator@PBD@std@@@std@@IBE_NPBQBD@Z 10023630 f i bot.obj
 0001:00022650       ?_Inside@?$vector@VCActionUtility@@V?$allocator@VCActionUtility@@@std@@@std@@IBE_NPBVCActionUtility@@@Z 10023650 f i bot.obj
 0001:00022670       ?_Inside@?$vector@VCRememberPosition@@V?$allocator@VCRememberPosition@@@std@@@std@@IBE_NPBVCRememberPosition@@@Z 10023670 f i bot.obj
 0001:00022690       ?_Make_iter@?$vector@VCRememberPosition@@V?$allocator@VCRememberPosition@@@std@@@std@@QBE?AV?$_Vector_iterator@V?$_Vector_val@U?$_Simple_types@VCRememberPosition@@@std@@@std@@@2@V?$_Vector_const_iterator@V?$_Vector_val@U?$_Simple_types@VCRememberPosition@@@std@@@std@@@2@@Z 10023690 f i bot.obj
 0001:000226a0       ?_Orphan_all@_Container_base0@std@@QAEXXZ 100236a0 f i bot.obj
 0001:000226b0       ?_Orphan_range@?$vector@HV?$allocator@H@std@@@std@@IBEXPAH0@Z 100236b0 f i bot.obj
 0001:000226c0       ?_Orphan_range@?$vector@MV?$allocator@M@std@@@std@@IBEXPAM0@Z 100236c0 f i bot.obj
 0001:000226d0       ?_Orphan_range@?$vector@PAUedict_s@@V?$allocator@PAUedict_s@@@std@@@std@@IBEXPAPAUedict_s@@0@Z 100236d0 f i bot.obj
 0001:000226e0       ?_Orphan_range@?$vector@PBDV?$allocator@PBD@std@@@std@@IBEXPAPBD0@Z 100236e0 f i bot.obj
 0001:000226f0       ?_Orphan_range@?$vector@VCActionUtility@@V?$allocator@VCActionUtility@@@std@@@std@@IBEXPAVCActionUtility@@0@Z 100236f0 f i bot.obj
 0001:00022700       ?_Orphan_range@?$vector@VCRememberPosition@@V?$allocator@VCRememberPosition@@@std@@@std@@IBEXPAVCRememberPosition@@0@Z 10023700 f i bot.obj
 0001:00022710       ?_Reallocate@?$vector@HV?$allocator@H@std@@@std@@IAEXI@Z 10023710 f i bot.obj
 0001:00022790       ?_Reallocate@?$vector@MV?$allocator@M@std@@@std@@IAEXI@Z 10023790 f i bot.obj
 0001:00022810       ?_Reallocate@?$vector@PAUedict_s@@V?$allocator@PAUedict_s@@@std@@@std@@IAEXI@Z 10023810 f i bot.obj
 0001:00022890       ?_Reallocate@?$vector@PBDV?$allocator@PBD@std@@@std@@IAEXI@Z 10023890 f i bot.obj
 0001:00022910       ?_Reallocate@?$vector@VCActionUtility@@V?$allocator@VCActionUtility@@@std@@@std@@IAEXI@Z 10023910 f i bot.obj
 0001:000229f0       ?_Reallocate@?$vector@VCRememberPosition@@V?$allocator@VCRememberPosition@@@std@@@std@@IAEXI@Z 100239f0 f i bot.obj
 0001:00022ae0       ?_Reserve@?$vector@HV?$allocator@H@std@@@std@@IAEXI@Z 10023ae0 f i bot.obj
 0001:00022b60       ?_Reserve@?$vector@MV?$allocator@M@std@@@std@@IAEXI@Z 10023b60 f i bot.obj
 0001:00022be0       ?_Reserve@?$vector@PAUedict_s@@V?$allocator@PAUedict_s@@@std@@@std@@IAEXI@Z 10023be0 f i bot.obj
 0001:00022c60       ?_Reserve@?$vector@PBDV?$allocator@PBD@std@@@std@@IAEXI@Z 10023c60 f i bot.obj
 0001:00022ce0       ?_Reserve@?$vector@VCActionUtility@@V?$allocator@VCActionUtility@@@std@@@std@@IAEXI@Z 10023ce0 f i bot.obj
 0001:00022d60       ?_Reserve@?$vector@VCRememberPosition@@V?$allocator@VCRememberPosition@@@std@@@std@@IAEXI@Z 10023d60 f i bot.obj
 0001:00022e10       ?_Tidy@?$vector@HV?$allocator@H@std@@@std@@IAEXXZ 10023e10 f i bot.obj
 0001:00022e40       ?_Tidy@?$vector@MV?$allocator@M@std@@@std@@IAEXXZ 10023e40 f i bot.obj
 0001:00022e70       ?_Tidy@?$vector@PAUedict_s@@V?$allocator@PAUedict_s@@@std@@@std@@IAEXXZ 10023e70 f i bot.obj
 0001:00022ea0       ?_Tidy@?$vector@PAVIIndividual@@V?$allocator@PAVIIndividual@@@std@@@std@@IAEXXZ 10023ea0 f i bot.obj
 0001:00022ed0       ?_Tidy@?$vector@PBDV?$allocator@PBD@std@@@std@@IAEXXZ 10023ed0 f i bot.obj
 0001:00022f00       ?_Tidy@?$vector@VCActionUtility@@V?$allocator@VCActionUtility@@@std@@@std@@IAEXXZ 10023f00 f i bot.obj
 0001:00022f30       ?_Unchecked@?$_Vector_const_iterator@V?$_Vector_val@U?$_Simple_types@M@std@@@std@@@std@@QBEPBMXZ 10023f30 f i bot.obj
 0001:00022f40       ?_Unused_capacity@?$vector@HV?$allocator@H@std@@@std@@QBEIXZ 10023f40 f i bot.obj
 0001:00022f50       ?_Unused_capacity@?$vector@MV?$allocator@M@std@@@std@@QBEIXZ 10023f50 f i bot.obj
 0001:00022f60       ?_Unused_capacity@?$vector@PAUedict_s@@V?$allocator@PAUedict_s@@@std@@@std@@QBEIXZ 10023f60 f i bot.obj
 0001:00022f70       ?_Unused_capacity@?$vector@PBDV?$allocator@PBD@std@@@std@@QBEIXZ 10023f70 f i bot.obj
 0001:00022f80       ?_Unused_capacity@?$vector@VCActionUtility@@V?$allocator@VCActionUtility@@@std@@@std@@QBEIXZ 10023f80 f i bot.obj
 0001:00022f90       ?_Unused_capacity@?$vector@VCRememberPosition@@V?$allocator@VCRememberPosition@@@std@@@std@@QBEIXZ 10023f90 f i bot.obj
 0001:00022fb0       ?_Xlen@?$vector@HV?$allocator@H@std@@@std@@IBEXXZ 10023fb0 f i bot.obj
 0001:00022fc0       ?_Xlen@?$vector@MV?$allocator@M@std@@@std@@IBEXXZ 10023fc0 f i bot.obj
 0001:00022fd0       ?_Xlen@?$vector@PAUedict_s@@V?$allocator@PAUedict_s@@@std@@@std@@IBEXXZ 10023fd0 f i bot.obj
 0001:00022fe0       ?_Xlen@?$vector@PBDV?$allocator@PBD@std@@@std@@IBEXXZ 10023fe0 f i bot.obj
 0001:00022ff0       ?_Xlen@?$vector@VCActionUtility@@V?$allocator@VCActionUtility@@@std@@@std@@IBEXXZ 10023ff0 f i bot.obj
 0001:00023000       ?_Xlen@?$vector@VCRememberPosition@@V?$allocator@VCRememberPosition@@@std@@@std@@IBEXXZ 10024000 f i bot.obj
 0001:00023010       ?_delete@?$dataNode@H@@QAEXXZ 10024010 f i bot.obj
 0001:00023020       ?_delete@?$dataNode@PAUedict_s@@@@QAEXXZ 10024020 f i bot.obj
 0001:00023030       ?_delete@?$dataNode@VCBotFailedPath@@@@QAEXXZ 10024030 f i bot.obj
 0001:00023040       ?_delete@?$dataNode@VCBotReputation@@@@QAEXXZ 10024040 f i bot.obj
 0001:00023050       ?_delete@?$dataNode@VCBotTask@@@@QAEXXZ 10024050 f i bot.obj
 0001:00023060       ?_delete@?$dataNode@VCStructure@@@@QAEXXZ 10024060 f i bot.obj
 0001:00023070       ?_delete@?$dataNode@VMyEHandle@@@@QAEXXZ 10024070 f i bot.obj
 0001:00023080       ?_getTaskDescription@CBotTask@@SAPADW4eBotTask@@@Z 10024080 f i bot.obj
 0001:00023440       ?add@CActionUtilities@@QAEXW4eCanDoStuff@@HM@Z 10024440 f i bot.obj
 0001:00023470       ?add@CBotGAValues@@QAEXM@Z 10024470 f i bot.obj
 0001:00023490       ?addPosition@CRememberedPositions@@QAEXVVector@@PAUedict_s@@H0@Z 10024490 f i bot.obj
 0001:00023650       ?allocate@?$_Wrap_alloc@V?$allocator@H@std@@@std@@QAEPAHI@Z 10024650 f i bot.obj
 0001:00023690       ?allocate@?$_Wrap_alloc@V?$allocator@M@std@@@std@@QAEPAMI@Z 10024690 f i bot.obj
 0001:000236d0       ?allocate@?$_Wrap_alloc@V?$allocator@PAUedict_s@@@std@@@std@@QAEPAPAUedict_s@@I@Z 100246d0 f i bot.obj
 0001:00023710       ?allocate@?$_Wrap_alloc@V?$allocator@PBD@std@@@std@@QAEPAPBDI@Z 10024710 f i bot.obj
 0001:00023750       ?allocate@?$_Wrap_alloc@V?$allocator@VCActionUtility@@@std@@@std@@QAEPAVCActionUtility@@I@Z 10024750 f i bot.obj
 0001:00023790       ?allocate@?$_Wrap_alloc@V?$allocator@VCRememberPosition@@@std@@@std@@QAEPAVCRememberPosition@@I@Z 10024790 f i bot.obj
 0001:000237d0       ?allocate@?$allocator@H@std@@QAEPAHI@Z 100247d0 f i bot.obj
 0001:00023810       ?allocate@?$allocator@M@std@@QAEPAMI@Z 10024810 f i bot.obj
 0001:00023850       ?allocate@?$allocator@PAUedict_s@@@std@@QAEPAPAUedict_s@@I@Z 10024850 f i bot.obj
 0001:00023890       ?allocate@?$allocator@PBD@std@@QAEPAPBDI@Z 10024890 f i bot.obj
 0001:000238d0       ?allocate@?$allocator@VCActionUtility@@@std@@QAEPAVCActionUtility@@I@Z 100248d0 f i bot.obj
 0001:00023910       ?allocate@?$allocator@VCRememberPosition@@@std@@QAEPAVCRememberPosition@@I@Z 10024910 f i bot.obj
 0001:00023950       ?begin@?$vector@MV?$allocator@M@std@@@std@@QBE?AV?$_Vector_const_iterator@V?$_Vector_val@U?$_Simple_types@M@std@@@std@@@2@XZ 10024950 f i bot.obj
 0001:00023960       ?begin@?$vector@VCRememberPosition@@V?$allocator@VCRememberPosition@@@std@@@std@@QAE?AV?$_Vector_iterator@V?$_Vector_val@U?$_Simple_types@VCRememberPosition@@@std@@@std@@@2@XZ 10024960 f i bot.obj
 0001:00023970       ?builtTeleporterEntrance@CBot@@QAEHXZ 10024970 f   bot.obj
 0001:000239c0       ?builtTeleporterExit@CBot@@QAEHXZ 100249c0 f   bot.obj
 0001:000239d0       ?capacity@?$vector@HV?$allocator@H@std@@@std@@QBEIXZ 100249d0 f i bot.obj
 0001:000239e0       ?capacity@?$vector@MV?$allocator@M@std@@@std@@QBEIXZ 100249e0 f i bot.obj
 0001:000239f0       ?capacity@?$vector@PAUedict_s@@V?$allocator@PAUedict_s@@@std@@@std@@QBEIXZ 100249f0 f i bot.obj
 0001:00023a00       ?capacity@?$vector@PBDV?$allocator@PBD@std@@@std@@QBEIXZ 10024a00 f i bot.obj
 0001:00023a10       ?capacity@?$vector@VCActionUtility@@V?$allocator@VCActionUtility@@@std@@@std@@QBEIXZ 10024a10 f i bot.obj
 0001:00023a20       ?capacity@?$vector@VCRememberPosition@@V?$allocator@VCRememberPosition@@@std@@@std@@QBEIXZ 10024a20 f i bot.obj
 0001:00023a40       ?clear@?$vector@HV?$allocator@H@std@@@std@@QAEXXZ 10024a40 f i bot.obj
 0001:00023a50       ?clear@?$vector@MV?$allocator@M@std@@@std@@QAEXXZ 10024a50 f i bot.obj
 0001:00023a60       ?clear@?$vector@PAUedict_s@@V?$allocator@PAUedict_s@@@std@@@std@@QAEXXZ 10024a60 f i bot.obj
 0001:00023a70       ?clear@?$vector@PBDV?$allocator@PBD@std@@@std@@QAEXXZ 10024a70 f i bot.obj
 0001:00023a80       ?clear@?$vector@VTSObjective@@V?$allocator@VTSObjective@@@std@@@std@@QAEXXZ 10024a80 f i bot.obj
 0001:00023a90       ?clear@CIntGAValues@@UAEXXZ 10024a90 f i bot.obj
 0001:00023aa0       ?clearEnemyCosts@CBot@@AAEXXZ 10024aa0 f   bot.obj
 0001:00023af0       ?clearUsedTeleporters@CBot@@AAEXXZ 10024af0 f i bot.obj
 0001:00023b00       ?construct@?$allocator@H@std@@QAEXPAHABH@Z 10024b00 f i bot.obj
 0001:00023b20       ?construct@?$allocator@M@std@@QAEXPAMABM@Z 10024b20 f i bot.obj
 0001:00023b40       ?construct@?$allocator@PAUedict_s@@@std@@QAEXPAPAUedict_s@@ABQAU3@@Z 10024b40 f i bot.obj
 0001:00023b60       ?construct@?$allocator@PBD@std@@QAEXPAPBDABQBD@Z 10024b60 f i bot.obj
 0001:00023b80       ?construct@?$allocator@VCRememberPosition@@@std@@QAEXPAVCRememberPosition@@ABV3@@Z 10024b80 f i bot.obj
 0001:00023bd0       ?copy@CIntGAValues@@UAEPAVIIndividual@@XZ 10024bd0 f i bot.obj
 0001:00023c10       ?cos@@YAMM@Z               10024c10 f i bot.obj
 0001:00023c30       ?crossOver@CIntGAValues@@UAEXPAVIIndividual@@@Z 10024c30 f i bot.obj
 0001:00023cb0       ?deallocate@?$_Wrap_alloc@V?$allocator@H@std@@@std@@QAEXPAHI@Z 10024cb0 f i bot.obj
 0001:00023cd0       ?deallocate@?$_Wrap_alloc@V?$allocator@M@std@@@std@@QAEXPAMI@Z 10024cd0 f i bot.obj
 0001:00023cf0       ?deallocate@?$_Wrap_alloc@V?$allocator@PAUedict_s@@@std@@@std@@QAEXPAPAUedict_s@@I@Z 10024cf0 f i bot.obj
 0001:00023d10       ?deallocate@?$_Wrap_alloc@V?$allocator@PAVIIndividual@@@std@@@std@@QAEXPAPAVIIndividual@@I@Z 10024d10 f i bot.obj
 0001:00023d30       ?deallocate@?$_Wrap_alloc@V?$allocator@PBD@std@@@std@@QAEXPAPBDI@Z 10024d30 f i bot.obj
 0001:00023d50       ?deallocate@?$_Wrap_alloc@V?$allocator@VCActionUtility@@@std@@@std@@QAEXPAVCActionUtility@@I@Z 10024d50 f i bot.obj
 0001:00023d70       ?deallocate@?$_Wrap_alloc@V?$allocator@VCRememberPosition@@@std@@@std@@QAEXPAVCRememberPosition@@I@Z 10024d70 f i bot.obj
 0001:00023d90       ?deallocate@?$allocator@H@std@@QAEXPAHI@Z 10024d90 f i bot.obj
 0001:00023db0       ?deallocate@?$allocator@M@std@@QAEXPAMI@Z 10024db0 f i bot.obj
 0001:00023dd0       ?deallocate@?$allocator@PAUedict_s@@@std@@QAEXPAPAUedict_s@@I@Z 10024dd0 f i bot.obj
 0001:00023df0       ?deallocate@?$allocator@PAVIIndividual@@@std@@QAEXPAPAVIIndividual@@I@Z 10024df0 f i bot.obj
 0001:00023e10       ?deallocate@?$allocator@PBD@std@@QAEXPAPBDI@Z 10024e10 f i bot.obj
 0001:00023e30       ?deallocate@?$allocator@VCActionUtility@@@std@@QAEXPAVCActionUtility@@I@Z 10024e30 f i bot.obj
 0001:00023e50       ?deallocate@?$allocator@VCRememberPosition@@@std@@QAEXPAVCRememberPosition@@I@Z 10024e50 f i bot.obj
 0001:00023e70       ?decideJumpDuckStrafe@CBot@@AAEXMVVector@@@Z 10024e70 f   bot.obj
 0001:00024320       ?destroy@AStarOpenList@@QAEXXZ 10025320 f i bot.obj
 0001:00024350       ?distanceFrom@CTFCBackpack@@QAEMVVector@@@Z 10025350 f i bot.obj
 0001:000243c0       ?empty@?$vector@HV?$allocator@H@std@@@std@@QBE_NXZ 100253c0 f i bot.obj
 0001:000243d0       ?empty@?$vector@PADV?$allocator@PAD@std@@@std@@QBE_NXZ 100253d0 f i bot.obj
 0001:000243e0       ?empty@?$vector@PAUedict_s@@V?$allocator@PAUedict_s@@@std@@@std@@QBE_NXZ 100253e0 f i bot.obj
 0001:000243f0       ?empty@?$vector@PBDV?$allocator@PBD@std@@@std@@QBE_NXZ 100253f0 f i bot.obj
 0001:00024400       ?empty@?$vector@VCRememberPosition@@V?$allocator@VCRememberPosition@@@std@@@std@@QBE_NXZ 10025400 f i bot.obj
 0001:00024410       ?empty@?$vector@VTSObjective@@V?$allocator@VTSObjective@@@std@@@std@@QBE_NXZ 10025410 f i bot.obj
 0001:00024420       ?end@?$vector@MV?$allocator@M@std@@@std@@QBE?AV?$_Vector_const_iterator@V?$_Vector_val@U?$_Simple_types@M@std@@@std@@@2@XZ 10025420 f i bot.obj
 0001:00024430       ?end@?$vector@VCRememberPosition@@V?$allocator@VCRememberPosition@@@std@@@std@@QAE?AV?$_Vector_iterator@V?$_Vector_val@U?$_Simple_types@VCRememberPosition@@@std@@@std@@@2@XZ 10025430 f i bot.obj
 0001:00024440       ?erase@?$vector@VCRememberPosition@@V?$allocator@VCRememberPosition@@@std@@@std@@QAE?AV?$_Vector_iterator@V?$_Vector_val@U?$_Simple_types@VCRememberPosition@@@std@@@std@@@2@V?$_Vector_const_iterator@V?$_Vector_val@U?$_Simple_types@VCRememberPosition@@@std@@@std@@@2@@Z 10025440 f i bot.obj
 0001:00024490       ?fabs@@YAMM@Z              10025490 f i bot.obj
 0001:000244c0       ?findBackpack@CBotGlobals@@QAEPAUedict_s@@VVector@@HHHHH@Z 100254c0 f i bot.obj
 0001:00024510       ?findBackpack@CTFCBackpacks@@QAEPAUedict_s@@VVector@@HHHHH@Z 10025510 f i bot.obj
 0001:00024600       ?get@CIntGAValues@@QAEHXZ  10025600 f i bot.obj
 0001:00024610       ?getAction@CActionUtility@@QAE?AW4eCanDoStuff@@XZ 10025610 f i bot.obj
 0001:00024620       ?getBestAction@CActionUtilities@@QAE?AW4eCanDoStuff@@XZ 10025620 f i bot.obj
 0001:000246c0       ?getEdict@CTFCBackpack@@QAEPAUedict_s@@XZ 100256c0 f i bot.obj
 0001:000246d0       ?getEntity@CRememberPosition@@QAEPAUedict_s@@XZ 100256d0 f i bot.obj
 0001:000246e0       ?getExisting@?$dataUnconstArray@VCRememberPosition@@@@QAEPAVCRememberPosition@@V2@@Z 100256e0 f i bot.obj
 0001:00024780       ?getFitness@IIndividual@@QAEMXZ 10025780 f i bot.obj
 0001:00024790       ?getNewest@CRememberedPositions@@QAEPAVCRememberPosition@@XZ 10025790 f i bot.obj
 0001:000247e0       ?getOrigin@TSObjective@@QAE?AVVector@@XZ 100257e0 f i bot.obj
 0001:00024800       ?getScheduleDescription@CBotTask@@QAEPADXZ 10025800 f i bot.obj
 0001:000248a0       ?getSentry@CBot@@QAEPAUedict_s@@XZ 100258a0 f   bot.obj
 0001:000248f0       ?getSentryPosition@CRememberedPositions@@QAEPAVCRememberPosition@@XZ 100258f0 f i bot.obj
 0001:00024960       ?getTFCSentry@CClient@@QAEPAUedict_s@@XZ 10025960 f i bot.obj
 0001:00024970       ?getTaskDescription@CBotTask@@QAEPADXZ 10025970 f i bot.obj
 0001:00024980       ?getTeleporterExit@CBot@@QAEPAUedict_s@@XZ 10025980 f   bot.obj
 0001:000249d0       ?getTotalUtility@CActionUtilities@@QAEMXZ 100259d0 f i bot.obj
 0001:00024a10       ?getUtility@CActionUtility@@QAEMXZ 10025a10 f i bot.obj
 0001:00024a20       ?getVector@CRememberPosition@@QAE?AVVector@@XZ 10025a20 f i bot.obj
 0001:00024a40       ?getVisibleOrigin@CRememberPosition@@QAE?AVVector@@XZ 10025a40 f i bot.obj
 0001:00024a60       ?gettingBored@CBot@@QAEXXZ 10025a60 f i bot.obj
 0001:00024a80       ?givesAmmo@CTFCBackpack@@QAEHH@Z 10025a80 f i bot.obj
 0001:00024aa0       ?givesArmor@CTFCBackpack@@QAEHH@Z 10025aa0 f i bot.obj
 0001:00024ac0       ?givesCells@CTFCBackpack@@QAEHH@Z 10025ac0 f i bot.obj
 0001:00024ae0       ?givesHealth@CTFCBackpack@@QAEHH@Z 10025ae0 f i bot.obj
 0001:00024b00       ?gotPosition@CRememberedPositions@@QAEHXZ 10025b00 f i bot.obj
 0001:00024b10       ?gotStuck@CBot@@QAEXXZ     10025b10 f   bot.obj
 0001:00024b20       ?hasBlink@CBot@@QAEHXZ     10025b20 f   bot.obj
 0001:00024b40       ?hasFlags@CRememberPosition@@QAEHH@Z 10025b40 f i bot.obj
 0001:00024b60       ?hasUsedTeleporter@CBot@@AAEHPAUedict_s@@@Z 10025b60 f i bot.obj
 0001:00024ba0       ?hasWeb@CBot@@QAEHXZ       10025ba0 f   bot.obj
 0001:00024bc0       ?havingFun@CBot@@QAEXXZ    10025bc0 f i bot.obj
 0001:00024be0       ?isEntity@CRememberPosition@@QAEHPAUedict_s@@@Z 10025be0 f i bot.obj
 0001:00024c10       ?isForTeam@CTFCBackpack@@QAEHH@Z 10025c10 f i bot.obj
 0001:00024c30       ?isInAnimate@CBot@@QAEHPAUedict_s@@@Z 10025c30 f   bot.obj
 0001:00024c50       ?isMapType@CBotGlobals@@QAEHW4eTFCMapType@@@Z 10025c50 f i bot.obj
 0001:00024c70       ?load@CIntGAValues@@UAEXPAU_iobuf@@H@Z 10025c70 f i bot.obj
 0001:00024cd0       ?loadLearnedData@CBot@@AAEXXZ 10025cd0 f   bot.obj
 0001:00024ee0       ?max_size@?$_Wrap_alloc@V?$allocator@H@std@@@std@@QBEIXZ 10025ee0 f i bot.obj
 0001:00024ef0       ?max_size@?$_Wrap_alloc@V?$allocator@M@std@@@std@@QBEIXZ 10025ef0 f i bot.obj
 0001:00024f00       ?max_size@?$_Wrap_alloc@V?$allocator@PAUedict_s@@@std@@@std@@QBEIXZ 10025f00 f i bot.obj
 0001:00024f10       ?max_size@?$_Wrap_alloc@V?$allocator@PBD@std@@@std@@QBEIXZ 10025f10 f i bot.obj
 0001:00024f20       ?max_size@?$_Wrap_alloc@V?$allocator@VCActionUtility@@@std@@@std@@QBEIXZ 10025f20 f i bot.obj
 0001:00024f30       ?max_size@?$_Wrap_alloc@V?$allocator@VCRememberPosition@@@std@@@std@@QBEIXZ 10025f30 f i bot.obj
 0001:00024f40       ?max_size@?$allocator@H@std@@QBEIXZ 10025f40 f i bot.obj
 0001:00024f50       ?max_size@?$allocator@M@std@@QBEIXZ 10025f50 f i bot.obj
 0001:00024f60       ?max_size@?$allocator@PAUedict_s@@@std@@QBEIXZ 10025f60 f i bot.obj
 0001:00024f70       ?max_size@?$allocator@PBD@std@@QBEIXZ 10025f70 f i bot.obj
 0001:00024f80       ?max_size@?$allocator@VCActionUtility@@@std@@QBEIXZ 10025f80 f i bot.obj
 0001:00024f90       ?max_size@?$allocator@VCRememberPosition@@@std@@QBEIXZ 10025f90 f i bot.obj
 0001:00024fa0       ?max_size@?$allocator_traits@V?$allocator@H@std@@@std@@SAIABV?$allocator@H@2@@Z 10025fa0 f i bot.obj
 0001:00024fb0       ?max_size@?$allocator_traits@V?$allocator@M@std@@@std@@SAIABV?$allocator@M@2@@Z 10025fb0 f i bot.obj
 0001:00024fc0       ?max_size@?$allocator_traits@V?$allocator@PAUedict_s@@@std@@@std@@SAIABV?$allocator@PAUedict_s@@@2@@Z 10025fc0 f i bot.obj
 0001:00024fd0       ?max_size@?$allocator_traits@V?$allocator@PBD@std@@@std@@SAIABV?$allocator@PBD@2@@Z 10025fd0 f i bot.obj
 0001:00024fe0       ?max_size@?$allocator_traits@V?$allocator@VCActionUtility@@@std@@@std@@SAIABV?$allocator@VCActionUtility@@@2@@Z 10025fe0 f i bot.obj
 0001:00024ff0       ?max_size@?$allocator_traits@V?$allocator@VCRememberPosition@@@std@@@std@@SAIABV?$allocator@VCRememberPosition@@@2@@Z 10025ff0 f i bot.obj
 0001:00025000       ?max_size@?$vector@HV?$allocator@H@std@@@std@@QBEIXZ 10026000 f i bot.obj
 0001:00025010       ?max_size@?$vector@MV?$allocator@M@std@@@std@@QBEIXZ 10026010 f i bot.obj
 0001:00025020       ?max_size@?$vector@PAUedict_s@@V?$allocator@PAUedict_s@@@std@@@std@@QBEIXZ 10026020 f i bot.obj
 0001:00025030       ?max_size@?$vector@PBDV?$allocator@PBD@std@@@std@@QBEIXZ 10026030 f i bot.obj
 0001:00025040       ?max_size@?$vector@VCActionUtility@@V?$allocator@VCActionUtility@@@std@@@std@@QBEIXZ 10026040 f i bot.obj
 0001:00025050       ?max_size@?$vector@VCRememberPosition@@V?$allocator@VCRememberPosition@@@std@@@std@@QBEIXZ 10026050 f i bot.obj
 0001:00025060       ?mutate@CIntGAValues@@UAEXXZ 10026060 f i bot.obj
 0001:000250d0       ?numMembers@CBotSquad@@QAEHXZ 100260d0 f i bot.obj
 0001:00025100       ?onGround@CBot@@QAEHXZ     10026100 f i bot.obj
 0001:00025110       ?positionNearest@CRememberedPositions@@QAEPAVCRememberPosition@@VVector@@0@Z 10026110 f i bot.obj
 0001:00025260       ?pow@@YAMMM@Z              10026260 f i bot.obj
 0001:00025290       ?printRep@CBotReputation@@QAEXPAVCBot@@PAUedict_s@@@Z 10026290 f   bot.obj
 0001:000253f0       ?push_back@?$vector@HV?$allocator@H@std@@@std@@QAEXABH@Z 100263f0 f i bot.obj
 0001:00025460       ?push_back@?$vector@MV?$allocator@M@std@@@std@@QAEX$$QAM@Z 10026460 f i bot.obj
 0001:000254d0       ?push_back@?$vector@MV?$allocator@M@std@@@std@@QAEXABM@Z 100264d0 f i bot.obj
 0001:00025540       ?push_back@?$vector@PAUedict_s@@V?$allocator@PAUedict_s@@@std@@@std@@QAEXABQAUedict_s@@@Z 10026540 f i bot.obj
 0001:000255b0       ?push_back@?$vector@PBDV?$allocator@PBD@std@@@std@@QAEXABQBD@Z 100265b0 f i bot.obj
 0001:00025620       ?push_back@?$vector@VCActionUtility@@V?$allocator@VCActionUtility@@@std@@@std@@QAEX$$QAVCActionUtility@@@Z 10026620 f i bot.obj
 0001:000256a0       ?push_back@?$vector@VCRememberPosition@@V?$allocator@VCRememberPosition@@@std@@@std@@QAEXABVCRememberPosition@@@Z 100266a0 f i bot.obj
 0001:00025790       ?removeMember@CBotSquad@@QAEXPAUedict_s@@@Z 10026790 f i bot.obj
 0001:000257e0       ?removePosition@CRememberedPositions@@QAEXPAUedict_s@@@Z 100267e0 f i bot.obj
 0001:000258c0       ?removeSquadMember@CBotSquads@@QAEXPAVCBotSquad@@PAUedict_s@@@Z 100268c0 f i bot.obj
 0001:00025910       ?safefree@@YAXPAPAX@Z      10026910 f   bot.obj
 0001:00025940       ?save@CIntGAValues@@UAEXPAU_iobuf@@@Z 10026940 f i bot.obj
 0001:00025980       ?saveLearnedData@CBot@@QAEXXZ 10026980 f   bot.obj
 0001:00025b00       ?select_on_container_copy_construction@?$_Wrap_alloc@V?$allocator@M@std@@@std@@QBE?AU12@XZ 10026b00 f i bot.obj
 0001:00025b10       ?select_on_container_copy_construction@?$allocator@M@std@@QBE?AV12@XZ 10026b10 f i bot.obj
 0001:00025b20       ?select_on_container_copy_construction@?$allocator_traits@V?$allocator@M@std@@@std@@SA?AV?$allocator@M@2@ABV32@@Z 10026b20 f i bot.obj
 0001:00025b30       ?set@CIntGAValues@@QAEXH@Z 10026b30 f i bot.obj
 0001:00025b40       ?setEntity@CRememberPosition@@QAEXPAUedict_s@@@Z 10026b40 f i bot.obj
 0001:00025b50       ?setFitness@IIndividual@@QAEXM@Z 10026b50 f i bot.obj
 0001:00025b70       ?setFlags@CRememberPosition@@QAEXH@Z 10026b70 f i bot.obj
 0001:00025b80       ?setGA@CPopulation@@QAEXPAVCGA@@@Z 10026b80 f i bot.obj
 0001:00025b90       ?setTrained@CPerceptron@@QAEXXZ 10026b90 f i bot.obj
 0001:00025ba0       ?setVisibleOrigin@CRememberPosition@@QAEXVVector@@@Z 10026ba0 f i bot.obj
 0001:00025bc0       ?setupDataStructures@CBot@@QAEXXZ 10026bc0 f   bot.obj
 0001:00026280       ?sin@@YAMM@Z               10027280 f i bot.obj
 0001:000262a0       ?size@?$vector@HV?$allocator@H@std@@@std@@QBEIXZ 100272a0 f i bot.obj
 0001:000262b0       ?size@?$vector@MV?$allocator@M@std@@@std@@QBEIXZ 100272b0 f i bot.obj
 0001:000262c0       ?size@?$vector@PADV?$allocator@PAD@std@@@std@@QBEIXZ 100272c0 f i bot.obj
 0001:000262d0       ?size@?$vector@PAUedict_s@@V?$allocator@PAUedict_s@@@std@@@std@@QBEIXZ 100272d0 f i bot.obj
 0001:000262e0       ?size@?$vector@PBDV?$allocator@PBD@std@@@std@@QBEIXZ 100272e0 f i bot.obj
 0001:000262f0       ?size@?$vector@VCActionUtility@@V?$allocator@VCActionUtility@@@std@@@std@@QBEIXZ 100272f0 f i bot.obj
 0001:00026300       ?size@?$vector@VCRememberPosition@@V?$allocator@VCRememberPosition@@@std@@@std@@QBEIXZ 10027300 f i bot.obj
 0001:00026320       ?size@?$vector@VTSObjective@@V?$allocator@VTSObjective@@@std@@@std@@QBEIXZ 10027320 f i bot.obj
 0001:00026340       ?sqrt@@YAMM@Z              10027340 f i bot.obj
 0001:00026370       ?strstr@@YAPADPADPBD@Z     10027370 f i bot.obj
 0001:00026380       ?touchedWpt@CBot@@QAEXXZ   10027380 f   bot.obj
 0001:00026670       ?trained@CPerceptron@@QAEHXZ 10027670 f i bot.obj
 0001:00026680       ?usedTeleporter@CBot@@AAEXPAUedict_s@@@Z 10027680 f i bot.obj
 0001:000266a0       ?workEnemyCosts@CBot@@AAEXPAUedict_s@@VVector@@M@Z 100276a0 f   bot.obj
 0001:00026920       _cosf                      10027920 f i bot.obj
 0001:00026940       _fabsf                     10027940 f i bot.obj
 0001:00026980       _powf                      10027980 f i bot.obj
 0001:000269b0       _sinf                      100279b0 f i bot.obj
 0001:000269d0       _sqrtf                     100279d0 f i bot.obj
 0001:00026a10       ??$_Allocate@VCBotNSTech@@@std@@YAPAVCBotNSTech@@IPAV1@@Z 10027a10 f i bot_client.obj
 0001:00026a40       ??$_Allocate@VTSObjective@@@std@@YAPAVTSObjective@@IPAV1@@Z 10027a40 f i bot_client.obj
 0001:00026a80       ??$_Destroy_range@U?$_Wrap_alloc@V?$allocator@VCBotNSTech@@@std@@@std@@@std@@YAXPAVCBotNSTech@@0AAU?$_Wrap_alloc@V?$allocator@VCBotNSTech@@@std@@@0@@Z 10027a80 f i bot_client.obj
 0001:00026a90       ??$_Destroy_range@U?$_Wrap_alloc@V?$allocator@VCBotNSTech@@@std@@@std@@@std@@YAXPAVCBotNSTech@@0AAU?$_Wrap_alloc@V?$allocator@VCBotNSTech@@@std@@@0@U_Nonscalar_ptr_iterator_tag@0@@Z 10027a90 f i bot_client.obj
 0001:00026aa0       ??$_Move@PAVTSObjective@@PAV1@@std@@YAPAVTSObjective@@PAV1@00@Z 10027aa0 f i bot_client.obj
 0001:00026ad0       ??$_Move@PAVTSObjective@@PAV1@@std@@YAPAVTSObjective@@PAV1@00U_Nonscalar_ptr_iterator_tag@0@@Z 10027ad0 f i bot_client.obj
 0001:00026b00       ??$_Ptr_cat@VCBotNSTech@@V1@@std@@YA?AU_Nonscalar_ptr_iterator_tag@0@PAVCBotNSTech@@0@Z 10027b00 f i bot_client.obj
 0001:00026b10       ??$_Rechecked@PAVCBotNSTech@@PAV1@@std@@YAAAPAVCBotNSTech@@AAPAV1@PAV1@@Z 10027b10 f i bot_client.obj
 0001:00026b20       ??$_Rechecked@PAVTSObjective@@PAV1@@std@@YAAAPAVTSObjective@@AAPAV1@PAV1@@Z 10027b20 f i bot_client.obj
 0001:00026b30       ??$_Umove@PAVCBotNSTech@@@?$vector@VCBotNSTech@@V?$allocator@VCBotNSTech@@@std@@@std@@IAEPAVCBotNSTech@@PAV2@00@Z 10027b30 f i bot_client.obj
 0001:00026b60       ??$_Umove@PAVTSObjective@@@?$vector@VTSObjective@@V?$allocator@VTSObjective@@@std@@@std@@IAEPAVTSObjective@@PAV2@00@Z 10027b60 f i bot_client.obj
 0001:00026b90       ??$_Unchecked@PAVCBotNSTech@@@std@@YAPAVCBotNSTech@@PAV1@@Z 10027b90 f i bot_client.obj
 0001:00026ba0       ??$_Unchecked@PAVTSObjective@@@std@@YAPAVTSObjective@@PAV1@@Z 10027ba0 f i bot_client.obj
 0001:00026bb0       ??$_Uninit_move@PAVCBotNSTech@@PAV1@U?$_Wrap_alloc@V?$allocator@VCBotNSTech@@@std@@@std@@@std@@YAPAVCBotNSTech@@PAV1@00AAU?$_Wrap_alloc@V?$allocator@VCBotNSTech@@@std@@@0@@Z 10027bb0 f i bot_client.obj
 0001:00026be0       ??$_Uninit_move@PAVCBotNSTech@@PAV1@V?$allocator@VCBotNSTech@@@std@@V1@@std@@YAPAVCBotNSTech@@PAV1@00AAU?$_Wrap_alloc@V?$allocator@VCBotNSTech@@@std@@@0@0U_Nonscalar_ptr_iterator_tag@0@@Z 10027be0 f i bot_client.obj
 0001:00026c10       ??$_Uninit_move@PAVTSObjective@@PAV1@U?$_Wrap_alloc@V?$allocator@VTSObjective@@@std@@@std@@@std@@YAPAVTSObjective@@PAV1@00AAU?$_Wrap_alloc@V?$allocator@VTSObjective@@@std@@@0@@Z 10027c10 f i bot_client.obj
 0001:00026c40       ??$_Uninit_move@PAVTSObjective@@PAV1@V?$allocator@VTSObjective@@@std@@V1@@std@@YAPAVTSObjective@@PAV1@00AAU?$_Wrap_alloc@V?$allocator@VTSObjective@@@std@@@0@0U_Nonscalar_ptr_iterator_tag@0@@Z 10027c40 f i bot_client.obj
 0001:00026ca0       ??$_Uninitialized_move@PAVCBotNSTech@@PAV1@U?$_Wrap_alloc@V?$allocator@VCBotNSTech@@@std@@@std@@@std@@YAPAVCBotNSTech@@PAV1@00AAU?$_Wrap_alloc@V?$allocator@VCBotNSTech@@@std@@@0@@Z 10027ca0 f i bot_client.obj
 0001:00026cc0       ??$_Uninitialized_move@PAVTSObjective@@PAV1@U?$_Wrap_alloc@V?$allocator@VTSObjective@@@std@@@std@@@std@@YAPAVTSObjective@@PAV1@00AAU?$_Wrap_alloc@V?$allocator@VTSObjective@@@std@@@0@@Z 10027cc0 f i bot_client.obj
 0001:00026ce0       ??$_Val_type@PAVCBotNSTech@@@std@@YAPAVCBotNSTech@@PAV1@@Z 10027ce0 f i bot_client.obj
 0001:00026cf0       ??$_Val_type@PAVTSObjective@@@std@@YAPAVTSObjective@@PAV1@@Z 10027cf0 f i bot_client.obj
 0001:00026d00       ??$addressof@$$CBVCBotNSTech@@@std@@YAPBVCBotNSTech@@ABV1@@Z 10027d00 f i bot_client.obj
 0001:00026d10       ??$addressof@$$CBVTSObjective@@@std@@YAPBVTSObjective@@ABV1@@Z 10027d10 f i bot_client.obj
 0001:00026d20       ??$construct@VCBotNSTech@@AAV1@@?$_Wrap_alloc@V?$allocator@VCBotNSTech@@@std@@@std@@QAEXPAVCBotNSTech@@AAV2@@Z 10027d20 f i bot_client.obj
 0001:00026d40       ??$construct@VCBotNSTech@@AAV1@@?$allocator@VCBotNSTech@@@std@@QAEXPAVCBotNSTech@@AAV2@@Z 10027d40 f i bot_client.obj
 0001:00026d60       ??$construct@VCBotNSTech@@AAV1@@?$allocator_traits@V?$allocator@VCBotNSTech@@@std@@@std@@SAXAAV?$allocator@VCBotNSTech@@@1@PAVCBotNSTech@@AAV3@@Z 10027d60 f i bot_client.obj
 0001:00026d80       ??$construct@VCBotNSTech@@ABV1@@?$_Wrap_alloc@V?$allocator@VCBotNSTech@@@std@@@std@@QAEXPAVCBotNSTech@@ABV2@@Z 10027d80 f i bot_client.obj
 0001:00026da0       ??$construct@VCBotNSTech@@ABV1@@?$allocator_traits@V?$allocator@VCBotNSTech@@@std@@@std@@SAXAAV?$allocator@VCBotNSTech@@@1@PAVCBotNSTech@@ABV3@@Z 10027da0 f i bot_client.obj
 0001:00026dc0       ??$construct@VCBotNSTech@@V1@@?$_Wrap_alloc@V?$allocator@VCBotNSTech@@@std@@@std@@QAEXPAVCBotNSTech@@$$QAV2@@Z 10027dc0 f i bot_client.obj
 0001:00026de0       ??$construct@VCBotNSTech@@V1@@?$allocator@VCBotNSTech@@@std@@QAEXPAVCBotNSTech@@$$QAV2@@Z 10027de0 f i bot_client.obj
 0001:00026e00       ??$construct@VCBotNSTech@@V1@@?$allocator_traits@V?$allocator@VCBotNSTech@@@std@@@std@@SAXAAV?$allocator@VCBotNSTech@@@1@PAVCBotNSTech@@$$QAV3@@Z 10027e00 f i bot_client.obj
 0001:00026e20       ??$construct@VTSObjective@@AAV1@@?$_Wrap_alloc@V?$allocator@VTSObjective@@@std@@@std@@QAEXPAVTSObjective@@AAV2@@Z 10027e20 f i bot_client.obj
 0001:00026e50       ??$construct@VTSObjective@@AAV1@@?$allocator@VTSObjective@@@std@@QAEXPAVTSObjective@@AAV2@@Z 10027e50 f i bot_client.obj
 0001:00026e80       ??$construct@VTSObjective@@AAV1@@?$allocator_traits@V?$allocator@VTSObjective@@@std@@@std@@SAXAAV?$allocator@VTSObjective@@@1@PAVTSObjective@@AAV3@@Z 10027e80 f i bot_client.obj
 0001:00026eb0       ??$construct@VTSObjective@@ABV1@@?$_Wrap_alloc@V?$allocator@VTSObjective@@@std@@@std@@QAEXPAVTSObjective@@ABV2@@Z 10027eb0 f i bot_client.obj
 0001:00026ee0       ??$construct@VTSObjective@@ABV1@@?$allocator_traits@V?$allocator@VTSObjective@@@std@@@std@@SAXAAV?$allocator@VTSObjective@@@1@PAVTSObjective@@ABV3@@Z 10027ee0 f i bot_client.obj
 0001:00026f10       ??$construct@VTSObjective@@V1@@?$_Wrap_alloc@V?$allocator@VTSObjective@@@std@@@std@@QAEXPAVTSObjective@@$$QAV2@@Z 10027f10 f i bot_client.obj
 0001:00026f40       ??$construct@VTSObjective@@V1@@?$allocator@VTSObjective@@@std@@QAEXPAVTSObjective@@$$QAV2@@Z 10027f40 f i bot_client.obj
 0001:00026f70       ??$construct@VTSObjective@@V1@@?$allocator_traits@V?$allocator@VTSObjective@@@std@@@std@@SAXAAV?$allocator@VTSObjective@@@1@PAVTSObjective@@$$QAV3@@Z 10027f70 f i bot_client.obj
 0001:00026fa0       ??$destroy@VCBotNSTech@@@?$_Wrap_alloc@V?$allocator@VCBotNSTech@@@std@@@std@@QAEXPAVCBotNSTech@@@Z 10027fa0 f i bot_client.obj
 0001:00026fb0       ??$destroy@VCBotNSTech@@@?$allocator@VCBotNSTech@@@std@@QAEXPAVCBotNSTech@@@Z 10027fb0 f i bot_client.obj
 0001:00026fc0       ??$destroy@VCBotNSTech@@@?$allocator_traits@V?$allocator@VCBotNSTech@@@std@@@std@@SAXAAV?$allocator@VCBotNSTech@@@1@PAVCBotNSTech@@@Z 10027fc0 f i bot_client.obj
 0001:00026fd0       ??$forward@AAVCBotNSTech@@@std@@YAAAVCBotNSTech@@AAV1@@Z 10027fd0 f i bot_client.obj
 0001:00026fe0       ??$forward@AAVTSObjective@@@std@@YAAAVTSObjective@@AAV1@@Z 10027fe0 f i bot_client.obj
 0001:00026ff0       ??$forward@ABVCBotNSTech@@@std@@YAABVCBotNSTech@@ABV1@@Z 10027ff0 f i bot_client.obj
 0001:00027000       ??$forward@ABVTSObjective@@@std@@YAABVTSObjective@@ABV1@@Z 10028000 f i bot_client.obj
 0001:00027010       ??$forward@VCBotNSTech@@@std@@YA$$QAVCBotNSTech@@AAV1@@Z 10028010 f i bot_client.obj
 0001:00027020       ??$forward@VTSObjective@@@std@@YA$$QAVTSObjective@@AAV1@@Z 10028020 f i bot_client.obj
 0001:00027030       ??$move@AAVTSObjective@@@std@@YA$$QAVTSObjective@@AAV1@@Z 10028030 f i bot_client.obj
 0001:00027040       ??0?$_Vector_const_iterator@V?$_Vector_val@U?$_Simple_types@VTSObjective@@@std@@@std@@@std@@QAE@PAVTSObjective@@PBU_Container_base0@1@@Z 10028040 f i bot_client.obj
 0001:00027050       ??0?$_Vector_const_iterator@V?$_Vector_val@U?$_Simple_types@VTSObjective@@@std@@@std@@@std@@QAE@XZ 10028050 f i bot_client.obj
 0001:00027060       ??0?$_Vector_iterator@V?$_Vector_val@U?$_Simple_types@VTSObjective@@@std@@@std@@@std@@QAE@PAVTSObjective@@PBU_Container_base0@1@@Z 10028060 f i bot_client.obj
 0001:00027070       ??0?$_Vector_iterator@V?$_Vector_val@U?$_Simple_types@VTSObjective@@@std@@@std@@@std@@QAE@XZ 10028070 f i bot_client.obj
 0001:00027080       ??0?$_Wrap_alloc@V?$allocator@VCBotNSTech@@@std@@@std@@QAE@XZ 10028080 f i bot_client.obj
 0001:00027090       ??0?$allocator@VCBotNSTech@@@std@@QAE@XZ 10028090 f i bot_client.obj
 0001:000270a0       ??0?$dataNode@PAD@@QAE@XZ  100280a0 f i bot_client.obj
 0001:000270b0       ??0?$dataNode@PAVCBotNetMessage@@@@QAE@XZ 100280b0 f i bot_client.obj
 0001:000270c0       ??0BotClient_All_Generic_SayText@@QAE@XZ 100280c0 f i bot_client.obj
 0001:00027100       ??0BotClient_BG_MakeMessage@@QAE@XZ 10028100 f i bot_client.obj
 0001:00027140       ??0BotClient_DMC_QuakeItem@@QAE@XZ 10028140 f i bot_client.obj
 0001:00027180       ??0BotClient_Generic_AmmoPickup@@QAE@XZ 10028180 f i bot_client.obj
 0001:000271c0       ??0BotClient_Generic_AmmoX@@QAE@XZ 100281c0 f i bot_client.obj
 0001:00027200       ??0BotClient_Generic_Battery@@QAE@XZ 10028200 f i bot_client.obj
 0001:00027240       ??0BotClient_Generic_CurrentWeapon@@QAE@XZ 10028240 f i bot_client.obj
 0001:00027280       ??0BotClient_Generic_Damage@@QAE@XZ 10028280 f i bot_client.obj
 0001:000272c0       ??0BotClient_Generic_DeathMessage@@QAE@XZ 100282c0 f i bot_client.obj
 0001:00027300       ??0BotClient_Generic_Health@@QAE@XZ 10028300 f i bot_client.obj
 0001:00027340       ??0BotClient_Generic_ItemPickup@@QAE@XZ 10028340 f i bot_client.obj
 0001:00027380       ??0BotClient_Generic_SayText@@QAE@XZ 10028380 f i bot_client.obj
 0001:000273c0       ??0BotClient_Generic_ScreenFade@@QAE@XZ 100283c0 f i bot_client.obj
 0001:00027400       ??0BotClient_Generic_ScreenShake@@QAE@XZ 10028400 f i bot_client.obj
 0001:00027440       ??0BotClient_Generic_ShowMenu@@QAE@XZ 10028440 f i bot_client.obj
 0001:00027480       ??0BotClient_Generic_TeamScore@@QAE@XZ 10028480 f i bot_client.obj
 0001:000274c0       ??0BotClient_Generic_TextMessage@@QAE@XZ 100284c0 f i bot_client.obj
 0001:00027500       ??0BotClient_Generic_VGUIMenu@@QAE@XZ 10028500 f i bot_client.obj
 0001:00027540       ??0BotClient_Generic_WeaponList@@QAE@XZ 10028540 f i bot_client.obj
 0001:00027580       ??0BotClient_Generic_WeaponPickup@@QAE@XZ 10028580 f i bot_client.obj
 0001:000275c0       ??0BotClient_NS_AlienInfo@@QAE@XZ 100285c0 f i bot_client.obj
 0001:00027600       ??0BotClient_NS_Commndr@@QAE@XZ 10028600 f i bot_client.obj
 0001:00027640       ??0BotClient_NS_HudText@@QAE@XZ 10028640 f i bot_client.obj
 0001:00027680       ??0BotClient_NS_SetOrder@@QAE@XZ 10028680 f i bot_client.obj
 0001:000276c0       ??0BotClient_NS_SetTech@@QAE@XZ 100286c0 f i bot_client.obj
 0001:00027700       ??0BotClient_NS_TechSlots@@QAE@XZ 10028700 f i bot_client.obj
 0001:00027740       ??0BotClient_TS_ClipInfo@@QAE@XZ 10028740 f i bot_client.obj
 0001:00027780       ??0BotClient_TS_DelObj@@QAE@XZ 10028780 f i bot_client.obj
 0001:000277c0       ??0BotClient_TS_Objective@@QAE@XZ 100287c0 f i bot_client.obj
 0001:00027800       ??0BotClient_TS_State@@QAE@XZ 10028800 f i bot_client.obj
 0001:00027840       ??0BotClient_TS_WStatus@@QAE@XZ 10028840 f i bot_client.obj
 0001:00027880       ??0BotClient_TS_WeaponInfo@@QAE@XZ 10028880 f i bot_client.obj
 0001:000278c0       ??0CBotNSTech@@QAE@W4AvHMessageID@@FFFF@Z 100288c0 f i bot_client.obj
 0001:000278f0       ??0CBotNetMessage@@QAE@XZ  100288f0 f i bot_client.obj
 0001:00027910       ??0TSObjective@@QAE@HVVector@@PAD@Z 10028910 f i bot_client.obj
 0001:00027940       ??8?$_Vector_const_iterator@V?$_Vector_val@U?$_Simple_types@VTSObjective@@@std@@@std@@@std@@QBE_NABV01@@Z 10028940 f i bot_client.obj
 0001:00027960       ??8CBotNSTech@@QAEHV0@@Z   10028960 f i bot_client.obj
 0001:00027980       ??9?$_Vector_const_iterator@V?$_Vector_val@U?$_Simple_types@VTSObjective@@@std@@@std@@@std@@QBE_NABV01@@Z 10028980 f i bot_client.obj
 0001:000279a0       ??A?$vector@VCBotNSTech@@V?$allocator@VCBotNSTech@@@std@@@std@@QAEAAVCBotNSTech@@I@Z 100289a0 f i bot_client.obj
 0001:000279b0       ??D?$_Vector_const_iterator@V?$_Vector_val@U?$_Simple_types@VTSObjective@@@std@@@std@@@std@@QBEABVTSObjective@@XZ 100289b0 f i bot_client.obj
 0001:000279c0       ??D?$_Vector_iterator@V?$_Vector_val@U?$_Simple_types@VTSObjective@@@std@@@std@@@std@@QBEAAVTSObjective@@XZ 100289c0 f i bot_client.obj
 0001:000279d0       ??E?$_Vector_const_iterator@V?$_Vector_val@U?$_Simple_types@VTSObjective@@@std@@@std@@@std@@QAEAAV01@XZ 100289d0 f i bot_client.obj
 0001:000279e0       ??E?$_Vector_iterator@V?$_Vector_val@U?$_Simple_types@VTSObjective@@@std@@@std@@@std@@QAEAAV01@XZ 100289e0 f i bot_client.obj
 0001:000279f0       ?Add@?$dataUnconstArray@VCBotNSTech@@@@QAEXVCBotNSTech@@@Z 100289f0 f i bot_client.obj
 0001:00027a70       ?Add@?$dataUnconstArray@VTSObjective@@@@QAEXVTSObjective@@@Z 10028a70 f i bot_client.obj
 0001:00027a80       ?AddNetMessage@CBotNetMessages@@QAEXPAVCBotNetMessage@@@Z 10028a80 f i bot_client.obj
 0001:00027ad0       ?CantBuildHere@CBot@@QAEXXZ 10028ad0 f i bot_client.obj
 0001:00027b00       ?ChooseFromStack@?$dataStack@PAD@@QAEPADXZ 10028b00 f i bot_client.obj
 0001:00027b10       ?ClearTasks@CBot@@QAEXXZ   10028b10 f i bot_client.obj
 0001:00027bf0       ?Disguised@CBot@@QAEXXZ    10028bf0 f i bot_client.obj
 0001:00027c00       ?DispenserBuilt@CBot@@QAEXXZ 10028c00 f i bot_client.obj
 0001:00027c10       ?DispenserDestroyed@CBot@@QAEXXZ 10028c10 f i bot_client.obj
 0001:00027c20       ?FindClient@CClients@@QAEPAUedict_s@@PBD@Z 10028c20 f i bot_client.obj
 0001:00027cc0       ?GetString@CStoredStrings@@QAEPADPBD@Z 10028cc0 f i bot_client.obj
 0001:00027da0       ?HasPlayerName@CClient@@QAEHPBD@Z 10028da0 f i bot_client.obj
 0001:00027e10       ?Init@?$dataStack@PAD@@QAEXXZ 10028e10 f i bot_client.obj
 0001:00027e20       ?IsEmpty@?$dataStack@PAD@@QAEHXZ 10028e20 f i bot_client.obj
 0001:00027e30       ?IsMember@?$dataUnconstArray@VCBotNSTech@@@@QAEHVCBotNSTech@@@Z 10028e30 f i bot_client.obj
 0001:00027e70       ?LostDisguise@CBot@@QAEXXZ 10028e70 f i bot_client.obj
 0001:00027e80       ?PlayerDead@CBot@@QAEXPAUedict_s@@@Z 10028e80 f i bot_client.obj
 0001:00027ea0       ?Push@?$dataStack@PAD@@QAEXQAD@Z 10028ea0 f i bot_client.obj
 0001:00027ef0       ?Push@?$dataStack@PAVCBotNetMessage@@@@QAEXQAVCBotNetMessage@@@Z 10028ef0 f i bot_client.obj
 0001:00027f40       ?RemoveByPointer@?$dataUnconstArray@VTSObjective@@@@QAEXPAVTSObjective@@@Z 10028f40 f i bot_client.obj
 0001:00027fc0       ?RemoveWeapon@CBotWeapon@@QAEXXZ 10028fc0 f i bot_client.obj
 0001:00027fd0       ?RemoveWeapon@CBotWeapons@@QAEXH@Z 10028fd0 f i bot_client.obj
 0001:00027ff0       ?RemoveWeapons@CBotWeapons@@QAEXXZ 10028ff0 f i bot_client.obj
 0001:00028010       ?ReturnPointerFromIndex@?$dataUnconstArray@VTSObjective@@@@QAEPAVTSObjective@@H@Z 10029010 f i bot_client.obj
 0001:00028030       ?SetCommander@CBotGlobals@@QAEXPAUedict_s@@@Z 10029030 f i bot_client.obj
 0001:00028040       ?SetVGUIState@CBot@@QAEXH@Z 10029040 f i bot_client.obj
 0001:00028050       ?SetupNetMessages@@YAXXZ   10029050 f   bot_client.obj
 0001:00029150       ?Size@?$dataUnconstArray@VTSObjective@@@@QAEHXZ 1002a150 f i bot_client.obj
 0001:00029170       ?StoppedBuilding@CBot@@QAEXXZ 1002a170 f i bot_client.obj
 0001:00029180       ?TFCSentryDestroyed@CClient@@QAEXXZ 1002a180 f i bot_client.obj
 0001:00029190       ?TFCTeleEntranceDestroyed@CClient@@QAEXXZ 1002a190 f i bot_client.obj
 0001:000291a0       ?TFCTeleExitDestroyed@CClient@@QAEXXZ 1002a1a0 f i bot_client.obj
 0001:000291e0       ?UpdateAmmo@CBotWeapons@@QAEXHH@Z 1002a1e0 f i bot_client.obj
 0001:00029200       ?UpdateWeapon@CBotWeapon@@QAEXH@Z 1002a200 f i bot_client.obj
 0001:00029210       ?UseRPGLaser@CBot@@QAEXXZ  1002a210 f i bot_client.obj
 0001:00029280       ?_Compat@?$_Vector_const_iterator@V?$_Vector_val@U?$_Simple_types@VTSObjective@@@std@@@std@@@std@@QBEXABV12@@Z 1002a280 f i bot_client.obj
 0001:00029290       ?_Destroy@?$vector@VCBotNSTech@@V?$allocator@VCBotNSTech@@@std@@@std@@IAEXPAVCBotNSTech@@0@Z 1002a290 f i bot_client.obj
 0001:000292a0       ?_Getal@?$_Vector_alloc@$0A@U?$_Vec_base_types@VCBotNSTech@@V?$allocator@VCBotNSTech@@@std@@@std@@@std@@QBE?AU?$_Wrap_alloc@V?$allocator@VCBotNSTech@@@std@@@2@XZ 1002a2a0 f i bot_client.obj
 0001:000292b0       ?_Grow_to@?$vector@VCBotNSTech@@V?$allocator@VCBotNSTech@@@std@@@std@@IBEII@Z 1002a2b0 f i bot_client.obj
 0001:000292f0       ?_Grow_to@?$vector@VTSObjective@@V?$allocator@VTSObjective@@@std@@@std@@IBEII@Z 1002a2f0 f i bot_client.obj
 0001:00029340       ?_Inside@?$vector@VCBotNSTech@@V?$allocator@VCBotNSTech@@@std@@@std@@IBE_NPBVCBotNSTech@@@Z 1002a340 f i bot_client.obj
 0001:00029360       ?_Inside@?$vector@VTSObjective@@V?$allocator@VTSObjective@@@std@@@std@@IBE_NPBVTSObjective@@@Z 1002a360 f i bot_client.obj
 0001:00029380       ?_Make_iter@?$vector@VTSObjective@@V?$allocator@VTSObjective@@@std@@@std@@QBE?AV?$_Vector_iterator@V?$_Vector_val@U?$_Simple_types@VTSObjective@@@std@@@std@@@2@V?$_Vector_const_iterator@V?$_Vector_val@U?$_Simple_types@VTSObjective@@@std@@@std@@@2@@Z 1002a380 f i bot_client.obj
 0001:00029390       ?_Orphan_range@?$vector@VCBotNSTech@@V?$allocator@VCBotNSTech@@@std@@@std@@IBEXPAVCBotNSTech@@0@Z 1002a390 f i bot_client.obj
 0001:000293a0       ?_Orphan_range@?$vector@VTSObjective@@V?$allocator@VTSObjective@@@std@@@std@@IBEXPAVTSObjective@@0@Z 1002a3a0 f i bot_client.obj
 0001:000293b0       ?_Reallocate@?$vector@VCBotNSTech@@V?$allocator@VCBotNSTech@@@std@@@std@@IAEXI@Z 1002a3b0 f i bot_client.obj
 0001:00029480       ?_Reallocate@?$vector@VTSObjective@@V?$allocator@VTSObjective@@@std@@@std@@IAEXI@Z 1002a480 f i bot_client.obj
 0001:00029570       ?_Reserve@?$vector@VCBotNSTech@@V?$allocator@VCBotNSTech@@@std@@@std@@IAEXI@Z 1002a570 f i bot_client.obj
 0001:000295f0       ?_Reserve@?$vector@VTSObjective@@V?$allocator@VTSObjective@@@std@@@std@@IAEXI@Z 1002a5f0 f i bot_client.obj
 0001:000296a0       ?_Unused_capacity@?$vector@VCBotNSTech@@V?$allocator@VCBotNSTech@@@std@@@std@@QBEIXZ 1002a6a0 f i bot_client.obj
 0001:000296b0       ?_Unused_capacity@?$vector@VTSObjective@@V?$allocator@VTSObjective@@@std@@@std@@QBEIXZ 1002a6b0 f i bot_client.obj
 0001:000296d0       ?_Xlen@?$vector@VCBotNSTech@@V?$allocator@VCBotNSTech@@@std@@@std@@IBEXXZ 1002a6d0 f i bot_client.obj
 0001:000296e0       ?_Xlen@?$vector@VTSObjective@@V?$allocator@VTSObjective@@@std@@@std@@IBEXXZ 1002a6e0 f i bot_client.obj
 0001:000296f0       ?addTech@CBotNSTechs@@QAEXVCBotNSTech@@@Z 1002a6f0 f i bot_client.obj
 0001:00029780       ?allocate@?$_Wrap_alloc@V?$allocator@VCBotNSTech@@@std@@@std@@QAEPAVCBotNSTech@@I@Z 1002a780 f i bot_client.obj
 0001:000297c0       ?allocate@?$_Wrap_alloc@V?$allocator@VTSObjective@@@std@@@std@@QAEPAVTSObjective@@I@Z 1002a7c0 f i bot_client.obj
 0001:00029800       ?allocate@?$allocator@VCBotNSTech@@@std@@QAEPAVCBotNSTech@@I@Z 1002a800 f i bot_client.obj
 0001:00029840       ?allocate@?$allocator@VTSObjective@@@std@@QAEPAVTSObjective@@I@Z 1002a840 f i bot_client.obj
 0001:00029880       ?allowHumans@CBotNetMessage@@QAEXXZ 1002a880 f i bot_client.obj
 0001:00029890       ?begin@?$vector@VTSObjective@@V?$allocator@VTSObjective@@@std@@@std@@QAE?AV?$_Vector_iterator@V?$_Vector_val@U?$_Simple_types@VTSObjective@@@std@@@std@@@2@XZ 1002a890 f i bot_client.obj
 0001:000298a0       ?capacity@?$vector@VCBotNSTech@@V?$allocator@VCBotNSTech@@@std@@@std@@QBEIXZ 1002a8a0 f i bot_client.obj
 0001:000298b0       ?capacity@?$vector@VTSObjective@@V?$allocator@VTSObjective@@@std@@@std@@QBEIXZ 1002a8b0 f i bot_client.obj
 0001:000298d0       ?checkMaxClip@CBotWeapon@@QAEXH@Z 1002a8d0 f i bot_client.obj
 0001:000298f0       ?construct@?$allocator@VCBotNSTech@@@std@@QAEXPAVCBotNSTech@@ABV3@@Z 1002a8f0 f i bot_client.obj
 0001:00029910       ?construct@?$allocator@VTSObjective@@@std@@QAEXPAVTSObjective@@ABV3@@Z 1002a910 f i bot_client.obj
 0001:00029940       ?deallocate@?$_Wrap_alloc@V?$allocator@VCBotNSTech@@@std@@@std@@QAEXPAVCBotNSTech@@I@Z 1002a940 f i bot_client.obj
 0001:00029960       ?deallocate@?$_Wrap_alloc@V?$allocator@VTSObjective@@@std@@@std@@QAEXPAVTSObjective@@I@Z 1002a960 f i bot_client.obj
 0001:00029980       ?deallocate@?$allocator@VCBotNSTech@@@std@@QAEXPAVCBotNSTech@@I@Z 1002a980 f i bot_client.obj
 0001:000299a0       ?deallocate@?$allocator@VTSObjective@@@std@@QAEXPAVTSObjective@@I@Z 1002a9a0 f i bot_client.obj
 0001:000299c0       ?end@?$vector@VTSObjective@@V?$allocator@VTSObjective@@@std@@@std@@QAE?AV?$_Vector_iterator@V?$_Vector_val@U?$_Simple_types@VTSObjective@@@std@@@std@@@2@XZ 1002a9c0 f i bot_client.obj
 0001:000299d0       ?erase@?$vector@VTSObjective@@V?$allocator@VTSObjective@@@std@@@std@@QAE?AV?$_Vector_iterator@V?$_Vector_val@U?$_Simple_types@VTSObjective@@@std@@@std@@@2@V?$_Vector_const_iterator@V?$_Vector_val@U?$_Simple_types@VTSObjective@@@std@@@std@@@2@@Z 1002a9d0 f i bot_client.obj
 0001:00029a10       ?execute@BotClient_All_Generic_SayText@@UAEXPAXH@Z 1002aa10 f   bot_client.obj
 0001:00029a40       ?execute@BotClient_BG_MakeMessage@@UAEXPAXH@Z 1002aa40 f   bot_client.obj
 0001:00029bb0       ?execute@BotClient_DMC_QuakeItem@@UAEXPAXH@Z 1002abb0 f   bot_client.obj
 0001:00029c20       ?execute@BotClient_Generic_AmmoPickup@@UAEXPAXH@Z 1002ac20 f   bot_client.obj
 0001:00029ca0       ?execute@BotClient_Generic_AmmoX@@UAEXPAXH@Z 1002aca0 f   bot_client.obj
 0001:00029d20       ?execute@BotClient_Generic_Battery@@UAEXPAXH@Z 1002ad20 f   bot_client.obj
 0001:00029d30       ?execute@BotClient_Generic_CurrentWeapon@@UAEXPAXH@Z 1002ad30 f   bot_client.obj
 0001:00029f20       ?execute@BotClient_Generic_Damage@@UAEXPAXH@Z 1002af20 f   bot_client.obj
 0001:0002a060       ?execute@BotClient_Generic_DeathMessage@@UAEXPAXH@Z 1002b060 f   bot_client.obj
 0001:0002a360       ?execute@BotClient_Generic_Health@@UAEXPAXH@Z 1002b360 f   bot_client.obj
 0001:0002a4d0       ?execute@BotClient_Generic_ItemPickup@@UAEXPAXH@Z 1002b4d0 f   bot_client.obj
 0001:0002a510       ?execute@BotClient_Generic_SayText@@UAEXPAXH@Z 1002b510 f   bot_client.obj
 0001:0002a540       ?execute@BotClient_Generic_ScreenFade@@UAEXPAXH@Z 1002b540 f   bot_client.obj
 0001:0002a550       ?execute@BotClient_Generic_TeamScore@@UAEXPAXH@Z 1002b550 f   bot_client.obj
 0001:0002a6e0       ?execute@BotClient_Generic_TextMessage@@UAEXPAXH@Z 1002b6e0 f   bot_client.obj
 0001:0002ad50       ?execute@BotClient_Generic_VGUIMenu@@UAEXPAXH@Z 1002bd50 f   bot_client.obj
 0001:0002ad80       ?execute@BotClient_Generic_WeaponList@@UAEXPAXH@Z 1002bd80 f   bot_client.obj
 0001:0002af20       ?execute@BotClient_Generic_WeaponPickup@@UAEXPAXH@Z 1002bf20 f   bot_client.obj
 0001:0002afd0       ?execute@BotClient_NS_AlienInfo@@UAEXPAXH@Z 1002bfd0 f   bot_client.obj
 0001:0002b660       ?execute@BotClient_NS_Commndr@@UAEXPAXH@Z 1002c660 f   bot_client.obj
 0001:0002b6b0       ?execute@BotClient_NS_HudText@@UAEXPAXH@Z 1002c6b0 f   bot_client.obj
 0001:0002b740       ?execute@BotClient_NS_SetOrder@@UAEXPAXH@Z 1002c740 f   bot_client.obj
 0001:0002bde0       ?execute@BotClient_NS_SetTech@@UAEXPAXH@Z 1002cde0 f   bot_client.obj
 0001:0002bf00       ?execute@BotClient_NS_TechSlots@@UAEXPAXH@Z 1002cf00 f   bot_client.obj
 0001:0002bf30       ?execute@BotClient_TS_ClipInfo@@UAEXPAXH@Z 1002cf30 f   bot_client.obj
 0001:0002c040       ?execute@BotClient_TS_DelObj@@UAEXPAXH@Z 1002d040 f   bot_client.obj
 0001:0002c150       ?execute@BotClient_TS_Frags@@UAEXPAXH@Z 1002d150 f   bot_client.obj
 0001:0002c170       ?execute@BotClient_TS_Health@@UAEXPAXH@Z 1002d170 f   bot_client.obj
 0001:0002c190       ?execute@BotClient_TS_Objective@@UAEXPAXH@Z 1002d190 f   bot_client.obj
 0001:0002c2d0       ?execute@BotClient_TS_PTakeDam@@UAEXPAXH@Z 1002d2d0 f   bot_client.obj
 0001:0002c300       ?execute@BotClient_TS_RoundTime@@UAEXPAXH@Z 1002d300 f   bot_client.obj
 0001:0002c320       ?execute@BotClient_TS_State@@UAEXPAXH@Z 1002d320 f   bot_client.obj
 0001:0002c360       ?execute@BotClient_TS_TSMessage@@UAEXPAXH@Z 1002d360 f   bot_client.obj
 0001:0002c370       ?execute@BotClient_TS_TeamInfo@@UAEXPAXH@Z 1002d370 f   bot_client.obj
 0001:0002c390       ?execute@BotClient_TS_WStatus@@UAEXPAXH@Z 1002d390 f   bot_client.obj
 0001:0002c3e0       ?execute@BotClient_TS_WeaponInfo@@UAEXPAXH@Z 1002d3e0 f   bot_client.obj
 0001:0002c570       ?execute@CBotNetMessage@@UAEXPAXH@Z 1002d570 f i bot_client.obj
 0001:0002c580       ?getAvailable@CBotNSTech@@QBEHXZ 1002d580 f i bot_client.obj
 0001:0002c590       ?getCost@CBotNSTech@@QBEHXZ 1002d590 f i bot_client.obj
 0001:0002c5a0       ?getExisting@?$dataUnconstArray@VCBotNSTech@@@@QAEPAVCBotNSTech@@V2@@Z 1002d5a0 f i bot_client.obj
 0001:0002c5e0       ?getID@CBotNSTech@@QBE?AW4AvHMessageID@@XZ 1002d5e0 f i bot_client.obj
 0001:0002c5f0       ?getID@TSObjective@@QAEHXZ 1002d5f0 f i bot_client.obj
 0001:0002c600       ?getMaxClip@CBotWeapon@@QAEHXZ 1002d600 f i bot_client.obj
 0001:0002c610       ?getReserve@CBotWeapon@@QAEHXZ 1002d610 f i bot_client.obj
 0001:0002c620       ?getTFCTeleEntrance@CClient@@QAEPAUedict_s@@XZ 1002d620 f i bot_client.obj
 0001:0002c630       ?getTFCTeleExit@CClient@@QAEPAUedict_s@@XZ 1002d630 f i bot_client.obj
 0001:0002c640       ?isStateMsg@CBotNetMessage@@UAEHXZ 1002d640 f i bot_client.obj
 0001:0002c650       ?max_size@?$_Wrap_alloc@V?$allocator@VCBotNSTech@@@std@@@std@@QBEIXZ 1002d650 f i bot_client.obj
 0001:0002c660       ?max_size@?$_Wrap_alloc@V?$allocator@VTSObjective@@@std@@@std@@QBEIXZ 1002d660 f i bot_client.obj
 0001:0002c670       ?max_size@?$allocator@VCBotNSTech@@@std@@QBEIXZ 1002d670 f i bot_client.obj
 0001:0002c680       ?max_size@?$allocator@VTSObjective@@@std@@QBEIXZ 1002d680 f i bot_client.obj
 0001:0002c690       ?max_size@?$allocator_traits@V?$allocator@VCBotNSTech@@@std@@@std@@SAIABV?$allocator@VCBotNSTech@@@2@@Z 1002d690 f i bot_client.obj
 0001:0002c6a0       ?max_size@?$allocator_traits@V?$allocator@VTSObjective@@@std@@@std@@SAIABV?$allocator@VTSObjective@@@2@@Z 1002d6a0 f i bot_client.obj
 0001:0002c6b0       ?max_size@?$vector@VCBotNSTech@@V?$allocator@VCBotNSTech@@@std@@@std@@QBEIXZ 1002d6b0 f i bot_client.obj
 0001:0002c6c0       ?max_size@?$vector@VTSObjective@@V?$allocator@VTSObjective@@@std@@@std@@QBEIXZ 1002d6c0 f i bot_client.obj
 0001:0002c6d0       ?push_back@?$vector@VCBotNSTech@@V?$allocator@VCBotNSTech@@@std@@@std@@QAEXABVCBotNSTech@@@Z 1002d6d0 f i bot_client.obj
 0001:0002c730       ?push_back@?$vector@VTSObjective@@V?$allocator@VTSObjective@@@std@@@std@@QAEXABVTSObjective@@@Z 1002d730 f i bot_client.obj
 0001:0002c7e0       ?setHasWeapon@CBotWeapons@@QAEXHH@Z 1002d7e0 f i bot_client.obj
 0001:0002c820       ?setMod@CBotNetMessage@@QAEXH@Z 1002d820 f i bot_client.obj
 0001:0002c830       ?setReserve@CBotWeapon@@QAEXH@Z 1002d830 f i bot_client.obj
 0001:0002c840       ?setTFCTeleEntrance@CClient@@QAEXPAUedict_s@@@Z 1002d840 f i bot_client.obj
 0001:0002c850       ?setTFCTeleExit@CClient@@QAEXPAUedict_s@@@Z 1002d850 f i bot_client.obj
 0001:0002c860       ?size@?$vector@VCBotNSTech@@V?$allocator@VCBotNSTech@@@std@@@std@@QBEIXZ 1002d860 f i bot_client.obj
 0001:0002c870       ?update@CBotNSTech@@QAEXV1@@Z 1002d870 f i bot_client.obj
 0001:0002c890       ??$_Allocate@PAD@std@@YAPAPADIPAPAD@Z 1002d890 f i bot_commands.obj
 0001:0002c8c0       ??$_Destroy_range@U?$_Wrap_alloc@V?$allocator@PAD@std@@@std@@@std@@YAXPAPAD0AAU?$_Wrap_alloc@V?$allocator@PAD@std@@@0@@Z 1002d8c0 f i bot_commands.obj
 0001:0002c8d0       ??$_Destroy_range@U?$_Wrap_alloc@V?$allocator@PAD@std@@@std@@@std@@YAXPAPAD0AAU?$_Wrap_alloc@V?$allocator@PAD@std@@@0@U_Scalar_ptr_iterator_tag@0@@Z 1002d8d0 f i bot_commands.obj
 0001:0002c8e0       ??$_Ptr_cat@PADPAD@std@@YA?AU_Scalar_ptr_iterator_tag@0@PAPAD0@Z 1002d8e0 f i bot_commands.obj
 0001:0002c8f0       ??$_Rechecked@PAPADPAPAD@std@@YAAAPAPADAAPAPADPAPAD@Z 1002d8f0 f i bot_commands.obj
 0001:0002c900       ??$_Umove@PAPAD@?$vector@PADV?$allocator@PAD@std@@@std@@IAEPAPADPAPAD00@Z 1002d900 f i bot_commands.obj
 0001:0002c930       ??$_Unchecked@PAPAD@std@@YAPAPADPAPAD@Z 1002d930 f i bot_commands.obj
 0001:0002c940       ??$_Uninit_move@PADPADPAD@std@@YAPAPADPAPAD00AAU?$_Wrap_alloc@V?$allocator@PAD@std@@@0@0U_Scalar_ptr_iterator_tag@0@@Z 1002d940 f i bot_commands.obj
 0001:0002c970       ??$_Uninit_move@PAPADPAPADU?$_Wrap_alloc@V?$allocator@PAD@std@@@std@@@std@@YAPAPADPAPAD00AAU?$_Wrap_alloc@V?$allocator@PAD@std@@@0@@Z 1002d970 f i bot_commands.obj
 0001:0002c9a0       ??$_Uninitialized_move@PAPADPAPADU?$_Wrap_alloc@V?$allocator@PAD@std@@@std@@@std@@YAPAPADPAPAD00AAU?$_Wrap_alloc@V?$allocator@PAD@std@@@0@@Z 1002d9a0 f i bot_commands.obj
 0001:0002c9d0       ??$_Val_type@PAPAD@std@@YAPAPADPAPAD@Z 1002d9d0 f i bot_commands.obj
 0001:0002c9e0       ??$addressof@QAD@std@@YAPBQADABQAD@Z 1002d9e0 f i bot_commands.obj
 0001:0002c9f0       ??$construct@PADAAPAD@?$_Wrap_alloc@V?$allocator@PAD@std@@@std@@QAEXPAPADAAPAD@Z 1002d9f0 f i bot_commands.obj
 0001:0002ca10       ??$construct@PADAAPAD@?$allocator@PAD@std@@QAEXPAPADAAPAD@Z 1002da10 f i bot_commands.obj
 0001:0002ca30       ??$construct@PADAAPAD@?$allocator_traits@V?$allocator@PAD@std@@@std@@SAXAAV?$allocator@PAD@1@PAPADAAPAD@Z 1002da30 f i bot_commands.obj
 0001:0002ca50       ??$construct@PADABQAD@?$_Wrap_alloc@V?$allocator@PAD@std@@@std@@QAEXPAPADABQAD@Z 1002da50 f i bot_commands.obj
 0001:0002ca70       ??$construct@PADABQAD@?$allocator_traits@V?$allocator@PAD@std@@@std@@SAXAAV?$allocator@PAD@1@PAPADABQAD@Z 1002da70 f i bot_commands.obj
 0001:0002ca90       ??$forward@AAPAD@std@@YAAAPADAAPAD@Z 1002da90 f i bot_commands.obj
 0001:0002caa0       ??$forward@ABQAD@std@@YAABQADABQAD@Z 1002daa0 f i bot_commands.obj
 0001:0002cab0       ??0?$_Vector_alloc@$0A@U?$_Vec_base_types@PADV?$allocator@PAD@std@@@std@@@std@@QAE@ABV?$allocator@PAD@1@@Z 1002dab0 f i bot_commands.obj
 0001:0002cad0       ??0?$_Vector_val@U?$_Simple_types@PAD@std@@@std@@QAE@XZ 1002dad0 f i bot_commands.obj
 0001:0002caf0       ??0?$_Wrap_alloc@V?$allocator@PAD@std@@@std@@QAE@XZ 1002daf0 f i bot_commands.obj
 0001:0002cb00       ??0?$allocator@PAD@std@@QAE@XZ 1002db00 f i bot_commands.obj
 0001:0002cb10       ??0?$dataNode@PAVCBotCvar@@@@QAE@XZ 1002db10 f i bot_commands.obj
 0001:0002cb20       ??0?$dataNode@VCAllowedPlayer@@@@QAE@XZ 1002db20 f i bot_commands.obj
 0001:0002cb40       ??0?$dataUnconstArray@PAD@@QAE@XZ 1002db40 f i bot_commands.obj
 0001:0002cb60       ??0?$vector@PADV?$allocator@PAD@std@@@std@@QAE@XZ 1002db60 f i bot_commands.obj
 0001:0002cb80       ??0CAddBotCommand@@QAE@XZ  1002db80 f i bot_commands.obj
 0001:0002cbb0       ??0CAllowedPlayer@@QAE@PBDPADH1@Z 1002dbb0 f i bot_commands.obj
 0001:0002cc10       ??0CAllowedPlayer@@QAE@XZ  1002dc10 f i bot_commands.obj
 0001:0002cc30       ??0CAutoWaypointCommand@@QAE@XZ 1002dc30 f i bot_commands.obj
 0001:0002cc60       ??0CBotCamCommand@@QAE@XZ  1002dc60 f i bot_commands.obj
 0001:0002cc90       ??0CBotCvar@@QAE@XZ        1002dc90 f i bot_commands.obj
 0001:0002cca0       ??0CBotMenuCommand@@QAE@XZ 1002dca0 f i bot_commands.obj
 0001:0002ccd0       ??0CBotSquadCommand@@QAE@XZ 1002dcd0 f i bot_commands.obj
 0001:0002cd00       ??0CConfigCommand@@QAE@XZ  1002dd00 f i bot_commands.obj
 0001:0002cd30       ??0CDebugBotCommand@@QAE@XZ 1002dd30 f i bot_commands.obj
 0001:0002cd60       ??0CDebugCommand@@QAE@XZ   1002dd60 f i bot_commands.obj
 0001:0002cd90       ??0CDebugEntCommand@@QAE@XZ 1002dd90 f i bot_commands.obj
 0001:0002cdc0       ??0CHelpCommand@@QAE@XZ    1002ddc0 f i bot_commands.obj
 0001:0002cdf0       ??0CMenuSelectCommand@@QAE@XZ 1002ddf0 f i bot_commands.obj
 0001:0002ce20       ??0CPathWaypointCommand@@QAE@XZ 1002de20 f i bot_commands.obj
 0001:0002ce50       ??0CRemoveBotCommand@@QAE@XZ 1002de50 f i bot_commands.obj
 0001:0002ce80       ??0CSetPassCommand@@QAE@XZ 1002de80 f i bot_commands.obj
 0001:0002ceb0       ??0CSquadMenuCommand@@QAE@XZ 1002deb0 f i bot_commands.obj
 0001:0002cee0       ??0CUsersCommand@@QAE@XZ   1002dee0 f i bot_commands.obj
 0001:0002cf10       ??0CUtilCommand@@QAE@XZ    1002df10 f i bot_commands.obj
 0001:0002cf40       ??0CWaypointCommand@@QAE@XZ 1002df40 f i bot_commands.obj
 0001:0002cf70       ??0CWaypointMenuCommand@@QAE@XZ 1002df70 f i bot_commands.obj
 0001:0002cfa0       ??0CWhichbotConvert@@QAE@XZ 1002dfa0 f i bot_commands.obj
 0001:0002d050       ??0HudText@@QAE@XZ         1002e050 f i bot_commands.obj
 0001:0002d060       ??1?$dataUnconstArray@PAD@@QAE@XZ 1002e060 f i bot_commands.obj
 0001:0002d090       ??1?$vector@PADV?$allocator@PAD@std@@@std@@QAE@XZ 1002e090 f i bot_commands.obj
 0001:0002d0c0       ??8CAllowedPlayer@@QAEHV0@@Z 1002e0c0 f i bot_commands.obj
 0001:0002d180       ??BVector@@QBEPBMXZ        1002e180 f i bot_commands.obj
 0001:0002d190       ?Activate@CBotMenu@@QAEXHPAVCClient@@@Z 1002e190 f i bot_commands.obj
 0001:0002d1b0       ?Add@?$dataUnconstArray@PAD@@QAEXQAD@Z 1002e1b0 f i bot_commands.obj
 0001:0002d1c0       ?AddCvar@CBotCvarList@@QAEXPAVCBotCvar@@@Z 1002e1c0 f   bot_commands.obj
 0001:0002d210       ?AddPlayer@CAllowedPlayers@@QAEXPBDPADH1@Z 1002e210 f i bot_commands.obj
 0001:0002d2f0       ?AutoWaypoint@CClient@@QAEXH@Z 1002e2f0 f i bot_commands.obj
 0001:0002d340       ?BotFunc_AddBot@@YA?AW4eBotCvarState@@PAVCClient@@PBD111@Z 1002e340 f   bot_commands.obj
 0001:0002ddc0       ?ChangeConfigSetting@CBotGlobals@@QAEXHH@Z 1002edc0 f i bot_commands.obj
 0001:0002ddf0       ?ChangeSpread@CBotSquad@@QAEXM@Z 1002edf0 f i bot_commands.obj
 0001:0002de10       ?ChooseFromStack@?$dataStack@PAVCBotCvar@@@@QAEPAVCBotCvar@@XZ 1002ee10 f i bot_commands.obj
 0001:0002de20       ?ChoosePointerFromStack@?$dataStack@VCAllowedPlayer@@@@QAEPAVCAllowedPlayer@@XZ 1002ee20 f i bot_commands.obj
 0001:0002de30       ?Clear@?$dataUnconstArray@PAD@@QAEXXZ 1002ee30 f i bot_commands.obj
 0001:0002de40       ?Destroy@?$dataStack@VCAllowedPlayer@@@@QAEXXZ 1002ee40 f i bot_commands.obj
 0001:0002de70       ?Destroy@?$dataUnconstArray@PAD@@QAEXXZ 1002ee70 f i bot_commands.obj
 0001:0002de80       ?Destroy@CAllowedPlayers@@QAEXXZ 1002ee80 f i bot_commands.obj
 0001:0002deb0       ?FindSquadByLeader@CBotSquads@@QAEPAVCBotSquad@@PAUedict_s@@@Z 1002eeb0 f i bot_commands.obj
 0001:0002df00       ?FreeMemory@CWaypointConversion@@QAEXXZ 1002ef00 f i bot_commands.obj
 0001:0002dfa0       ?GetCommandName@CBotCvar@@QAEPBDXZ 1002efa0 f i bot_commands.obj
 0001:0002dfb0       ?GetCvar@CBotCvarList@@QAEPAVCBotCvar@@PBD@Z 1002efb0 f i bot_commands.obj
 0001:0002e030       ?GetPass@CClient@@QAEPADXZ 1002f030 f i bot_commands.obj
 0001:0002e040       ?GetTeleportVector@CClient@@QBEPBVVector@@XZ 1002f040 f i bot_commands.obj
 0001:0002e050       ?GiveTSWeapon@@YAXPAUedict_s@@H@Z 1002f050 f   bot_commands.obj
 0001:0002e0b0       ?Init@?$dataStack@PAVCBotCvar@@@@QAEXXZ 1002f0b0 f i bot_commands.obj
 0001:0002e0c0       ?Init@?$dataUnconstArray@PAD@@QAEXXZ 1002f0c0 f i bot_commands.obj
 0001:0002e0d0       ?IsAutoWaypointOn@CClient@@QAEHXZ 1002f0d0 f i bot_commands.obj
 0001:0002e0e0       ?IsCvar@CBotCvar@@QAEHPBD@Z 1002f0e0 f i bot_commands.obj
 0001:0002e130       ?IsEmpty@?$dataStack@PAVCBotCvar@@@@QAEHXZ 1002f130 f i bot_commands.obj
 0001:0002e140       ?IsEmpty@?$dataStack@VCAllowedPlayer@@@@QAEHXZ 1002f140 f i bot_commands.obj
 0001:0002e150       ?IsForName@CAllowedPlayer@@QBEHPBD@Z 1002f150 f i bot_commands.obj
 0001:0002e190       ?IsForPass@CAllowedPlayer@@QBEHPBD@Z 1002f190 f i bot_commands.obj
 0001:0002e1e0       ?IsForSteamID@CAllowedPlayer@@QAEHPAD@Z 1002f1e0 f i bot_commands.obj
 0001:0002e240       ?PrintCommands@CBotCvarList@@QAEXPAUedict_s@@@Z 1002f240 f i bot_commands.obj
 0001:0002e280       ?Push@?$dataStack@PAVCBotCvar@@@@QAEXQAVCBotCvar@@@Z 1002f280 f i bot_commands.obj
 0001:0002e2d0       ?Push@?$dataStack@VCAllowedPlayer@@@@QAEXVCAllowedPlayer@@@Z 1002f2d0 f i bot_commands.obj
 0001:0002e330       ?RCBot_ServerCommand@@YAXXZ 1002f330 f   bot_commands.obj
 0001:0002e4d0       ?Remove@?$dataStack@VCAllowedPlayer@@@@QAEHVCAllowedPlayer@@@Z 1002f4d0 f i bot_commands.obj
 0001:0002e620       ?RemovePlayer@CAllowedPlayers@@QAEXPBDPAD1@Z 1002f620 f i bot_commands.obj
 0001:0002e6a0       ?RemoveTeleportVector@CClient@@QAEXXZ 1002f6a0 f i bot_commands.obj
 0001:0002e6c0       ?ReturnValueFromIndex@?$dataUnconstArray@PAD@@QAEPADH@Z 1002f6c0 f i bot_commands.obj
 0001:0002e6d0       ?SetAccessLevel@CClient@@QAEXH@Z 1002f6d0 f i bot_commands.obj
 0001:0002e6e0       ?SetChannel@HudText@@QAEXH@Z 1002f6e0 f i bot_commands.obj
 0001:0002e6f0       ?SetColour1@HudText@@QAEXVVector@@H@Z 1002f6f0 f i bot_commands.obj
 0001:0002e720       ?SetColour2@HudText@@QAEXVVector@@H@Z 1002f720 f i bot_commands.obj
 0001:0002e750       ?SetEffect@HudText@@QAEXH@Z 1002f750 f i bot_commands.obj
 0001:0002e760       ?SetEffectTime@HudText@@QAEXM@Z 1002f760 f i bot_commands.obj
 0001:0002e780       ?SetFadeTime@HudText@@QAEXMM@Z 1002f780 f i bot_commands.obj
 0001:0002e7a0       ?SetHoldTime@HudText@@QAEXM@Z 1002f7a0 f i bot_commands.obj
 0001:0002e7c0       ?SetPass@CClient@@QAEXPBD@Z 1002f7c0 f i bot_commands.obj
 0001:0002e7f0       ?SetPosition@HudText@@QAEXMM@Z 1002f7f0 f i bot_commands.obj
 0001:0002e810       ?SetTeleportVector@CClient@@QAEXVVector@@@Z 1002f810 f i bot_commands.obj
 0001:0002e870       ?SetupCommands@@YAXXZ      1002f870 f   bot_commands.obj
 0001:0002ee60       ?ShowUser@CAllowedPlayer@@QAEXPAUedict_s@@@Z 1002fe60 f i bot_commands.obj
 0001:0002ee90       ?ShowUsers@CAllowedPlayers@@QAEXPAUedict_s@@@Z 1002fe90 f i bot_commands.obj
 0001:0002eee0       ?Size@?$dataUnconstArray@PAD@@QAEHXZ 1002fee0 f i bot_commands.obj
 0001:0002eef0       ?VARS@@YAPAUentvars_s@@PAUedict_s@@@Z 1002fef0 f i bot_commands.obj
 0001:0002ef10       ?_Destroy@?$vector@PADV?$allocator@PAD@std@@@std@@IAEXPAPAD0@Z 1002ff10 f i bot_commands.obj
 0001:0002ef20       ?_Getal@?$_Vector_alloc@$0A@U?$_Vec_base_types@PADV?$allocator@PAD@std@@@std@@@std@@QBE?AU?$_Wrap_alloc@V?$allocator@PAD@std@@@2@XZ 1002ff20 f i bot_commands.obj
 0001:0002ef30       ?_Grow_to@?$vector@PADV?$allocator@PAD@std@@@std@@IBEII@Z 1002ff30 f i bot_commands.obj
 0001:0002ef70       ?_Inside@?$vector@PADV?$allocator@PAD@std@@@std@@IBE_NPBQAD@Z 1002ff70 f i bot_commands.obj
 0001:0002ef90       ?_Orphan_range@?$vector@PADV?$allocator@PAD@std@@@std@@IBEXPAPAD0@Z 1002ff90 f i bot_commands.obj
 0001:0002efa0       ?_Reallocate@?$vector@PADV?$allocator@PAD@std@@@std@@IAEXI@Z 1002ffa0 f i bot_commands.obj
 0001:0002f020       ?_Reserve@?$vector@PADV?$allocator@PAD@std@@@std@@IAEXI@Z 10030020 f i bot_commands.obj
 0001:0002f0a0       ?_Tidy@?$vector@PADV?$allocator@PAD@std@@@std@@IAEXXZ 100300a0 f i bot_commands.obj
 0001:0002f0d0       ?_Unused_capacity@?$vector@PADV?$allocator@PAD@std@@@std@@QBEIXZ 100300d0 f i bot_commands.obj
 0001:0002f0e0       ?_Xlen@?$vector@PADV?$allocator@PAD@std@@@std@@IBEXXZ 100300e0 f i bot_commands.obj
 0001:0002f0f0       ?_delete@?$dataNode@VCAllowedPlayer@@@@QAEXXZ 100300f0 f i bot_commands.obj
 0001:0002f100       ?action@CAddBotCommand@@UAE?AW4eBotCvarState@@PAVCClient@@PBD111@Z 10030100 f   bot_commands.obj
 0001:0002f120       ?action@CAutoWaypointCommand@@UAE?AW4eBotCvarState@@PAVCClient@@PBD111@Z 10030120 f   bot_commands.obj
 0001:0002f2d0       ?action@CBotCamCommand@@UAE?AW4eBotCvarState@@PAVCClient@@PBD111@Z 100302d0 f   bot_commands.obj
 0001:0002f3a0       ?action@CBotCvar@@UAE?AW4eBotCvarState@@PAVCClient@@PBD111@Z 100303a0 f i bot_commands.obj
 0001:0002f3b0       ?action@CBotMenuCommand@@UAE?AW4eBotCvarState@@PAVCClient@@PBD111@Z 100303b0 f   bot_commands.obj
 0001:0002f3f0       ?action@CBotSquadCommand@@UAE?AW4eBotCvarState@@PAVCClient@@PBD111@Z 100303f0 f   bot_commands.obj
 0001:0002f5a0       ?action@CConfigCommand@@UAE?AW4eBotCvarState@@PAVCClient@@PBD111@Z 100305a0 f   bot_commands.obj
 0001:0002ffb0       ?action@CDebugBotCommand@@UAE?AW4eBotCvarState@@PAVCClient@@PBD111@Z 10030fb0 f   bot_commands.obj
 0001:00030140       ?action@CDebugCommand@@UAE?AW4eBotCvarState@@PAVCClient@@PBD111@Z 10031140 f   bot_commands.obj
 0001:00030350       ?action@CDebugEntCommand@@UAE?AW4eBotCvarState@@PAVCClient@@PBD111@Z 10031350 f   bot_commands.obj
 0001:000303f0       ?action@CHelpCommand@@UAE?AW4eBotCvarState@@PAVCClient@@PBD111@Z 100313f0 f   bot_commands.obj
 0001:00030480       ?action@CMenuSelectCommand@@UAE?AW4eBotCvarState@@PAVCClient@@PBD111@Z 10031480 f   bot_commands.obj
 0001:000304d0       ?action@CPathWaypointCommand@@UAE?AW4eBotCvarState@@PAVCClient@@PBD111@Z 100314d0 f   bot_commands.obj
 0001:00030700       ?action@CRemoveBotCommand@@UAE?AW4eBotCvarState@@PAVCClient@@PBD111@Z 10031700 f   bot_commands.obj
 0001:00030730       ?action@CSetPassCommand@@UAE?AW4eBotCvarState@@PAVCClient@@PBD111@Z 10031730 f   bot_commands.obj
 0001:000307a0       ?action@CSquadMenuCommand@@UAE?AW4eBotCvarState@@PAVCClient@@PBD111@Z 100317a0 f   bot_commands.obj
 0001:000307e0       ?action@CUsersCommand@@UAE?AW4eBotCvarState@@PAVCClient@@PBD111@Z 100317e0 f   bot_commands.obj
 0001:00030b90       ?action@CUtilCommand@@UAE?AW4eBotCvarState@@PAVCClient@@PBD111@Z 10031b90 f   bot_commands.obj
 0001:00031e80       ?action@CWaypointCommand@@UAE?AW4eBotCvarState@@PAVCClient@@PBD111@Z 10032e80 f   bot_commands.obj
 0001:00032160       ?action@CWaypointMenuCommand@@UAE?AW4eBotCvarState@@PAVCClient@@PBD111@Z 10033160 f   bot_commands.obj
 0001:00032200       ?addCmd@CClient@@QAEXH@Z   10033200 f i bot_commands.obj
 0001:00032210       ?allocate@?$_Wrap_alloc@V?$allocator@PAD@std@@@std@@QAEPAPADI@Z 10033210 f i bot_commands.obj
 0001:00032250       ?allocate@?$allocator@PAD@std@@QAEPAPADI@Z 10033250 f i bot_commands.obj
 0001:00032290       ?capacity@?$vector@PADV?$allocator@PAD@std@@@std@@QBEIXZ 10033290 f i bot_commands.obj
 0001:000322a0       ?clear@?$vector@PADV?$allocator@PAD@std@@@std@@QAEXXZ 100332a0 f i bot_commands.obj
 0001:000322b0       ?construct@?$allocator@PAD@std@@QAEXPAPADABQAD@Z 100332b0 f i bot_commands.obj
 0001:000322d0       ?deallocate@?$_Wrap_alloc@V?$allocator@PAD@std@@@std@@QAEXPAPADI@Z 100332d0 f i bot_commands.obj
 0001:000322f0       ?deallocate@?$allocator@PAD@std@@QAEXPAPADI@Z 100332f0 f i bot_commands.obj
 0001:00032310       ?error@CBotCvar@@QAEHXZ    10033310 f i bot_commands.obj
 0001:00032330       ?getExtension@CWaypointConversion@@QAEPADXZ 10033330 f i bot_commands.obj
 0001:00032340       ?getFolder@CWaypointConversion@@QAEPADXZ 10033340 f i bot_commands.obj
 0001:00032350       ?getHeader@CWaypointConversion@@QAEPADXZ 10033350 f i bot_commands.obj
 0001:00032360       ?getMapType@CBotGlobals@@QAEHXZ 10033360 f i bot_commands.obj
 0001:00032370       ?getName@CWaypointConversion@@QAEPADXZ 10033370 f i bot_commands.obj
 0001:00032380       ?hasCmd@CClient@@QAEHH@Z   10033380 f i bot_commands.obj
 0001:000323a0       ?init@CWaypointConversion@@QAEXXZ 100333a0 f i bot_commands.obj
 0001:000323f0       ?max_size@?$_Wrap_alloc@V?$allocator@PAD@std@@@std@@QBEIXZ 100333f0 f i bot_commands.obj
 0001:00032400       ?max_size@?$allocator@PAD@std@@QBEIXZ 10033400 f i bot_commands.obj
 0001:00032410       ?max_size@?$allocator_traits@V?$allocator@PAD@std@@@std@@SAIABV?$allocator@PAD@2@@Z 10033410 f i bot_commands.obj
 0001:00032420       ?max_size@?$vector@PADV?$allocator@PAD@std@@@std@@QBEIXZ 10033420 f i bot_commands.obj
 0001:00032430       ?printBoredoms@CBot@@QAEXPAUedict_s@@@Z 10033430 f i bot_commands.obj
 0001:00032480       ?printReps@CBotReputations@@QAEXPAVCBot@@PAUedict_s@@@Z 10033480 f i bot_commands.obj
 0001:000324c0       ?push_back@?$vector@PADV?$allocator@PAD@std@@@std@@QAEXABQAD@Z 100334c0 f i bot_commands.obj
 0001:00032530       ?remCmd@CClient@@QAEXH@Z   10033530 f i bot_commands.obj
 0001:00032540       ?setConvertBit@CWaypointConversion@@QAEXHH@Z 10033540 f i bot_commands.obj
 0001:00032550       ?setExtension@CWaypointConversion@@QAEXPAD@Z 10033550 f i bot_commands.obj
 0001:00032570       ?setFolder@CWaypointConversion@@QAEXPAD@Z 10033570 f i bot_commands.obj
 0001:00032590       ?setHeader@CWaypointConversion@@QAEXPAD@Z 10033590 f i bot_commands.obj
 0001:000325b0       ?setMapType@CBotGlobals@@QAEXW4eTFCMapType@@@Z 100335b0 f i bot_commands.obj
 0001:000325c0       ?setName@CWaypointConversion@@QAEXPAD@Z 100335c0 f i bot_commands.obj
 0001:000325e0       ?setVersion@CWaypointConversion@@QAEXH@Z 100335e0 f i bot_commands.obj
 0001:000325f0       ?setupCommand@CBotCvar@@QAEXPBDHH@Z 100335f0 f   bot_commands.obj
 0001:00032620       ?showHelp@CAddBotCommand@@UAEXPAUedict_s@@@Z 10033620 f   bot_commands.obj
 0001:00032690       ?showHelp@CAutoWaypointCommand@@UAEXPAUedict_s@@@Z 10033690 f i bot_commands.obj
 0001:00032700       ?showHelp@CBotCamCommand@@UAEXPAUedict_s@@@Z 10033700 f i bot_commands.obj
 0001:00032760       ?showHelp@CBotCvar@@UAEXPAUedict_s@@@Z 10033760 f i bot_commands.obj
 0001:00032780       ?showHelp@CBotSquadCommand@@UAEXPAUedict_s@@@Z 10033780 f i bot_commands.obj
 0001:000327f0       ?showHelp@CConfigCommand@@UAEXPAUedict_s@@@Z 100337f0 f i bot_commands.obj
 0001:00032b10       ?showHelp@CDebugBotCommand@@UAEXPAUedict_s@@@Z 10033b10 f i bot_commands.obj
 0001:00032b70       ?showHelp@CDebugCommand@@UAEXPAUedict_s@@@Z 10033b70 f i bot_commands.obj
 0001:00032c40       ?showHelp@CDebugEntCommand@@UAEXPAUedict_s@@@Z 10033c40 f i bot_commands.obj
 0001:00032ca0       ?showHelp@CHelpCommand@@UAEXPAUedict_s@@@Z 10033ca0 f i bot_commands.obj
 0001:00032d50       ?showHelp@CPathWaypointCommand@@UAEXPAUedict_s@@@Z 10033d50 f i bot_commands.obj
 0001:00032df0       ?showHelp@CRemoveBotCommand@@UAEXPAUedict_s@@@Z 10033df0 f i bot_commands.obj
 0001:00032e10       ?showHelp@CSetPassCommand@@UAEXPAUedict_s@@@Z 10033e10 f i bot_commands.obj
 0001:00032e80       ?showHelp@CUsersCommand@@UAEXPAUedict_s@@@Z 10033e80 f i bot_commands.obj
 0001:00032f00       ?showHelp@CUtilCommand@@UAEXPAUedict_s@@@Z 10033f00 f i bot_commands.obj
 0001:00033030       ?showHelp@CWaypointCommand@@UAEXPAUedict_s@@@Z 10034030 f   bot_commands.obj
 0001:000330e0       ?steamID@CClient@@QAEPADXZ 100340e0 f i bot_commands.obj
 0001:000330f0       ?toggleCmd@CClient@@QAEXH@Z 100340f0 f i bot_commands.obj
 0001:00033120       ??0CBitsGAValues@@QAE@I@Z  10034120 f   bot_ga.obj
 0001:000331a0       ??0CBitsGAValues@@QAE@PAVCBits@@@Z 100341a0 f   bot_ga.obj
 0001:000331d0       ??0CBotGAValues@@QAE@V?$vector@MV?$allocator@M@std@@@std@@@Z 100341d0 f   bot_ga.obj
 0001:00033270       ??0CBotGAValues@@QAE@XZ    10034270 f   bot_ga.obj
 0001:000332a0       ??A?$vector@MV?$allocator@M@std@@@std@@QAEAAMI@Z 100342a0 f i bot_ga.obj
 0001:000332b0       ?clear@CBitsGAValues@@UAEXXZ 100342b0 f   bot_ga.obj
 0001:000332c0       ?clear@CBotGAValues@@UAEXXZ 100342c0 f   bot_ga.obj
 0001:000332d0       ?convert@CBitsGAValues@@QAEXPAH@Z 100342d0 f   bot_ga.obj
 0001:00033320       ?copy@CBitsGAValues@@UAEPAVIIndividual@@XZ 10034320 f   bot_ga.obj
 0001:000333b0       ?copy@CBotGAValues@@UAEPAVIIndividual@@XZ 100343b0 f   bot_ga.obj
 0001:00033430       ?crossOver@CBitsGAValues@@UAEXPAVIIndividual@@@Z 10034430 f   bot_ga.obj
 0001:00033550       ?crossOver@CBotGAValues@@UAEXPAVIIndividual@@@Z 10034550 f   bot_ga.obj
 0001:00033610       ?freeMemory@CBitsGAValues@@QAEXXZ 10034610 f   bot_ga.obj
 0001:00033630       ?freeMemory@CBotGAValues@@QAEXXZ 10034630 f   bot_ga.obj
 0001:00033640       ?get@CBitsGAValues@@QAEHH@Z 10034640 f   bot_ga.obj
 0001:00033650       ?get@CBotGAValues@@QAEMH@Z 10034650 f   bot_ga.obj
 0001:00033660       ?getVector@CBotGAValues@@QAEXPAV?$vector@MV?$allocator@M@std@@@std@@@Z 10034660 f   bot_ga.obj
 0001:00033700       ?load@CBitsGAValues@@UAEXPAU_iobuf@@H@Z 10034700 f   bot_ga.obj
 0001:00033720       ?load@CBotGAValues@@UAEXPAU_iobuf@@H@Z 10034720 f   bot_ga.obj
 0001:00033820       ?mutate@CBitsGAValues@@UAEXXZ 10034820 f   bot_ga.obj
 0001:00033890       ?mutate@CBotGAValues@@UAEXXZ 10034890 f   bot_ga.obj
 0001:00033950       ?save@CBitsGAValues@@UAEXPAU_iobuf@@@Z 10034950 f   bot_ga.obj
 0001:00033960       ?save@CBotGAValues@@UAEXPAU_iobuf@@@Z 10034960 f   bot_ga.obj
 0001:00033a10       ?set@CBitsGAValues@@QAEXHH@Z 10034a10 f   bot_ga.obj
 0001:00033a20       ?set@CBotGAValues@@QAEXHM@Z 10034a20 f   bot_ga.obj
 0001:00033a40       ?setVector@CBotGAValues@@QAEXV?$vector@MV?$allocator@M@std@@@std@@@Z 10034a40 f   bot_ga.obj
 0001:00033b10       ?size@CBitsGAValues@@QAEIXZ 10034b10 f   bot_ga.obj
 0001:00033b20       ??$_Allocate@PAVCBot@@@std@@YAPAPAVCBot@@IPAPAV1@@Z 10034b20 f i bot_menu.obj
 0001:00033b50       ??$_Destroy_range@U?$_Wrap_alloc@V?$allocator@PAVCBot@@@std@@@std@@@std@@YAXPAPAVCBot@@0AAU?$_Wrap_alloc@V?$allocator@PAVCBot@@@std@@@0@@Z 10034b50 f i bot_menu.obj
 0001:00033b60       ??$_Destroy_range@U?$_Wrap_alloc@V?$allocator@PAVCBot@@@std@@@std@@@std@@YAXPAPAVCBot@@0AAU?$_Wrap_alloc@V?$allocator@PAVCBot@@@std@@@0@U_Scalar_ptr_iterator_tag@0@@Z 10034b60 f i bot_menu.obj
 0001:00033b70       ??$_Ptr_cat@PAVCBot@@PAV1@@std@@YA?AU_Scalar_ptr_iterator_tag@0@PAPAVCBot@@0@Z 10034b70 f i bot_menu.obj
 0001:00033b80       ??$_Rechecked@PAPAVCBot@@PAPAV1@@std@@YAAAPAPAVCBot@@AAPAPAV1@PAPAV1@@Z 10034b80 f i bot_menu.obj
 0001:00033b90       ??$_Umove@PAPAVCBot@@@?$vector@PAVCBot@@V?$allocator@PAVCBot@@@std@@@std@@IAEPAPAVCBot@@PAPAV2@00@Z 10034b90 f i bot_menu.obj
 0001:00033bc0       ??$_Unchecked@PAPAVCBot@@@std@@YAPAPAVCBot@@PAPAV1@@Z 10034bc0 f i bot_menu.obj
 0001:00033bd0       ??$_Uninit_move@PAPAVCBot@@PAPAV1@U?$_Wrap_alloc@V?$allocator@PAVCBot@@@std@@@std@@@std@@YAPAPAVCBot@@PAPAV1@00AAU?$_Wrap_alloc@V?$allocator@PAVCBot@@@std@@@0@@Z 10034bd0 f i bot_menu.obj
 0001:00033c00       ??$_Uninit_move@PAVCBot@@PAV1@PAV1@@std@@YAPAPAVCBot@@PAPAV1@00AAU?$_Wrap_alloc@V?$allocator@PAVCBot@@@std@@@0@0U_Scalar_ptr_iterator_tag@0@@Z 10034c00 f i bot_menu.obj
 0001:00033c30       ??$_Uninitialized_move@PAPAVCBot@@PAPAV1@U?$_Wrap_alloc@V?$allocator@PAVCBot@@@std@@@std@@@std@@YAPAPAVCBot@@PAPAV1@00AAU?$_Wrap_alloc@V?$allocator@PAVCBot@@@std@@@0@@Z 10034c30 f i bot_menu.obj
 0001:00033c60       ??$_Val_type@PAPAVCBot@@@std@@YAPAPAVCBot@@PAPAV1@@Z 10034c60 f i bot_menu.obj
 0001:00033c70       ??$addressof@QAVCBot@@@std@@YAPBQAVCBot@@ABQAV1@@Z 10034c70 f i bot_menu.obj
 0001:00033c80       ??$construct@PAVCBot@@AAPAV1@@?$_Wrap_alloc@V?$allocator@PAVCBot@@@std@@@std@@QAEXPAPAVCBot@@AAPAV2@@Z 10034c80 f i bot_menu.obj
 0001:00033ca0       ??$construct@PAVCBot@@AAPAV1@@?$allocator@PAVCBot@@@std@@QAEXPAPAVCBot@@AAPAV2@@Z 10034ca0 f i bot_menu.obj
 0001:00033cc0       ??$construct@PAVCBot@@AAPAV1@@?$allocator_traits@V?$allocator@PAVCBot@@@std@@@std@@SAXAAV?$allocator@PAVCBot@@@1@PAPAVCBot@@AAPAV3@@Z 10034cc0 f i bot_menu.obj
 0001:00033ce0       ??$construct@PAVCBot@@ABQAV1@@?$_Wrap_alloc@V?$allocator@PAVCBot@@@std@@@std@@QAEXPAPAVCBot@@ABQAV2@@Z 10034ce0 f i bot_menu.obj
 0001:00033d00       ??$construct@PAVCBot@@ABQAV1@@?$allocator_traits@V?$allocator@PAVCBot@@@std@@@std@@SAXAAV?$allocator@PAVCBot@@@1@PAPAVCBot@@ABQAV3@@Z 10034d00 f i bot_menu.obj
 0001:00033d20       ??$forward@AAPAVCBot@@@std@@YAAAPAVCBot@@AAPAV1@@Z 10034d20 f i bot_menu.obj
 0001:00033d30       ??$forward@ABQAVCBot@@@std@@YAABQAVCBot@@ABQAV1@@Z 10034d30 f i bot_menu.obj
 0001:00033d40       ??0?$_Vector_alloc@$0A@U?$_Vec_base_types@PAVCBot@@V?$allocator@PAVCBot@@@std@@@std@@@std@@QAE@ABV?$allocator@PAVCBot@@@1@@Z 10034d40 f i bot_menu.obj
 0001:00033d60       ??0?$_Vector_val@U?$_Simple_types@PAVCBot@@@std@@@std@@QAE@XZ 10034d60 f i bot_menu.obj
 0001:00033d80       ??0?$_Wrap_alloc@V?$allocator@PAVCBot@@@std@@@std@@QAE@XZ 10034d80 f i bot_menu.obj
 0001:00033d90       ??0?$allocator@PAVCBot@@@std@@QAE@XZ 10034d90 f i bot_menu.obj
 0001:00033da0       ??0?$dataUnconstArray@PAVCBot@@@@QAE@XZ 10034da0 f i bot_menu.obj
 0001:00033dc0       ??0?$vector@PAVCBot@@V?$allocator@PAVCBot@@@std@@@std@@QAE@XZ 10034dc0 f i bot_menu.obj
 0001:00033de0       ??0CBotMenu@@QAE@PBD@Z     10034de0 f   bot_menu.obj
 0001:00033e10       ??0CBotMenuItem@@QAE@PBD@Z 10034e10 f   bot_menu.obj
 0001:00033e40       ??0CBotMenuItem@@QAE@PBDP6AXPAVCClient@@@Z@Z 10034e40 f   bot_menu.obj
 0001:00033e90       ??0CBotMenuItem@@QAE@PBDPAVCBotMenu@@@Z 10034e90 f   bot_menu.obj
 0001:00033ee0       ??1?$dataUnconstArray@PAVCBot@@@@QAE@XZ 10034ee0 f i bot_menu.obj
 0001:00033f10       ??1?$vector@PAVCBot@@V?$allocator@PAVCBot@@@std@@@std@@QAE@XZ 10034f10 f i bot_menu.obj
 0001:00033f40       ??1CBotMenu@@QAE@XZ        10034f40 f   bot_menu.obj
 0001:00033f50       ??1CBotMenuItem@@QAE@XZ    10034f50 f   bot_menu.obj
 0001:00033f70       ??A?$vector@PAVCBot@@V?$allocator@PAVCBot@@@std@@@std@@QAEAAPAVCBot@@I@Z 10034f70 f i bot_menu.obj
 0001:00033f80       ?Activate@CBotMenuItem@@QAEXPAVCClient@@@Z 10034f80 f   bot_menu.obj
 0001:00033fc0       ?Add@?$dataUnconstArray@PAVCBot@@@@QAEXQAVCBot@@@Z 10034fc0 f i bot_menu.obj
 0001:00033fd0       ?AddExitMenuItem@CBotMenu@@QAEXH@Z 10034fd0 f i bot_menu.obj
 0001:00034050       ?AddMenuItem@CBotMenu@@QAEXHPBDP6AXPAVCClient@@@Z@Z 10035050 f i bot_menu.obj
 0001:000340d0       ?AddMenuItem@CBotMenu@@QAEXHPBDPAV1@@Z 100350d0 f i bot_menu.obj
 0001:00034150       ?BotMenu_CheckForLift_Waypoint@@YAXPAVCClient@@@Z 10035150 f   bot_menu.obj
 0001:000341a0       ?BotMenu_Func_AddBot@@YAXPAVCClient@@@Z 100351a0 f   bot_menu.obj
 0001:000341c0       ?BotMenu_Func_AddBotToTeam@@YAXPAVCClient@@@Z 100351c0 f   bot_menu.obj
 0001:00034220       ?BotMenu_Func_Barney_Waypoint@@YAXPAVCClient@@@Z 10035220 f   bot_menu.obj
 0001:00034270       ?BotMenu_Func_CrouchJump_Waypoint@@YAXPAVCClient@@@Z 10035270 f   bot_menu.obj
 0001:000342c0       ?BotMenu_Func_Crouch_Waypoint@@YAXPAVCClient@@@Z 100352c0 f   bot_menu.obj
 0001:00034300       ?BotMenu_Func_Defend_Waypoint@@YAXPAVCClient@@@Z 10035300 f   bot_menu.obj
 0001:00034350       ?BotMenu_Func_DeleteWaypoints@@YAXPAVCClient@@@Z 10035350 f   bot_menu.obj
 0001:00034360       ?BotMenu_Func_EndLevel_Waypoint@@YAXPAVCClient@@@Z 10035360 f   bot_menu.obj
 0001:000343b0       ?BotMenu_Func_Fly_Waypoint@@YAXPAVCClient@@@Z 100353b0 f   bot_menu.obj
 0001:00034400       ?BotMenu_Func_HumanTower_Waypoint@@YAXPAVCClient@@@Z 10035400 f   bot_menu.obj
 0001:00034450       ?BotMenu_Func_Jump_Waypoint@@YAXPAVCClient@@@Z 10035450 f   bot_menu.obj
 0001:000344a0       ?BotMenu_Func_KickBot@@YAXPAVCClient@@@Z 100354a0 f   bot_menu.obj
 0001:00034570       ?BotMenu_Func_KickBotFromTeam@@YAXPAVCClient@@@Z 10035570 f   bot_menu.obj
 0001:00034670       ?BotMenu_Func_Ladder_Waypoint@@YAXPAVCClient@@@Z 10035670 f   bot_menu.obj
 0001:000346b0       ?BotMenu_Func_Lift_Waypoint@@YAXPAVCClient@@@Z 100356b0 f   bot_menu.obj
 0001:000346f0       ?BotMenu_Func_OpensLater_Waypoint@@YAXPAVCClient@@@Z 100356f0 f   bot_menu.obj
 0001:00034740       ?BotMenu_Func_Pushable_Waypoint@@YAXPAVCClient@@@Z 10035740 f   bot_menu.obj
 0001:00034790       ?BotMenu_Func_Remove_All_Paths@@YAXPAVCClient@@@Z 10035790 f   bot_menu.obj
 0001:000347d0       ?BotMenu_Func_Remove_Paths_From@@YAXPAVCClient@@@Z 100357d0 f   bot_menu.obj
 0001:00034800       ?BotMenu_Func_Remove_Paths_To@@YAXPAVCClient@@@Z 10035800 f   bot_menu.obj
 0001:00034820       ?BotMenu_Func_Sci_Waypoint@@YAXPAVCClient@@@Z 10035820 f   bot_menu.obj
 0001:00034870       ?BotMenu_Func_SquadMode1@@YAXPAVCClient@@@Z 10035870 f   bot_menu.obj
 0001:000349f0       ?BotMenu_Func_Squad_Form2@@YAXPAVCClient@@@Z 100359f0 f   bot_menu.obj
 0001:00034ab0       ?BotMenu_Func_Squad_Form@@YAXPAVCClient@@@Z 10035ab0 f   bot_menu.obj
 0001:00034b70       ?BotMenu_Func_Squad_Leave@@YAXPAVCClient@@@Z 10035b70 f   bot_menu.obj
 0001:00034be0       ?BotMenu_Func_Squad_Remove@@YAXPAVCClient@@@Z 10035be0 f   bot_menu.obj
 0001:00034c50       ?BotMenu_Func_Squad_RemoveAllBotSquads@@YAXPAVCClient@@@Z 10035c50 f   bot_menu.obj
 0001:00034d10       ?BotMenu_Func_Squad_Spread@@YAXPAVCClient@@@Z 10035d10 f   bot_menu.obj
 0001:00034da0       ?BotMenu_Func_StayClose_Waypoint@@YAXPAVCClient@@@Z 10035da0 f   bot_menu.obj
 0001:00034df0       ?BotMenu_Func_Tank_Waypoint@@YAXPAVCClient@@@Z 10035df0 f   bot_menu.obj
 0001:00034e40       ?BotMenu_Func_Team_Waypoint@@YAXPAVCClient@@@Z 10035e40 f   bot_menu.obj
 0001:00034eb0       ?BotMenu_Func_Teleport_Waypoint@@YAXPAVCClient@@@Z 10035eb0 f   bot_menu.obj
 0001:00034f00       ?BotMenu_Func_Unreachable_Waypoint@@YAXPAVCClient@@@Z 10035f00 f   bot_menu.obj
 0001:00034f60       ?BotMenu_Func_WaitLift_Waypoint@@YAXPAVCClient@@@Z 10035f60 f   bot_menu.obj
 0001:00034fb0       ?BotMenu_Func_Wall_Stick_Waypoint@@YAXPAVCClient@@@Z 10035fb0 f   bot_menu.obj
 0001:00035000       ?Bot_Menu_GrenThrow_Waypoint@@YAXPAVCClient@@@Z 10036000 f   bot_menu.obj
 0001:00035050       ?Bot_Menu_Important_Waypoint@@YAXPAVCClient@@@Z 10036050 f   bot_menu.obj
 0001:000350a0       ?Clear@?$dataUnconstArray@PAVCBot@@@@QAEXXZ 100360a0 f i bot_menu.obj
 0001:000350b0       ?Destroy@?$dataUnconstArray@PAVCBot@@@@QAEXXZ 100360b0 f i bot_menu.obj
 0001:000350c0       ?DestroyMenu@CBotMenu@@QAEXXZ 100360c0 f   bot_menu.obj
 0001:000351d0       ?GetCaption@CBotMenuItem@@QAEPBDXZ 100361d0 f i bot_menu.obj
 0001:000351e0       ?HasNextMenu@CBotMenuItem@@QAEHXZ 100361e0 f i bot_menu.obj
 0001:000351f0       ?Init@?$dataUnconstArray@PAVCBot@@@@QAEXXZ 100361f0 f i bot_menu.obj
 0001:00035200       ?Init@CBotMenuItem@@QAEXXZ 10036200 f i bot_menu.obj
 0001:00035220       ?InitMenu@CBotMenu@@QAEXXZ 10036220 f   bot_menu.obj
 0001:00035240       ?IsEmpty@?$dataUnconstArray@PAVCBot@@@@QAE_NXZ 10036240 f i bot_menu.obj
 0001:00035250       ?Random@?$dataUnconstArray@PAVCBot@@@@QAEPAVCBot@@XZ 10036250 f i bot_menu.obj
 0001:00035280       ?Render@CBotMenu@@QAEXPAVCClient@@@Z 10036280 f   bot_menu.obj
 0001:000353b0       ?SetupMenus@@YAXXZ         100363b0 f   bot_menu.obj
 0001:00036fd0       ?ToggleFireMode@CBotSquad@@QAEXXZ 10037fd0 f i bot_menu.obj
 0001:00037010       ?_Destroy@?$vector@PAVCBot@@V?$allocator@PAVCBot@@@std@@@std@@IAEXPAPAVCBot@@0@Z 10038010 f i bot_menu.obj
 0001:00037020       ?_Getal@?$_Vector_alloc@$0A@U?$_Vec_base_types@PAVCBot@@V?$allocator@PAVCBot@@@std@@@std@@@std@@QBE?AU?$_Wrap_alloc@V?$allocator@PAVCBot@@@std@@@2@XZ 10038020 f i bot_menu.obj
 0001:00037030       ?_Grow_to@?$vector@PAVCBot@@V?$allocator@PAVCBot@@@std@@@std@@IBEII@Z 10038030 f i bot_menu.obj
 0001:00037070       ?_Inside@?$vector@PAVCBot@@V?$allocator@PAVCBot@@@std@@@std@@IBE_NPBQAVCBot@@@Z 10038070 f i bot_menu.obj
 0001:00037090       ?_Orphan_range@?$vector@PAVCBot@@V?$allocator@PAVCBot@@@std@@@std@@IBEXPAPAVCBot@@0@Z 10038090 f i bot_menu.obj
 0001:000370a0       ?_Reallocate@?$vector@PAVCBot@@V?$allocator@PAVCBot@@@std@@@std@@IAEXI@Z 100380a0 f i bot_menu.obj
 0001:00037120       ?_Reserve@?$vector@PAVCBot@@V?$allocator@PAVCBot@@@std@@@std@@IAEXI@Z 10038120 f i bot_menu.obj
 0001:000371a0       ?_Tidy@?$vector@PAVCBot@@V?$allocator@PAVCBot@@@std@@@std@@IAEXXZ 100381a0 f i bot_menu.obj
 0001:000371d0       ?_Unused_capacity@?$vector@PAVCBot@@V?$allocator@PAVCBot@@@std@@@std@@QBEIXZ 100381d0 f i bot_menu.obj
 0001:000371e0       ?_Xlen@?$vector@PAVCBot@@V?$allocator@PAVCBot@@@std@@@std@@IBEXXZ 100381e0 f i bot_menu.obj
 0001:000371f0       ?allocate@?$_Wrap_alloc@V?$allocator@PAVCBot@@@std@@@std@@QAEPAPAVCBot@@I@Z 100381f0 f i bot_menu.obj
 0001:00037230       ?allocate@?$allocator@PAVCBot@@@std@@QAEPAPAVCBot@@I@Z 10038230 f i bot_menu.obj
 0001:00037270       ?capacity@?$vector@PAVCBot@@V?$allocator@PAVCBot@@@std@@@std@@QBEIXZ 10038270 f i bot_menu.obj
 0001:00037280       ?clear@?$vector@PAVCBot@@V?$allocator@PAVCBot@@@std@@@std@@QAEXXZ 10038280 f i bot_menu.obj
 0001:00037290       ?construct@?$allocator@PAVCBot@@@std@@QAEXPAPAVCBot@@ABQAV3@@Z 10038290 f i bot_menu.obj
 0001:000372b0       ?deallocate@?$_Wrap_alloc@V?$allocator@PAVCBot@@@std@@@std@@QAEXPAPAVCBot@@I@Z 100382b0 f i bot_menu.obj
 0001:000372d0       ?deallocate@?$allocator@PAVCBot@@@std@@QAEXPAPAVCBot@@I@Z 100382d0 f i bot_menu.obj
 0001:000372f0       ?empty@?$vector@PAVCBot@@V?$allocator@PAVCBot@@@std@@@std@@QBE_NXZ 100382f0 f i bot_menu.obj
 0001:00037300       ?max_size@?$_Wrap_alloc@V?$allocator@PAVCBot@@@std@@@std@@QBEIXZ 10038300 f i bot_menu.obj
 0001:00037310       ?max_size@?$allocator@PAVCBot@@@std@@QBEIXZ 10038310 f i bot_menu.obj
 0001:00037320       ?max_size@?$allocator_traits@V?$allocator@PAVCBot@@@std@@@std@@SAIABV?$allocator@PAVCBot@@@2@@Z 10038320 f i bot_menu.obj
 0001:00037330       ?max_size@?$vector@PAVCBot@@V?$allocator@PAVCBot@@@std@@@std@@QBEIXZ 10038330 f i bot_menu.obj
 0001:00037340       ?push_back@?$vector@PAVCBot@@V?$allocator@PAVCBot@@@std@@@std@@QAEXABQAVCBot@@@Z 10038340 f i bot_menu.obj
 0001:000373b0       ?size@?$vector@PAVCBot@@V?$allocator@PAVCBot@@@std@@@std@@QBEIXZ 100383b0 f i bot_menu.obj
 0001:000373c0       ??$_Allocate@VVector@@@std@@YAPAVVector@@IPAV1@@Z 100383c0 f i bot_navigate.obj
 0001:00037400       ??$_Destroy_range@U?$_Wrap_alloc@V?$allocator@VVector@@@std@@@std@@@std@@YAXPAVVector@@0AAU?$_Wrap_alloc@V?$allocator@VVector@@@std@@@0@@Z 10038400 f i bot_navigate.obj
 0001:00037410       ??$_Destroy_range@U?$_Wrap_alloc@V?$allocator@VVector@@@std@@@std@@@std@@YAXPAVVector@@0AAU?$_Wrap_alloc@V?$allocator@VVector@@@std@@@0@U_Nonscalar_ptr_iterator_tag@0@@Z 10038410 f i bot_navigate.obj
 0001:00037420       ??$_Ptr_cat@VVector@@V1@@std@@YA?AU_Nonscalar_ptr_iterator_tag@0@PAVVector@@0@Z 10038420 f i bot_navigate.obj
 0001:00037430       ??$_Rechecked@PAVVector@@PAV1@@std@@YAAAPAVVector@@AAPAV1@PAV1@@Z 10038430 f i bot_navigate.obj
 0001:00037440       ??$_Umove@PAVVector@@@?$vector@VVector@@V?$allocator@VVector@@@std@@@std@@IAEPAVVector@@PAV2@00@Z 10038440 f i bot_navigate.obj
 0001:00037470       ??$_Unchecked@PAVVector@@@std@@YAPAVVector@@PAV1@@Z 10038470 f i bot_navigate.obj
 0001:00037480       ??$_Uninit_move@PAVVector@@PAV1@U?$_Wrap_alloc@V?$allocator@VVector@@@std@@@std@@@std@@YAPAVVector@@PAV1@00AAU?$_Wrap_alloc@V?$allocator@VVector@@@std@@@0@@Z 10038480 f i bot_navigate.obj
 0001:000374b0       ??$_Uninit_move@PAVVector@@PAV1@V?$allocator@VVector@@@std@@V1@@std@@YAPAVVector@@PAV1@00AAU?$_Wrap_alloc@V?$allocator@VVector@@@std@@@0@0U_Nonscalar_ptr_iterator_tag@0@@Z 100384b0 f i bot_navigate.obj
 0001:000374f0       ??$_Uninitialized_move@PAVVector@@PAV1@U?$_Wrap_alloc@V?$allocator@VVector@@@std@@@std@@@std@@YAPAVVector@@PAV1@00AAU?$_Wrap_alloc@V?$allocator@VVector@@@std@@@0@@Z 100384f0 f i bot_navigate.obj
 0001:00037510       ??$_Val_type@PAVVector@@@std@@YAPAVVector@@PAV1@@Z 10038510 f i bot_navigate.obj
 0001:00037520       ??$addressof@$$CBVVector@@@std@@YAPBVVector@@ABV1@@Z 10038520 f i bot_navigate.obj
 0001:00037530       ??$construct@VVector@@AAV1@@?$_Wrap_alloc@V?$allocator@VVector@@@std@@@std@@QAEXPAVVector@@AAV2@@Z 10038530 f i bot_navigate.obj
 0001:00037560       ??$construct@VVector@@AAV1@@?$allocator@VVector@@@std@@QAEXPAVVector@@AAV2@@Z 10038560 f i bot_navigate.obj
 0001:00037590       ??$construct@VVector@@AAV1@@?$allocator_traits@V?$allocator@VVector@@@std@@@std@@SAXAAV?$allocator@VVector@@@1@PAVVector@@AAV3@@Z 10038590 f i bot_navigate.obj
 0001:000375b0       ??$construct@VVector@@ABV1@@?$_Wrap_alloc@V?$allocator@VVector@@@std@@@std@@QAEXPAVVector@@ABV2@@Z 100385b0 f i bot_navigate.obj
 0001:000375e0       ??$construct@VVector@@ABV1@@?$allocator_traits@V?$allocator@VVector@@@std@@@std@@SAXAAV?$allocator@VVector@@@1@PAVVector@@ABV3@@Z 100385e0 f i bot_navigate.obj
 0001:00037600       ??$construct@VVector@@V1@@?$_Wrap_alloc@V?$allocator@VVector@@@std@@@std@@QAEXPAVVector@@$$QAV2@@Z 10038600 f i bot_navigate.obj
 0001:00037630       ??$construct@VVector@@V1@@?$allocator@VVector@@@std@@QAEXPAVVector@@$$QAV2@@Z 10038630 f i bot_navigate.obj
 0001:00037660       ??$construct@VVector@@V1@@?$allocator_traits@V?$allocator@VVector@@@std@@@std@@SAXAAV?$allocator@VVector@@@1@PAVVector@@$$QAV3@@Z 10038660 f i bot_navigate.obj
 0001:00037680       ??$destroy@VVector@@@?$_Wrap_alloc@V?$allocator@VVector@@@std@@@std@@QAEXPAVVector@@@Z 10038680 f i bot_navigate.obj
 0001:00037690       ??$destroy@VVector@@@?$allocator@VVector@@@std@@QAEXPAVVector@@@Z 10038690 f i bot_navigate.obj
 0001:000376a0       ??$destroy@VVector@@@?$allocator_traits@V?$allocator@VVector@@@std@@@std@@SAXAAV?$allocator@VVector@@@1@PAVVector@@@Z 100386a0 f i bot_navigate.obj
 0001:000376b0       ??$forward@AAVVector@@@std@@YAAAVVector@@AAV1@@Z 100386b0 f i bot_navigate.obj
 0001:000376c0       ??$forward@ABVVector@@@std@@YAABVVector@@ABV1@@Z 100386c0 f i bot_navigate.obj
 0001:000376d0       ??$forward@VVector@@@std@@YA$$QAVVector@@AAV1@@Z 100386d0 f i bot_navigate.obj
 0001:000376e0       ??0?$_Vector_alloc@$0A@U?$_Vec_base_types@VVector@@V?$allocator@VVector@@@std@@@std@@@std@@QAE@ABV?$allocator@VVector@@@1@@Z 100386e0 f i bot_navigate.obj
 0001:00037700       ??0?$_Vector_val@U?$_Simple_types@VVector@@@std@@@std@@QAE@XZ 10038700 f i bot_navigate.obj
 0001:00037720       ??0?$_Wrap_alloc@V?$allocator@VVector@@@std@@@std@@QAE@XZ 10038720 f i bot_navigate.obj
 0001:00037730       ??0?$allocator@VVector@@@std@@QAE@XZ 10038730 f i bot_navigate.obj
 0001:00037740       ??0?$dataUnconstArray@VVector@@@@QAE@XZ 10038740 f i bot_navigate.obj
 0001:00037760       ??0?$vector@VVector@@V?$allocator@VVector@@@std@@@std@@QAE@XZ 10038760 f i bot_navigate.obj
 0001:00037780       ??0AStarListNode@@QAE@PAVAStarNode@@@Z 10038780 f i bot_navigate.obj
 0001:000377a0       ??0AStarNode@@QAE@XZ       100387a0 f   bot_navigate.obj
 0001:000377b0       ??1?$dataUnconstArray@VVector@@@@QAE@XZ 100387b0 f i bot_navigate.obj
 0001:000377e0       ??1?$vector@VVector@@V?$allocator@VVector@@@std@@@std@@QAE@XZ 100387e0 f i bot_navigate.obj
 0001:00037810       ??A?$vector@VVector@@V?$allocator@VVector@@@std@@@std@@QAEAAVVector@@I@Z 10038810 f i bot_navigate.obj
 0001:00037830       ??MAStarNode@@QAE_NPAV0@@Z 10038830 f   bot_navigate.obj
 0001:00037840       ??RAStarNode@@QAE_NPAV0@0@Z 10038840 f   bot_navigate.obj
 0001:00037860       ?Add@?$dataUnconstArray@VVector@@@@QAEXVVector@@@Z 10038860 f i bot_navigate.obj
 0001:00037870       ?BotCanDuckUnder@@YAHPAVCBot@@@Z 10038870 f   bot_navigate.obj
 0001:00037df0       ?BotCanJumpUp@@YAHPAVCBot@@@Z 10038df0 f   bot_navigate.obj
 0001:00038370       ?BotCantMoveForward@@YAHPAVCBot@@PAUTraceResult@@@Z 10039370 f   bot_navigate.obj
 0001:00038500       ?BotCheckWallOnLeft@@YAHPAVCBot@@@Z 10039500 f   bot_navigate.obj
 0001:000385e0       ?BotCheckWallOnRight@@YAHPAVCBot@@@Z 100395e0 f   bot_navigate.obj
 0001:000386c0       ?BotNavigate_AStarAlgo@@YAHPAVCBot@@HHH@Z 100396c0 f   bot_navigate.obj
 0001:00039190       ?BotNavigate_FindNextWaypoint@@YAHPAVCBot@@@Z 1003a190 f   bot_navigate.obj
 0001:000393a0       ?BotNavigate_FindPathFromTo@@YAPAUpath@@HHH@Z 1003a3a0 f   bot_navigate.obj
 0001:00039410       ?BotNavigate_ScanFOV@@YA?AVVector@@PAVCBot@@@Z 1003a410 f   bot_navigate.obj
 0001:00039a00       ?BotNavigate_UpdateWaypoint@@YAHPAVCBot@@@Z 1003aa00 f   bot_navigate.obj
 0001:0003ad30       ?BotTurnAtWall@@YAXPAVCBot@@PAUTraceResult@@@Z 1003bd30 f   bot_navigate.obj
 0001:0003af40       ?CanFly@CBot@@QAEHXZ       1003bf40 f i bot_navigate.obj
 0001:0003af80       ?CheckLift@@YAHPAVCBot@@VVector@@1@Z 1003bf80 f   bot_navigate.obj
 0001:0003b850       ?Clear@?$dataUnconstArray@VVector@@@@QAEXXZ 1003c850 f i bot_navigate.obj
 0001:0003b860       ?ClearViolatedPaths@CBotFailedPaths@@QAEHXZ 1003c860 f i bot_navigate.obj
 0001:0003b8e0       ?Destroy@?$dataUnconstArray@VVector@@@@QAEXXZ 1003c8e0 f i bot_navigate.obj
 0001:0003b8f0       ?EntityCanFire@CMasterEntities@@QAE?AW4eMasterType@@PAUedict_s@@0@Z 1003c8f0 f i bot_navigate.obj
 0001:0003b930       ?Init@?$dataUnconstArray@VVector@@@@QAEXXZ 1003c930 f i bot_navigate.obj
 0001:0003b940       ?IsEmpty@?$dataUnconstArray@VVector@@@@QAE_NXZ 1003c940 f i bot_navigate.obj
 0001:0003b950       ?IsMember@?$dataUnconstArray@H@@QAEHH@Z 1003c950 f i bot_navigate.obj
 0001:0003b990       ?IsViolated@CBotFailedPath@@QBEHXZ 1003c990 f i bot_navigate.obj
 0001:0003b9a0       ?Pop@?$dataStack@H@@QAEHXZ 1003c9a0 f i bot_navigate.obj
 0001:0003b9c0       ?Random@?$dataUnconstArray@VVector@@@@QAE?AVVector@@XZ 1003c9c0 f i bot_navigate.obj
 0001:0003ba10       ?Remove@?$dataStack@H@@QAEHH@Z 1003ca10 f i bot_navigate.obj
 0001:0003ba80       ?RemoveByPointer@?$dataStack@VCBotFailedPath@@@@QAEHPBVCBotFailedPath@@@Z 1003ca80 f i bot_navigate.obj
 0001:0003baf0       ?Violate@CBotFailedPath@@QAEXXZ 1003caf0 f i bot_navigate.obj
 0001:0003bb00       ?Violate@CBotFailedPaths@@QAEHPAUpath@@@Z 1003cb00 f i bot_navigate.obj
 0001:0003bb40       ?_Destroy@?$vector@VVector@@V?$allocator@VVector@@@std@@@std@@IAEXPAVVector@@0@Z 1003cb40 f i bot_navigate.obj
 0001:0003bb50       ?_Getal@?$_Vector_alloc@$0A@U?$_Vec_base_types@VVector@@V?$allocator@VVector@@@std@@@std@@@std@@QBE?AU?$_Wrap_alloc@V?$allocator@VVector@@@std@@@2@XZ 1003cb50 f i bot_navigate.obj
 0001:0003bb60       ?_Grow_to@?$vector@VVector@@V?$allocator@VVector@@@std@@@std@@IBEII@Z 1003cb60 f i bot_navigate.obj
 0001:0003bbb0       ?_Inside@?$vector@VVector@@V?$allocator@VVector@@@std@@@std@@IBE_NPBVVector@@@Z 1003cbb0 f i bot_navigate.obj
 0001:0003bbd0       ?_Orphan_range@?$vector@VVector@@V?$allocator@VVector@@@std@@@std@@IBEXPAVVector@@0@Z 1003cbd0 f i bot_navigate.obj
 0001:0003bbe0       ?_Reallocate@?$vector@VVector@@V?$allocator@VVector@@@std@@@std@@IAEXI@Z 1003cbe0 f i bot_navigate.obj
 0001:0003bcd0       ?_Reserve@?$vector@VVector@@V?$allocator@VVector@@@std@@@std@@IAEXI@Z 1003ccd0 f i bot_navigate.obj
 0001:0003bd70       ?_Tidy@?$vector@VVector@@V?$allocator@VVector@@@std@@@std@@IAEXXZ 1003cd70 f i bot_navigate.obj
 0001:0003bda0       ?_Unused_capacity@?$vector@VVector@@V?$allocator@VVector@@@std@@@std@@QBEIXZ 1003cda0 f i bot_navigate.obj
 0001:0003bdc0       ?_Xlen@?$vector@VVector@@V?$allocator@VVector@@@std@@@std@@IBEXXZ 1003cdc0 f i bot_navigate.obj
 0001:0003bdd0       ?add@AStarOpenList@@QAEXPAVAStarNode@@@Z 1003cdd0 f i bot_navigate.obj
 0001:0003be50       ?allocate@?$_Wrap_alloc@V?$allocator@VVector@@@std@@@std@@QAEPAVVector@@I@Z 1003ce50 f i bot_navigate.obj
 0001:0003be90       ?allocate@?$allocator@VVector@@@std@@QAEPAVVector@@I@Z 1003ce90 f i bot_navigate.obj
 0001:0003bed0       ?capacity@?$vector@VVector@@V?$allocator@VVector@@@std@@@std@@QBEIXZ 1003ced0 f i bot_navigate.obj
 0001:0003bef0       ?clear@?$vector@VVector@@V?$allocator@VVector@@@std@@@std@@QAEXXZ 1003cef0 f i bot_navigate.obj
 0001:0003bf00       ?close@AStarNode@@QAEXXZ   1003cf00 f   bot_navigate.obj
 0001:0003bf10       ?construct@?$allocator@VVector@@@std@@QAEXPAVVector@@ABV3@@Z 1003cf10 f i bot_navigate.obj
 0001:0003bf40       ?deallocate@?$_Wrap_alloc@V?$allocator@VVector@@@std@@@std@@QAEXPAVVector@@I@Z 1003cf40 f i bot_navigate.obj
 0001:0003bf60       ?deallocate@?$allocator@VVector@@@std@@QAEXPAVVector@@I@Z 1003cf60 f i bot_navigate.obj
 0001:0003bf80       ?empty@?$vector@VVector@@V?$allocator@VVector@@@std@@@std@@QBE_NXZ 1003cf80 f i bot_navigate.obj
 0001:0003bf90       ?empty@AStarOpenList@@QAE_NXZ 1003cf90 f i bot_navigate.obj
 0001:0003bfa0       ?getHeuristic@AStarNode@@QAEMXZ 1003cfa0 f   bot_navigate.obj
 0001:0003bfb0       ?getParent@AStarNode@@QAEFXZ 1003cfb0 f   bot_navigate.obj
 0001:0003bfc0       ?hasParent@AStarNode@@QAEHXZ 1003cfc0 f   bot_navigate.obj
 0001:0003bfd0       ?heuristicSet@AStarNode@@QAEHXZ 1003cfd0 f   bot_navigate.obj
 0001:0003bfe0       ?isClosed@AStarNode@@QAEHXZ 1003cfe0 f   bot_navigate.obj
 0001:0003bff0       ?isOpen@AStarNode@@QAEHXZ  1003cff0 f   bot_navigate.obj
 0001:0003c000       ?max_size@?$_Wrap_alloc@V?$allocator@VVector@@@std@@@std@@QBEIXZ 1003d000 f i bot_navigate.obj
 0001:0003c010       ?max_size@?$allocator@VVector@@@std@@QBEIXZ 1003d010 f i bot_navigate.obj
 0001:0003c020       ?max_size@?$allocator_traits@V?$allocator@VVector@@@std@@@std@@SAIABV?$allocator@VVector@@@2@@Z 1003d020 f i bot_navigate.obj
 0001:0003c030       ?max_size@?$vector@VVector@@V?$allocator@VVector@@@std@@@std@@QBEIXZ 1003d030 f i bot_navigate.obj
 0001:0003c040       ?open@AStarNode@@QAEXXZ    1003d040 f   bot_navigate.obj
 0001:0003c050       ?otherBotAtWaypoint@CBotGlobals@@QAEPAVCBot@@PAV2@H@Z 1003d050 f i bot_navigate.obj
 0001:0003c080       ?pop@AStarOpenList@@QAEXXZ 1003d080 f i bot_navigate.obj
 0001:0003c0a0       ?precedes@AStarNode@@QAE_NPAV1@@Z 1003d0a0 f   bot_navigate.obj
 0001:0003c0e0       ?push_back@?$vector@VVector@@V?$allocator@VVector@@@std@@@std@@QAEXABVVector@@@Z 1003d0e0 f i bot_navigate.obj
 0001:0003c170       ?setHeuristic@AStarNode@@QAEXMMH@Z 1003d170 f   bot_navigate.obj
 0001:0003c1a0       ?setParent@AStarNode@@QAEXH@Z 1003d1a0 f   bot_navigate.obj
 0001:0003c1c0       ?size@?$vector@VVector@@V?$allocator@VVector@@@std@@@std@@QBEIXZ 1003d1c0 f i bot_navigate.obj
 0001:0003c1e0       ?top@AStarOpenList@@QAEPAVAStarNode@@XZ 1003d1e0 f i bot_navigate.obj
 0001:0003c1f0       ?unClose@AStarNode@@QAEXXZ 1003d1f0 f   bot_navigate.obj
 0001:0003c200       ?unOpen@AStarNode@@QAEXXZ  1003d200 f   bot_navigate.obj
 0001:0003c210       ??$_Allocate@PAVCPerceptron@@@std@@YAPAPAVCPerceptron@@IPAPAV1@@Z 1003d210 f i bot_nn.obj
 0001:0003c240       ??$_Allocate@PAVNNLayer@@@std@@YAPAPAVNNLayer@@IPAPAV1@@Z 1003d240 f i bot_nn.obj
 0001:0003c270       ??$_Destroy_range@U?$_Wrap_alloc@V?$allocator@PAVCPerceptron@@@std@@@std@@@std@@YAXPAPAVCPerceptron@@0AAU?$_Wrap_alloc@V?$allocator@PAVCPerceptron@@@std@@@0@@Z 1003d270 f i bot_nn.obj
 0001:0003c280       ??$_Destroy_range@U?$_Wrap_alloc@V?$allocator@PAVCPerceptron@@@std@@@std@@@std@@YAXPAPAVCPerceptron@@0AAU?$_Wrap_alloc@V?$allocator@PAVCPerceptron@@@std@@@0@U_Scalar_ptr_iterator_tag@0@@Z 1003d280 f i bot_nn.obj
 0001:0003c290       ??$_Destroy_range@U?$_Wrap_alloc@V?$allocator@PAVNNLayer@@@std@@@std@@@std@@YAXPAPAVNNLayer@@0AAU?$_Wrap_alloc@V?$allocator@PAVNNLayer@@@std@@@0@@Z 1003d290 f i bot_nn.obj
 0001:0003c2a0       ??$_Destroy_range@U?$_Wrap_alloc@V?$allocator@PAVNNLayer@@@std@@@std@@@std@@YAXPAPAVNNLayer@@0AAU?$_Wrap_alloc@V?$allocator@PAVNNLayer@@@std@@@0@U_Scalar_ptr_iterator_tag@0@@Z 1003d2a0 f i bot_nn.obj
 0001:0003c2b0       ??$_Destroy_range@U?$_Wrap_alloc@V?$allocator@VCNNTrainSet@@@std@@@std@@@std@@YAXPAVCNNTrainSet@@0AAU?$_Wrap_alloc@V?$allocator@VCNNTrainSet@@@std@@@0@@Z 1003d2b0 f i bot_nn.obj
 0001:0003c2d0       ??$_Destroy_range@U?$_Wrap_alloc@V?$allocator@VCNNTrainSet@@@std@@@std@@@std@@YAXPAVCNNTrainSet@@0AAU?$_Wrap_alloc@V?$allocator@VCNNTrainSet@@@std@@@0@U_Nonscalar_ptr_iterator_tag@0@@Z 1003d2d0 f i bot_nn.obj
 0001:0003c340       ??$_Ptr_cat@PAVCPerceptron@@PAV1@@std@@YA?AU_Scalar_ptr_iterator_tag@0@PAPAVCPerceptron@@0@Z 1003d340 f i bot_nn.obj
 0001:0003c350       ??$_Ptr_cat@PAVNNLayer@@PAV1@@std@@YA?AU_Scalar_ptr_iterator_tag@0@PAPAVNNLayer@@0@Z 1003d350 f i bot_nn.obj
 0001:0003c360       ??$_Ptr_cat@VCNNTrainSet@@V1@@std@@YA?AU_Nonscalar_ptr_iterator_tag@0@PAVCNNTrainSet@@0@Z 1003d360 f i bot_nn.obj
 0001:0003c370       ??$_Rechecked@PAPAVCPerceptron@@PAPAV1@@std@@YAAAPAPAVCPerceptron@@AAPAPAV1@PAPAV1@@Z 1003d370 f i bot_nn.obj
 0001:0003c380       ??$_Rechecked@PAPAVNNLayer@@PAPAV1@@std@@YAAAPAPAVNNLayer@@AAPAPAV1@PAPAV1@@Z 1003d380 f i bot_nn.obj
 0001:0003c390       ??$_Umove@PAPAVCPerceptron@@@?$vector@PAVCPerceptron@@V?$allocator@PAVCPerceptron@@@std@@@std@@IAEPAPAVCPerceptron@@PAPAV2@00@Z 1003d390 f i bot_nn.obj
 0001:0003c3c0       ??$_Umove@PAPAVNNLayer@@@?$vector@PAVNNLayer@@V?$allocator@PAVNNLayer@@@std@@@std@@IAEPAPAVNNLayer@@PAPAV2@00@Z 1003d3c0 f i bot_nn.obj
 0001:0003c3f0       ??$_Unchecked@PAPAVCPerceptron@@@std@@YAPAPAVCPerceptron@@PAPAV1@@Z 1003d3f0 f i bot_nn.obj
 0001:0003c400       ??$_Unchecked@PAPAVNNLayer@@@std@@YAPAPAVNNLayer@@PAPAV1@@Z 1003d400 f i bot_nn.obj
 0001:0003c410       ??$_Uninit_move@PAPAVCPerceptron@@PAPAV1@U?$_Wrap_alloc@V?$allocator@PAVCPerceptron@@@std@@@std@@@std@@YAPAPAVCPerceptron@@PAPAV1@00AAU?$_Wrap_alloc@V?$allocator@PAVCPerceptron@@@std@@@0@@Z 1003d410 f i bot_nn.obj
 0001:0003c440       ??$_Uninit_move@PAPAVNNLayer@@PAPAV1@U?$_Wrap_alloc@V?$allocator@PAVNNLayer@@@std@@@std@@@std@@YAPAPAVNNLayer@@PAPAV1@00AAU?$_Wrap_alloc@V?$allocator@PAVNNLayer@@@std@@@0@@Z 1003d440 f i bot_nn.obj
 0001:0003c470       ??$_Uninit_move@PAVCPerceptron@@PAV1@PAV1@@std@@YAPAPAVCPerceptron@@PAPAV1@00AAU?$_Wrap_alloc@V?$allocator@PAVCPerceptron@@@std@@@0@0U_Scalar_ptr_iterator_tag@0@@Z 1003d470 f i bot_nn.obj
 0001:0003c4a0       ??$_Uninit_move@PAVNNLayer@@PAV1@PAV1@@std@@YAPAPAVNNLayer@@PAPAV1@00AAU?$_Wrap_alloc@V?$allocator@PAVNNLayer@@@std@@@0@0U_Scalar_ptr_iterator_tag@0@@Z 1003d4a0 f i bot_nn.obj
 0001:0003c4d0       ??$_Uninitialized_move@PAPAVCPerceptron@@PAPAV1@U?$_Wrap_alloc@V?$allocator@PAVCPerceptron@@@std@@@std@@@std@@YAPAPAVCPerceptron@@PAPAV1@00AAU?$_Wrap_alloc@V?$allocator@PAVCPerceptron@@@std@@@0@@Z 1003d4d0 f i bot_nn.obj
 0001:0003c500       ??$_Uninitialized_move@PAPAVNNLayer@@PAPAV1@U?$_Wrap_alloc@V?$allocator@PAVNNLayer@@@std@@@std@@@std@@YAPAPAVNNLayer@@PAPAV1@00AAU?$_Wrap_alloc@V?$allocator@PAVNNLayer@@@std@@@0@@Z 1003d500 f i bot_nn.obj
 0001:0003c530       ??$_Val_type@PAPAVCPerceptron@@@std@@YAPAPAVCPerceptron@@PAPAV1@@Z 1003d530 f i bot_nn.obj
 0001:0003c540       ??$_Val_type@PAPAVNNLayer@@@std@@YAPAPAVNNLayer@@PAPAV1@@Z 1003d540 f i bot_nn.obj
 0001:0003c550       ??$addressof@PAVCPerceptron@@@std@@YAPAPAVCPerceptron@@AAPAV1@@Z 1003d550 f i bot_nn.obj
 0001:0003c560       ??$addressof@PAVNNLayer@@@std@@YAPAPAVNNLayer@@AAPAV1@@Z 1003d560 f i bot_nn.obj
 0001:0003c570       ??$construct@PAVCPerceptron@@PAV1@@?$_Wrap_alloc@V?$allocator@PAVCPerceptron@@@std@@@std@@QAEXPAPAVCPerceptron@@$$QAPAV2@@Z 1003d570 f i bot_nn.obj
 0001:0003c590       ??$construct@PAVCPerceptron@@PAV1@@?$allocator@PAVCPerceptron@@@std@@QAEXPAPAVCPerceptron@@$$QAPAV2@@Z 1003d590 f i bot_nn.obj
 0001:0003c5b0       ??$construct@PAVCPerceptron@@PAV1@@?$allocator_traits@V?$allocator@PAVCPerceptron@@@std@@@std@@SAXAAV?$allocator@PAVCPerceptron@@@1@PAPAVCPerceptron@@$$QAPAV3@@Z 1003d5b0 f i bot_nn.obj
 0001:0003c5d0       ??$construct@PAVNNLayer@@PAV1@@?$_Wrap_alloc@V?$allocator@PAVNNLayer@@@std@@@std@@QAEXPAPAVNNLayer@@$$QAPAV2@@Z 1003d5d0 f i bot_nn.obj
 0001:0003c5f0       ??$construct@PAVNNLayer@@PAV1@@?$allocator@PAVNNLayer@@@std@@QAEXPAPAVNNLayer@@$$QAPAV2@@Z 1003d5f0 f i bot_nn.obj
 0001:0003c610       ??$construct@PAVNNLayer@@PAV1@@?$allocator_traits@V?$allocator@PAVNNLayer@@@std@@@std@@SAXAAV?$allocator@PAVNNLayer@@@1@PAPAVNNLayer@@$$QAPAV3@@Z 1003d610 f i bot_nn.obj
 0001:0003c630       ??$destroy@VCNNTrainSet@@@?$_Wrap_alloc@V?$allocator@VCNNTrainSet@@@std@@@std@@QAEXPAVCNNTrainSet@@@Z 1003d630 f i bot_nn.obj
 0001:0003c690       ??$destroy@VCNNTrainSet@@@?$allocator@VCNNTrainSet@@@std@@QAEXPAVCNNTrainSet@@@Z 1003d690 f i bot_nn.obj
 0001:0003c6f0       ??$destroy@VCNNTrainSet@@@?$allocator_traits@V?$allocator@VCNNTrainSet@@@std@@@std@@SAXAAV?$allocator@VCNNTrainSet@@@1@PAVCNNTrainSet@@@Z 1003d6f0 f i bot_nn.obj
 0001:0003c750       ??$forward@PAVCPerceptron@@@std@@YA$$QAPAVCPerceptron@@AAPAV1@@Z 1003d750 f i bot_nn.obj
 0001:0003c760       ??$forward@PAVNNLayer@@@std@@YA$$QAPAVNNLayer@@AAPAV1@@Z 1003d760 f i bot_nn.obj
 0001:0003c770       ??0?$_Vector_alloc@$0A@U?$_Vec_base_types@PAVCPerceptron@@V?$allocator@PAVCPerceptron@@@std@@@std@@@std@@QAE@ABV?$allocator@PAVCPerceptron@@@1@@Z 1003d770 f i bot_nn.obj
 0001:0003c790       ??0?$_Vector_alloc@$0A@U?$_Vec_base_types@PAVNNLayer@@V?$allocator@PAVNNLayer@@@std@@@std@@@std@@QAE@ABV?$allocator@PAVNNLayer@@@1@@Z 1003d790 f i bot_nn.obj
 0001:0003c7b0       ??0?$_Vector_val@U?$_Simple_types@PAVCPerceptron@@@std@@@std@@QAE@XZ 1003d7b0 f i bot_nn.obj
 0001:0003c7d0       ??0?$_Vector_val@U?$_Simple_types@PAVNNLayer@@@std@@@std@@QAE@XZ 1003d7d0 f i bot_nn.obj
 0001:0003c7f0       ??0?$_Wrap_alloc@V?$allocator@PAVCPerceptron@@@std@@@std@@QAE@XZ 1003d7f0 f i bot_nn.obj
 0001:0003c800       ??0?$_Wrap_alloc@V?$allocator@PAVNNLayer@@@std@@@std@@QAE@XZ 1003d800 f i bot_nn.obj
 0001:0003c810       ??0?$_Wrap_alloc@V?$allocator@VCNNTrainSet@@@std@@@std@@QAE@XZ 1003d810 f i bot_nn.obj
 0001:0003c820       ??0?$allocator@PAVCPerceptron@@@std@@QAE@XZ 1003d820 f i bot_nn.obj
 0001:0003c830       ??0?$allocator@PAVNNLayer@@@std@@QAE@XZ 1003d830 f i bot_nn.obj
 0001:0003c840       ??0?$allocator@VCNNTrainSet@@@std@@QAE@XZ 1003d840 f i bot_nn.obj
 0001:0003c850       ??0?$vector@PAVCPerceptron@@V?$allocator@PAVCPerceptron@@@std@@@std@@QAE@XZ 1003d850 f i bot_nn.obj
 0001:0003c870       ??0?$vector@PAVNNLayer@@V?$allocator@PAVNNLayer@@@std@@@std@@QAE@XZ 1003d870 f i bot_nn.obj
 0001:0003c890       ??0CPerceptron@@QAE@PAU_iobuf@@@Z 1003d890 f i bot_nn.obj
 0001:0003c910       ??0NN@@QAE@HHHH@Z          1003d910 f   bot_nn.obj
 0001:0003cae0       ??0NN@@QAE@XZ              1003dae0 f i bot_nn.obj
 0001:0003cb10       ??0NNGATrained@@QAE@HHHH@Z 1003db10 f   bot_nn.obj
 0001:0003cc00       ??0NNLayer@@QAE@HH@Z       1003dc00 f   bot_nn.obj
 0001:0003cd00       ??0NNLayer@@QAE@PAU_iobuf@@@Z 1003dd00 f i bot_nn.obj
 0001:0003cd60       ??1?$vector@PAVCPerceptron@@V?$allocator@PAVCPerceptron@@@std@@@std@@QAE@XZ 1003dd60 f i bot_nn.obj
 0001:0003cd90       ??1?$vector@PAVNNLayer@@V?$allocator@PAVNNLayer@@@std@@@std@@QAE@XZ 1003dd90 f i bot_nn.obj
 0001:0003cdc0       ??1?$vector@VCNNTrainSet@@V?$allocator@VCNNTrainSet@@@std@@@std@@QAE@XZ 1003ddc0 f i bot_nn.obj
 0001:0003ce10       ??1CNNTrainSet@@QAE@XZ     1003de10 f i bot_nn.obj
 0001:0003ce60       ??1NN@@QAE@XZ              1003de60 f i bot_nn.obj
 0001:0003ce90       ??1NNGATrained@@QAE@XZ     1003de90 f   bot_nn.obj
 0001:0003cf90       ??1NNLayer@@QAE@XZ         1003df90 f i bot_nn.obj
 0001:0003cfc0       ??A?$vector@PAVCPerceptron@@V?$allocator@PAVCPerceptron@@@std@@@std@@QAEAAPAVCPerceptron@@I@Z 1003dfc0 f i bot_nn.obj
 0001:0003cfd0       ??A?$vector@PAVNNLayer@@V?$allocator@PAVNNLayer@@@std@@@std@@QAEAAPAVNNLayer@@I@Z 1003dfd0 f i bot_nn.obj
 0001:0003cfe0       ??A?$vector@VCNNTrainSet@@V?$allocator@VCNNTrainSet@@@std@@@std@@QAEAAVCNNTrainSet@@I@Z 1003dfe0 f i bot_nn.obj
 0001:0003d000       ??_GCNNTrainSet@@QAEPAXI@Z 1003e000 f i bot_nn.obj
 0001:0003d070       ??_GNNLayer@@QAEPAXI@Z     1003e070 f i bot_nn.obj
 0001:0003d0b0       ?_Destroy@?$vector@PAVCPerceptron@@V?$allocator@PAVCPerceptron@@@std@@@std@@IAEXPAPAVCPerceptron@@0@Z 1003e0b0 f i bot_nn.obj
 0001:0003d0c0       ?_Destroy@?$vector@PAVNNLayer@@V?$allocator@PAVNNLayer@@@std@@@std@@IAEXPAPAVNNLayer@@0@Z 1003e0c0 f i bot_nn.obj
 0001:0003d0d0       ?_Destroy@?$vector@VCNNTrainSet@@V?$allocator@VCNNTrainSet@@@std@@@std@@IAEXPAVCNNTrainSet@@0@Z 1003e0d0 f i bot_nn.obj
 0001:0003d0f0       ?_Getal@?$_Vector_alloc@$0A@U?$_Vec_base_types@PAVCPerceptron@@V?$allocator@PAVCPerceptron@@@std@@@std@@@std@@QBE?AU?$_Wrap_alloc@V?$allocator@PAVCPerceptron@@@std@@@2@XZ 1003e0f0 f i bot_nn.obj
 0001:0003d100       ?_Getal@?$_Vector_alloc@$0A@U?$_Vec_base_types@PAVNNLayer@@V?$allocator@PAVNNLayer@@@std@@@std@@@std@@QBE?AU?$_Wrap_alloc@V?$allocator@PAVNNLayer@@@std@@@2@XZ 1003e100 f i bot_nn.obj
 0001:0003d110       ?_Getal@?$_Vector_alloc@$0A@U?$_Vec_base_types@VCNNTrainSet@@V?$allocator@VCNNTrainSet@@@std@@@std@@@std@@QBE?AU?$_Wrap_alloc@V?$allocator@VCNNTrainSet@@@std@@@2@XZ 1003e110 f i bot_nn.obj
 0001:0003d120       ?_Grow_to@?$vector@PAVCPerceptron@@V?$allocator@PAVCPerceptron@@@std@@@std@@IBEII@Z 1003e120 f i bot_nn.obj
 0001:0003d160       ?_Grow_to@?$vector@PAVNNLayer@@V?$allocator@PAVNNLayer@@@std@@@std@@IBEII@Z 1003e160 f i bot_nn.obj
 0001:0003d1a0       ?_Inside@?$vector@PAVCPerceptron@@V?$allocator@PAVCPerceptron@@@std@@@std@@IBE_NPBQAVCPerceptron@@@Z 1003e1a0 f i bot_nn.obj
 0001:0003d1c0       ?_Inside@?$vector@PAVNNLayer@@V?$allocator@PAVNNLayer@@@std@@@std@@IBE_NPBQAVNNLayer@@@Z 1003e1c0 f i bot_nn.obj
 0001:0003d1e0       ?_Orphan_range@?$vector@PAVCPerceptron@@V?$allocator@PAVCPerceptron@@@std@@@std@@IBEXPAPAVCPerceptron@@0@Z 1003e1e0 f i bot_nn.obj
 0001:0003d1f0       ?_Orphan_range@?$vector@PAVNNLayer@@V?$allocator@PAVNNLayer@@@std@@@std@@IBEXPAPAVNNLayer@@0@Z 1003e1f0 f i bot_nn.obj
 0001:0003d200       ?_Reallocate@?$vector@PAVCPerceptron@@V?$allocator@PAVCPerceptron@@@std@@@std@@IAEXI@Z 1003e200 f i bot_nn.obj
 0001:0003d280       ?_Reallocate@?$vector@PAVNNLayer@@V?$allocator@PAVNNLayer@@@std@@@std@@IAEXI@Z 1003e280 f i bot_nn.obj
 0001:0003d300       ?_Reserve@?$vector@PAVCPerceptron@@V?$allocator@PAVCPerceptron@@@std@@@std@@IAEXI@Z 1003e300 f i bot_nn.obj
 0001:0003d380       ?_Reserve@?$vector@PAVNNLayer@@V?$allocator@PAVNNLayer@@@std@@@std@@IAEXI@Z 1003e380 f i bot_nn.obj
 0001:0003d400       ?_Tidy@?$vector@PAVCPerceptron@@V?$allocator@PAVCPerceptron@@@std@@@std@@IAEXXZ 1003e400 f i bot_nn.obj
 0001:0003d430       ?_Tidy@?$vector@PAVNNLayer@@V?$allocator@PAVNNLayer@@@std@@@std@@IAEXXZ 1003e430 f i bot_nn.obj
 0001:0003d460       ?_Tidy@?$vector@VCNNTrainSet@@V?$allocator@VCNNTrainSet@@@std@@@std@@IAEXXZ 1003e460 f i bot_nn.obj
 0001:0003d4b0       ?_Unused_capacity@?$vector@PAVCPerceptron@@V?$allocator@PAVCPerceptron@@@std@@@std@@QBEIXZ 1003e4b0 f i bot_nn.obj
 0001:0003d4c0       ?_Unused_capacity@?$vector@PAVNNLayer@@V?$allocator@PAVNNLayer@@@std@@@std@@QBEIXZ 1003e4c0 f i bot_nn.obj
 0001:0003d4d0       ?_Xlen@?$vector@PAVCPerceptron@@V?$allocator@PAVCPerceptron@@@std@@@std@@IBEXXZ 1003e4d0 f i bot_nn.obj
 0001:0003d4e0       ?_Xlen@?$vector@PAVNNLayer@@V?$allocator@PAVNNLayer@@@std@@@std@@IBEXXZ 1003e4e0 f i bot_nn.obj
 0001:0003d4f0       ?allocate@?$_Wrap_alloc@V?$allocator@PAVCPerceptron@@@std@@@std@@QAEPAPAVCPerceptron@@I@Z 1003e4f0 f i bot_nn.obj
 0001:0003d530       ?allocate@?$_Wrap_alloc@V?$allocator@PAVNNLayer@@@std@@@std@@QAEPAPAVNNLayer@@I@Z 1003e530 f i bot_nn.obj
 0001:0003d570       ?allocate@?$allocator@PAVCPerceptron@@@std@@QAEPAPAVCPerceptron@@I@Z 1003e570 f i bot_nn.obj
 0001:0003d5b0       ?allocate@?$allocator@PAVNNLayer@@@std@@QAEPAPAVNNLayer@@I@Z 1003e5b0 f i bot_nn.obj
 0001:0003d5f0       ?capacity@?$vector@PAVCPerceptron@@V?$allocator@PAVCPerceptron@@@std@@@std@@QBEIXZ 1003e5f0 f i bot_nn.obj
 0001:0003d600       ?capacity@?$vector@PAVNNLayer@@V?$allocator@PAVNNLayer@@@std@@@std@@QBEIXZ 1003e600 f i bot_nn.obj
 0001:0003d610       ?clear@?$vector@PAVCPerceptron@@V?$allocator@PAVCPerceptron@@@std@@@std@@QAEXXZ 1003e610 f i bot_nn.obj
 0001:0003d620       ?clear@?$vector@PAVNNLayer@@V?$allocator@PAVNNLayer@@@std@@@std@@QAEXXZ 1003e620 f i bot_nn.obj
 0001:0003d630       ?deallocate@?$_Wrap_alloc@V?$allocator@PAVCPerceptron@@@std@@@std@@QAEXPAPAVCPerceptron@@I@Z 1003e630 f i bot_nn.obj
 0001:0003d650       ?deallocate@?$_Wrap_alloc@V?$allocator@PAVNNLayer@@@std@@@std@@QAEXPAPAVNNLayer@@I@Z 1003e650 f i bot_nn.obj
 0001:0003d670       ?deallocate@?$_Wrap_alloc@V?$allocator@VCNNTrainSet@@@std@@@std@@QAEXPAVCNNTrainSet@@I@Z 1003e670 f i bot_nn.obj
 0001:0003d690       ?deallocate@?$allocator@PAVCPerceptron@@@std@@QAEXPAPAVCPerceptron@@I@Z 1003e690 f i bot_nn.obj
 0001:0003d6b0       ?deallocate@?$allocator@PAVNNLayer@@@std@@QAEXPAPAVNNLayer@@I@Z 1003e6b0 f i bot_nn.obj
 0001:0003d6d0       ?deallocate@?$allocator@VCNNTrainSet@@@std@@QAEXPAVCNNTrainSet@@I@Z 1003e6d0 f i bot_nn.obj
 0001:0003d6f0       ?execute@NN@@QAEXPAV?$vector@MV?$allocator@M@std@@@std@@0@Z 1003e6f0 f   bot_nn.obj
 0001:0003da90       ?freeMemory@NN@@QAEXXZ     1003ea90 f   bot_nn.obj
 0001:0003db60       ?freeMemory@NNLayer@@QAEXXZ 1003eb60 f   bot_nn.obj
 0001:0003dc30       ?getNeuron@NNLayer@@QAEPAVCPerceptron@@H@Z 1003ec30 f i bot_nn.obj
 0001:0003dc40       ?getOutputs@NN@@QAEXPAV?$vector@MV?$allocator@M@std@@@std@@@Z 1003ec40 f   bot_nn.obj
 0001:0003dde0       ?getWeight@CPerceptron@@QAEMH@Z 1003ede0 f i bot_nn.obj
 0001:0003ddf0       ?getWeights@NN@@QAEXPAV?$vector@MV?$allocator@M@std@@@std@@@Z 1003edf0 f   bot_nn.obj
 0001:0003dfd0       ?load@NN@@QAEXPAU_iobuf@@@Z 1003efd0 f   bot_nn.obj
 0001:0003e130       ?load@NNLayer@@QAEXPAU_iobuf@@@Z 1003f130 f   bot_nn.obj
 0001:0003e300       ?max_size@?$_Wrap_alloc@V?$allocator@PAVCPerceptron@@@std@@@std@@QBEIXZ 1003f300 f i bot_nn.obj
 0001:0003e310       ?max_size@?$_Wrap_alloc@V?$allocator@PAVNNLayer@@@std@@@std@@QBEIXZ 1003f310 f i bot_nn.obj
 0001:0003e320       ?max_size@?$allocator@PAVCPerceptron@@@std@@QBEIXZ 1003f320 f i bot_nn.obj
 0001:0003e330       ?max_size@?$allocator@PAVNNLayer@@@std@@QBEIXZ 1003f330 f i bot_nn.obj
 0001:0003e340       ?max_size@?$allocator_traits@V?$allocator@PAVCPerceptron@@@std@@@std@@SAIABV?$allocator@PAVCPerceptron@@@2@@Z 1003f340 f i bot_nn.obj
 0001:0003e350       ?max_size@?$allocator_traits@V?$allocator@PAVNNLayer@@@std@@@std@@SAIABV?$allocator@PAVNNLayer@@@2@@Z 1003f350 f i bot_nn.obj
 0001:0003e360       ?max_size@?$vector@PAVCPerceptron@@V?$allocator@PAVCPerceptron@@@std@@@std@@QBEIXZ 1003f360 f i bot_nn.obj
 0001:0003e370       ?max_size@?$vector@PAVNNLayer@@V?$allocator@PAVNNLayer@@@std@@@std@@QBEIXZ 1003f370 f i bot_nn.obj
 0001:0003e380       ?numNeurons@NNLayer@@QAEHXZ 1003f380 f i bot_nn.obj
 0001:0003e390       ?numWeights@CPerceptron@@QAEHXZ 1003f390 f i bot_nn.obj
 0001:0003e3a0       ?push_back@?$vector@PAVCPerceptron@@V?$allocator@PAVCPerceptron@@@std@@@std@@QAEX$$QAPAVCPerceptron@@@Z 1003f3a0 f i bot_nn.obj
 0001:0003e410       ?push_back@?$vector@PAVNNLayer@@V?$allocator@PAVNNLayer@@@std@@@std@@QAEX$$QAPAVNNLayer@@@Z 1003f410 f i bot_nn.obj
 0001:0003e480       ?randomize@NN@@QAEXXZ      1003f480 f   bot_nn.obj
 0001:0003e500       ?returnVector@CBotGAValues@@QAEPAV?$vector@MV?$allocator@M@std@@@std@@XZ 1003f500 f i bot_nn.obj
 0001:0003e510       ?save@NN@@QAEXPAU_iobuf@@@Z 1003f510 f   bot_nn.obj
 0001:0003e5b0       ?save@NNLayer@@QAEXPAU_iobuf@@@Z 1003f5b0 f   bot_nn.obj
 0001:0003e640       ?setWeight@CPerceptron@@QAEXHM@Z 1003f640 f i bot_nn.obj
 0001:0003e660       ?setWeights@NN@@QAEXPAV?$vector@MV?$allocator@M@std@@@std@@@Z 1003f660 f   bot_nn.obj
 0001:0003e730       ?size@?$vector@PAVCPerceptron@@V?$allocator@PAVCPerceptron@@@std@@@std@@QBEIXZ 1003f730 f i bot_nn.obj
 0001:0003e740       ?size@?$vector@PAVNNLayer@@V?$allocator@PAVNNLayer@@@std@@@std@@QBEIXZ 1003f740 f i bot_nn.obj
 0001:0003e750       ?size@?$vector@VCNNTrainSet@@V?$allocator@VCNNTrainSet@@@std@@@std@@QBEIXZ 1003f750 f i bot_nn.obj
 0001:0003e770       ?train@NN@@UAEXV?$vector@VCNNTrainSet@@V?$allocator@VCNNTrainSet@@@std@@@std@@@Z 1003f770 f i bot_nn.obj
 0001:0003e7a0       ?train@NNGATrained@@UAEXV?$vector@VCNNTrainSet@@V?$allocator@VCNNTrainSet@@@std@@@std@@@Z 1003f7a0 f   bot_nn.obj
 0001:0003e9c0       ?trainOutputs@NN@@QAEXPAV?$vector@MV?$allocator@M@std@@@std@@@Z 1003f9c0 f   bot_nn.obj
 0001:0003ea60       ??$_Allocate@PAVCBotReputation@@@std@@YAPAPAVCBotReputation@@IPAPAV1@@Z 1003fa60 f i bot_rep.obj
 0001:0003ea90       ??$_Destroy_range@U?$_Wrap_alloc@V?$allocator@PAVCBotReputation@@@std@@@std@@@std@@YAXPAPAVCBotReputation@@0AAU?$_Wrap_alloc@V?$allocator@PAVCBotReputation@@@std@@@0@@Z 1003fa90 f i bot_rep.obj
 0001:0003eaa0       ??$_Destroy_range@U?$_Wrap_alloc@V?$allocator@PAVCBotReputation@@@std@@@std@@@std@@YAXPAPAVCBotReputation@@0AAU?$_Wrap_alloc@V?$allocator@PAVCBotReputation@@@std@@@0@U_Scalar_ptr_iterator_tag@0@@Z 1003faa0 f i bot_rep.obj
 0001:0003eab0       ??$_Ptr_cat@PAVCBotReputation@@PAV1@@std@@YA?AU_Scalar_ptr_iterator_tag@0@PAPAVCBotReputation@@0@Z 1003fab0 f i bot_rep.obj
 0001:0003eac0       ??$_Rechecked@PAPAVCBotReputation@@PAPAV1@@std@@YAAAPAPAVCBotReputation@@AAPAPAV1@PAPAV1@@Z 1003fac0 f i bot_rep.obj
 0001:0003ead0       ??$_Umove@PAPAVCBotReputation@@@?$vector@PAVCBotReputation@@V?$allocator@PAVCBotReputation@@@std@@@std@@IAEPAPAVCBotReputation@@PAPAV2@00@Z 1003fad0 f i bot_rep.obj
 0001:0003eb00       ??$_Unchecked@PAPAVCBotReputation@@@std@@YAPAPAVCBotReputation@@PAPAV1@@Z 1003fb00 f i bot_rep.obj
 0001:0003eb10       ??$_Uninit_move@PAPAVCBotReputation@@PAPAV1@U?$_Wrap_alloc@V?$allocator@PAVCBotReputation@@@std@@@std@@@std@@YAPAPAVCBotReputation@@PAPAV1@00AAU?$_Wrap_alloc@V?$allocator@PAVCBotReputation@@@std@@@0@@Z 1003fb10 f i bot_rep.obj
 0001:0003eb40       ??$_Uninit_move@PAVCBotReputation@@PAV1@PAV1@@std@@YAPAPAVCBotReputation@@PAPAV1@00AAU?$_Wrap_alloc@V?$allocator@PAVCBotReputation@@@std@@@0@0U_Scalar_ptr_iterator_tag@0@@Z 1003fb40 f i bot_rep.obj
 0001:0003eb70       ??$_Uninitialized_move@PAPAVCBotReputation@@PAPAV1@U?$_Wrap_alloc@V?$allocator@PAVCBotReputation@@@std@@@std@@@std@@YAPAPAVCBotReputation@@PAPAV1@00AAU?$_Wrap_alloc@V?$allocator@PAVCBotReputation@@@std@@@0@@Z 1003fb70 f i bot_rep.obj
 0001:0003eba0       ??$_Val_type@PAPAVCBotReputation@@@std@@YAPAPAVCBotReputation@@PAPAV1@@Z 1003fba0 f i bot_rep.obj
 0001:0003ebb0       ??$addressof@QAVCBotReputation@@@std@@YAPBQAVCBotReputation@@ABQAV1@@Z 1003fbb0 f i bot_rep.obj
 0001:0003ebc0       ??$construct@PAVCBotReputation@@AAPAV1@@?$_Wrap_alloc@V?$allocator@PAVCBotReputation@@@std@@@std@@QAEXPAPAVCBotReputation@@AAPAV2@@Z 1003fbc0 f i bot_rep.obj
 0001:0003ebe0       ??$construct@PAVCBotReputation@@AAPAV1@@?$allocator@PAVCBotReputation@@@std@@QAEXPAPAVCBotReputation@@AAPAV2@@Z 1003fbe0 f i bot_rep.obj
 0001:0003ec00       ??$construct@PAVCBotReputation@@AAPAV1@@?$allocator_traits@V?$allocator@PAVCBotReputation@@@std@@@std@@SAXAAV?$allocator@PAVCBotReputation@@@1@PAPAVCBotReputation@@AAPAV3@@Z 1003fc00 f i bot_rep.obj
 0001:0003ec20       ??$construct@PAVCBotReputation@@ABQAV1@@?$_Wrap_alloc@V?$allocator@PAVCBotReputation@@@std@@@std@@QAEXPAPAVCBotReputation@@ABQAV2@@Z 1003fc20 f i bot_rep.obj
 0001:0003ec40       ??$construct@PAVCBotReputation@@ABQAV1@@?$allocator_traits@V?$allocator@PAVCBotReputation@@@std@@@std@@SAXAAV?$allocator@PAVCBotReputation@@@1@PAPAVCBotReputation@@ABQAV3@@Z 1003fc40 f i bot_rep.obj
 0001:0003ec60       ??$forward@AAPAVCBotReputation@@@std@@YAAAPAVCBotReputation@@AAPAV1@@Z 1003fc60 f i bot_rep.obj
 0001:0003ec70       ??$forward@ABQAVCBotReputation@@@std@@YAABQAVCBotReputation@@ABQAV1@@Z 1003fc70 f i bot_rep.obj
 0001:0003ec80       ??0?$_Vector_alloc@$0A@U?$_Vec_base_types@PAVCBotReputation@@V?$allocator@PAVCBotReputation@@@std@@@std@@@std@@QAE@ABV?$allocator@PAVCBotReputation@@@1@@Z 1003fc80 f i bot_rep.obj
 0001:0003eca0       ??0?$_Vector_val@U?$_Simple_types@PAVCBotReputation@@@std@@@std@@QAE@XZ 1003fca0 f i bot_rep.obj
 0001:0003ecc0       ??0?$_Wrap_alloc@V?$allocator@PAVCBotReputation@@@std@@@std@@QAE@XZ 1003fcc0 f i bot_rep.obj
 0001:0003ecd0       ??0?$allocator@PAVCBotReputation@@@std@@QAE@XZ 1003fcd0 f i bot_rep.obj
 0001:0003ece0       ??0?$dataNode@VCBotReputation@@@@QAE@XZ 1003fce0 f i bot_rep.obj
 0001:0003ed00       ??0?$dataUnconstArray@PAVCBotReputation@@@@QAE@XZ 1003fd00 f i bot_rep.obj
 0001:0003ed20       ??0?$vector@PAVCBotReputation@@V?$allocator@PAVCBotReputation@@@std@@@std@@QAE@XZ 1003fd20 f i bot_rep.obj
 0001:0003ed40       ??0CBotReputation@@QAE@HH@Z 1003fd40 f   bot_rep.obj
 0001:0003ed60       ??0CBotReputation@@QAE@XZ  1003fd60 f i bot_rep.obj
 0001:0003ed70       ??1?$dataUnconstArray@PAVCBotReputation@@@@QAE@XZ 1003fd70 f i bot_rep.obj
 0001:0003eda0       ??1?$vector@PAVCBotReputation@@V?$allocator@PAVCBotReputation@@@std@@@std@@QAE@XZ 1003fda0 f i bot_rep.obj
 0001:0003edd0       ??8CBotReputation@@QAEHV0@@Z 1003fdd0 f i bot_rep.obj
 0001:0003edf0       ??A?$vector@PAVCBotReputation@@V?$allocator@PAVCBotReputation@@@std@@@std@@QAEAAPAVCBotReputation@@I@Z 1003fdf0 f i bot_rep.obj
 0001:0003ee00       ?Add@?$dataUnconstArray@PAVCBotReputation@@@@QAEXQAVCBotReputation@@@Z 1003fe00 f i bot_rep.obj
 0001:0003ee10       ?AddLoadRep@CBotReputations@@QAEXHH@Z 1003fe10 f   bot_rep.obj
 0001:0003f010       ?BotFunc_GetRepArrayNum@@YAHH@Z 10040010 f   bot_rep.obj
 0001:0003f050       ?Clear@?$dataUnconstArray@PAVCBotReputation@@@@QAEXXZ 10040050 f i bot_rep.obj
 0001:0003f060       ?Destroy@?$dataUnconstArray@PAVCBotReputation@@@@QAEXXZ 10040060 f i bot_rep.obj
 0001:0003f070       ?GetClientRep@CBotReputations@@QAEHPAVCClient@@@Z 10040070 f   bot_rep.obj
 0001:0003f0e0       ?GetHeadInfoPointer@?$dataStack@VCBotReputation@@@@QAEPAVCBotReputation@@XZ 100400e0 f i bot_rep.obj
 0001:0003f0f0       ?GetPlayerEdictRepId@@YAHPAUedict_s@@@Z 100400f0 f   bot_rep.obj
 0001:0003f140       ?GetPlayerRepId@@YAHPBD@Z  10040140 f   bot_rep.obj
 0001:0003f3d0       ?GetRandomClient@CBotReputations@@QAEPAVCClient@@H@Z 100403d0 f   bot_rep.obj
 0001:0003f520       ?GetRepId@CBotReputation@@QAEHXZ 10040520 f i bot_rep.obj
 0001:0003f530       ?Init@?$dataUnconstArray@PAVCBotReputation@@@@QAEXXZ 10040530 f i bot_rep.obj
 0001:0003f540       ?IsEmpty@?$dataUnconstArray@PAVCBotReputation@@@@QAE_NXZ 10040540 f i bot_rep.obj
 0001:0003f550       ?Push@?$dataStack@VCBotReputation@@@@QAEXVCBotReputation@@@Z 10040550 f i bot_rep.obj
 0001:0003f5a0       ?Random@?$dataUnconstArray@PAVCBotReputation@@@@QAEPAVCBotReputation@@XZ 100405a0 f i bot_rep.obj
 0001:0003f5d0       ?RemoveByPointer@?$dataStack@VCBotReputation@@@@QAEHPBVCBotReputation@@@Z 100405d0 f i bot_rep.obj
 0001:0003f640       ?RemoveSaveRep@CBotReputations@@QAEXHH@Z 10040640 f   bot_rep.obj
 0001:0003f6a0       ?SaveAllRep@CBotReputations@@QAEXH@Z 100406a0 f   bot_rep.obj
 0001:0003f6e0       ?WriteToFile@CBotReputations@@QAEXHPAVCBotReputation@@@Z 100406e0 f   bot_rep.obj
 0001:0003f8f0       ?_Destroy@?$vector@PAVCBotReputation@@V?$allocator@PAVCBotReputation@@@std@@@std@@IAEXPAPAVCBotReputation@@0@Z 100408f0 f i bot_rep.obj
 0001:0003f900       ?_Getal@?$_Vector_alloc@$0A@U?$_Vec_base_types@PAVCBotReputation@@V?$allocator@PAVCBotReputation@@@std@@@std@@@std@@QBE?AU?$_Wrap_alloc@V?$allocator@PAVCBotReputation@@@std@@@2@XZ 10040900 f i bot_rep.obj
 0001:0003f910       ?_Grow_to@?$vector@PAVCBotReputation@@V?$allocator@PAVCBotReputation@@@std@@@std@@IBEII@Z 10040910 f i bot_rep.obj
 0001:0003f950       ?_Inside@?$vector@PAVCBotReputation@@V?$allocator@PAVCBotReputation@@@std@@@std@@IBE_NPBQAVCBotReputation@@@Z 10040950 f i bot_rep.obj
 0001:0003f970       ?_Orphan_range@?$vector@PAVCBotReputation@@V?$allocator@PAVCBotReputation@@@std@@@std@@IBEXPAPAVCBotReputation@@0@Z 10040970 f i bot_rep.obj
 0001:0003f980       ?_Reallocate@?$vector@PAVCBotReputation@@V?$allocator@PAVCBotReputation@@@std@@@std@@IAEXI@Z 10040980 f i bot_rep.obj
 0001:0003fa00       ?_Reserve@?$vector@PAVCBotReputation@@V?$allocator@PAVCBotReputation@@@std@@@std@@IAEXI@Z 10040a00 f i bot_rep.obj
 0001:0003fa80       ?_Tidy@?$vector@PAVCBotReputation@@V?$allocator@PAVCBotReputation@@@std@@@std@@IAEXXZ 10040a80 f i bot_rep.obj
 0001:0003fab0       ?_Unused_capacity@?$vector@PAVCBotReputation@@V?$allocator@PAVCBotReputation@@@std@@@std@@QBEIXZ 10040ab0 f i bot_rep.obj
 0001:0003fac0       ?_Xlen@?$vector@PAVCBotReputation@@V?$allocator@PAVCBotReputation@@@std@@@std@@IBEXXZ 10040ac0 f i bot_rep.obj
 0001:0003fad0       ?allocate@?$_Wrap_alloc@V?$allocator@PAVCBotReputation@@@std@@@std@@QAEPAPAVCBotReputation@@I@Z 10040ad0 f i bot_rep.obj
 0001:0003fb10       ?allocate@?$allocator@PAVCBotReputation@@@std@@QAEPAPAVCBotReputation@@I@Z 10040b10 f i bot_rep.obj
 0001:0003fb50       ?capacity@?$vector@PAVCBotReputation@@V?$allocator@PAVCBotReputation@@@std@@@std@@QBEIXZ 10040b50 f i bot_rep.obj
 0001:0003fb60       ?clear@?$vector@PAVCBotReputation@@V?$allocator@PAVCBotReputation@@@std@@@std@@QAEXXZ 10040b60 f i bot_rep.obj
 0001:0003fb70       ?construct@?$allocator@PAVCBotReputation@@@std@@QAEXPAPAVCBotReputation@@ABQAV3@@Z 10040b70 f i bot_rep.obj
 0001:0003fb90       ?deallocate@?$_Wrap_alloc@V?$allocator@PAVCBotReputation@@@std@@@std@@QAEXPAPAVCBotReputation@@I@Z 10040b90 f i bot_rep.obj
 0001:0003fbb0       ?deallocate@?$allocator@PAVCBotReputation@@@std@@QAEXPAPAVCBotReputation@@I@Z 10040bb0 f i bot_rep.obj
 0001:0003fbd0       ?empty@?$vector@PAVCBotReputation@@V?$allocator@PAVCBotReputation@@@std@@@std@@QBE_NXZ 10040bd0 f i bot_rep.obj
 0001:0003fbe0       ?max_size@?$_Wrap_alloc@V?$allocator@PAVCBotReputation@@@std@@@std@@QBEIXZ 10040be0 f i bot_rep.obj
 0001:0003fbf0       ?max_size@?$allocator@PAVCBotReputation@@@std@@QBEIXZ 10040bf0 f i bot_rep.obj
 0001:0003fc00       ?max_size@?$allocator_traits@V?$allocator@PAVCBotReputation@@@std@@@std@@SAIABV?$allocator@PAVCBotReputation@@@2@@Z 10040c00 f i bot_rep.obj
 0001:0003fc10       ?max_size@?$vector@PAVCBotReputation@@V?$allocator@PAVCBotReputation@@@std@@@std@@QBEIXZ 10040c10 f i bot_rep.obj
 0001:0003fc20       ?push_back@?$vector@PAVCBotReputation@@V?$allocator@PAVCBotReputation@@@std@@@std@@QAEXABQAVCBotReputation@@@Z 10040c20 f i bot_rep.obj
 0001:0003fc90       ?size@?$vector@PAVCBotReputation@@V?$allocator@PAVCBotReputation@@@std@@@std@@QBEIXZ 10040c90 f i bot_rep.obj
 0001:0003fca0       ??$_Move@PAHPAH@std@@YAPAHPAH00@Z 10040ca0 f i bot_visibles.obj
 0001:0003fcd0       ??$_Move@PAHPAH@std@@YAPAHPAH00U_Scalar_ptr_iterator_tag@0@@Z 10040cd0 f i bot_visibles.obj
 0001:0003fd00       ??0?$_Vector_const_iterator@V?$_Vector_val@U?$_Simple_types@H@std@@@std@@@std@@QAE@PAHPBU_Container_base0@1@@Z 10040d00 f i bot_visibles.obj
 0001:0003fd10       ??0?$_Vector_const_iterator@V?$_Vector_val@U?$_Simple_types@H@std@@@std@@@std@@QAE@XZ 10040d10 f i bot_visibles.obj
 0001:0003fd20       ??0?$_Vector_iterator@V?$_Vector_val@U?$_Simple_types@H@std@@@std@@@std@@QAE@PAHPBU_Container_base0@1@@Z 10040d20 f i bot_visibles.obj
 0001:0003fd30       ??0?$_Vector_iterator@V?$_Vector_val@U?$_Simple_types@H@std@@@std@@@std@@QAE@XZ 10040d30 f i bot_visibles.obj
 0001:0003fd40       ??0CBotVisibles@@QAE@XZ    10040d40 f   bot_visibles.obj
 0001:0003fde0       ??8?$_Vector_const_iterator@V?$_Vector_val@U?$_Simple_types@H@std@@@std@@@std@@QBE_NABV01@@Z 10040de0 f i bot_visibles.obj
 0001:0003fe00       ??9?$_Vector_const_iterator@V?$_Vector_val@U?$_Simple_types@H@std@@@std@@@std@@QBE_NABV01@@Z 10040e00 f i bot_visibles.obj
 0001:0003fe20       ??D?$_Vector_const_iterator@V?$_Vector_val@U?$_Simple_types@H@std@@@std@@@std@@QBEABHXZ 10040e20 f i bot_visibles.obj
 0001:0003fe30       ??D?$_Vector_iterator@V?$_Vector_val@U?$_Simple_types@H@std@@@std@@@std@@QBEAAHXZ 10040e30 f i bot_visibles.obj
 0001:0003fe40       ??E?$_Vector_const_iterator@V?$_Vector_val@U?$_Simple_types@H@std@@@std@@@std@@QAEAAV01@XZ 10040e40 f i bot_visibles.obj
 0001:0003fe50       ??E?$_Vector_iterator@V?$_Vector_val@U?$_Simple_types@H@std@@@std@@@std@@QAEAAV01@XZ 10040e50 f i bot_visibles.obj
 0001:0003fe60       ?Remove@?$dataUnconstArray@H@@QAEXH@Z 10040e60 f i bot_visibles.obj
 0001:0003feb0       ?ReturnValueFromIndex@?$dataUnconstArray@H@@QAEHH@Z 10040eb0 f i bot_visibles.obj
 0001:0003fec0       ?Size@?$dataUnconstArray@H@@QAEHXZ 10040ec0 f i bot_visibles.obj
 0001:0003fed0       ?_Compat@?$_Vector_const_iterator@V?$_Vector_val@U?$_Simple_types@H@std@@@std@@@std@@QBEXABV12@@Z 10040ed0 f i bot_visibles.obj
 0001:0003fee0       ?_Make_iter@?$vector@HV?$allocator@H@std@@@std@@QBE?AV?$_Vector_iterator@V?$_Vector_val@U?$_Simple_types@H@std@@@std@@@2@V?$_Vector_const_iterator@V?$_Vector_val@U?$_Simple_types@H@std@@@std@@@2@@Z 10040ee0 f i bot_visibles.obj
 0001:0003fef0       ?begin@?$vector@HV?$allocator@H@std@@@std@@QAE?AV?$_Vector_iterator@V?$_Vector_val@U?$_Simple_types@H@std@@@std@@@2@XZ 10040ef0 f i bot_visibles.obj
 0001:0003ff00       ?end@?$vector@HV?$allocator@H@std@@@std@@QAE?AV?$_Vector_iterator@V?$_Vector_val@U?$_Simple_types@H@std@@@std@@@2@XZ 10040f00 f i bot_visibles.obj
 0001:0003ff10       ?erase@?$vector@HV?$allocator@H@std@@@std@@QAE?AV?$_Vector_iterator@V?$_Vector_val@U?$_Simple_types@H@std@@@std@@@2@V?$_Vector_const_iterator@V?$_Vector_val@U?$_Simple_types@H@std@@@std@@@2@@Z 10040f10 f i bot_visibles.obj
 0001:0003ff50       ?freeMemory@CBotVisibles@@QAEXXZ 10040f50 f   bot_visibles.obj
 0001:0003ff80       ?isVisible@CBotVisibles@@QAEHH@Z 10040f80 f   bot_visibles.obj
 0001:0003ff90       ?nextVisible@CBotVisibles@@QAEPAUedict_s@@XZ 10040f90 f   bot_visibles.obj
 0001:0003ffe0       ?resetIter@CBotVisibles@@QAEXXZ 10040fe0 f   bot_visibles.obj
 0001:0003fff0       ?setVisible@CBotVisibles@@QAEXHH@Z 10040ff0 f   bot_visibles.obj
 0001:00040050       ??$_Allocate@PAVCBotWeapon@@@std@@YAPAPAVCBotWeapon@@IPAPAV1@@Z 10041050 f i bot_weapons.obj
 0001:00040080       ??$_Destroy_range@U?$_Wrap_alloc@V?$allocator@PAVCBotWeapon@@@std@@@std@@@std@@YAXPAPAVCBotWeapon@@0AAU?$_Wrap_alloc@V?$allocator@PAVCBotWeapon@@@std@@@0@@Z 10041080 f i bot_weapons.obj
 0001:00040090       ??$_Destroy_range@U?$_Wrap_alloc@V?$allocator@PAVCBotWeapon@@@std@@@std@@@std@@YAXPAPAVCBotWeapon@@0AAU?$_Wrap_alloc@V?$allocator@PAVCBotWeapon@@@std@@@0@U_Scalar_ptr_iterator_tag@0@@Z 10041090 f i bot_weapons.obj
 0001:000400a0       ??$_Dist_type@V?$_Vector_iterator@V?$_Vector_val@U?$_Simple_types@PAVCBotWeapon@@@std@@@std@@@std@@@std@@YAPAHV?$_Vector_iterator@V?$_Vector_val@U?$_Simple_types@PAVCBotWeapon@@@std@@@std@@@0@@Z 100410a0 f i bot_weapons.obj
 0001:000400b0       ??$_Move@AAPAVCBotWeapon@@@std@@YA$$QAPAVCBotWeapon@@AAPAV1@@Z 100410b0 f i bot_weapons.obj
 0001:000400c0       ??$_Ptr_cat@PAVCBotWeapon@@PAV1@@std@@YA?AU_Scalar_ptr_iterator_tag@0@PAPAVCBotWeapon@@0@Z 100410c0 f i bot_weapons.obj
 0001:000400d0       ??$_Push_heap@PAPAVCBotWeapon@@HPAV1@VCompareBotWeapon@@@std@@YAXPAPAVCBotWeapon@@HH$$QAPAV1@VCompareBotWeapon@@@Z 100410d0 f i bot_weapons.obj
 0001:00040170       ??$_Push_heap_0@PAPAVCBotWeapon@@HPAV1@VCompareBotWeapon@@@std@@YAXPAPAVCBotWeapon@@0VCompareBotWeapon@@PAH0@Z 10041170 f i bot_weapons.obj
 0001:000401a0       ??$_Rechecked@PAPAVCBotWeapon@@PAPAV1@@std@@YAAAPAPAVCBotWeapon@@AAPAPAV1@PAPAV1@@Z 100411a0 f i bot_weapons.obj
 0001:000401b0       ??$_Umove@PAPAVCBotWeapon@@@?$vector@PAVCBotWeapon@@V?$allocator@PAVCBotWeapon@@@std@@@std@@IAEPAPAVCBotWeapon@@PAPAV2@00@Z 100411b0 f i bot_weapons.obj
 0001:000401e0       ??$_Unchecked@PAPAVCBotWeapon@@@std@@YAPAPAVCBotWeapon@@PAPAV1@@Z 100411e0 f i bot_weapons.obj
 0001:000401f0       ??$_Unchecked@V?$_Vector_val@U?$_Simple_types@PAVCBotWeapon@@@std@@@std@@@std@@YAPAPAVCBotWeapon@@V?$_Vector_iterator@V?$_Vector_val@U?$_Simple_types@PAVCBotWeapon@@@std@@@std@@@0@@Z 100411f0 f i bot_weapons.obj
 0001:00040200       ??$_Uninit_move@PAPAVCBotWeapon@@PAPAV1@U?$_Wrap_alloc@V?$allocator@PAVCBotWeapon@@@std@@@std@@@std@@YAPAPAVCBotWeapon@@PAPAV1@00AAU?$_Wrap_alloc@V?$allocator@PAVCBotWeapon@@@std@@@0@@Z 10041200 f i bot_weapons.obj
 0001:00040230       ??$_Uninit_move@PAVCBotWeapon@@PAV1@PAV1@@std@@YAPAPAVCBotWeapon@@PAPAV1@00AAU?$_Wrap_alloc@V?$allocator@PAVCBotWeapon@@@std@@@0@0U_Scalar_ptr_iterator_tag@0@@Z 10041230 f i bot_weapons.obj
 0001:00040260       ??$_Uninitialized_move@PAPAVCBotWeapon@@PAPAV1@U?$_Wrap_alloc@V?$allocator@PAVCBotWeapon@@@std@@@std@@@std@@YAPAPAVCBotWeapon@@PAPAV1@00AAU?$_Wrap_alloc@V?$allocator@PAVCBotWeapon@@@std@@@0@@Z 10041260 f i bot_weapons.obj
 0001:00040290       ??$_Val_type@PAPAVCBotWeapon@@@std@@YAPAPAVCBotWeapon@@PAPAV1@@Z 10041290 f i bot_weapons.obj
 0001:000402a0       ??$_Val_type@V?$_Vector_iterator@V?$_Vector_val@U?$_Simple_types@PAVCBotWeapon@@@std@@@std@@@std@@@std@@YAPAPAVCBotWeapon@@V?$_Vector_iterator@V?$_Vector_val@U?$_Simple_types@PAVCBotWeapon@@@std@@@std@@@0@@Z 100412a0 f i bot_weapons.obj
 0001:000402b0       ??$addressof@QAVCBotWeapon@@@std@@YAPBQAVCBotWeapon@@ABQAV1@@Z 100412b0 f i bot_weapons.obj
 0001:000402c0       ??$construct@PAVCBotWeapon@@AAPAV1@@?$_Wrap_alloc@V?$allocator@PAVCBotWeapon@@@std@@@std@@QAEXPAPAVCBotWeapon@@AAPAV2@@Z 100412c0 f i bot_weapons.obj
 0001:000402e0       ??$construct@PAVCBotWeapon@@AAPAV1@@?$allocator@PAVCBotWeapon@@@std@@QAEXPAPAVCBotWeapon@@AAPAV2@@Z 100412e0 f i bot_weapons.obj
 0001:00040300       ??$construct@PAVCBotWeapon@@AAPAV1@@?$allocator_traits@V?$allocator@PAVCBotWeapon@@@std@@@std@@SAXAAV?$allocator@PAVCBotWeapon@@@1@PAPAVCBotWeapon@@AAPAV3@@Z 10041300 f i bot_weapons.obj
 0001:00040320       ??$construct@PAVCBotWeapon@@ABQAV1@@?$_Wrap_alloc@V?$allocator@PAVCBotWeapon@@@std@@@std@@QAEXPAPAVCBotWeapon@@ABQAV2@@Z 10041320 f i bot_weapons.obj
 0001:00040340       ??$construct@PAVCBotWeapon@@ABQAV1@@?$allocator_traits@V?$allocator@PAVCBotWeapon@@@std@@@std@@SAXAAV?$allocator@PAVCBotWeapon@@@1@PAPAVCBotWeapon@@ABQAV3@@Z 10041340 f i bot_weapons.obj
 0001:00040360       ??$forward@AAPAVCBotWeapon@@@std@@YAAAPAVCBotWeapon@@AAPAV1@@Z 10041360 f i bot_weapons.obj
 0001:00040370       ??$forward@ABQAVCBotWeapon@@@std@@YAABQAVCBotWeapon@@ABQAV1@@Z 10041370 f i bot_weapons.obj
 0001:00040380       ??$push_heap@V?$_Vector_iterator@V?$_Vector_val@U?$_Simple_types@PAVCBotWeapon@@@std@@@std@@@std@@VCompareBotWeapon@@@std@@YAXV?$_Vector_iterator@V?$_Vector_val@U?$_Simple_types@PAVCBotWeapon@@@std@@@std@@@0@0VCompareBotWeapon@@@Z 10041380 f i bot_weapons.obj
 0001:000403c0       ??0?$_Vector_alloc@$0A@U?$_Vec_base_types@PAVCBotWeapon@@V?$allocator@PAVCBotWeapon@@@std@@@std@@@std@@QAE@ABV?$allocator@PAVCBotWeapon@@@1@@Z 100413c0 f i bot_weapons.obj
 0001:000403e0       ??0?$_Vector_const_iterator@V?$_Vector_val@U?$_Simple_types@PAVCBotWeapon@@@std@@@std@@@std@@QAE@PAPAVCBotWeapon@@PBU_Container_base0@1@@Z 100413e0 f i bot_weapons.obj
 0001:000403f0       ??0?$_Vector_iterator@V?$_Vector_val@U?$_Simple_types@PAVCBotWeapon@@@std@@@std@@@std@@QAE@PAPAVCBotWeapon@@PBU_Container_base0@1@@Z 100413f0 f i bot_weapons.obj
 0001:00040400       ??0?$_Vector_val@U?$_Simple_types@PAVCBotWeapon@@@std@@@std@@QAE@XZ 10041400 f i bot_weapons.obj
 0001:00040420       ??0?$_Wrap_alloc@V?$allocator@PAVCBotWeapon@@@std@@@std@@QAE@XZ 10041420 f i bot_weapons.obj
 0001:00040430       ??0?$allocator@PAVCBotWeapon@@@std@@QAE@XZ 10041430 f i bot_weapons.obj
 0001:00040440       ??0?$dataNode@Uweapon_preset_t@@@@QAE@XZ 10041440 f i bot_weapons.obj
 0001:00040450       ??0?$priority_queue@PAVCBotWeapon@@V?$vector@PAVCBotWeapon@@V?$allocator@PAVCBotWeapon@@@std@@@std@@VCompareBotWeapon@@@std@@QAE@XZ 10041450 f i bot_weapons.obj
 0001:00040470       ??0?$vector@PAVCBotWeapon@@V?$allocator@PAVCBotWeapon@@@std@@@std@@QAE@XZ 10041470 f i bot_weapons.obj
 0001:00040490       ??0CBotWeapon@@QAE@XZ      10041490 f i bot_weapons.obj
 0001:000404a0       ??0CWeapon@@QAE@XZ         100414a0 f i bot_weapons.obj
 0001:000404f0       ??0CWeaponPreset@@QAE@PAUweapon_preset_t@@@Z 100414f0 f i bot_weapons.obj
 0001:00040580       ??1?$priority_queue@PAVCBotWeapon@@V?$vector@PAVCBotWeapon@@V?$allocator@PAVCBotWeapon@@@std@@@std@@VCompareBotWeapon@@@std@@QAE@XZ 10041580 f i bot_weapons.obj
 0001:000405b0       ??1?$vector@PAVCBotWeapon@@V?$allocator@PAVCBotWeapon@@@std@@@std@@QAE@XZ 100415b0 f i bot_weapons.obj
 0001:000405e0       ??8?$_Vector_const_iterator@V?$_Vector_val@U?$_Simple_types@PAVCBotWeapon@@@std@@@std@@@std@@QBE_NABV01@@Z 100415e0 f i bot_weapons.obj
 0001:00040600       ??9?$_Vector_const_iterator@V?$_Vector_val@U?$_Simple_types@PAVCBotWeapon@@@std@@@std@@@std@@QBE_NABV01@@Z 10041600 f i bot_weapons.obj
 0001:00040620       ??D?$_Vector_const_iterator@V?$_Vector_val@U?$_Simple_types@PAVCBotWeapon@@@std@@@std@@@std@@QBEABQAVCBotWeapon@@XZ 10041620 f i bot_weapons.obj
 0001:00040630       ??D?$_Vector_iterator@V?$_Vector_val@U?$_Simple_types@PAVCBotWeapon@@@std@@@std@@@std@@QBEAAPAVCBotWeapon@@XZ 10041630 f i bot_weapons.obj
 0001:00040640       ??F?$_Vector_const_iterator@V?$_Vector_val@U?$_Simple_types@PAVCBotWeapon@@@std@@@std@@@std@@QAEAAV01@XZ 10041640 f i bot_weapons.obj
 0001:00040650       ??F?$_Vector_iterator@V?$_Vector_val@U?$_Simple_types@PAVCBotWeapon@@@std@@@std@@@std@@QAEAAV01@XZ 10041650 f i bot_weapons.obj
 0001:00040660       ??RCompareBotWeapon@@QAE_NPAVCBotWeapon@@0@Z 10041660 f i bot_weapons.obj
 0001:000406b0       ?AddWeapon@CBotWeapons@@QAEXH@Z 100416b0 f   bot_weapons.obj
 0001:000406d0       ?AddWeapon@CWeapons@@QAEXHPBDHHHHHHH@Z 100416d0 f   bot_weapons.obj
 0001:00040760       ?CanBeUsedUnderWater@CBotWeapon@@QAEHXZ 10041760 f i bot_weapons.obj
 0001:00040770       ?CanBeUsedUnderWater@CWeapon@@UAEHXZ 10041770 f i bot_weapons.obj
 0001:00040780       ?CanBeUsedUnderWater@CWeaponPreset@@UAEHXZ 10041780 f i bot_weapons.obj
 0001:00040790       ?CanReload@CBotWeapon@@QAEHXZ 10041790 f   bot_weapons.obj
 0001:000407c0       ?CanShootPrimary@CBotWeapon@@QAEHPAUedict_s@@MM@Z 100417c0 f   bot_weapons.obj
 0001:00040890       ?CanUsePrimary@CWeapon@@UAEHXZ 10041890 f i bot_weapons.obj
 0001:000408a0       ?CanUsePrimary@CWeaponPreset@@UAEHXZ 100418a0 f i bot_weapons.obj
 0001:000408b0       ?CanUseSecondary@CWeapon@@UAEHXZ 100418b0 f i bot_weapons.obj
 0001:000408c0       ?CanUseSecondary@CWeaponPreset@@UAEHXZ 100418c0 f i bot_weapons.obj
 0001:000408d0       ?ChoosePointerFromStack@?$dataStack@Uweapon_preset_t@@@@QAEPAUweapon_preset_t@@XZ 100418d0 f i bot_weapons.obj
 0001:000408e0       ?GetArrayOfExplosives@@YAXPAF@Z 100418e0 f   bot_weapons.obj
 0001:00040910       ?GetBestWeaponId@CBotWeapons@@QAEHPAVCBot@@PAUedict_s@@@Z 10041910 f   bot_weapons.obj
 0001:00041550       ?GetNoWeaponArray@@YAXPAF@Z 10042550 f   bot_weapons.obj
 0001:00041570       ?GetPreset@CWeaponPresets@@QAEPAUweapon_preset_t@@FH@Z 10042570 f i bot_weapons.obj
 0001:000415b0       ?GetPriority@CBotWeapon@@QAEHXZ 100425b0 f i bot_weapons.obj
 0001:000415c0       ?GetPriority@CWeapon@@UAEHXZ 100425c0 f i bot_weapons.obj
 0001:000415d0       ?GetPriority@CWeaponPreset@@UAEHXZ 100425d0 f i bot_weapons.obj
 0001:000415e0       ?HasWeapon@CBotWeapon@@QAEHPAUedict_s@@@Z 100425e0 f   bot_weapons.obj
 0001:000416d0       ?HasWeapon@CBotWeapons@@QAEHPAUedict_s@@PAD@Z 100426d0 f   bot_weapons.obj
 0001:00041750       ?HudSlot@CWeapon@@QAEHXZ   10042750 f i bot_weapons.obj
 0001:00041760       ?Init@?$dataStack@Uweapon_preset_t@@@@QAEXXZ 10042760 f i bot_weapons.obj
 0001:00041770       ?Init@CWeapon@@QAEXXZ      10042770 f i bot_weapons.obj
 0001:000417c0       ?IsEmpty@?$dataStack@Uweapon_preset_t@@@@QAEHXZ 100427c0 f i bot_weapons.obj
 0001:000417d0       ?IsMelee@CWeapon@@UAEHXZ   100427d0 f i bot_weapons.obj
 0001:000417e0       ?IsMelee@CWeaponPreset@@UAEHXZ 100427e0 f i bot_weapons.obj
 0001:000417f0       ?IsPrimary@CWeapon@@QAEHXZ 100427f0 f   bot_weapons.obj
 0001:00041810       ?IsSecondary@CWeapon@@QAEHXZ 10042810 f   bot_weapons.obj
 0001:00041830       ?NeedToReload@CBotWeapon@@QAEHXZ 10042830 f   bot_weapons.obj
 0001:00041880       ?PrimMaxRange@CWeapon@@UAEMXZ 10042880 f i bot_weapons.obj
 0001:00041890       ?PrimMaxRange@CWeaponPreset@@UAEMXZ 10042890 f i bot_weapons.obj
 0001:000418b0       ?PrimMinRange@CWeapon@@UAEMXZ 100428b0 f i bot_weapons.obj
 0001:000418c0       ?PrimMinRange@CWeaponPreset@@UAEMXZ 100428c0 f i bot_weapons.obj
 0001:000418e0       ?PrimaryInRange@CWeapon@@UAEHM@Z 100428e0 f i bot_weapons.obj
 0001:000418f0       ?PrimaryInRange@CWeaponPreset@@UAEHM@Z 100428f0 f i bot_weapons.obj
 0001:00041930       ?Push@?$dataStack@Uweapon_preset_t@@@@QAEXUweapon_preset_t@@@Z 10042930 f i bot_weapons.obj
 0001:00041980       ?ReadPresets@CWeaponPresets@@QAEXXZ 10042980 f   bot_weapons.obj
 0001:00041d50       ?SecondaryInRange@CWeapon@@UAEHM@Z 10042d50 f i bot_weapons.obj
 0001:00041d60       ?SecondaryInRange@CWeaponPreset@@UAEHM@Z 10042d60 f i bot_weapons.obj
 0001:00041da0       ?SetWeapon@CBotWeapon@@QAEXHPAH@Z 10042da0 f   bot_weapons.obj
 0001:00041e00       ?SetWeapon@CWeapon@@QAEXHPBDHHHHHHH@Z 10042e00 f   bot_weapons.obj
 0001:00041e60       ?SetWeaponsNeeded@CBot@@QAEXPAF@Z 10042e60 f i bot_weapons.obj
 0001:00041ec0       ?_Compat@?$_Vector_const_iterator@V?$_Vector_val@U?$_Simple_types@PAVCBotWeapon@@@std@@@std@@@std@@QBEXABV12@@Z 10042ec0 f i bot_weapons.obj
 0001:00041ed0       ?_Destroy@?$vector@PAVCBotWeapon@@V?$allocator@PAVCBotWeapon@@@std@@@std@@IAEXPAPAVCBotWeapon@@0@Z 10042ed0 f i bot_weapons.obj
 0001:00041ee0       ?_Getal@?$_Vector_alloc@$0A@U?$_Vec_base_types@PAVCBotWeapon@@V?$allocator@PAVCBotWeapon@@@std@@@std@@@std@@QBE?AU?$_Wrap_alloc@V?$allocator@PAVCBotWeapon@@@std@@@2@XZ 10042ee0 f i bot_weapons.obj
 0001:00041ef0       ?_Grow_to@?$vector@PAVCBotWeapon@@V?$allocator@PAVCBotWeapon@@@std@@@std@@IBEII@Z 10042ef0 f i bot_weapons.obj
 0001:00041f30       ?_Inside@?$vector@PAVCBotWeapon@@V?$allocator@PAVCBotWeapon@@@std@@@std@@IBE_NPBQAVCBotWeapon@@@Z 10042f30 f i bot_weapons.obj
 0001:00041f50       ?_Orphan_range@?$vector@PAVCBotWeapon@@V?$allocator@PAVCBotWeapon@@@std@@@std@@IBEXPAPAVCBotWeapon@@0@Z 10042f50 f i bot_weapons.obj
 0001:00041f60       ?_Reallocate@?$vector@PAVCBotWeapon@@V?$allocator@PAVCBotWeapon@@@std@@@std@@IAEXI@Z 10042f60 f i bot_weapons.obj
 0001:00041fe0       ?_Reserve@?$vector@PAVCBotWeapon@@V?$allocator@PAVCBotWeapon@@@std@@@std@@IAEXI@Z 10042fe0 f i bot_weapons.obj
 0001:00042060       ?_Tidy@?$vector@PAVCBotWeapon@@V?$allocator@PAVCBotWeapon@@@std@@@std@@IAEXXZ 10043060 f i bot_weapons.obj
 0001:00042090       ?_Unchecked@?$_Vector_iterator@V?$_Vector_val@U?$_Simple_types@PAVCBotWeapon@@@std@@@std@@@std@@QBEPAPAVCBotWeapon@@XZ 10043090 f i bot_weapons.obj
 0001:000420a0       ?_Unused_capacity@?$vector@PAVCBotWeapon@@V?$allocator@PAVCBotWeapon@@@std@@@std@@QBEIXZ 100430a0 f i bot_weapons.obj
 0001:000420b0       ?_Xlen@?$vector@PAVCBotWeapon@@V?$allocator@PAVCBotWeapon@@@std@@@std@@IBEXXZ 100430b0 f i bot_weapons.obj
 0001:000420c0       ?allocate@?$_Wrap_alloc@V?$allocator@PAVCBotWeapon@@@std@@@std@@QAEPAPAVCBotWeapon@@I@Z 100430c0 f i bot_weapons.obj
 0001:00042100       ?allocate@?$allocator@PAVCBotWeapon@@@std@@QAEPAPAVCBotWeapon@@I@Z 10043100 f i bot_weapons.obj
 0001:00042140       ?begin@?$vector@PAVCBotWeapon@@V?$allocator@PAVCBotWeapon@@@std@@@std@@QAE?AV?$_Vector_iterator@V?$_Vector_val@U?$_Simple_types@PAVCBotWeapon@@@std@@@std@@@2@XZ 10043140 f i bot_weapons.obj
 0001:00042150       ?capacity@?$vector@PAVCBotWeapon@@V?$allocator@PAVCBotWeapon@@@std@@@std@@QBEIXZ 10043150 f i bot_weapons.obj
 0001:00042160       ?construct@?$allocator@PAVCBotWeapon@@@std@@QAEXPAPAVCBotWeapon@@ABQAV3@@Z 10043160 f i bot_weapons.obj
 0001:00042180       ?deallocate@?$_Wrap_alloc@V?$allocator@PAVCBotWeapon@@@std@@@std@@QAEXPAPAVCBotWeapon@@I@Z 10043180 f i bot_weapons.obj
 0001:000421a0       ?deallocate@?$allocator@PAVCBotWeapon@@@std@@QAEXPAPAVCBotWeapon@@I@Z 100431a0 f i bot_weapons.obj
 0001:000421c0       ?empty@?$priority_queue@PAVCBotWeapon@@V?$vector@PAVCBotWeapon@@V?$allocator@PAVCBotWeapon@@@std@@@std@@VCompareBotWeapon@@@std@@QBE_NXZ 100431c0 f i bot_weapons.obj
 0001:000421d0       ?empty@?$vector@PAVCBotWeapon@@V?$allocator@PAVCBotWeapon@@@std@@@std@@QBE_NXZ 100431d0 f i bot_weapons.obj
 0001:000421e0       ?end@?$vector@PAVCBotWeapon@@V?$allocator@PAVCBotWeapon@@@std@@@std@@QAE?AV?$_Vector_iterator@V?$_Vector_val@U?$_Simple_types@PAVCBotWeapon@@@std@@@std@@@2@XZ 100431e0 f i bot_weapons.obj
 0001:000421f0       ?front@?$vector@PAVCBotWeapon@@V?$allocator@PAVCBotWeapon@@@std@@@std@@QAEAAPAVCBotWeapon@@XZ 100431f0 f i bot_weapons.obj
 0001:00042200       ?hasFlag@CBot@@QAEHXZ      10043200 f i bot_weapons.obj
 0001:00042220       ?max_size@?$_Wrap_alloc@V?$allocator@PAVCBotWeapon@@@std@@@std@@QBEIXZ 10043220 f i bot_weapons.obj
 0001:00042230       ?max_size@?$allocator@PAVCBotWeapon@@@std@@QBEIXZ 10043230 f i bot_weapons.obj
 0001:00042240       ?max_size@?$allocator_traits@V?$allocator@PAVCBotWeapon@@@std@@@std@@SAIABV?$allocator@PAVCBotWeapon@@@2@@Z 10043240 f i bot_weapons.obj
 0001:00042250       ?max_size@?$vector@PAVCBotWeapon@@V?$allocator@PAVCBotWeapon@@@std@@@std@@QBEIXZ 10043250 f i bot_weapons.obj
 0001:00042260       ?push@?$priority_queue@PAVCBotWeapon@@V?$vector@PAVCBotWeapon@@V?$allocator@PAVCBotWeapon@@@std@@@std@@VCompareBotWeapon@@@std@@QAEXABQAVCBotWeapon@@@Z 10043260 f i bot_weapons.obj
 0001:000422b0       ?push_back@?$vector@PAVCBotWeapon@@V?$allocator@PAVCBotWeapon@@@std@@@std@@QAEXABQAVCBotWeapon@@@Z 100432b0 f i bot_weapons.obj
 0001:00042320       ?setHasWeapon@CBotWeapon@@QAEXH@Z 10043320 f   bot_weapons.obj
 0001:00042330       ?size@?$vector@PAVCBotWeapon@@V?$allocator@PAVCBotWeapon@@@std@@@std@@QBEIXZ 10043330 f i bot_weapons.obj
 0001:00042340       ?top@?$priority_queue@PAVCBotWeapon@@V?$vector@PAVCBotWeapon@@V?$allocator@PAVCBotWeapon@@@std@@@std@@VCompareBotWeapon@@@std@@QAEAAPAVCBotWeapon@@XZ 10043340 f i bot_weapons.obj
 0001:00042350       ??0?$dataNode@W4eToolTip@@@@QAE@XZ 10043350 f i client.obj
 0001:00042360       ?Add@?$dataQueue@W4eToolTip@@@@QAEXABW4eToolTip@@@Z 10043360 f i client.obj
 0001:000423b0       ?Add@CPendingToolTips@@QAEXW4eToolTip@@@Z 100433b0 f i client.obj
 0001:00042400       ?AddNewToolTip@CClient@@QAEXW4eToolTip@@@Z 10043400 f   client.obj
 0001:00042450       ?Clear@CPendingToolTips@@QAEXXZ 10043450 f i client.obj
 0001:00042490       ?ClientConnected@CClients@@QAEPAVCClient@@PAUedict_s@@@Z 10043490 f   client.obj
 0001:00042640       ?ClientDisconnected@CClients@@QAEXPAUedict_s@@@Z 10043640 f   client.obj
 0001:000426c0       ?ClientDisconnected@CClients@@QAEXPAVCClient@@@Z 100436c0 f   client.obj
 0001:000427f0       ?Destroy@?$dataQueue@W4eToolTip@@@@QAEXXZ 100437f0 f i client.obj
 0001:00042830       ?FreeGlobalMemory@CClient@@QAEXXZ 10043830 f   client.obj
 0001:00042890       ?GetClientByRepId@CClients@@QAEPAVCClient@@H@Z 10043890 f   client.obj
 0001:000428d0       ?GetFrontInfo@?$dataQueue@W4eToolTip@@@@QAE?AW4eToolTip@@XZ 100438d0 f i client.obj
 0001:000428e0       ?GetPlayer@CAllowedPlayers@@QAEPAVCAllowedPlayer@@PAVCClient@@@Z 100438e0 f i client.obj
 0001:00042930       ?GetVector@?$CTypeVector@M@@QBE?AVVector@@XZ 10043930 f i client.obj
 0001:00042950       ?GiveClientAccess@CAllowedPlayer@@QAEXPAVCClient@@@Z 10043950 f i client.obj
 0001:00042960       ?HasToolTipSent@CClient@@QAEHW4eToolTip@@@Z 10043960 f i client.obj
 0001:00042980       ?Init@?$dataStack@VCAllowedPlayer@@@@QAEXXZ 10043980 f i client.obj
 0001:00042990       ?Init@CClient@@QAEXXZ      10043990 f i client.obj
 0001:00042a10       ?IsEmpty@?$dataQueue@W4eToolTip@@@@QAEHXZ 10043a10 f i client.obj
 0001:00042a30       ?IsVectorSet@?$CTypeVector@M@@QAEHXZ 10043a30 f i client.obj
 0001:00042a40       ?RemoveFront@?$dataQueue@W4eToolTip@@@@QAEXXZ 10043a40 f i client.obj
 0001:00042a80       ?SayToolTip@CBotGlobals@@QAEXPAUedict_s@@W4eToolTip@@@Z 10043a80 f i client.obj
 0001:00042aa0       ?SetEdict@CClient@@QAEXPAUedict_s@@@Z 10043aa0 f   client.obj
 0001:00042ad0       ?SetPoint@CAutoWaypointCheck@@QAEXVVector@@H@Z 10043ad0 f i client.obj
 0001:00042b10       ?SetVector@?$CTypeVector@M@@QAEXVVector@@@Z 10043b10 f i client.obj
 0001:00042b40       ?Think@CClient@@QAEXXZ     10043b40 f   client.obj
 0001:000449f0       ?Think@CPendingToolTips@@QAEXPAUedict_s@@@Z 100459f0 f   client.obj
 0001:00044a50       ?ToolTipSent@CClient@@QAEXW4eToolTip@@@Z 10045a50 f i client.obj
 0001:00044a70       ?UnSetPoint@CAutoWaypointCheck@@QAEXXZ 10045a70 f i client.obj
 0001:00044a80       ?UpdatePlayerRepId@CClient@@QAEXH@Z 10045a80 f i client.obj
 0001:00044a90       ?_delete@?$dataNode@W4eToolTip@@@@QAEXXZ 10045a90 f i client.obj
 0001:00044aa0       ?addIgnoreSentry@CClient@@QAEXPAUedict_s@@@Z 10045aa0 f   client.obj
 0001:00044ac0       ?checkBuiltSentry@CClient@@QAEXXZ 10045ac0 f   client.obj
 0001:00044af0       ?clearIgnoreSentries@CClient@@QAEXXZ 10045af0 f   client.obj
 0001:00044b00       ?currentTask@CBot@@QAEPAVCBotTask@@XZ 10045b00 f i client.obj
 0001:00044b10       ?getFlags@CAutoWaypointCheck@@QAEHXZ 10045b10 f i client.obj
 0001:00044b20       ?getLookTaskDescription@CBot@@QAEPBDXZ 10045b20 f i client.obj
 0001:00044bb0       ?setSteamID@CClient@@QAEXXZ 10045bb0 f   client.obj
 0001:00044bf0       ?setTFCSentry@CClient@@QAEXPAUedict_s@@@Z 10045bf0 f i client.obj
 0001:00044c00       ?FindDirectory@@YAPAXPAXPAD1@Z 10045c00 f   dir.obj
 0001:00044d10       ?GameDLLInit@@YAXXZ        10045d10 f   dll.obj
 0001:00044d20       ?DispatchSpawn@@YAHPAUedict_s@@@Z 10045d20 f   dll.obj
 0001:00044ea0       ?DispatchThink@@YAXPAUedict_s@@@Z 10045ea0 f   dll.obj
 0001:00044eb0       ?DispatchUse@@YAXPAUedict_s@@0@Z 10045eb0 f   dll.obj
 0001:00044ec0       ?DispatchTouch@@YAXPAUedict_s@@0@Z 10045ec0 f   dll.obj
 0001:00044f50       ?DispatchBlocked@@YAXPAUedict_s@@0@Z 10045f50 f   dll.obj
 0001:00044f90       ?DispatchKeyValue@@YAXPAUedict_s@@PAUKeyValueData_s@@@Z 10045f90 f   dll.obj
 0001:00044fb0       ?DispatchSave@@YAXPAUedict_s@@PAUsaverestore_s@@@Z 10045fb0 f   dll.obj
 0001:00044fc0       ?DispatchRestore@@YAHPAUedict_s@@PAUsaverestore_s@@H@Z 10045fc0 f   dll.obj
 0001:00044fd0       ?DispatchObjectCollsionBox@@YAXPAUedict_s@@@Z 10045fd0 f   dll.obj
 0001:00044fe0       ?SaveWriteFields@@YAXPAUsaverestore_s@@PBDPAXPAUTYPEDESCRIPTION@@H@Z 10045fe0 f   dll.obj
 0001:00044ff0       ?SaveReadFields@@YAXPAUsaverestore_s@@PBDPAXPAUTYPEDESCRIPTION@@H@Z 10045ff0 f   dll.obj
 0001:00045000       ?SaveGlobalState@@YAXPAUsaverestore_s@@@Z 10046000 f   dll.obj
 0001:00045010       ?RestoreGlobalState@@YAXPAUsaverestore_s@@@Z 10046010 f   dll.obj
 0001:00045020       ?ResetGlobalState@@YAXXZ   10046020 f   dll.obj
 0001:00045030       ?ClientConnect@@YAHPAUedict_s@@PBD1QAD@Z 10046030 f   dll.obj
 0001:00045370       ?ClientDisconnect@@YAXPAUedict_s@@@Z 10046370 f   dll.obj
 0001:00045460       ?ClientKill@@YAXPAUedict_s@@@Z 10046460 f   dll.obj
 0001:000454b0       ?ClientPutInServer@@YAXPAUedict_s@@@Z 100464b0 f   dll.obj
 0001:00045500       ?ClientCommand@@YAXPAUedict_s@@@Z 10046500 f   dll.obj
 0001:00045bf0       ?ClientUserInfoChanged@@YAXPAUedict_s@@PAD@Z 10046bf0 f   dll.obj
 0001:00045c40       ?ServerActivate@@YAXPAUedict_s@@HH@Z 10046c40 f   dll.obj
 0001:00045c60       ?ServerDeactivate@@YAXXZ   10046c60 f   dll.obj
 0001:00045d40       ?PlayerPreThink@@YAXPAUedict_s@@@Z 10046d40 f   dll.obj
 0001:00045d50       ?PlayerPostThink@@YAXPAUedict_s@@@Z 10046d50 f   dll.obj
 0001:00045d60       ?StartFrame@@YAXXZ         10046d60 f   dll.obj
 0001:00045d80       ?ParmsNewLevel@@YAXXZ      10046d80 f   dll.obj
 0001:00045d90       ?ParmsChangeLevel@@YAXXZ   10046d90 f   dll.obj
 0001:00045da0       ?GetGameDescription@@YAPBDXZ 10046da0 f   dll.obj
 0001:00045db0       ?PlayerCustomization@@YAXPAUedict_s@@PAUcustomization_s@@@Z 10046db0 f   dll.obj
 0001:00045e00       ?SpectatorConnect@@YAXPAUedict_s@@@Z 10046e00 f   dll.obj
 0001:00045e10       ?SpectatorDisconnect@@YAXPAUedict_s@@@Z 10046e10 f   dll.obj
 0001:00045e20       ?SpectatorThink@@YAXPAUedict_s@@@Z 10046e20 f   dll.obj
 0001:00045e30       ?Sys_Error@@YAXPBD@Z       10046e30 f   dll.obj
 0001:00045e90       ?PM_Move@@YAXPAUplayermove_s@@H@Z 10046e90 f   dll.obj
 0001:00045ea0       ?PM_Init@@YAXPAUplayermove_s@@@Z 10046ea0 f   dll.obj
 0001:00045eb0       ?PM_FindTextureType@@YADPAD@Z 10046eb0 f   dll.obj
 0001:00045ec0       ?SetupVisibility@@YAXPAUedict_s@@0PAPAE1@Z 10046ec0 f   dll.obj
 0001:00045ed0       ?UpdateClientData@@YAXPBUedict_s@@HPAUclientdata_s@@@Z 10046ed0 f   dll.obj
 0001:00045ee0       ?AddToFullPack@@YAHPAUentity_state_s@@HPAUedict_s@@1HHPAE@Z 10046ee0 f   dll.obj
 0001:00045ef0       ?CreateBaseline@@YAXHHPAUentity_state_s@@PAUedict_s@@HVVector@@2@Z 10046ef0 f   dll.obj
 0001:00045f00       ?RegisterEncoders@@YAXXZ   10046f00 f   dll.obj
 0001:00045f10       ?GetWeaponData@@YAHPAUedict_s@@PAUweapon_data_s@@@Z 10046f10 f   dll.obj
 0001:00045f20       ?CmdStart@@YAXPBUedict_s@@PBUusercmd_s@@I@Z 10046f20 f   dll.obj
 0001:00045f30       ?CmdEnd@@YAXPBUedict_s@@@Z 10046f30 f   dll.obj
 0001:00045f40       ?ConnectionlessPacket@@YAHPBUnetadr_s@@PBDPADPAH@Z 10046f40 f   dll.obj
 0001:00045f50       ?GetHullBounds@@YAHHPAM0@Z 10046f50 f   dll.obj
 0001:00045f60       ?CreateInstancedBaselines@@YAXXZ 10046f60 f   dll.obj
 0001:00045f70       ?InconsistentFile@@YAHPBUedict_s@@PBDPAD@Z 10046f70 f   dll.obj
 0001:00045fc0       ?AllowLagCompensation@@YAHXZ 10046fc0 f   dll.obj
 0001:00045fd0       ??$_Allocate@W4eCamLookState@@@std@@YAPAW4eCamLookState@@IPAW41@@Z 10046fd0 f i dll.obj
 0001:00046000       ??$_Destroy_range@U?$_Wrap_alloc@V?$allocator@W4eCamLookState@@@std@@@std@@@std@@YAXPAW4eCamLookState@@0AAU?$_Wrap_alloc@V?$allocator@W4eCamLookState@@@std@@@0@@Z 10047000 f i dll.obj
 0001:00046010       ??$_Destroy_range@U?$_Wrap_alloc@V?$allocator@W4eCamLookState@@@std@@@std@@@std@@YAXPAW4eCamLookState@@0AAU?$_Wrap_alloc@V?$allocator@W4eCamLookState@@@std@@@0@U_Scalar_ptr_iterator_tag@0@@Z 10047010 f i dll.obj
 0001:00046020       ??$_Ptr_cat@W4eCamLookState@@W41@@std@@YA?AU_Scalar_ptr_iterator_tag@0@PAW4eCamLookState@@0@Z 10047020 f i dll.obj
 0001:00046030       ??$_Rechecked@PAW4eCamLookState@@PAW41@@std@@YAAAPAW4eCamLookState@@AAPAW41@PAW41@@Z 10047030 f i dll.obj
 0001:00046040       ??$_Umove@PAW4eCamLookState@@@?$vector@W4eCamLookState@@V?$allocator@W4eCamLookState@@@std@@@std@@IAEPAW4eCamLookState@@PAW42@00@Z 10047040 f i dll.obj
 0001:00046070       ??$_Unchecked@PAW4eCamLookState@@@std@@YAPAW4eCamLookState@@PAW41@@Z 10047070 f i dll.obj
 0001:00046080       ??$_Uninit_move@PAW4eCamLookState@@PAW41@U?$_Wrap_alloc@V?$allocator@W4eCamLookState@@@std@@@std@@@std@@YAPAW4eCamLookState@@PAW41@00AAU?$_Wrap_alloc@V?$allocator@W4eCamLookState@@@std@@@0@@Z 10047080 f i dll.obj
 0001:000460b0       ??$_Uninit_move@W4eCamLookState@@W41@W41@@std@@YAPAW4eCamLookState@@PAW41@00AAU?$_Wrap_alloc@V?$allocator@W4eCamLookState@@@std@@@0@0U_Scalar_ptr_iterator_tag@0@@Z 100470b0 f i dll.obj
 0001:000460e0       ??$_Uninitialized_move@PAW4eCamLookState@@PAW41@U?$_Wrap_alloc@V?$allocator@W4eCamLookState@@@std@@@std@@@std@@YAPAW4eCamLookState@@PAW41@00AAU?$_Wrap_alloc@V?$allocator@W4eCamLookState@@@std@@@0@@Z 100470e0 f i dll.obj
 0001:00046110       ??$_Val_type@PAW4eCamLookState@@@std@@YAPAW4eCamLookState@@PAW41@@Z 10047110 f i dll.obj
 0001:00046120       ??$addressof@$$CBW4eCamLookState@@@std@@YAPBW4eCamLookState@@ABW41@@Z 10047120 f i dll.obj
 0001:00046130       ??$construct@W4eCamLookState@@AAW41@@?$_Wrap_alloc@V?$allocator@W4eCamLookState@@@std@@@std@@QAEXPAW4eCamLookState@@AAW42@@Z 10047130 f i dll.obj
 0001:00046150       ??$construct@W4eCamLookState@@AAW41@@?$allocator@W4eCamLookState@@@std@@QAEXPAW4eCamLookState@@AAW42@@Z 10047150 f i dll.obj
 0001:00046170       ??$construct@W4eCamLookState@@AAW41@@?$allocator_traits@V?$allocator@W4eCamLookState@@@std@@@std@@SAXAAV?$allocator@W4eCamLookState@@@1@PAW4eCamLookState@@AAW43@@Z 10047170 f i dll.obj
 0001:00046190       ??$construct@W4eCamLookState@@ABW41@@?$_Wrap_alloc@V?$allocator@W4eCamLookState@@@std@@@std@@QAEXPAW4eCamLookState@@ABW42@@Z 10047190 f i dll.obj
 0001:000461b0       ??$construct@W4eCamLookState@@ABW41@@?$allocator_traits@V?$allocator@W4eCamLookState@@@std@@@std@@SAXAAV?$allocator@W4eCamLookState@@@1@PAW4eCamLookState@@ABW43@@Z 100471b0 f i dll.obj
 0001:000461d0       ??$forward@AAW4eCamLookState@@@std@@YAAAW4eCamLookState@@AAW41@@Z 100471d0 f i dll.obj
 0001:000461e0       ??$forward@ABW4eCamLookState@@@std@@YAABW4eCamLookState@@ABW41@@Z 100471e0 f i dll.obj
 0001:000461f0       ??0?$CTypeVector@F@@QAE@XZ 100471f0 f i dll.obj
 0001:00046210       ??0?$CTypeVector@M@@QAE@XZ 10047210 f i dll.obj
 0001:00046220       ??0?$_Vector_alloc@$0A@U?$_Vec_base_types@VCBotNSTech@@V?$allocator@VCBotNSTech@@@std@@@std@@@std@@QAE@ABV?$allocator@VCBotNSTech@@@1@@Z 10047220 f i dll.obj
 0001:00046240       ??0?$_Vector_alloc@$0A@U?$_Vec_base_types@VCRememberPosition@@V?$allocator@VCRememberPosition@@@std@@@std@@@std@@QAE@ABV?$allocator@VCRememberPosition@@@1@@Z 10047240 f i dll.obj
 0001:00046260       ??0?$_Vector_alloc@$0A@U?$_Vec_base_types@VTSObjective@@V?$allocator@VTSObjective@@@std@@@std@@@std@@QAE@ABV?$allocator@VTSObjective@@@1@@Z 10047260 f i dll.obj
 0001:00046280       ??0?$_Vector_alloc@$0A@U?$_Vec_base_types@W4eCamLookState@@V?$allocator@W4eCamLookState@@@std@@@std@@@std@@QAE@ABV?$allocator@W4eCamLookState@@@1@@Z 10047280 f i dll.obj
 0001:000462a0       ??0?$_Vector_val@U?$_Simple_types@VCBotNSTech@@@std@@@std@@QAE@XZ 100472a0 f i dll.obj
 0001:000462c0       ??0?$_Vector_val@U?$_Simple_types@VCRememberPosition@@@std@@@std@@QAE@XZ 100472c0 f i dll.obj
 0001:000462e0       ??0?$_Vector_val@U?$_Simple_types@VTSObjective@@@std@@@std@@QAE@XZ 100472e0 f i dll.obj
 0001:00046300       ??0?$_Vector_val@U?$_Simple_types@W4eCamLookState@@@std@@@std@@QAE@XZ 10047300 f i dll.obj
 0001:00046320       ??0?$_Wrap_alloc@V?$allocator@W4eCamLookState@@@std@@@std@@QAE@XZ 10047320 f i dll.obj
 0001:00046330       ??0?$allocator@W4eCamLookState@@@std@@QAE@XZ 10047330 f i dll.obj
 0001:00046340       ??0?$dataQueue@W4eToolTip@@@@QAE@XZ 10047340 f i dll.obj
 0001:00046350       ??0?$dataStack@PAD@@QAE@XZ 10047350 f i dll.obj
 0001:00046360       ??0?$dataStack@PAVCBotCvar@@@@QAE@XZ 10047360 f i dll.obj
 0001:00046370       ??0?$dataStack@PAVCBotNetMessage@@@@QAE@XZ 10047370 f i dll.obj
 0001:00046380       ??0?$dataStack@PAVCBotSquad@@@@QAE@XZ 10047380 f i dll.obj
 0001:00046390       ??0?$dataStack@Uweapon_preset_t@@@@QAE@XZ 10047390 f i dll.obj
 0001:000463a0       ??0?$dataStack@VCAllowedPlayer@@@@QAE@XZ 100473a0 f i dll.obj
 0001:000463b0       ??0?$dataStack@VCBotFailedPath@@@@QAE@XZ 100473b0 f i dll.obj
 0001:000463c0       ??0?$dataStack@VCBotReputation@@@@QAE@XZ 100473c0 f i dll.obj
 0001:000463d0       ??0?$dataStack@VCModInfo@@@@QAE@XZ 100473d0 f i dll.obj
 0001:000463e0       ??0?$dataStack@VCTFCBackpack@@@@QAE@XZ 100473e0 f i dll.obj
 0001:000463f0       ??0?$dataStack@VCTFCGoal@@@@QAE@XZ 100473f0 f i dll.obj
 0001:00046400       ??0?$dataUnconstArray@VCBotNSTech@@@@QAE@XZ 10047400 f i dll.obj
 0001:00046420       ??0?$dataUnconstArray@VCRememberPosition@@@@QAE@XZ 10047420 f i dll.obj
 0001:00046440       ??0?$dataUnconstArray@VTSObjective@@@@QAE@XZ 10047440 f i dll.obj
 0001:00046460       ??0?$dataUnconstArray@W4eCamLookState@@@@QAE@XZ 10047460 f i dll.obj
 0001:00046480       ??0?$vector@VCBotNSTech@@V?$allocator@VCBotNSTech@@@std@@@std@@QAE@XZ 10047480 f i dll.obj
 0001:000464a0       ??0?$vector@VCRememberPosition@@V?$allocator@VCRememberPosition@@@std@@@std@@QAE@XZ 100474a0 f i dll.obj
 0001:000464c0       ??0?$vector@VTSObjective@@V?$allocator@VTSObjective@@@std@@@std@@QAE@XZ 100474c0 f i dll.obj
 0001:000464e0       ??0?$vector@W4eCamLookState@@V?$allocator@W4eCamLookState@@@std@@@std@@QAE@XZ 100474e0 f i dll.obj
 0001:00046500       ??0AStarOpenList@@QAE@XZ   10047500 f i dll.obj
 0001:00046510       ??0CAllowedPlayers@@QAE@XZ 10047510 f i dll.obj
 0001:00046520       ??0CAutoWaypointCheck@@QAE@XZ 10047520 f i dll.obj
 0001:00046530       ??0CBot@@QAE@XZ            10047530 f i dll.obj
 0001:000466f0       ??0CBotCam@@QAE@XZ         100476f0 f   dll.obj
 0001:00046720       ??0CBotCvarList@@QAE@XZ    10047720 f i dll.obj
 0001:00046730       ??0CBotFailedPaths@@QAE@XZ 10047730 f i dll.obj
 0001:00046740       ??0CBotGlobals@@QAE@XZ     10047740 f i dll.obj
 0001:00046af0       ??0CBotMenu@@QAE@XZ        10047af0 f i dll.obj
 0001:00046b00       ??0CBotNSTechs@@QAE@XZ     10047b00 f i dll.obj
 0001:00046b20       ??0CBotNetMessages@@QAE@XZ 10047b20 f i dll.obj
 0001:00046b30       ??0CBotReputations@@QAE@XZ 10047b30 f i dll.obj
 0001:00046b40       ??0CBotSquads@@QAE@XZ      10047b40 f i dll.obj
 0001:00046b50       ??0CBotTasks@@QAE@XZ       10047b50 f i dll.obj
 0001:00046b60       ??0CBotWeapons@@QAE@XZ     10047b60 f i dll.obj
 0001:00046b80       ??0CClient@@QAE@XZ         10047b80 f i dll.obj
 0001:00046be0       ??0CClients@@QAE@XZ        10047be0 f i dll.obj
 0001:00046c10       ??0CMasterEntities@@QAE@XZ 10047c10 f i dll.obj
 0001:00046c20       ??0CModInfos@@QAE@XZ       10047c20 f i dll.obj
 0001:00046c30       ??0CPendingToolTips@@QAE@XZ 10047c30 f i dll.obj
 0001:00046c50       ??0CRememberedPositions@@QAE@XZ 10047c50 f i dll.obj
 0001:00046c80       ??0CStoredStrings@@QAE@XZ  10047c80 f i dll.obj
 0001:00046cd0       ??0CTFCBackpacks@@QAE@XZ   10047cd0 f i dll.obj
 0001:00046ce0       ??0CTFCCapturePoints@@QAE@XZ 10047ce0 f i dll.obj
 0001:00046cf0       ??0CTFCFlags@@QAE@XZ       10047cf0 f i dll.obj
 0001:00046d00       ??0CWeaponPresets@@QAE@XZ  10047d00 f i dll.obj
 0001:00046d10       ??0CWeapons@@QAE@XZ        10047d10 f i dll.obj
 0001:00046d50       ??0SBotChatMessages@@QAE@XZ 10047d50 f i dll.obj
 0001:00046e70       ??0bot_profile_s@@QAE@XZ   10047e70 f i dll.obj
 0001:00046e80       ??0edict_s@@QAE@ABU0@@Z    10047e80 f i dll.obj
 0001:00046f10       ??0entvars_s@@QAE@ABU0@@Z  10047f10 f i dll.obj
 0001:00047650       ??0hive_info_t@@QAE@XZ     10048650 f i dll.obj
 0001:00047660       ??1?$dataUnconstArray@VCBotNSTech@@@@QAE@XZ 10048660 f i dll.obj
 0001:00047690       ??1?$dataUnconstArray@VCRememberPosition@@@@QAE@XZ 10048690 f i dll.obj
 0001:000476c0       ??1?$dataUnconstArray@VTSObjective@@@@QAE@XZ 100486c0 f i dll.obj
 0001:000476f0       ??1?$dataUnconstArray@W4eCamLookState@@@@QAE@XZ 100486f0 f i dll.obj
 0001:00047720       ??1?$vector@VCBotNSTech@@V?$allocator@VCBotNSTech@@@std@@@std@@QAE@XZ 10048720 f i dll.obj
 0001:00047750       ??1?$vector@VCRememberPosition@@V?$allocator@VCRememberPosition@@@std@@@std@@QAE@XZ 10048750 f i dll.obj
 0001:00047780       ??1?$vector@VTSObjective@@V?$allocator@VTSObjective@@@std@@@std@@QAE@XZ 10048780 f i dll.obj
 0001:000477b0       ??1?$vector@W4eCamLookState@@V?$allocator@W4eCamLookState@@@std@@@std@@QAE@XZ 100487b0 f i dll.obj
 0001:000477e0       ??1CBot@@QAE@XZ            100487e0 f i dll.obj
 0001:000478c0       ??1CBotGlobals@@QAE@XZ     100488c0 f i dll.obj
 0001:00047a90       ??1CBotNSTechs@@QAE@XZ     10048a90 f i dll.obj
 0001:00047ac0       ??1CClient@@QAE@XZ         10048ac0 f i dll.obj
 0001:00047b10       ??1CClients@@QAE@XZ        10048b10 f i dll.obj
 0001:00047b30       ??1CRememberedPositions@@QAE@XZ 10048b30 f i dll.obj
 0001:00047b60       ??1CWeapons@@QAE@XZ        10048b60 f i dll.obj
 0001:00047b90       ??1SBotChatMessages@@QAE@XZ 10048b90 f i dll.obj
 0001:00047cd0       ??A?$vector@W4eCamLookState@@V?$allocator@W4eCamLookState@@@std@@@std@@QAEAAW4eCamLookState@@I@Z 10048cd0 f i dll.obj
 0001:00047ce0       ??_FCGA@@QAEXXZ            10048ce0 f i dll.obj
 0001:00047da0       ?Add@?$dataUnconstArray@W4eCamLookState@@@@QAEXW4eCamLookState@@@Z 10048da0 f i dll.obj
 0001:00047db0       ?BotFunc_InitProfile@@YAXPAUbot_profile_s@@@Z 10048db0 f   dll.obj
 0001:00047ed0       ?BotFunc_NS_CommanderBuild@@YAPAUedict_s@@HPBDVVector@@@Z 10048ed0 f   dll.obj
 0001:00047ee0       ?BotFunc_NS_MarineBuild@@YAPAUedict_s@@HPBDVVector@@PAU1@H@Z 10048ee0 f   dll.obj
 0001:000480d0       ?BotFunc_ReadProfile@@YAXPAU_iobuf@@PAUbot_profile_s@@@Z 100490d0 f   dll.obj
 0001:000488e0       ?BotFunc_TraceToss@@YAXPAUedict_s@@0PAUTraceResult@@@Z 100498e0 f   dll.obj
 0001:00048ac0       ?BotFunc_WriteProfile@@YAXPAU_iobuf@@PAUbot_profile_s@@@Z 10049ac0 f   dll.obj
 0001:00048c30       ?ChoosePointerFromStack@?$dataStack@VCTFCGoal@@@@QAEPAVCTFCGoal@@XZ 10049c30 f i dll.obj
 0001:00048c40       ?Clear@?$dataUnconstArray@VCBotNSTech@@@@QAEXXZ 10049c40 f i dll.obj
 0001:00048c50       ?Clear@?$dataUnconstArray@VCRememberPosition@@@@QAEXXZ 10049c50 f i dll.obj
 0001:00048c60       ?Clear@?$dataUnconstArray@W4eCamLookState@@@@QAEXXZ 10049c60 f i dll.obj
 0001:00048c70       ?Clear@CBotCam@@QAEXXZ     10049c70 f   dll.obj
 0001:00048ca0       ?ClearVisibilityTable@CWaypointVisibilityTable@@QAEXXZ 10049ca0 f i dll.obj
 0001:00048cc0       ?Destroy@?$dataStack@PAVCBotSquad@@@@QAEXXZ 10049cc0 f i dll.obj
 0001:00048cf0       ?Destroy@?$dataUnconstArray@VCBotNSTech@@@@QAEXXZ 10049cf0 f i dll.obj
 0001:00048d00       ?Destroy@?$dataUnconstArray@VCRememberPosition@@@@QAEXXZ 10049d00 f i dll.obj
 0001:00048d10       ?Destroy@?$dataUnconstArray@W4eCamLookState@@@@QAEXXZ 10049d10 f i dll.obj
 0001:00048d20       ?FakeClientCommand@@YAXPAUedict_s@@PBDZZ 10049d20 f   dll.obj
 0001:00048eb0       ?FreeArgs@@YAXPBD00000@Z   10049eb0 f   dll.obj
 0001:00048f20       ?FreeMemory@CBotSquads@@QAEXXZ 10049f20 f i dll.obj
 0001:00048fb0       ?GetAccessLevel@CClient@@QBEHXZ 10049fb0 f i dll.obj
 0001:00048fc0       ?GetNumJoiningClients@CBotGlobals@@QAEHXZ 10049fc0 f i dll.obj
 0001:00048fe0       ?Init@?$dataQueue@W4eToolTip@@@@QAEXXZ 10049fe0 f i dll.obj
 0001:00048ff0       ?Init@?$dataStack@PAVCBotNetMessage@@@@QAEXXZ 10049ff0 f i dll.obj
 0001:00049000       ?Init@?$dataStack@VCModInfo@@@@QAEXXZ 1004a000 f i dll.obj
 0001:00049010       ?Init@?$dataStack@VCTFCBackpack@@@@QAEXXZ 1004a010 f i dll.obj
 0001:00049020       ?Init@?$dataStack@VCTFCGoal@@@@QAEXXZ 1004a020 f i dll.obj
 0001:00049030       ?Init@?$dataUnconstArray@VCBotNSTech@@@@QAEXXZ 1004a030 f i dll.obj
 0001:00049040       ?Init@?$dataUnconstArray@VCRememberPosition@@@@QAEXXZ 1004a040 f i dll.obj
 0001:00049050       ?Init@?$dataUnconstArray@W4eCamLookState@@@@QAEXXZ 1004a050 f i dll.obj
 0001:00049060       ?Init@CRememberedPositions@@QAEXXZ 1004a060 f i dll.obj
 0001:00049070       ?Init@CWeapons@@QAEXXZ     1004a070 f i dll.obj
 0001:000490b0       ?IsEmpty@?$dataStack@VCTFCGoal@@@@QAEHXZ 1004a0b0 f i dll.obj
 0001:000490c0       ?IsForClient@CAllowedPlayer@@QAEHPAVCClient@@@Z 1004a0c0 f   dll.obj
 0001:00049150       ?IsWorking@CBotCam@@QAEHXZ 1004a150 f   dll.obj
 0001:00049170       ?Random@?$dataUnconstArray@W4eCamLookState@@@@QAE?AW4eCamLookState@@XZ 1004a170 f i dll.obj
 0001:000491a0       ?ReadBotUsersConfig@@YAXXZ 1004a1a0 f   dll.obj
 0001:000494a0       ?ReadMapConfig@@YAXXZ      1004a4a0 f   dll.obj
 0001:000495e0       ?Spawn@CBotCam@@QAEXXZ     1004a5e0 f   dll.obj
 0001:000496b0       ?TFC_isValidGoal@CBotGlobals@@QAEHHH@Z 1004a6b0 f i dll.obj
 0001:00049720       ?Think@CBotCam@@QAEXXZ     1004a720 f   dll.obj
 0001:0004a460       ?TuneIn@CBotCam@@QAEHPAUedict_s@@@Z 1004b460 f   dll.obj
 0001:0004a4c0       ?TuneOff@CBotCam@@QAEXPAUedict_s@@@Z 1004b4c0 f   dll.obj
 0001:0004a4e0       ?UTIL_GetCommander@@YAPAUedict_s@@XZ 1004b4e0 f   dll.obj
 0001:0004a550       ?_Destroy@?$vector@W4eCamLookState@@V?$allocator@W4eCamLookState@@@std@@@std@@IAEXPAW4eCamLookState@@0@Z 1004b550 f i dll.obj
 0001:0004a560       ?_Getal@?$_Vector_alloc@$0A@U?$_Vec_base_types@W4eCamLookState@@V?$allocator@W4eCamLookState@@@std@@@std@@@std@@QBE?AU?$_Wrap_alloc@V?$allocator@W4eCamLookState@@@std@@@2@XZ 1004b560 f i dll.obj
 0001:0004a570       ?_Grow_to@?$vector@W4eCamLookState@@V?$allocator@W4eCamLookState@@@std@@@std@@IBEII@Z 1004b570 f i dll.obj
 0001:0004a5b0       ?_Inside@?$vector@W4eCamLookState@@V?$allocator@W4eCamLookState@@@std@@@std@@IBE_NPBW4eCamLookState@@@Z 1004b5b0 f i dll.obj
 0001:0004a5d0       ?_Orphan_range@?$vector@W4eCamLookState@@V?$allocator@W4eCamLookState@@@std@@@std@@IBEXPAW4eCamLookState@@0@Z 1004b5d0 f i dll.obj
 0001:0004a5e0       ?_Reallocate@?$vector@W4eCamLookState@@V?$allocator@W4eCamLookState@@@std@@@std@@IAEXI@Z 1004b5e0 f i dll.obj
 0001:0004a660       ?_Reserve@?$vector@W4eCamLookState@@V?$allocator@W4eCamLookState@@@std@@@std@@IAEXI@Z 1004b660 f i dll.obj
 0001:0004a6e0       ?_Tidy@?$vector@VCBotNSTech@@V?$allocator@VCBotNSTech@@@std@@@std@@IAEXXZ 1004b6e0 f i dll.obj
 0001:0004a710       ?_Tidy@?$vector@VCRememberPosition@@V?$allocator@VCRememberPosition@@@std@@@std@@IAEXXZ 1004b710 f i dll.obj
 0001:0004a740       ?_Tidy@?$vector@VTSObjective@@V?$allocator@VTSObjective@@@std@@@std@@IAEXXZ 1004b740 f i dll.obj
 0001:0004a770       ?_Tidy@?$vector@W4eCamLookState@@V?$allocator@W4eCamLookState@@@std@@@std@@IAEXXZ 1004b770 f i dll.obj
 0001:0004a7a0       ?_Unused_capacity@?$vector@W4eCamLookState@@V?$allocator@W4eCamLookState@@@std@@@std@@QBEIXZ 1004b7a0 f i dll.obj
 0001:0004a7b0       ?_Xlen@?$vector@W4eCamLookState@@V?$allocator@W4eCamLookState@@@std@@@std@@IBEXXZ 1004b7b0 f i dll.obj
 0001:0004a7c0       ?_delete@?$dataNode@PAVCBotSquad@@@@QAEXXZ 1004b7c0 f i dll.obj
 0001:0004a7d0       ?allocate@?$_Wrap_alloc@V?$allocator@W4eCamLookState@@@std@@@std@@QAEPAW4eCamLookState@@I@Z 1004b7d0 f i dll.obj
 0001:0004a810       ?allocate@?$allocator@W4eCamLookState@@@std@@QAEPAW4eCamLookState@@I@Z 1004b810 f i dll.obj
 0001:0004a850       ?capacity@?$vector@W4eCamLookState@@V?$allocator@W4eCamLookState@@@std@@@std@@QBEIXZ 1004b850 f i dll.obj
 0001:0004a860       ?clear@?$vector@VCBotNSTech@@V?$allocator@VCBotNSTech@@@std@@@std@@QAEXXZ 1004b860 f i dll.obj
 0001:0004a870       ?clear@?$vector@VCRememberPosition@@V?$allocator@VCRememberPosition@@@std@@@std@@QAEXXZ 1004b870 f i dll.obj
 0001:0004a880       ?clear@?$vector@W4eCamLookState@@V?$allocator@W4eCamLookState@@@std@@@std@@QAEXXZ 1004b880 f i dll.obj
 0001:0004a890       ?construct@?$allocator@W4eCamLookState@@@std@@QAEXPAW4eCamLookState@@ABW43@@Z 1004b890 f i dll.obj
 0001:0004a8b0       ?deallocate@?$_Wrap_alloc@V?$allocator@W4eCamLookState@@@std@@@std@@QAEXPAW4eCamLookState@@I@Z 1004b8b0 f i dll.obj
 0001:0004a8d0       ?deallocate@?$allocator@W4eCamLookState@@@std@@QAEXPAW4eCamLookState@@I@Z 1004b8d0 f i dll.obj
 0001:0004a8f0       ?edict@CTFCGoal@@QAEPAUedict_s@@XZ 1004b8f0 f i dll.obj
 0001:0004a900       ?getCapturePoint@CTFCCapturePoints@@QAEPAUedict_s@@HHHH@Z 1004b900 f   dll.obj
 0001:0004aa50       ?getGoal@CTFCGoal@@QAEHXZ  1004ba50 f i dll.obj
 0001:0004aa60       ?isForGoal@CTFCGoal@@QAEHH@Z 1004ba60 f i dll.obj
 0001:0004aa80       ?isForGroup@CTFCGoal@@QAEHH@Z 1004ba80 f i dll.obj
 0001:0004aa90       ?isForTeam@CTFCGoal@@QAEHH@Z 1004ba90 f i dll.obj
 0001:0004aab0       ?max_size@?$_Wrap_alloc@V?$allocator@W4eCamLookState@@@std@@@std@@QBEIXZ 1004bab0 f i dll.obj
 0001:0004aac0       ?max_size@?$allocator@W4eCamLookState@@@std@@QBEIXZ 1004bac0 f i dll.obj
 0001:0004aad0       ?max_size@?$allocator_traits@V?$allocator@W4eCamLookState@@@std@@@std@@SAIABV?$allocator@W4eCamLookState@@@2@@Z 1004bad0 f i dll.obj
 0001:0004aae0       ?max_size@?$vector@W4eCamLookState@@V?$allocator@W4eCamLookState@@@std@@@std@@QBEIXZ 1004bae0 f i dll.obj
 0001:0004aaf0       ?needAccess@CBotCvar@@QAEHH@Z 1004baf0 f i dll.obj
 0001:0004ab10       ?push_back@?$vector@W4eCamLookState@@V?$allocator@W4eCamLookState@@@std@@@std@@QAEXABW4eCamLookState@@@Z 1004bb10 f i dll.obj
 0001:0004ab80       ?size@?$vector@W4eCamLookState@@V?$allocator@W4eCamLookState@@@std@@@std@@QBEIXZ 1004bb80 f i dll.obj
 0001:0004ab90       ?steamID_defined@CAllowedPlayer@@QAEHXZ 1004bb90 f i dll.obj
 0001:0004aba0       _GetEntityAPI2             1004bba0 f   dll.obj
 0001:0004ac00       ?AddRep@CBotReputations@@QAEXHH@Z 1004bc00 f i engine.obj
 0001:0004ac80       ?GetArg@@YAPBDPBDH@Z       1004bc80 f   engine.obj
 0001:0004ad90       ?UpdateMessage@CBotNetMessages@@QAEXPBDHH@Z 1004bd90 f i engine.obj
 0001:0004adc0       ?UpdateMessageSize@CBotNetMessage@@QAEXH@Z 1004bdc0 f i engine.obj
 0001:0004add0       ?UpdateMsgId@CBotNetMessage@@QAEXH@Z 1004bdd0 f i engine.obj
 0001:0004ade0       ?getMessageName@CBotNetMessage@@QAEPBDXZ 1004bde0 f i engine.obj
 0001:0004adf0       ?pfnAllocString@@YAHPBD@Z  1004bdf0 f   engine.obj
 0001:0004ae40       ?pfnAngleVectors@@YAXPBMPAM11@Z 1004be40 f   engine.obj
 0001:0004ae50       ?pfnAnimationAutomove@@YAXPBUedict_s@@M@Z 1004be50 f   engine.obj
 0001:0004ae60       ?pfnBuildSoundMsg@@YAXPAUedict_s@@HPBDMMHHHHPBM0@Z 1004be60 f   engine.obj
 0001:0004aeb0       ?pfnCRC32_Final@@YAKK@Z    1004beb0 f   engine.obj
 0001:0004af00       ?pfnCRC32_Init@@YAXPAK@Z   1004bf00 f   engine.obj
 0001:0004af50       ?pfnCRC32_ProcessBuffer@@YAXPAKPAXH@Z 1004bf50 f   engine.obj
 0001:0004afa0       ?pfnCRC32_ProcessByte@@YAXPAKE@Z 1004bfa0 f   engine.obj
 0001:0004aff0       ?pfnCVarGetFloat@@YAMPBD@Z 1004bff0 f   engine.obj
 0001:0004b000       ?pfnCVarGetPointer@@YAPAUcvar_s@@PBD@Z 1004c000 f   engine.obj
 0001:0004b050       ?pfnCVarGetString@@YAPBDPBD@Z 1004c050 f   engine.obj
 0001:0004b060       ?pfnCVarRegister@@YAXPAUcvar_s@@@Z 1004c060 f   engine.obj
 0001:0004b0b0       ?pfnCVarSetFloat@@YAXPBDM@Z 1004c0b0 f   engine.obj
 0001:0004b0c0       ?pfnCVarSetString@@YAXPBD0@Z 1004c0c0 f   engine.obj
 0001:0004b0d0       ?pfnCanSkipPlayer@@YAHPBUedict_s@@@Z 1004c0d0 f   engine.obj
 0001:0004b120       ?pfnChangeLevel@@YAXPAD0@Z 1004c120 f   engine.obj
 0001:0004b1d0       ?pfnChangePitch@@YAXPAUedict_s@@@Z 1004c1d0 f   engine.obj
 0001:0004b1e0       ?pfnChangeYaw@@YAXPAUedict_s@@@Z 1004c1e0 f   engine.obj
 0001:0004b1f0       ?pfnCheckVisibility@@YAHPBUedict_s@@PAE@Z 1004c1f0 f   engine.obj
 0001:0004b200       ?pfnClientCommand@@YAXPAUedict_s@@PADZZ 1004c200 f   engine.obj
 0001:0004b260       ?pfnClientPrintf@@YAXPAUedict_s@@W4PRINT_TYPE@@PBD@Z 1004c260 f   engine.obj
 0001:0004b2b0       ?pfnCmd_Argc@@YAHXZ        1004c2b0 f   engine.obj
 0001:0004b2e0       ?pfnCmd_Args@@YAPBDXZ      1004c2e0 f   engine.obj
 0001:0004b360       ?pfnCmd_Argv@@YAPBDH@Z     1004c360 f   engine.obj
 0001:0004b3a0       ?pfnCompareFileTime@@YAHPAD0PAH@Z 1004c3a0 f   engine.obj
 0001:0004b3f0       ?pfnCreateEntity@@YAPAUedict_s@@XZ 1004c3f0 f   engine.obj
 0001:0004b400       ?pfnCreateFakeClient@@YAPAUedict_s@@PBD@Z 1004c400 f   engine.obj
 0001:0004b450       ?pfnCreateInstancedBaseline@@YAHHPAUentity_state_s@@@Z 1004c450 f   engine.obj
 0001:0004b4a0       ?pfnCreateNamedEntity@@YAPAUedict_s@@H@Z 1004c4a0 f   engine.obj
 0001:0004b4b0       ?pfnCrosshairAngle@@YAXPBUedict_s@@MM@Z 1004c4b0 f   engine.obj
 0001:0004b500       ?pfnCvar_DirectSet@@YAXPAUcvar_s@@PAD@Z 1004c500 f   engine.obj
 0001:0004b550       ?pfnCvar_RegisterVariable@@YAXPAUcvar_s@@@Z 1004c550 f   engine.obj
 0001:0004b5a0       ?pfnDecalIndex@@YAHPBD@Z   1004c5a0 f   engine.obj
 0001:0004b5b0       ?pfnDeltaAddEncoder@@YAXPADP6AXPAUdelta_s@@PBE2@Z@Z 1004c5b0 f   engine.obj
 0001:0004b5c0       ?pfnDeltaFindField@@YAHPAUdelta_s@@PBD@Z 1004c5c0 f   engine.obj
 0001:0004b5d0       ?pfnDeltaSetField@@YAXPAUdelta_s@@PBD@Z 1004c5d0 f   engine.obj
 0001:0004b5e0       ?pfnDeltaSetFieldByIndex@@YAXPAUdelta_s@@H@Z 1004c5e0 f   engine.obj
 0001:0004b630       ?pfnDeltaUnsetField@@YAXPAUdelta_s@@PBD@Z 1004c630 f   engine.obj
 0001:0004b640       ?pfnDeltaUnsetFieldByIndex@@YAXPAUdelta_s@@H@Z 1004c640 f   engine.obj
 0001:0004b650       ?pfnDropToFloor@@YAHPAUedict_s@@@Z 1004c650 f   engine.obj
 0001:0004b6a0       ?pfnEmitAmbientSound@@YAXPAUedict_s@@PAMPBDMMHH@Z 1004c6a0 f   engine.obj
 0001:0004b6f0       ?pfnEmitSound@@YAXPAUedict_s@@HPBDMMHH@Z 1004c6f0 f   engine.obj
 0001:0004ba90       ?pfnEndSection@@YAXPBD@Z   1004ca90 f   engine.obj
 0001:0004bae0       ?pfnEntIsOnFloor@@YAHPAUedict_s@@@Z 1004cae0 f   engine.obj
 0001:0004bb30       ?pfnEntOffsetOfPEntity@@YAHPBUedict_s@@@Z 1004cb30 f   engine.obj
 0001:0004bb40       ?pfnEntitiesInPVS@@YAPAUedict_s@@PAU1@@Z 1004cb40 f   engine.obj
 0001:0004bb90       ?pfnFadeClientVolume@@YAXPBUedict_s@@HHHH@Z 1004cb90 f   engine.obj
 0001:0004bbe0       ?pfnFindClientInPVS@@YAPAUedict_s@@PAU1@@Z 1004cbe0 f   engine.obj
 0001:0004bc30       ?pfnFindEntityByString@@YAPAUedict_s@@PAU1@PBD1@Z 1004cc30 f   engine.obj
 0001:0004bc40       ?pfnFindEntityByVars@@YAPAUedict_s@@PAUentvars_s@@@Z 1004cc40 f   engine.obj
 0001:0004bc50       ?pfnFindEntityInSphere@@YAPAUedict_s@@PAU1@PBMM@Z 1004cc50 f   engine.obj
 0001:0004bca0       ?pfnForceUnmodified@@YAXW4FORCE_TYPE@@PAM1PBD@Z 1004cca0 f   engine.obj
 0001:0004bcf0       ?pfnFreeEntPrivateData@@YAXPAUedict_s@@@Z 1004ccf0 f   engine.obj
 0001:0004bd50       ?pfnFreeFile@@YAXPAX@Z     1004cd50 f   engine.obj
 0001:0004bda0       ?pfnFunctionFromName@@YAKPBD@Z 1004cda0 f   engine.obj
 0001:0004bdf0       ?pfnGetAimVector@@YAXPAUedict_s@@MPAM@Z 1004cdf0 f   engine.obj
 0001:0004be00       ?pfnGetAttachment@@YAXPBUedict_s@@HPAM1@Z 1004ce00 f   engine.obj
 0001:0004be10       ?pfnGetBonePosition@@YAXPBUedict_s@@HPAM1@Z 1004ce10 f   engine.obj
 0001:0004be20       ?pfnGetCurrentPlayer@@YAHXZ 1004ce20 f   engine.obj
 0001:0004be70       ?pfnGetEntityIllum@@YAHPAUedict_s@@@Z 1004ce70 f   engine.obj
 0001:0004bec0       ?pfnGetGameDir@@YAXPAD@Z   1004cec0 f   engine.obj
 0001:0004bf10       ?pfnGetInfoKeyBuffer@@YAPADPAUedict_s@@@Z 1004cf10 f   engine.obj
 0001:0004bf60       ?pfnGetModelPtr@@YAPAXPAUedict_s@@@Z 1004cf60 f   engine.obj
 0001:0004bf70       ?pfnGetPhysicsInfoString@@YAPBDPBUedict_s@@@Z 1004cf70 f   engine.obj
 0001:0004bfc0       ?pfnGetPhysicsKeyValue@@YAPBDPBUedict_s@@PBD@Z 1004cfc0 f   engine.obj
 0001:0004c010       ?pfnGetPlayerAuthId@@YAPBDPAUedict_s@@@Z 1004d010 f   engine.obj
 0001:0004c040       ?pfnGetPlayerStats@@YAXPBUedict_s@@PAH1@Z 1004d040 f   engine.obj
 0001:0004c090       ?pfnGetPlayerUserId@@YAHPAUedict_s@@@Z 1004d090 f   engine.obj
 0001:0004c100       ?pfnGetPlayerWONId@@YAIPAUedict_s@@@Z 1004d100 f   engine.obj
 0001:0004c180       ?pfnGetSpawnParms@@YAXPAUedict_s@@@Z 1004d180 f   engine.obj
 0001:0004c1d0       ?pfnGetVarsOfEnt@@YAPAUentvars_s@@PAUedict_s@@@Z 1004d1d0 f   engine.obj
 0001:0004c220       ?pfnIndexOfEdict@@YAHPBUedict_s@@@Z 1004d220 f   engine.obj
 0001:0004c230       ?pfnInfoKeyValue@@YAPADPAD0@Z 1004d230 f   engine.obj
 0001:0004c280       ?pfnInfo_RemoveKey@@YAXPADPBD@Z 1004d280 f   engine.obj
 0001:0004c2d0       ?pfnIsDedicatedServer@@YAHXZ 1004d2d0 f   engine.obj
 0001:0004c320       ?pfnIsMapValid@@YAHPAD@Z   1004d320 f   engine.obj
 0001:0004c370       ?pfnLightStyle@@YAXHPAD@Z  1004d370 f   engine.obj
 0001:0004c380       ?pfnLoadFileForMe@@YAPAEPADPAH@Z 1004d380 f   engine.obj
 0001:0004c3d0       ?pfnMakeStatic@@YAXPAUedict_s@@@Z 1004d3d0 f   engine.obj
 0001:0004c420       ?pfnMakeVectors@@YAXPBM@Z  1004d420 f   engine.obj
 0001:0004c430       ?pfnMessageBegin@@YAXHHPBMPAUedict_s@@@Z 1004d430 f   engine.obj
 0001:0004c460       ?pfnMessageEnd@@YAXXZ      1004d460 f   engine.obj
 0001:0004c530       ?pfnModelFrames@@YAHH@Z    1004d530 f   engine.obj
 0001:0004c580       ?pfnModelIndex@@YAHPBD@Z   1004d580 f   engine.obj
 0001:0004c590       ?pfnMoveToOrigin@@YAXPAUedict_s@@PBMMH@Z 1004d590 f   engine.obj
 0001:0004c5e0       ?pfnNameForFunction@@YAPBDK@Z 1004d5e0 f   engine.obj
 0001:0004c630       ?pfnNumberOfEntities@@YAHXZ 1004d630 f   engine.obj
 0001:0004c680       ?pfnPEntityOfEntIndex@@YAPAUedict_s@@H@Z 1004d680 f   engine.obj
 0001:0004c690       ?pfnPEntityOfEntOffset@@YAPAUedict_s@@H@Z 1004d690 f   engine.obj
 0001:0004c6a0       ?pfnParticleEffect@@YAXPBM0MM@Z 1004d6a0 f   engine.obj
 0001:0004c6b0       ?pfnPlaybackEvent@@YAXHPBUedict_s@@GMPAM1MMHHHH@Z 1004d6b0 f   engine.obj
 0001:0004c700       ?pfnPointContents@@YAHPBM@Z 1004d700 f   engine.obj
 0001:0004c710       ?pfnPrecacheEvent@@YAGHPBD@Z 1004d710 f   engine.obj
 0001:0004c760       ?pfnPrecacheGeneric@@YAHPAD@Z 1004d760 f   engine.obj
 0001:0004c7b0       ?pfnPrecacheModel@@YAHPAD@Z 1004d7b0 f   engine.obj
 0001:0004c800       ?pfnPrecacheSound@@YAHPAD@Z 1004d800 f   engine.obj
 0001:0004c850       ?pfnPvAllocEntPrivateData@@YAPAXPAUedict_s@@J@Z 1004d850 f   engine.obj
 0001:0004c8a0       ?pfnPvEntPrivateData@@YAPAXPAUedict_s@@@Z 1004d8a0 f   engine.obj
 0001:0004c8f0       ?pfnRandomFloat@@YAMMM@Z   1004d8f0 f   engine.obj
 0001:0004c900       ?pfnRandomLong@@YAJJJ@Z    1004d900 f   engine.obj
 0001:0004c910       ?pfnRegUserMsg@@YAHPBDH@Z  1004d910 f   engine.obj
 0001:0004c970       ?pfnRemoveEntity@@YAXPAUedict_s@@@Z 1004d970 f   engine.obj
 0001:0004c9f0       ?pfnRunPlayerMove@@YAXPAUedict_s@@PBMMMMGEE@Z 1004d9f0 f   engine.obj
 0001:0004ca40       ?pfnSaveSpawnParms@@YAXPAUedict_s@@@Z 1004da40 f   engine.obj
 0001:0004ca90       ?pfnServerCommand@@YAXPAD@Z 1004da90 f   engine.obj
 0001:0004cae0       ?pfnServerExecute@@YAXXZ   1004dae0 f   engine.obj
 0001:0004cb30       ?pfnServerPrint@@YAXPBD@Z  1004db30 f   engine.obj
 0001:0004cb80       ?pfnSetClientKeyValue@@YAXHPAD00@Z 1004db80 f   engine.obj
 0001:0004cd00       ?pfnSetClientMaxspeed@@YAXPBUedict_s@@M@Z 1004dd00 f   engine.obj
 0001:0004cd80       ?pfnSetFatPAS@@YAPAEPAM@Z  1004dd80 f   engine.obj
 0001:0004cdd0       ?pfnSetFatPVS@@YAPAEPAM@Z  1004ddd0 f   engine.obj
 0001:0004ce20       ?pfnSetGroupMask@@YAXHH@Z  1004de20 f   engine.obj
 0001:0004ce70       ?pfnSetKeyValue@@YAXPAD00@Z 1004de70 f   engine.obj
 0001:0004cec0       ?pfnSetModel@@YAXPAUedict_s@@PBD@Z 1004dec0 f   engine.obj
 0001:0004cf10       ?pfnSetOrigin@@YAXPAUedict_s@@PBM@Z 1004df10 f   engine.obj
 0001:0004cf60       ?pfnSetPhysicsKeyValue@@YAXPBUedict_s@@PBD1@Z 1004df60 f   engine.obj
 0001:0004cfb0       ?pfnSetSize@@YAXPAUedict_s@@PBM1@Z 1004dfb0 f   engine.obj
 0001:0004d000       ?pfnSetView@@YAXPBUedict_s@@0@Z 1004e000 f   engine.obj
 0001:0004d050       ?pfnStaticDecal@@YAXPBMHHH@Z 1004e050 f   engine.obj
 0001:0004d0a0       ?pfnSzFromIndex@@YAPBDH@Z  1004e0a0 f   engine.obj
 0001:0004d0f0       ?pfnTime@@YAMXZ            1004e0f0 f   engine.obj
 0001:0004d140       ?pfnTraceHull@@YAXPBM0HHPAUedict_s@@PAUTraceResult@@@Z 1004e140 f   engine.obj
 0001:0004d150       ?pfnTraceLine@@YAXPBM0HPAUedict_s@@PAUTraceResult@@@Z 1004e150 f   engine.obj
 0001:0004d160       ?pfnTraceModel@@YAXPBM0HPAUedict_s@@PAUTraceResult@@@Z 1004e160 f   engine.obj
 0001:0004d170       ?pfnTraceMonsterHull@@YAHPAUedict_s@@PBM1H0PAUTraceResult@@@Z 1004e170 f   engine.obj
 0001:0004d180       ?pfnTraceSphere@@YAXPBM0HMPAUedict_s@@PAUTraceResult@@@Z 1004e180 f   engine.obj
 0001:0004d190       ?pfnTraceTexture@@YAPBDPAUedict_s@@PBM1@Z 1004e190 f   engine.obj
 0001:0004d1a0       ?pfnTraceToss@@YAXPAUedict_s@@0PAUTraceResult@@@Z 1004e1a0 f   engine.obj
 0001:0004d1b0       ?pfnVecToAngles@@YAXPBMPAM@Z 1004e1b0 f   engine.obj
 0001:0004d1c0       ?pfnVecToYaw@@YAMPBM@Z     1004e1c0 f   engine.obj
 0001:0004d1d0       ?pfnWalkMove@@YAHPAUedict_s@@MMH@Z 1004e1d0 f   engine.obj
 0001:0004d220       ?pfnWriteAngle@@YAXM@Z     1004e220 f   engine.obj
 0001:0004d310       ?pfnWriteByte@@YAXH@Z      1004e310 f   engine.obj
 0001:0004d3e0       ?pfnWriteChar@@YAXH@Z      1004e3e0 f   engine.obj
 0001:0004d470       ?pfnWriteCoord@@YAXM@Z     1004e470 f   engine.obj
 0001:0004d560       ?pfnWriteEntity@@YAXH@Z    1004e560 f   engine.obj
 0001:0004d640       ?pfnWriteLong@@YAXH@Z      1004e640 f   engine.obj
 0001:0004d710       ?pfnWriteShort@@YAXH@Z     1004e710 f   engine.obj
 0001:0004d7e0       ?pfnWriteString@@YAXPBD@Z  1004e7e0 f   engine.obj
 0001:0004d8a0       ??$_Allocate@PAVIIndividual@@@std@@YAPAPAVIIndividual@@IPAPAV1@@Z 1004e8a0 f i ga.obj
 0001:0004d8d0       ??$_Rechecked@PAPAVIIndividual@@PAPAV1@@std@@YAAAPAPAVIIndividual@@AAPAPAV1@PAPAV1@@Z 1004e8d0 f i ga.obj
 0001:0004d8e0       ??$_Umove@PAPAVIIndividual@@@?$vector@PAVIIndividual@@V?$allocator@PAVIIndividual@@@std@@@std@@IAEPAPAVIIndividual@@PAPAV2@00@Z 1004e8e0 f i ga.obj
 0001:0004d910       ??$_Unchecked@PAPAVIIndividual@@@std@@YAPAPAVIIndividual@@PAPAV1@@Z 1004e910 f i ga.obj
 0001:0004d920       ??$_Uninit_move@PAPAVIIndividual@@PAPAV1@U?$_Wrap_alloc@V?$allocator@PAVIIndividual@@@std@@@std@@@std@@YAPAPAVIIndividual@@PAPAV1@00AAU?$_Wrap_alloc@V?$allocator@PAVIIndividual@@@std@@@0@@Z 1004e920 f i ga.obj
 0001:0004d950       ??$_Uninit_move@PAVIIndividual@@PAV1@PAV1@@std@@YAPAPAVIIndividual@@PAPAV1@00AAU?$_Wrap_alloc@V?$allocator@PAVIIndividual@@@std@@@0@0U_Scalar_ptr_iterator_tag@0@@Z 1004e950 f i ga.obj
 0001:0004d980       ??$_Uninitialized_move@PAPAVIIndividual@@PAPAV1@U?$_Wrap_alloc@V?$allocator@PAVIIndividual@@@std@@@std@@@std@@YAPAPAVIIndividual@@PAPAV1@00AAU?$_Wrap_alloc@V?$allocator@PAVIIndividual@@@std@@@0@@Z 1004e980 f i ga.obj
 0001:0004d9b0       ??$_Val_type@PAPAVIIndividual@@@std@@YAPAPAVIIndividual@@PAPAV1@@Z 1004e9b0 f i ga.obj
 0001:0004d9c0       ??$addressof@QAVIIndividual@@@std@@YAPBQAVIIndividual@@ABQAV1@@Z 1004e9c0 f i ga.obj
 0001:0004d9d0       ??$construct@PAVIIndividual@@AAPAV1@@?$_Wrap_alloc@V?$allocator@PAVIIndividual@@@std@@@std@@QAEXPAPAVIIndividual@@AAPAV2@@Z 1004e9d0 f i ga.obj
 0001:0004d9f0       ??$construct@PAVIIndividual@@AAPAV1@@?$allocator@PAVIIndividual@@@std@@QAEXPAPAVIIndividual@@AAPAV2@@Z 1004e9f0 f i ga.obj
 0001:0004da10       ??$construct@PAVIIndividual@@AAPAV1@@?$allocator_traits@V?$allocator@PAVIIndividual@@@std@@@std@@SAXAAV?$allocator@PAVIIndividual@@@1@PAPAVIIndividual@@AAPAV3@@Z 1004ea10 f i ga.obj
 0001:0004da30       ??$construct@PAVIIndividual@@ABQAV1@@?$_Wrap_alloc@V?$allocator@PAVIIndividual@@@std@@@std@@QAEXPAPAVIIndividual@@ABQAV2@@Z 1004ea30 f i ga.obj
 0001:0004da50       ??$construct@PAVIIndividual@@ABQAV1@@?$allocator_traits@V?$allocator@PAVIIndividual@@@std@@@std@@SAXAAV?$allocator@PAVIIndividual@@@1@PAPAVIIndividual@@ABQAV3@@Z 1004ea50 f i ga.obj
 0001:0004da70       ??$destroy@PAVIIndividual@@@?$_Wrap_alloc@V?$allocator@PAVIIndividual@@@std@@@std@@QAEXPAPAVIIndividual@@@Z 1004ea70 f i ga.obj
 0001:0004da80       ??$destroy@PAVIIndividual@@@?$allocator@PAVIIndividual@@@std@@QAEXPAPAVIIndividual@@@Z 1004ea80 f i ga.obj
 0001:0004da90       ??$destroy@PAVIIndividual@@@?$allocator_traits@V?$allocator@PAVIIndividual@@@std@@@std@@SAXAAV?$allocator@PAVIIndividual@@@1@PAPAVIIndividual@@@Z 1004ea90 f i ga.obj
 0001:0004daa0       ??$forward@AAPAVIIndividual@@@std@@YAAAPAVIIndividual@@AAPAV1@@Z 1004eaa0 f i ga.obj
 0001:0004dab0       ??$forward@ABQAVIIndividual@@@std@@YAABQAVIIndividual@@ABQAV1@@Z 1004eab0 f i ga.obj
 0001:0004dac0       ??0?$_Vector_const_iterator@V?$_Vector_val@U?$_Simple_types@PAVIIndividual@@@std@@@std@@@std@@QAE@PAPAVIIndividual@@PBU_Container_base0@1@@Z 1004eac0 f i ga.obj
 0001:0004dad0       ??0?$_Vector_iterator@V?$_Vector_val@U?$_Simple_types@PAVIIndividual@@@std@@@std@@@std@@QAE@PAPAVIIndividual@@PBU_Container_base0@1@@Z 1004ead0 f i ga.obj
 0001:0004dae0       ??0CGA@@QAE@PAVISelection@@@Z 1004eae0 f   ga.obj
 0001:0004db30       ??A?$vector@PAVIIndividual@@V?$allocator@PAVIIndividual@@@std@@@std@@QAEAAPAVIIndividual@@I@Z 1004eb30 f i ga.obj
 0001:0004db40       ??D?$_Vector_const_iterator@V?$_Vector_val@U?$_Simple_types@PAVIIndividual@@@std@@@std@@@std@@QBEABQAVIIndividual@@XZ 1004eb40 f i ga.obj
 0001:0004db50       ??D?$_Vector_iterator@V?$_Vector_val@U?$_Simple_types@PAVIIndividual@@@std@@@std@@@std@@QBEAAPAVIIndividual@@XZ 1004eb50 f i ga.obj
 0001:0004db60       ??G?$_Vector_iterator@V?$_Vector_val@U?$_Simple_types@PAVIIndividual@@@std@@@std@@@std@@QBE?AV01@H@Z 1004eb60 f i ga.obj
 0001:0004db80       ??Y?$_Vector_const_iterator@V?$_Vector_val@U?$_Simple_types@PAVIIndividual@@@std@@@std@@@std@@QAEAAV01@H@Z 1004eb80 f i ga.obj
 0001:0004dba0       ??Y?$_Vector_iterator@V?$_Vector_val@U?$_Simple_types@PAVIIndividual@@@std@@@std@@@std@@QAEAAV01@H@Z 1004eba0 f i ga.obj
 0001:0004dbc0       ??Z?$_Vector_iterator@V?$_Vector_val@U?$_Simple_types@PAVIIndividual@@@std@@@std@@@std@@QAEAAV01@H@Z 1004ebc0 f i ga.obj
 0001:0004dbe0       ?RCBOpenFile@@YAPAU_iobuf@@PAD0W4eGASaveType@@H@Z 1004ebe0 f   ga.obj
 0001:0004dc60       ?_Grow_to@?$vector@PAVIIndividual@@V?$allocator@PAVIIndividual@@@std@@@std@@IBEII@Z 1004ec60 f i ga.obj
 0001:0004dca0       ?_Inside@?$vector@PAVIIndividual@@V?$allocator@PAVIIndividual@@@std@@@std@@IBE_NPBQAVIIndividual@@@Z 1004eca0 f i ga.obj
 0001:0004dcc0       ?_Orphan_range@?$vector@PAVIIndividual@@V?$allocator@PAVIIndividual@@@std@@@std@@IBEXPAPAVIIndividual@@0@Z 1004ecc0 f i ga.obj
 0001:0004dcd0       ?_Reallocate@?$vector@PAVIIndividual@@V?$allocator@PAVIIndividual@@@std@@@std@@IAEXI@Z 1004ecd0 f i ga.obj
 0001:0004dd50       ?_Reserve@?$vector@PAVIIndividual@@V?$allocator@PAVIIndividual@@@std@@@std@@IAEXI@Z 1004ed50 f i ga.obj
 0001:0004ddd0       ?_Unused_capacity@?$vector@PAVIIndividual@@V?$allocator@PAVIIndividual@@@std@@@std@@QBEIXZ 1004edd0 f i ga.obj
 0001:0004dde0       ?_Xlen@?$vector@PAVIIndividual@@V?$allocator@PAVIIndividual@@@std@@@std@@IBEXXZ 1004ede0 f i ga.obj
 0001:0004ddf0       ?add@CPopulation@@QAEXPAVIIndividual@@@Z 1004edf0 f   ga.obj
 0001:0004de00       ?addToPopulation@CGA@@QAEXPAVIIndividual@@@Z 1004ee00 f   ga.obj
 0001:0004dea0       ?allocate@?$_Wrap_alloc@V?$allocator@PAVIIndividual@@@std@@@std@@QAEPAPAVIIndividual@@I@Z 1004eea0 f i ga.obj
 0001:0004dee0       ?allocate@?$allocator@PAVIIndividual@@@std@@QAEPAPAVIIndividual@@I@Z 1004eee0 f i ga.obj
 0001:0004df20       ?averageFitness@CPopulation@@QAEMXZ 1004ef20 f   ga.obj
 0001:0004df60       ?back@?$vector@PAVIIndividual@@V?$allocator@PAVIIndividual@@@std@@@std@@QAEAAPAVIIndividual@@XZ 1004ef60 f i ga.obj
 0001:0004df70       ?bestFitness@CPopulation@@QAEMXZ 1004ef70 f   ga.obj
 0001:0004dfc0       ?canPick@CGA@@QAE_NXZ      1004efc0 f   ga.obj
 0001:0004dfe0       ?capacity@?$vector@PAVIIndividual@@V?$allocator@PAVIIndividual@@@std@@@std@@QBEIXZ 1004efe0 f i ga.obj
 0001:0004dff0       ?clear@?$vector@PAVIIndividual@@V?$allocator@PAVIIndividual@@@std@@@std@@QAEXXZ 1004eff0 f i ga.obj
 0001:0004e000       ?clear@CPopulation@@QAEXXZ 1004f000 f   ga.obj
 0001:0004e010       ?construct@?$allocator@PAVIIndividual@@@std@@QAEXPAPAVIIndividual@@ABQAV3@@Z 1004f010 f i ga.obj
 0001:0004e030       ?end@?$vector@PAVIIndividual@@V?$allocator@PAVIIndividual@@@std@@@std@@QAE?AV?$_Vector_iterator@V?$_Vector_val@U?$_Simple_types@PAVIIndividual@@@std@@@std@@@2@XZ 1004f030 f i ga.obj
 0001:0004e040       ?epoch@CGA@@QAEXXZ         1004f040 f   ga.obj
 0001:0004e110       ?freeGlobalMemory@CGA@@QAEXXZ 1004f110 f   ga.obj
 0001:0004e140       ?freeLocalMemory@CGA@@QAEXXZ 1004f140 f   ga.obj
 0001:0004e180       ?freeMemory@CPopulation@@QAEXXZ 1004f180 f   ga.obj
 0001:0004e1d0       ?get@CPopulation@@QAEPAVIIndividual@@H@Z 1004f1d0 f   ga.obj
 0001:0004e1e0       ?getBestIndividual@CPopulation@@QAEPAVIIndividual@@XZ 1004f1e0 f   ga.obj
 0001:0004e210       ?load@CGA@@QAEXPAU_iobuf@@H@Z 1004f210 f   ga.obj
 0001:0004e240       ?load@CPopulation@@QAEXPAU_iobuf@@HH@Z 1004f240 f   ga.obj
 0001:0004e3a0       ?loadTeam@CGA@@QAEXPADHH@Z 1004f3a0 f   ga.obj
 0001:0004e3e0       ?max_size@?$_Wrap_alloc@V?$allocator@PAVIIndividual@@@std@@@std@@QBEIXZ 1004f3e0 f i ga.obj
 0001:0004e3f0       ?max_size@?$allocator@PAVIIndividual@@@std@@QBEIXZ 1004f3f0 f i ga.obj
 0001:0004e400       ?max_size@?$allocator_traits@V?$allocator@PAVIIndividual@@@std@@@std@@SAIABV?$allocator@PAVIIndividual@@@2@@Z 1004f400 f i ga.obj
 0001:0004e410       ?max_size@?$vector@PAVIIndividual@@V?$allocator@PAVIIndividual@@@std@@@std@@QBEIXZ 1004f410 f i ga.obj
 0001:0004e420       ?pick@CGA@@QAEPAVIIndividual@@XZ 1004f420 f   ga.obj
 0001:0004e430       ?pick@CPopulation@@QAEPAVIIndividual@@XZ 1004f430 f   ga.obj
 0001:0004e440       ?pop_back@?$vector@PAVIIndividual@@V?$allocator@PAVIIndividual@@@std@@@std@@QAEXXZ 1004f440 f i ga.obj
 0001:0004e450       ?push_back@?$vector@PAVIIndividual@@V?$allocator@PAVIIndividual@@@std@@@std@@QAEXABQAVIIndividual@@@Z 1004f450 f i ga.obj
 0001:0004e4c0       ?save@CGA@@QAEXPAU_iobuf@@@Z 1004f4c0 f   ga.obj
 0001:0004e4f0       ?save@CPopulation@@QAEXPAU_iobuf@@@Z 1004f4f0 f   ga.obj
 0001:0004e580       ?saveTeam@CGA@@QAEXPADH@Z  1004f580 f   ga.obj
 0001:0004e5c0       ?select@CRouletteSelection@@EAEPAVIIndividual@@PAVCPopulation@@@Z 1004f5c0 f   ga.obj
 0001:0004e640       ?size@?$vector@PAVIIndividual@@V?$allocator@PAVIIndividual@@@std@@@std@@QBEIXZ 1004f640 f i ga.obj
 0001:0004e650       ?size@CPopulation@@QAEIXZ  1004f650 f i ga.obj
 0001:0004e660       ?totalFitness@CPopulation@@QAEMXZ 1004f660 f   ga.obj
 0001:0004e6a0       ??0?$dataNode@PAVCMasterEntity@@@@QAE@XZ 1004f6a0 f i globals.obj
 0001:0004e6b0       ??0?$dataNode@VCTFCBackpack@@@@QAE@XZ 1004f6b0 f i globals.obj
 0001:0004e6d0       ??0?$dataNode@VCTFCGoal@@@@QAE@XZ 1004f6d0 f i globals.obj
 0001:0004e6f0       ??0CMasterEntity@@QAE@PAUedict_s@@PAD@Z 1004f6f0 f i globals.obj
 0001:0004e740       ??0CStructToBuild@@QAE@HH@Z 1004f740 f i globals.obj
 0001:0004e760       ??0CStructToBuild@@QAE@XZ  1004f760 f i globals.obj
 0001:0004e770       ??0CTFCBackpack@@QAE@PAUedict_s@@@Z 1004f770 f i globals.obj
 0001:0004e790       ??0CTFCBackpack@@QAE@XZ    1004f790 f i globals.obj
 0001:0004e7a0       ??0CTFCGoal@@QAE@PAUedict_s@@@Z 1004f7a0 f i globals.obj
 0001:0004e7c0       ??0CTFCGoal@@QAE@XZ        1004f7c0 f i globals.obj
 0001:0004e7d0       ??0CThingToBuild@@QAE@HHHH@Z 1004f7d0 f i globals.obj
 0001:0004e830       ??0CThingToBuild@@QAE@XZ   1004f830 f i globals.obj
 0001:0004e8b0       ??0CThingsToBuild@@QAE@XZ  1004f8b0 f i globals.obj
 0001:0004ead0       ??1CMasterEntity@@QAE@XZ   1004fad0 f i globals.obj
 0001:0004eaf0       ??_GCMasterEntity@@QAEPAXI@Z 1004faf0 f i globals.obj
 0001:0004eb30       ?AddMaster@CMasterEntities@@QAEXPAUedict_s@@PAD@Z 1004fb30 f i globals.obj
 0001:0004ebf0       ?AddNewSchedule@CBotTasks@@QAEXW4eScheduleDesc@@PAVCBotTask@@H@Z 1004fbf0 f i globals.obj
 0001:0004eca0       ?ChoosePointerFromStack@?$dataStack@VCModInfo@@@@QAEPAVCModInfo@@XZ 1004fca0 f i globals.obj
 0001:0004ecb0       ?Clear@CThingsToBuild@@QAEXXZ 1004fcb0 f i globals.obj
 0001:0004ecd0       ?Destroy@?$dataStack@PAD@@QAEXXZ 1004fcd0 f i globals.obj
 0001:0004ed00       ?Destroy@?$dataStack@PAVCBotCvar@@@@QAEXXZ 1004fd00 f i globals.obj
 0001:0004ed30       ?Destroy@?$dataStack@PAVCBotNetMessage@@@@QAEXXZ 1004fd30 f i globals.obj
 0001:0004ed60       ?Destroy@?$dataStack@PAVCMasterEntity@@@@QAEXXZ 1004fd60 f i globals.obj
 0001:0004ed90       ?Destroy@?$dataStack@Uweapon_preset_t@@@@QAEXXZ 1004fd90 f i globals.obj
 0001:0004edc0       ?Destroy@?$dataStack@VCModInfo@@@@QAEXXZ 1004fdc0 f i globals.obj
 0001:0004edf0       ?Destroy@?$dataStack@VCTFCBackpack@@@@QAEXXZ 1004fdf0 f i globals.obj
 0001:0004ee20       ?Destroy@?$dataStack@VCTFCGoal@@@@QAEXXZ 1004fe20 f i globals.obj
 0001:0004ee50       ?Destroy@CBotCvarList@@QAEXXZ 1004fe50 f i globals.obj
 0001:0004eeb0       ?Destroy@CBotNetMessages@@QAEXXZ 1004feb0 f i globals.obj
 0001:0004eee0       ?Destroy@CWeaponPresets@@QAEXXZ 1004fee0 f i globals.obj
 0001:0004ef10       ?DestroyInfo@CModInfos@@QAEXXZ 1004ff10 f i globals.obj
 0001:0004ef40       ?FreeGlobalMemory@CBot@@QAEXXZ 1004ff40 f i globals.obj
 0001:0004ef50       ?FreeGlobalMemory@CBotGlobals@@QAEXXZ 1004ff50 f   globals.obj
 0001:0004f400       ?FreeGlobalMemory@CClients@@QAEXXZ 10050400 f i globals.obj
 0001:0004f430       ?FreeLocalMemory@CBotGlobals@@QAEXXZ 10050430 f   globals.obj
 0001:0004f680       ?FreeLocalMemory@CMasterEntities@@QAEXXZ 10050680 f i globals.obj
 0001:0004f6f0       ?FreeMemory@CTFCBackpacks@@QAEXXZ 100506f0 f i globals.obj
 0001:0004f720       ?FreeMemory@CTFCCapturePoints@@QAEXXZ 10050720 f i globals.obj
 0001:0004f750       ?FreeMemory@CTFCFlags@@QAEXXZ 10050750 f i globals.obj
 0001:0004f780       ?FreeStrings@CStoredStrings@@QAEXXZ 10050780 f i globals.obj
 0001:0004f7f0       ?FreeVisibilityTable@CWaypointVisibilityTable@@QAEXXZ 100507f0 f i globals.obj
 0001:0004f810       ?GameInit@CBotGlobals@@AAEXXZ 10050810 f   globals.obj
 0001:0004f900       ?GetHeadInfoPointer@?$dataStack@VCTFCBackpack@@@@QAEPAVCTFCBackpack@@XZ 10050900 f i globals.obj
 0001:0004f910       ?GetHeadInfoPointer@?$dataStack@VCTFCGoal@@@@QAEPAVCTFCGoal@@XZ 10050910 f i globals.obj
 0001:0004f920       ?GetModId@CModInfo@@QAEHXZ 10050920 f i globals.obj
 0001:0004f930       ?GetModInfo@CBotGlobals@@QAEPBDXZ 10050930 f   globals.obj
 0001:0004fa10       ?GetModInfo@CModInfos@@QAEPAVCModInfo@@PBD@Z 10050a10 f i globals.obj
 0001:0004fa80       ?IsEmpty@?$dataStack@VCModInfo@@@@QAEHXZ 10050a80 f i globals.obj
 0001:0004fa90       ?IsForMod@CModInfo@@QAEHPBD@Z 10050a90 f i globals.obj
 0001:0004fad0       ?IsMessageName@CBotNetMessage@@QAEHPBD@Z 10050ad0 f i globals.obj
 0001:0004fb20       ?KeyValue@CBotGlobals@@QAEXPAUedict_s@@PAUKeyValueData_s@@@Z 10050b20 f   globals.obj
 0001:00050620       ?LoadBotModels@CBotGlobals@@QAEXXZ 10051620 f   globals.obj
 0001:00050960       ?MapInit@CBotGlobals@@QAEXXZ 10051960 f   globals.obj
 0001:00050e60       ?NetMessageStarted@CBotGlobals@@QAEHHHPBMPAUedict_s@@@Z 10051e60 f   globals.obj
 0001:00051060       ?Pop@?$dataStack@VCTFCBackpack@@@@QAE?AVCTFCBackpack@@XZ 10052060 f i globals.obj
 0001:000510a0       ?Pop@?$dataStack@VCTFCGoal@@@@QAE?AVCTFCGoal@@XZ 100520a0 f i globals.obj
 0001:000510d0       ?Push@?$dataStack@PAVCMasterEntity@@@@QAEXQAVCMasterEntity@@@Z 100520d0 f i globals.obj
 0001:00051120       ?Push@?$dataStack@VCTFCBackpack@@@@QAEXVCTFCBackpack@@@Z 10052120 f i globals.obj
 0001:00051170       ?Push@?$dataStack@VCTFCGoal@@@@QAEXVCTFCGoal@@@Z 10052170 f i globals.obj
 0001:000511b0       ?ReadBotFolder@CBotGlobals@@QAEXXZ 100521b0 f   globals.obj
 0001:000512b0       ?ReadConfig@CBotGlobals@@QAEXXZ 100522b0 f   globals.obj
 0001:000515d0       ?ReadThingsToBuild@CBotGlobals@@QAEXXZ 100525d0 f   globals.obj
 0001:00051a80       ?SetScheduleId@CBotTask@@QAEXH@Z 10052a80 f i globals.obj
 0001:00051aa0       ?SetupBotChat@CBotGlobals@@QAEXXZ 10052aa0 f   globals.obj
 0001:000520c0       ?StartFrame@CBotGlobals@@QAEXXZ 100530c0 f   globals.obj
 0001:00052e50       ?TFC_IsAvailableFlag@CBotGlobals@@QAEHPAUedict_s@@HH@Z 10053e50 f   globals.obj
 0001:00052e90       ?TFC_canGoClass@CBotGlobals@@QAEHHH@Z 10053e90 f   globals.obj
 0001:00053000       ?TFC_getBestClass@CBotGlobals@@QAEHHH@Z 10054000 f   globals.obj
 0001:00053110       ?TFC_getBestTeam@CBotGlobals@@QAEHH@Z 10054110 f   globals.obj
 0001:00053190       ?TFC_getCaptureLocationForFlag@CBotGlobals@@QAEHPAVVector@@PAUedict_s@@@Z 10054190 f   globals.obj
 0001:00053260       ?TFC_getClassName@CBotGlobals@@QAEPADH@Z 10054260 f   globals.obj
 0001:00053280       ?TFC_getTeamViaColorMap@CBotGlobals@@QAEHPAUedict_s@@@Z 10054280 f   globals.obj
 0001:000532e0       ?TFC_playerHasFlag@CBotGlobals@@QAEHPAUedict_s@@@Z 100542e0 f   globals.obj
 0001:00053330       ?UpdateAngles@CBotSquad@@QAEXXZ 10054330 f i globals.obj
 0001:000533a0       ?UpdateAngles@CBotSquads@@QAEXXZ 100543a0 f i globals.obj
 0001:000534a0       ?_delete@?$dataNode@PAD@@QAEXXZ 100544a0 f i globals.obj
 0001:000534b0       ?_delete@?$dataNode@PAVCBotCvar@@@@QAEXXZ 100544b0 f i globals.obj
 0001:000534c0       ?_delete@?$dataNode@PAVCBotNetMessage@@@@QAEXXZ 100544c0 f i globals.obj
 0001:000534d0       ?_delete@?$dataNode@PAVCMasterEntity@@@@QAEXXZ 100544d0 f i globals.obj
 0001:000534e0       ?_delete@?$dataNode@Uweapon_preset_t@@@@QAEXXZ 100544e0 f i globals.obj
 0001:000534f0       ?_delete@?$dataNode@VCModInfo@@@@QAEXXZ 100544f0 f i globals.obj
 0001:00053500       ?_delete@?$dataNode@VCTFCBackpack@@@@QAEXXZ 10054500 f i globals.obj
 0001:00053510       ?_delete@?$dataNode@VCTFCGoal@@@@QAEXXZ 10054510 f i globals.obj
 0001:00053520       ?addBackpack@CTFCBackpacks@@QAEPAVCTFCBackpack@@V2@@Z 10054520 f i globals.obj
 0001:00053570       ?addCapturePoint@CTFCCapturePoints@@QAEPAVCTFCGoal@@PAUedict_s@@@Z 10054570 f i globals.obj
 0001:000535c0       ?addFlag@CTFCFlags@@QAEPAVCTFCGoal@@PAUedict_s@@@Z 100545c0 f i globals.obj
 0001:00053610       ?freeMemory@CBotNSTechs@@QAEXXZ 10054610 f i globals.obj
 0001:00053620       ?getFlagInfo@CTFCFlags@@QAEHPAUedict_s@@PAH11@Z 10054620 f i globals.obj
 0001:00053680       ?getGroup@CTFCGoal@@QAEHXZ 10054680 f i globals.obj
 0001:00053690       ?getRandomHeldFlagByTeam@CTFCFlags@@QAEPAUedict_s@@H@Z 10054690 f i globals.obj
 0001:000536e0       ?getTeam@CTFCGoal@@QAEHXZ  100546e0 f i globals.obj
 0001:000536f0       ?humansAllowed@CBotNetMessage@@QAEHXZ 100546f0 f i globals.obj
 0001:00053700       ?init@CBotStatedNetMessage@@QAEXH@Z 10054700 f i globals.obj
 0001:00053740       ?init@CTFCGoal@@QAEXXZ     10054740 f i globals.obj
 0001:00053750       ?isEdict@CTFCBackpack@@QAEHPAUedict_s@@@Z 10054750 f i globals.obj
 0001:00053770       ?isEdict@CTFCGoal@@QAEHPAUedict_s@@@Z 10054770 f i globals.obj
 0001:00053790       ?isFlag@CTFCFlags@@QAEHPAUedict_s@@HH@Z 10054790 f i globals.obj
 0001:00053800       ?loadLearnedData@CBotGlobals@@QAEXXZ 10054800 f   globals.obj
 0001:00053a20       ?playerHasFlag@CTFCFlags@@QAEHPAUedict_s@@@Z 10054a20 f i globals.obj
 0001:00053a60       ?randomHeldFlagOnTeam@CBotGlobals@@QAEPAUedict_s@@H@Z 10054a60 f   globals.obj
 0001:00053a70       ?removePrevBackpack@CTFCBackpacks@@QAEXXZ 10054a70 f i globals.obj
 0001:00053a80       ?removePrevCapPoint@CTFCCapturePoints@@QAEXXZ 10054a80 f i globals.obj
 0001:00053a90       ?removePrevFlag@CTFCFlags@@QAEXXZ 10054a90 f i globals.obj
 0001:00053aa0       ?saveLearnedData@CBotGlobals@@QAEXXZ 10054aa0 f   globals.obj
 0001:00053c60       ?setAmmo@CTFCBackpack@@QAEXH@Z 10054c60 f i globals.obj
 0001:00053c70       ?setArmor@CTFCBackpack@@QAEXH@Z 10054c70 f i globals.obj
 0001:00053c80       ?setCells@CTFCBackpack@@QAEXH@Z 10054c80 f i globals.obj
 0001:00053c90       ?setGoal@CTFCGoal@@QAEXH@Z 10054c90 f i globals.obj
 0001:00053ca0       ?setGroup@CTFCGoal@@QAEXH@Z 10054ca0 f i globals.obj
 0001:00053cb0       ?setHealth@CTFCBackpack@@QAEXH@Z 10054cb0 f i globals.obj
 0001:00053cc0       ?setPopType@CGA@@QAEXH@Z   10054cc0 f i globals.obj
 0001:00053cd0       ?setTeam@CTFCBackpack@@QAEXH@Z 10054cd0 f i globals.obj
 0001:00053ce0       ?setTeam@CTFCGoal@@QAEXH@Z 10054ce0 f i globals.obj
 0001:00053d00       ?BotChatReply@@YAXPAVCBot@@PADPAUedict_s@@1@Z 10054d00 f   megahal.obj
 0001:00053f50       ?BotHALAddAuxiliaryKeyword@@YAXPAVCBot@@PAUHAL_DICTIONARY@@UHAL_STRING@@@Z 10054f50 f   megahal.obj
 0001:00053fd0       ?BotHALAddKeyword@@YAXPAVCBot@@PAUHAL_DICTIONARY@@UHAL_STRING@@@Z 10054fd0 f   megahal.obj
 0001:00054080       ?BotHALBabble@@YAHPAVCBot@@PAUHAL_DICTIONARY@@1@Z 10055080 f   megahal.obj
 0001:000541f0       ?BotHALBuildReplyDictionary@@YAPAUHAL_DICTIONARY@@PAVCBot@@PAU1@@Z 100551f0 f   megahal.obj
 0001:000544c0       ?BotHALGenerateReply@@YAXPAVCBot@@PAD@Z 100554c0 f   megahal.obj
 0001:000547a0       ?BotHALMakeKeywords@@YAPAUHAL_DICTIONARY@@PAVCBot@@PAU1@@Z 100557a0 f   megahal.obj
 0001:000549b0       ?BotHALSeedReply@@YAHPAVCBot@@PAUHAL_DICTIONARY@@@Z 100559b0 f   megahal.obj
 0001:00054ab0       ?FillStringArea@@YAXPADH0HHH@Z 10055ab0 f   megahal.obj
 0001:00054b40       ?FreeHALBrain@@YAXPAUbot_profile_s@@@Z 10055b40 f   megahal.obj
 0001:00054c40       ?HAL_AddNode@@YAXPAUHAL_NODE@@0H@Z 10055c40 f   megahal.obj
 0001:00054cc0       ?HAL_AddSwap@@YAXPAUHAL_SWAP@@PAD1@Z 10055cc0 f   megahal.obj
 0001:00054de0       ?HAL_AddSymbol@@YAPAUHAL_NODE@@PAU1@G@Z 10055de0 f   megahal.obj
 0001:00054e10       ?HAL_AddWord@@YAGPAUHAL_DICTIONARY@@UHAL_STRING@@@Z 10055e10 f   megahal.obj
 0001:00054f60       ?HAL_BoundaryExists@@YAHPADH@Z 10055f60 f   megahal.obj
 0001:00055070       ?HAL_CompareWords@@YAHUHAL_STRING@@0@Z 10056070 f   megahal.obj
 0001:00055100       ?HAL_DictionariesDiffer@@YAHPAUHAL_DICTIONARY@@0@Z 10056100 f   megahal.obj
 0001:00055160       ?HAL_EmptyDictionary@@YAXPAUHAL_DICTIONARY@@@Z 10056160 f   megahal.obj
 0001:000551b0       ?HAL_FindSymbol@@YAPAUHAL_NODE@@PAU1@H@Z 100561b0 f   megahal.obj
 0001:000551f0       ?HAL_FindSymbolAdd@@YAPAUHAL_NODE@@PAU1@H@Z 100561f0 f   megahal.obj
 0001:00055250       ?HAL_FindWord@@YAGPAUHAL_DICTIONARY@@UHAL_STRING@@@Z 10056250 f   megahal.obj
 0001:00055290       ?HAL_FreeModel@@YAXPAUHAL_MODEL@@@Z 10056290 f   megahal.obj
 0001:00055310       ?HAL_FreeSwap@@YAXPAUHAL_SWAP@@@Z 10056310 f   megahal.obj
 0001:000553c0       ?HAL_FreeTree@@YAXPAUHAL_NODE@@@Z 100563c0 f   megahal.obj
 0001:00055420       ?HAL_InitializeContext@@YAXPAUHAL_MODEL@@@Z 10056420 f   megahal.obj
 0001:00055450       ?HAL_InitializeDictionary@@YAXPAUHAL_DICTIONARY@@@Z 10056450 f   megahal.obj
 0001:00055490       ?HAL_InitializeList@@YAPAUHAL_DICTIONARY@@PAD@Z 10056490 f   megahal.obj
 0001:00055590       ?HAL_InitializeSwap@@YAPAUHAL_SWAP@@PAD@Z 10056590 f   megahal.obj
 0001:00055660       ?HAL_Learn@@YAXPAUHAL_MODEL@@PAUHAL_DICTIONARY@@@Z 10056660 f   megahal.obj
 0001:00055710       ?HAL_LoadDictionary@@YAXPAU_iobuf@@PAUHAL_DICTIONARY@@@Z 10056710 f   megahal.obj
 0001:000557d0       ?HAL_LoadTree@@YAXPAU_iobuf@@PAUHAL_NODE@@@Z 100567d0 f   megahal.obj
 0001:00055880       ?HAL_MakeWords@@YAXPADPAUHAL_DICTIONARY@@@Z 10056880 f   megahal.obj
 0001:00055930       ?HAL_NewDictionary@@YAPAUHAL_DICTIONARY@@XZ 10056930 f   megahal.obj
 0001:00055970       ?HAL_NewModel@@YAPAUHAL_MODEL@@H@Z 10056970 f   megahal.obj
 0001:000559f0       ?HAL_NewNode@@YAPAUHAL_NODE@@XZ 100569f0 f   megahal.obj
 0001:00055a30       ?HAL_NewSwap@@YAPAUHAL_SWAP@@XZ 10056a30 f   megahal.obj
 0001:00055a60       ?HAL_SaveDictionary@@YAXPAU_iobuf@@PAUHAL_DICTIONARY@@@Z 10056a60 f   megahal.obj
 0001:00055ae0       ?HAL_SaveTree@@YAXPAU_iobuf@@PAUHAL_NODE@@@Z 10056ae0 f   megahal.obj
 0001:00055b50       ?HAL_SearchDictionary@@YAHPAUHAL_DICTIONARY@@UHAL_STRING@@PAH@Z 10056b50 f   megahal.obj
 0001:00055c10       ?HAL_SearchNode@@YAHPAUHAL_NODE@@HPAH@Z 10056c10 f   megahal.obj
 0001:00055cb0       ?HAL_UpdateContext@@YAXPAUHAL_MODEL@@H@Z 10056cb0 f   megahal.obj
 0001:00055cf0       ?HAL_UpdateModel@@YAXPAUHAL_MODEL@@H@Z 10056cf0 f   megahal.obj
 0001:00055d30       ?HAL_WordExists@@YAHPAUHAL_DICTIONARY@@UHAL_STRING@@@Z 10056d30 f   megahal.obj
 0001:00055d70       ?HumanizeString@@YAXPAD@Z  10056d70 f   megahal.obj
 0001:00055f00       ?LoadHALBrainForPersonality@@YAHPAUbot_profile_s@@H@Z 10056f00 f   megahal.obj
 0001:000561f0       ?PrepareHALBrainForPersonality@@YAHPAUbot_profile_s@@@Z 100571f0 f   megahal.obj
 0001:00056570       ?RemoveNameTags@@YAXPBDPAD@Z 10057570 f   megahal.obj
 0001:00056750       ?SaveHALBrainForPersonality@@YAXPAUbot_profile_s@@@Z 10057750 f   megahal.obj
 0001:00056840       ?strpos@@YAHPAD0@Z         10057840 f   megahal.obj
 0001:00056850       ??0CBotNetMessage@@QAE@PBDHH@Z 10057850 f   netmessages.obj
 0001:00056890       ?ChooseFromStack@?$dataStack@PAVCBotNetMessage@@@@QAEPAVCBotNetMessage@@XZ 10057890 f i netmessages.obj
 0001:000568a0       ?GetMessageA@CBotNetMessages@@QAEPAVCBotNetMessage@@HPBD@Z 100578a0 f   netmessages.obj
 0001:00056940       ?IsEmpty@?$dataStack@PAVCBotNetMessage@@@@QAEHXZ 10057940 f i netmessages.obj
 0001:00056950       ?IsMessage@CBotNetMessage@@QAEHH@Z 10057950 f   netmessages.obj
 0001:00056990       ?MessageForMod@CBotNetMessage@@QAEHH@Z 10057990 f i netmessages.obj
 0001:000569b0       ?execute@CBotNetMessages@@QAEXHPAXH@Z 100579b0 f   netmessages.obj
 0001:000569e0       ?setName@CBotNetMessage@@QAEXPAD@Z 100579e0 f   netmessages.obj
 0001:00056a00       ??0CPerceptron@@QAE@IPAVITransfer@@M@Z 10057a00 f   perceptron.obj
 0001:00056bc0       ??0CSigmoidTransfer@@QAE@XZ 10057bc0 f i perceptron.obj
 0001:00056bd0       ??0ITransfer@@QAE@XZ       10057bd0 f i perceptron.obj
 0001:00056be0       ?execute@CPerceptron@@QAEMXZ 10057be0 f   perceptron.obj
 0001:00056c50       ?exp@@YAMM@Z               10057c50 f i perceptron.obj
 0001:00056c70       ?fired@CPerceptron@@QAEHXZ 10057c70 f   perceptron.obj
 0001:00056c90       ?getOutput@CPerceptron@@QAEMXZ 10057c90 f   perceptron.obj
 0001:00056ca0       ?input@CPerceptron@@QAEXPAV?$vector@MV?$allocator@M@std@@@std@@@Z 10057ca0 f   perceptron.obj
 0001:00056d30       ?load@CPerceptron@@QAEXPADH@Z 10057d30 f   perceptron.obj
 0001:00056d70       ?load@CPerceptron@@QAEXPAU_iobuf@@@Z 10057d70 f   perceptron.obj
 0001:00056f60       ?randomize@CPerceptron@@QAEXXZ 10057f60 f   perceptron.obj
 0001:00056fc0       ?save@CPerceptron@@QAEXPADH@Z 10057fc0 f   perceptron.obj
 0001:00057000       ?save@CPerceptron@@QAEXPAU_iobuf@@@Z 10058000 f   perceptron.obj
 0001:00057110       ?setWeights@CPerceptron@@QAEXPAVCBotGAValues@@HH@Z 10058110 f   perceptron.obj
 0001:000571b0       ?setWeights@CPerceptron@@QAEXV?$vector@MV?$allocator@M@std@@@std@@@Z 100581b0 f   perceptron.obj
 0001:00057280       ?setWeights@CPerceptron@@QAEXV?$vector@MV?$allocator@M@std@@@std@@HH@Z 10058280 f   perceptron.obj
 0001:00057350       ?train@CPerceptron@@QAEXM@Z 10058350 f   perceptron.obj
 0001:000573d0       ?transfer@CSigmoidTransfer@@UAEMM@Z 100583d0 f   perceptron.obj
 0001:00057410       _expf                      10058410 f i perceptron.obj
 0001:00057430       _GetEngineFunctions        10058430 f   rcbot_meta_api.obj
 0001:000578f0       ??0?$dataNode@VCModInfo@@@@QAE@XZ 100588f0 f i rcbot_meta_api.obj
 0001:00057910       ??0CModInfo@@QAE@PBD0H@Z   10058910 f i rcbot_meta_api.obj
 0001:00057950       ??0CModInfo@@QAE@XZ        10058950 f i rcbot_meta_api.obj
 0001:00057970       ?AddMod@CModInfos@@QAEXPBD0H@Z 10058970 f i rcbot_meta_api.obj
 0001:00057a10       ?Init@CBotGlobals@@QAEXXZ  10058a10 f i rcbot_meta_api.obj
 0001:00057b70       ?Push@?$dataStack@VCModInfo@@@@QAEXVCModInfo@@@Z 10058b70 f i rcbot_meta_api.obj
 0001:00057bd0       ?setDefaults@CBotGlobals@@QAEXXZ 10058bd0 f i rcbot_meta_api.obj
 0001:00057e10       _DllMain@12                10058e10 f   rcbot_meta_api.obj
 0001:00057e30       _GiveFnptrsToDll@8         10058e30 f   rcbot_meta_api.obj
 0001:00057e70       _Meta_Attach               10058e70 f   rcbot_meta_api.obj
 0001:00057f60       _Meta_Detach               10058f60 f   rcbot_meta_api.obj
 0001:00057fc0       _Meta_Query                10058fc0 f   rcbot_meta_api.obj
 0001:00058130       ??$_Allocate@PAVCSomNeuron@@@std@@YAPAPAVCSomNeuron@@IPAPAV1@@Z 10059130 f i som.obj
 0001:00058160       ??$_Destroy_range@U?$_Wrap_alloc@V?$allocator@PAVCSomNeuron@@@std@@@std@@@std@@YAXPAPAVCSomNeuron@@0AAU?$_Wrap_alloc@V?$allocator@PAVCSomNeuron@@@std@@@0@@Z 10059160 f i som.obj
 0001:00058170       ??$_Destroy_range@U?$_Wrap_alloc@V?$allocator@PAVCSomNeuron@@@std@@@std@@@std@@YAXPAPAVCSomNeuron@@0AAU?$_Wrap_alloc@V?$allocator@PAVCSomNeuron@@@std@@@0@U_Scalar_ptr_iterator_tag@0@@Z 10059170 f i som.obj
 0001:00058180       ??$_Ptr_cat@PAVCSomNeuron@@PAV1@@std@@YA?AU_Scalar_ptr_iterator_tag@0@PAPAVCSomNeuron@@0@Z 10059180 f i som.obj
 0001:00058190       ??$_Rechecked@PAPAVCSomNeuron@@PAPAV1@@std@@YAAAPAPAVCSomNeuron@@AAPAPAV1@PAPAV1@@Z 10059190 f i som.obj
 0001:000581a0       ??$_Umove@PAPAVCSomNeuron@@@?$vector@PAVCSomNeuron@@V?$allocator@PAVCSomNeuron@@@std@@@std@@IAEPAPAVCSomNeuron@@PAPAV2@00@Z 100591a0 f i som.obj
 0001:000581d0       ??$_Unchecked@PAPAVCSomNeuron@@@std@@YAPAPAVCSomNeuron@@PAPAV1@@Z 100591d0 f i som.obj
 0001:000581e0       ??$_Uninit_move@PAPAVCSomNeuron@@PAPAV1@U?$_Wrap_alloc@V?$allocator@PAVCSomNeuron@@@std@@@std@@@std@@YAPAPAVCSomNeuron@@PAPAV1@00AAU?$_Wrap_alloc@V?$allocator@PAVCSomNeuron@@@std@@@0@@Z 100591e0 f i som.obj
 0001:00058210       ??$_Uninit_move@PAVCSomNeuron@@PAV1@PAV1@@std@@YAPAPAVCSomNeuron@@PAPAV1@00AAU?$_Wrap_alloc@V?$allocator@PAVCSomNeuron@@@std@@@0@0U_Scalar_ptr_iterator_tag@0@@Z 10059210 f i som.obj
 0001:00058240       ??$_Uninitialized_move@PAPAVCSomNeuron@@PAPAV1@U?$_Wrap_alloc@V?$allocator@PAVCSomNeuron@@@std@@@std@@@std@@YAPAPAVCSomNeuron@@PAPAV1@00AAU?$_Wrap_alloc@V?$allocator@PAVCSomNeuron@@@std@@@0@@Z 10059240 f i som.obj
 0001:00058270       ??$_Val_type@PAPAVCSomNeuron@@@std@@YAPAPAVCSomNeuron@@PAPAV1@@Z 10059270 f i som.obj
 0001:00058280       ??$addressof@PAVCSomNeuron@@@std@@YAPAPAVCSomNeuron@@AAPAV1@@Z 10059280 f i som.obj
 0001:00058290       ??$construct@PAVCSomNeuron@@PAV1@@?$_Wrap_alloc@V?$allocator@PAVCSomNeuron@@@std@@@std@@QAEXPAPAVCSomNeuron@@$$QAPAV2@@Z 10059290 f i som.obj
 0001:000582b0       ??$construct@PAVCSomNeuron@@PAV1@@?$allocator@PAVCSomNeuron@@@std@@QAEXPAPAVCSomNeuron@@$$QAPAV2@@Z 100592b0 f i som.obj
 0001:000582d0       ??$construct@PAVCSomNeuron@@PAV1@@?$allocator_traits@V?$allocator@PAVCSomNeuron@@@std@@@std@@SAXAAV?$allocator@PAVCSomNeuron@@@1@PAPAVCSomNeuron@@$$QAPAV3@@Z 100592d0 f i som.obj
 0001:000582f0       ??$forward@PAVCSomNeuron@@@std@@YA$$QAPAVCSomNeuron@@AAPAV1@@Z 100592f0 f i som.obj
 0001:00058300       ??0?$_Vector_alloc@$0A@U?$_Vec_base_types@PAVCSomNeuron@@V?$allocator@PAVCSomNeuron@@@std@@@std@@@std@@QAE@ABV?$allocator@PAVCSomNeuron@@@1@@Z 10059300 f i som.obj
 0001:00058320       ??0?$_Vector_val@U?$_Simple_types@PAVCSomNeuron@@@std@@@std@@QAE@XZ 10059320 f i som.obj
 0001:00058340       ??0?$_Wrap_alloc@V?$allocator@PAVCSomNeuron@@@std@@@std@@QAE@XZ 10059340 f i som.obj
 0001:00058350       ??0?$allocator@PAVCSomNeuron@@@std@@QAE@XZ 10059350 f i som.obj
 0001:00058360       ??0?$vector@PAVCSomNeuron@@V?$allocator@PAVCSomNeuron@@@std@@@std@@QAE@XZ 10059360 f i som.obj
 0001:00058380       ??0CSom@@QAE@HHH@Z         10059380 f   som.obj
 0001:00058570       ??0CSomNeuron@@QAE@HHH@Z   10059570 f   som.obj
 0001:00058680       ??0CSomNeuron@@QAE@XZ      10059680 f   som.obj
 0001:000586a0       ??1?$vector@PAVCSomNeuron@@V?$allocator@PAVCSomNeuron@@@std@@@std@@QAE@XZ 100596a0 f i som.obj
 0001:000586d0       ??1CSom@@QAE@XZ            100596d0 f   som.obj
 0001:00058700       ??1CSomNeuron@@QAE@XZ      10059700 f   som.obj
 0001:00058730       ??A?$vector@PAVCSomNeuron@@V?$allocator@PAVCSomNeuron@@@std@@@std@@QAEAAPAVCSomNeuron@@I@Z 10059730 f i som.obj
 0001:00058740       ??A?$vector@V?$vector@MV?$allocator@M@std@@@std@@V?$allocator@V?$vector@MV?$allocator@M@std@@@std@@@2@@std@@QAEAAV?$vector@MV?$allocator@M@std@@@1@I@Z 10059740 f i som.obj
 0001:00058760       ?_Destroy@?$vector@PAVCSomNeuron@@V?$allocator@PAVCSomNeuron@@@std@@@std@@IAEXPAPAVCSomNeuron@@0@Z 10059760 f i som.obj
 0001:00058770       ?_Getal@?$_Vector_alloc@$0A@U?$_Vec_base_types@PAVCSomNeuron@@V?$allocator@PAVCSomNeuron@@@std@@@std@@@std@@QBE?AU?$_Wrap_alloc@V?$allocator@PAVCSomNeuron@@@std@@@2@XZ 10059770 f i som.obj
 0001:00058780       ?_Grow_to@?$vector@PAVCSomNeuron@@V?$allocator@PAVCSomNeuron@@@std@@@std@@IBEII@Z 10059780 f i som.obj
 0001:000587c0       ?_Inside@?$vector@PAVCSomNeuron@@V?$allocator@PAVCSomNeuron@@@std@@@std@@IBE_NPBQAVCSomNeuron@@@Z 100597c0 f i som.obj
 0001:000587e0       ?_Orphan_range@?$vector@PAVCSomNeuron@@V?$allocator@PAVCSomNeuron@@@std@@@std@@IBEXPAPAVCSomNeuron@@0@Z 100597e0 f i som.obj
 0001:000587f0       ?_Reallocate@?$vector@PAVCSomNeuron@@V?$allocator@PAVCSomNeuron@@@std@@@std@@IAEXI@Z 100597f0 f i som.obj
 0001:00058870       ?_Reserve@?$vector@PAVCSomNeuron@@V?$allocator@PAVCSomNeuron@@@std@@@std@@IAEXI@Z 10059870 f i som.obj
 0001:000588f0       ?_Tidy@?$vector@PAVCSomNeuron@@V?$allocator@PAVCSomNeuron@@@std@@@std@@IAEXXZ 100598f0 f i som.obj
 0001:00058920       ?_Unused_capacity@?$vector@PAVCSomNeuron@@V?$allocator@PAVCSomNeuron@@@std@@@std@@QBEIXZ 10059920 f i som.obj
 0001:00058930       ?_Xlen@?$vector@PAVCSomNeuron@@V?$allocator@PAVCSomNeuron@@@std@@@std@@IBEXXZ 10059930 f i som.obj
 0001:00058940       ?allocate@?$_Wrap_alloc@V?$allocator@PAVCSomNeuron@@@std@@@std@@QAEPAPAVCSomNeuron@@I@Z 10059940 f i som.obj
 0001:00058980       ?allocate@?$allocator@PAVCSomNeuron@@@std@@QAEPAPAVCSomNeuron@@I@Z 10059980 f i som.obj
 0001:000589c0       ?capacity@?$vector@PAVCSomNeuron@@V?$allocator@PAVCSomNeuron@@@std@@@std@@QBEIXZ 100599c0 f i som.obj
 0001:000589d0       ?clear@?$vector@PAVCSomNeuron@@V?$allocator@PAVCSomNeuron@@@std@@@std@@QAEXXZ 100599d0 f i som.obj
 0001:000589e0       ?deallocate@?$_Wrap_alloc@V?$allocator@PAVCSomNeuron@@@std@@@std@@QAEXPAPAVCSomNeuron@@I@Z 100599e0 f i som.obj
 0001:00058a00       ?deallocate@?$allocator@PAVCSomNeuron@@@std@@QAEXPAPAVCSomNeuron@@I@Z 10059a00 f i som.obj
 0001:00058a20       ?display@CSom@@QAEXXZ      10059a20 f   som.obj
 0001:00058a50       ?displayWeights@CSomNeuron@@QAEXXZ 10059a50 f   som.obj
 0001:00058aa0       ?distance@CSomNeuron@@QAEMPAV?$vector@MV?$allocator@M@std@@@std@@@Z 10059aa0 f   som.obj
 0001:00058b90       ?getBMU@CSom@@QAEPAVCSomNeuron@@PAV?$vector@MV?$allocator@M@std@@@std@@@Z 10059b90 f   som.obj
 0001:00058c00       ?getX@CSomNeuron@@QAEMXZ   10059c00 f i som.obj
 0001:00058c10       ?getY@CSomNeuron@@QAEMXZ   10059c10 f i som.obj
 0001:00058c20       ?input@CSom@@QAEPAVCSomNeuron@@PAV?$vector@V?$vector@MV?$allocator@M@std@@@std@@V?$allocator@V?$vector@MV?$allocator@M@std@@@std@@@2@@std@@@Z 10059c20 f   som.obj
 0001:00058c70       ?inputOne@CSom@@QAEPAVCSomNeuron@@PAV?$vector@MV?$allocator@M@std@@@std@@@Z 10059c70 f   som.obj
 0001:00058cd0       ?max_size@?$_Wrap_alloc@V?$allocator@PAVCSomNeuron@@@std@@@std@@QBEIXZ 10059cd0 f i som.obj
 0001:00058ce0       ?max_size@?$allocator@PAVCSomNeuron@@@std@@QBEIXZ 10059ce0 f i som.obj
 0001:00058cf0       ?max_size@?$allocator_traits@V?$allocator@PAVCSomNeuron@@@std@@@std@@SAIABV?$allocator@PAVCSomNeuron@@@2@@Z 10059cf0 f i som.obj
 0001:00058d00       ?max_size@?$vector@PAVCSomNeuron@@V?$allocator@PAVCSomNeuron@@@std@@@std@@QBEIXZ 10059d00 f i som.obj
 0001:00058d10       ?neighbourDistance@CSomNeuron@@QAEMPAV1@M@Z 10059d10 f   som.obj
 0001:00058d50       ?push_back@?$vector@PAVCSomNeuron@@V?$allocator@PAVCSomNeuron@@@std@@@std@@QAEX$$QAPAVCSomNeuron@@@Z 10059d50 f i som.obj
 0001:00058dc0       ?size@?$vector@PAVCSomNeuron@@V?$allocator@PAVCSomNeuron@@@std@@@std@@QBEIXZ 10059dc0 f i som.obj
 0001:00058dd0       ?size@?$vector@V?$vector@MV?$allocator@M@std@@@std@@V?$allocator@V?$vector@MV?$allocator@M@std@@@std@@@2@@std@@QBEIXZ 10059dd0 f i som.obj
 0001:00058df0       ?update@CSomNeuron@@QAEXPAV?$vector@MV?$allocator@M@std@@@std@@M@Z 10059df0 f   som.obj
 0001:00058e50       ?updateAround@CSom@@QAEXPAV?$vector@MV?$allocator@M@std@@@std@@PAVCSomNeuron@@@Z 10059e50 f   som.obj
 0001:00058f00       ?weights@CSomNeuron@@QAEPAV?$vector@MV?$allocator@M@std@@@std@@XZ 10059f00 f   som.obj
 0001:00058f10       ??0HudText@@QAE@H@Z        10059f10 f i util.obj
 0001:00058f70       ??0Vector2D@@QAE@MM@Z      10059f70 f i util.obj
 0001:00058f90       ??0Vector2D@@QAE@XZ        10059f90 f i util.obj
 0001:00058fa0       ??NVector@@QBE_NABV0@@Z    10059fa0 f i util.obj
 0001:00058fe0       ??PVector@@QBE_NABV0@@Z    10059fe0 f i util.obj
 0001:00059020       ?AbsOrigin@@YA?AVVector@@PAUedict_s@@@Z 1005a020 f   util.obj
 0001:00059080       ?BotFunc_FInViewCone@@YAHPAVVector@@PAUedict_s@@@Z 1005a080 f   util.obj
 0001:00059140       ?BotFunc_FVisible@@YAHABVVector@@PAUedict_s@@@Z 1005a140 f   util.obj
 0001:00059200       ?BotFunc_KickBotFromTeam@@YAXH@Z 1005a200 f   util.obj
 0001:000592f0       ?Ceiling@@YAHM@Z           1005a2f0 f   util.obj
 0001:00059320       ?ClientPrint@@YAXPAUedict_s@@HPBD@Z 1005a320 f   util.obj
 0001:00059370       ?CreateEnt@@YAPAVCBaseEntity@@PADABVVector@@1PAUedict_s@@@Z 1005a370 f   util.obj
 0001:00059410       ?DotProduct@@YAMABVVector2D@@0@Z 1005a410 f i util.obj
 0001:00059430       ?EntityOrigin@@YA?AVVector@@PAUedict_s@@@Z 1005a430 f   util.obj
 0001:00059510       ?ExplosionCreate@@YAXABVVector@@0PAUedict_s@@HH@Z 1005a510 f   util.obj
 0001:00059600       ?FixedSigned16@@YAFMM@Z    1005a600 f   util.obj
 0001:00059630       ?FixedUnsigned16@@YAGMM@Z  1005a630 f   util.obj
 0001:00059660       ?GetGunPosition@@YA?AVVector@@PAUedict_s@@@Z 1005a660 f   util.obj
 0001:000596b0       ?GetMessageID@@YAHPBD@Z    1005a6b0 f   util.obj
 0001:000596d0       ?InitMessage@HudText@@QAEXPBD@Z 1005a6d0 f   util.obj
 0001:00059730       ?Initialise@HudText@@QAEXXZ 1005a730 f   util.obj
 0001:00059780       ?Length@Vector2D@@QBEMXZ   1005a780 f i util.obj
 0001:000597c0       ?MESSAGE_BEGIN@@YAXHHPBMPAUedict_s@@@Z 1005a7c0 f i util.obj
 0001:000597d0       ?Make2D@Vector@@QBE?AVVector2D@@XZ 1005a7d0 f i util.obj
 0001:000597f0       ?NS_GetPlayerLevel@@YAHH@Z 1005a7f0 f   util.obj
 0001:00059890       ?Normalize@Vector2D@@QBE?AV1@XZ 1005a890 f i util.obj
 0001:00059920       ?RadiusDamage@@YAXVVector@@PAUentvars_s@@1MMHH@Z 1005a920 f   util.obj
 0001:00059bd0       ?RoundToNearestInteger@@YAHM@Z 1005abd0 f   util.obj
 0001:00059c00       ?SayMessage@HudText@@QAEXPBDPAUedict_s@@@Z 1005ac00 f   util.obj
 0001:00059c40       ?SayMessage@HudText@@QAEXPBDVVector@@1PAUedict_s@@@Z 1005ac40 f   util.obj
 0001:00059c90       ?UTIL_AcceptablePushableVector@@YAHPAUedict_s@@VVector@@@Z 1005ac90 f   util.obj
 0001:00059cf0       ?UTIL_AngleBetweenOrigin@@YA?AVVector@@PAUentvars_s@@V1@@Z 1005acf0 f   util.obj
 0001:00059de0       ?UTIL_AngleBetweenVectors@@YAMVVector@@0@Z 1005ade0 f   util.obj
 0001:00059ec0       ?UTIL_AngleDiff@@YAMMM@Z   1005aec0 f   util.obj
 0001:00059f20       ?UTIL_AnglesBetweenEdictOrigin@@YAMPAUedict_s@@VVector@@@Z 1005af20 f   util.obj
 0001:0005a050       ?UTIL_BotHudMessage@@YAXPAUedict_s@@ABUhudtextparms_s@@PBD@Z 1005b050 f   util.obj
 0001:0005a250       ?UTIL_BotHudMessageAll@@YAXABUhudtextparms_s@@PBD@Z 1005b250 f   util.obj
 0001:0005a2a0       ?UTIL_BotScreenShake@@YAXABVVector@@MMMM@Z 1005b2a0 f   util.obj
 0001:0005a410       ?UTIL_BotToolTip@@YAXPAUedict_s@@W4eLanguage@@W4eToolTip@@@Z 1005b410 f   util.obj
 0001:0005a590       ?UTIL_BuildFileName@@YAXPAD00@Z 1005b590 f   util.obj
 0001:0005a680       ?UTIL_CanBuildHive@@YAHPAUentvars_s@@@Z 1005b680 f   util.obj
 0001:0005a6b0       ?UTIL_CanEvolveInto@@YAHH@Z 1005b6b0 f   util.obj
 0001:0005a700       ?UTIL_CanStand@@YAHVVector@@PAV1@@Z 1005b700 f   util.obj
 0001:0005a7f0       ?UTIL_CheckTeleEntrance@@YAPAUedict_s@@VVector@@PAU1@1@Z 1005b7f0 f   util.obj
 0001:0005a900       ?UTIL_CheckTeleExit@@YAPAUedict_s@@VVector@@PAU1@1@Z 1005b900 f   util.obj
 0001:0005aa60       ?UTIL_ClassOnTeam@@YAHHH@Z 1005ba60 f   util.obj
 0001:0005aaf0       ?UTIL_CountBuildingsInRange@@YAXVVector@@MPAH111@Z 1005baf0 f   util.obj
 0001:0005ab80       ?UTIL_CountBuiltEntities@@YAHPAD@Z 1005bb80 f   util.obj
 0001:0005abd0       ?UTIL_CountEntities@@YAHPAD@Z 1005bbd0 f   util.obj
 0001:0005ac00       ?UTIL_CountEntitiesInRange@@YAHPADVVector@@M@Z 1005bc00 f   util.obj
 0001:0005aca0       ?UTIL_EntityAnglesToVector2D@@YAMPAUentvars_s@@PBVVector@@@Z 1005bca0 f   util.obj
 0001:0005ad80       ?UTIL_EntityAnglesToVector3D@@YAMPAUentvars_s@@PBVVector@@@Z 1005bd80 f   util.obj
 0001:0005ae90       ?UTIL_EntityDistance2D@@YAMPAUentvars_s@@VVector@@@Z 1005be90 f   util.obj
 0001:0005aee0       ?UTIL_EntityDistance@@YAMPAUentvars_s@@VVector@@@Z 1005bee0 f   util.obj
 0001:0005af40       ?UTIL_EntityHasClassname@@YAHPAUedict_s@@PAD@Z 1005bf40 f   util.obj
 0001:0005afa0       ?UTIL_EntityIsHive@@YAHPAUedict_s@@@Z 1005bfa0 f   util.obj
 0001:0005afc0       ?UTIL_FacingEnt@@YAPAUedict_s@@PAU1@H@Z 1005bfc0 f   util.obj
 0001:0005b0a0       ?UTIL_FindEntityByClassname@@YAPAUedict_s@@PAU1@PBD@Z 1005c0a0 f   util.obj
 0001:0005b0c0       ?UTIL_FindEntityByString@@YAPAUedict_s@@PAU1@PBD1@Z 1005c0c0 f   util.obj
 0001:0005b100       ?UTIL_FindEntityByTarget@@YAPAUedict_s@@PAU1@PBD@Z 1005c100 f   util.obj
 0001:0005b120       ?UTIL_FindEntityByTargetname@@YAPAUedict_s@@PAU1@PBD@Z 1005c120 f   util.obj
 0001:0005b140       ?UTIL_FindEntityInSphere@@YAPAUedict_s@@PAU1@ABVVector@@M@Z 1005c140 f   util.obj
 0001:0005b180       ?UTIL_FindNearestEntity@@YAPAUedict_s@@PAPADHVVector@@MHPAU1@@Z 1005c180 f   util.obj
 0001:0005b2b0       ?UTIL_FindPlayerByTruncName@@YAPAUedict_s@@PBD@Z 1005c2b0 f   util.obj
 0001:0005b3c0       ?UTIL_FindRandomUnusedFuncResource@@YAPAUedict_s@@PAVCBot@@@Z 1005c3c0 f   util.obj
 0001:0005b4e0       ?UTIL_FixAngles@@YAXPAVVector@@@Z 1005c4e0 f   util.obj
 0001:0005b510       ?UTIL_FixFloatAngle@@YAXPAM@Z 1005c510 f   util.obj
 0001:0005b5b0       ?UTIL_FuncResourceIsOccupied@@YAHPAUedict_s@@@Z 1005c5b0 f   util.obj
 0001:0005b700       ?UTIL_FurthestVectorAroundYaw@@YA?AVVector@@PAVCBot@@@Z 1005c700 f   util.obj
 0001:0005ba60       ?UTIL_GetArgFromString@@YAXPAPADPAD@Z 1005ca60 f   util.obj
 0001:0005bab0       ?UTIL_GetArgsFromString@@YAXPAD0000@Z 1005cab0 f   util.obj
 0001:0005baf0       ?UTIL_GetAvoidAngle@@YAMPAUedict_s@@VVector@@@Z 1005caf0 f   util.obj
 0001:0005bc40       ?UTIL_GetBestPushableDistance@@YAMPAUedict_s@@@Z 1005cc40 f   util.obj
 0001:0005bc60       ?UTIL_GetBotIndex@@YAHPBUedict_s@@@Z 1005cc60 f   util.obj
 0001:0005bcb0       ?UTIL_GetBotPointer@@YAPAVCBot@@PBUedict_s@@@Z 1005ccb0 f   util.obj
 0001:0005bcf0       ?UTIL_GetBuildWaypoint@@YAHVVector@@PAV?$dataStack@H@@@Z 1005ccf0 f   util.obj
 0001:0005bee0       ?UTIL_GetClass@@YAHPAUedict_s@@@Z 1005cee0 f   util.obj
 0001:0005bf30       ?UTIL_GetDesiredPushableVector@@YA?AVVector@@V1@PAUedict_s@@@Z 1005cf30 f   util.obj
 0001:0005c060       ?UTIL_GetGroundVector@@YA?AVVector@@PAUedict_s@@@Z 1005d060 f   util.obj
 0001:0005c0f0       ?UTIL_GetNumClients@@YAHH@Z 1005d0f0 f   util.obj
 0001:0005c170       ?UTIL_GetNumHives@@YAHXZ   1005d170 f   util.obj
 0001:0005c1c0       ?UTIL_GetPlayerByPlayerId@@YAPAUedict_s@@H@Z 1005d1c0 f   util.obj
 0001:0005c210       ?UTIL_GetPlayerEnergy@@YAMPAUentvars_s@@@Z 1005d210 f   util.obj
 0001:0005c240       ?UTIL_GetRandomUnbuiltHive@@YAPAUedict_s@@XZ 1005d240 f   util.obj
 0001:0005c360       ?UTIL_GetTeam@@YAHPAUedict_s@@@Z 1005d360 f   util.obj
 0001:0005c4b0       ?UTIL_HostSay@@YAXPAUedict_s@@HPAD@Z 1005d4b0 f   util.obj
 0001:0005c6c0       ?UTIL_IsButton@@YAHPAUedict_s@@@Z 1005d6c0 f   util.obj
 0001:0005c700       ?UTIL_IsFacingEntity@@YAHPAUentvars_s@@0@Z 1005d700 f   util.obj
 0001:0005c800       ?UTIL_IsGrenadeRocket@@YAHPAUedict_s@@@Z 1005d800 f   util.obj
 0001:0005c850       ?UTIL_IsResourceFountainUsed@@YAHPAUedict_s@@@Z 1005d850 f   util.obj
 0001:0005c8d0       ?UTIL_LengthFromVector@@YA?AVVector@@V1@M@Z 1005d8d0 f   util.obj
 0001:0005c960       ?UTIL_LogPrintf@@YAXPADZZ  1005d960 f   util.obj
 0001:0005c990       ?UTIL_MakeVectors@@YAXABVVector@@@Z 1005d990 f   util.obj
 0001:0005c9a0       ?UTIL_NS_GetMaxArmour@@YAHPAUedict_s@@@Z 1005d9a0 f   util.obj
 0001:0005c9d0       ?UTIL_OnGround@@YAHPAUentvars_s@@@Z 1005d9d0 f   util.obj
 0001:0005ca00       ?UTIL_PlaySound@@YAXPAUedict_s@@PBD@Z 1005da00 f   util.obj
 0001:0005ca60       ?UTIL_PlaySoundToAll@@YAXPBD@Z 1005da60 f   util.obj
 0001:0005cae0       ?UTIL_PlayerStandingOnEntity@@YAHPAUedict_s@@H0@Z 1005dae0 f   util.obj
 0001:0005cb70       ?UTIL_PlayersOnTeam@@YAHH@Z 1005db70 f   util.obj
 0001:0005cbf0       ?UTIL_PointContents@@YAHABVVector@@@Z 1005dbf0 f   util.obj
 0001:0005cc00       ?UTIL_SayText@@YAXPBDPAUedict_s@@@Z 1005dc00 f   util.obj
 0001:0005cc50       ?UTIL_SelectItem@@YAXPAUedict_s@@PAD@Z 1005dc50 f   util.obj
 0001:0005cc60       ?UTIL_SentryLevel@@YAHPAUedict_s@@@Z 1005dc60 f   util.obj
 0001:0005ccb0       ?UTIL_SetOrigin@@YAXPAUentvars_s@@ABVVector@@@Z 1005dcb0 f   util.obj
 0001:0005ccd0       ?UTIL_SetSize@@YAXPAUentvars_s@@ABVVector@@1@Z 1005dcd0 f   util.obj
 0001:0005ccf0       ?UTIL_ShowMenu@@YAXPAUedict_s@@HHHPAD@Z 1005dcf0 f   util.obj
 0001:0005cd50       ?UTIL_SpeciesOnTeam@@YAHHH@Z 1005dd50 f   util.obj
 0001:0005cdc0       ?UTIL_TFC_PlayerHasFlag@@YAPAUedict_s@@PAU1@@Z 1005ddc0 f   util.obj
 0001:0005ce00       ?UTIL_TFC_getMaxArmor@@YAHPAUedict_s@@@Z 1005de00 f   util.obj
 0001:0005ce70       ?UTIL_TankUsed@@YAHPAUedict_s@@@Z 1005de70 f   util.obj
 0001:0005cea0       ?UTIL_TraceLine@@YAXABVVector@@0W4IGNORE_MONSTERS@@PAUedict_s@@PAUTraceResult@@@Z 1005dea0 f   util.obj
 0001:0005cec0       ?UTIL_TraceLine@@YAXABVVector@@0W4IGNORE_MONSTERS@@W4IGNORE_GLASS@@PAUedict_s@@PAUTraceResult@@@Z 1005dec0 f   util.obj
 0001:0005cf00       ?UTIL_UpdateSounds@@YAPAUedict_s@@PAUentvars_s@@@Z 1005df00 f   util.obj
 0001:0005d140       ?UTIL_VecToAngles@@YA?AVVector@@ABV1@@Z 1005e140 f   util.obj
 0001:0005d1a0       ?UTIL_YawAngleBetweenOrigin@@YAMPAUentvars_s@@VVector@@@Z 1005e1a0 f   util.obj
 0001:0005d250       ?UTIL_getEntityInFront@@YAPAUedict_s@@PAU1@@Z 1005e250 f   util.obj
 0001:0005d350       ?UTIL_makeTSweapon@@YAHPAUedict_s@@W4eTSWeaponID@@@Z 1005e350 f   util.obj
 0001:0005d4d0       ?_delete@?$dataStack@H@@QAEXXZ 1005e4d0 f i util.obj
 0001:0005d500       ?acos@@YAMM@Z              1005e500 f i util.obj
 0001:0005d520       ?botFolder@CBotGlobals@@QAEPBDXZ 1005e520 f i util.obj
 0001:0005d530       ?edict@CBaseEntity@@QAEPAUedict_s@@XZ 1005e530 f i util.obj
 0001:0005d540       ?strhigh@@YAXPAD@Z         1005e540 f   util.obj
 0001:0005d580       ?strlow@@YAXPAD@Z          1005e580 f   util.obj
 0001:0005d5c0       _acosf                     1005e5c0 f i util.obj
 0001:0005d5e0       ??0CWaypointLocations@@QAE@XZ 1005e5e0 f i waypoint.obj
 0001:0005d600       ??0CWaypointVisibilityTable@@QAE@XZ 1005e600 f i waypoint.obj
 0001:0005d630       ??0WAYPOINT@@QAE@ABV0@@Z   1005e630 f i waypoint.obj
 0001:0005d660       ??0WAYPOINT@@QAE@XZ        1005e660 f i waypoint.obj
 0001:0005d670       ??0WAYPOINTS@@QAE@XZ       1005e670 f i waypoint.obj
 0001:0005d690       ??AWAYPOINTS@@QAEAAVWAYPOINT@@H@Z 1005e690 f   waypoint.obj
 0001:0005d6c0       ?AddWptLocation@CWaypointLocations@@QAEXHPBM@Z 1005e6c0 f   waypoint.obj
 0001:0005d780       ?Clear@CWaypointLocations@@QAEXXZ 1005e780 f i waypoint.obj
 0001:0005d7e0       ?DeleteWptLocation@CWaypointLocations@@QAEXHPBM@Z 1005e7e0 f   waypoint.obj
 0001:0005d880       ?DrawWaypoints@CWaypointLocations@@QAEXPAUedict_s@@AAVVector@@M@Z 1005e880 f   waypoint.obj
 0001:0005da20       ?FillNearbyWaypoints@CWaypointLocations@@QAEXABVVector@@PAV?$dataStack@H@@1@Z 1005ea20 f   waypoint.obj
 0001:0005dad0       ?FillWaypointsInBucket@CWaypointLocations@@QAEXHHHABVVector@@PAV?$dataStack@H@@1@Z 1005ead0 f   waypoint.obj
 0001:0005db40       ?FindNearestCoverWaypointInBucket@CWaypointLocations@@QAEXHHHABVVector@@PAMPAHPAV?$dataStack@H@@H@Z 1005eb40 f   waypoint.obj
 0001:0005dca0       ?FindNearestInBucket@CWaypointLocations@@QAEXHHHABVVector@@PAMPAHHHHHPAV?$dataStack@H@@H@Z 1005eca0 f   waypoint.obj
 0001:0005de50       ?GetCoverWaypoint@CWaypointLocations@@QAEHVVector@@0PAV?$dataStack@H@@@Z 1005ee50 f   waypoint.obj
 0001:0005df50       ?GetVisibilityFromTo@CWaypointVisibilityTable@@QAEHHH@Z 1005ef50 f i waypoint.obj
 0001:0005dfb0       ?Init@CWaypointLocations@@QAEXXZ 1005efb0 f i waypoint.obj
 0001:0005dfc0       ?NearestWaypoint@CWaypointLocations@@QAEHABVVector@@MHHHHPAV?$dataStack@H@@H@Z 1005efc0 f   waypoint.obj
 0001:0005e0a0       ?NearestWaypointToEdict@@YAHPAUedict_s@@HPAV?$dataStack@H@@@Z 1005f0a0 f   waypoint.obj
 0001:0005e0e0       ?NearestWaypointToOrigin@@YAHABVVector@@HPAV?$dataStack@H@@@Z 1005f0e0 f   waypoint.obj
 0001:0005e110       ?PlayerNearVector@@YAPAUedict_s@@VVector@@M@Z 1005f110 f   waypoint.obj
 0001:0005e1f0       ?ReadFromFile@CWaypointVisibilityTable@@QAEHXZ 1005f1f0 f   waypoint.obj
 0001:0005e340       ?SaveToFile@CWaypointVisibilityTable@@QAEHXZ 1005f340 f   waypoint.obj
 0001:0005e440       ?SetVisibilityFromTo@CWaypointVisibilityTable@@QAEXHHH@Z 1005f440 f i waypoint.obj
 0001:0005e490       ?WaypointAdd@@YAXPAVCClient@@@Z 1005f490 f   waypoint.obj
 0001:0005e4e0       ?WaypointAddAiming@@YAXPAUedict_s@@@Z 1005f4e0 f   waypoint.obj
 0001:0005e600       ?WaypointAddOrigin@@YAHVVector@@HPAUedict_s@@HHH@Z 1005f600 f   waypoint.obj
 0001:0005eaa0       ?WaypointAddPath@@YAXFF@Z  1005faa0 f   waypoint.obj
 0001:0005eb40       ?WaypointCreatePath@@YAXPAVCClient@@H@Z 1005fb40 f   waypoint.obj
 0001:0005ec60       ?WaypointDebug@@YAXXZ      1005fc60 f   waypoint.obj
 0001:0005ec90       ?WaypointDelete@@YAXPAVCClient@@@Z 1005fc90 f   waypoint.obj
 0001:0005ed90       ?WaypointDeletePath@@YAXF@Z 1005fd90 f   waypoint.obj
 0001:0005edf0       ?WaypointDeletePath@@YAXFF@Z 1005fdf0 f   waypoint.obj
 0001:0005ee30       ?WaypointDistance@@YAMABVVector@@H@Z 1005fe30 f   waypoint.obj
 0001:0005eeb0       ?WaypointDrawBeam@@YAXPAUedict_s@@VVector@@1HHHHHHH@Z 1005feb0 f   waypoint.obj
 0001:0005efa0       ?WaypointDrawIndex@@YAXPAUedict_s@@H@Z 1005ffa0 f   waypoint.obj
 0001:0005f590       ?WaypointFindNearest@@YAHPAUedict_s@@MH@Z 10060590 f   waypoint.obj
 0001:0005f750       ?WaypointFindNearest@@YAHVVector@@PAUedict_s@@MH@Z 10060750 f   waypoint.obj
 0001:0005f8b0       ?WaypointFindNearestAiming@@YAHVVector@@@Z 100608b0 f   waypoint.obj
 0001:0005f9a0       ?WaypointFindNearestGoal@@YAHVVector@@PAUedict_s@@MHHPAV?$dataStack@H@@@Z 100609a0 f   waypoint.obj
 0001:0005fae0       ?WaypointFindPath@@YAHPAPAUpath@@PAHHH@Z 10060ae0 f   waypoint.obj
 0001:0005fba0       ?WaypointFindRandomGoal@@YAHPAUedict_s@@HHPAV?$dataStack@H@@@Z 10060ba0 f   waypoint.obj
 0001:0005fcb0       ?WaypointFindRandomGoal@@YAHPAUedict_s@@HPAV?$dataStack@H@@@Z 10060cb0 f   waypoint.obj
 0001:0005fdb0       ?WaypointFindRandomGoal@@YAHVVector@@PAUedict_s@@MHHPAV?$dataStack@H@@@Z 10060db0 f   waypoint.obj
 0001:0005ff20       ?WaypointFindReachable@@YAHPAUedict_s@@MH@Z 10060f20 f   waypoint.obj
 0001:00060120       ?WaypointFlags@@YAHH@Z     10061120 f   waypoint.obj
 0001:00060140       ?WaypointFlagsOnLadderOrFly@@YAHH@Z 10061140 f   waypoint.obj
 0001:00060160       ?WaypointFree@@YAXXZ       10061160 f   waypoint.obj
 0001:000601a0       ?WaypointInit@@YAXXZ       100611a0 f   waypoint.obj
 0001:00060250       ?WaypointLoad@@YAHPAUedict_s@@@Z 10061250 f   waypoint.obj
 0001:00060770       ?WaypointOrigin@@YA?AVVector@@H@Z 10061770 f   waypoint.obj
 0001:000607d0       ?WaypointPrintInfo@@YAXPAUedict_s@@@Z 100617d0 f   waypoint.obj
 0001:00060b90       ?WaypointReachable@@YAHVVector@@0H@Z 10061b90 f   waypoint.obj
 0001:00060f80       ?WaypointRemovePath@@YAXPAVCClient@@H@Z 10061f80 f   waypoint.obj
 0001:00061060       ?WaypointSave@@YAHHPAVCWaypointConversion@@@Z 10062060 f   waypoint.obj
 0001:00061370       ?WorkOutVisibilityTable@CWaypointVisibilityTable@@QAEXH@Z 10062370 f   waypoint.obj
 0001:000614e0       ?convert@CWaypointConversion@@QAE?AVWAYPOINT@@PAV2@@Z 100624e0 f i waypoint.obj
 0001:00061580       ?getMaxMins@CWaypointLocations@@QAEXVVector@@AAH11111@Z 10062580 f   waypoint.obj
 0001:00061680       ?getVersion@CWaypointConversion@@QAEHXZ 10062680 f i waypoint.obj
 0001:00061690       ?openWaypoint@CWaypointConversion@@QAEPAU_iobuf@@XZ 10062690 f   waypoint.obj
 0001:000616f8       _FindClose@4               100626f8 f   kernel32:KERNEL32.dll
 0001:000616fe       _FindFirstFileA@8          100626fe f   kernel32:KERNEL32.dll
 0001:00061704       _FindNextFileA@8           10062704 f   kernel32:KERNEL32.dll
 0001:0006170a       _MessageBoxA@16            1006270a f   user32:USER32.dll
 0001:00061710       ??_U@YAPAXI@Z              10062710 f   libcpmt:newaop.obj
 0001:00061719       ??$_Allocate@D@std@@YAPADIPAD@Z 10062719 f i libcpmt:xthrow.obj
 0001:00061740       ??$addressof@D@std@@YAPADAAD@Z 10062740 f i libcpmt:xthrow.obj
 0001:00061748       ??$construct@PADAAPAD@?$_Wrap_alloc@V?$allocator@D@std@@@std@@QAEXPAPADAAPAD@Z 10062748 f i libcpmt:xthrow.obj
 0001:0006175d       ??$construct@PADAAPAD@?$allocator@D@std@@QAEXPAPADAAPAD@Z 1006275d f i libcpmt:xthrow.obj
 0001:00061772       ??$construct@PADAAPAD@?$allocator_traits@V?$allocator@D@std@@@std@@SAXAAV?$allocator@D@1@PAPADAAPAD@Z 10062772 f i libcpmt:xthrow.obj
 0001:00061785       ??$destroy@PAD@?$_Wrap_alloc@V?$allocator@D@std@@@std@@QAEXPAPAD@Z 10062785 f i libcpmt:xthrow.obj
 0001:00061788       ??$destroy@PAD@?$allocator@D@std@@QAEXPAPAD@Z 10062788 f i libcpmt:xthrow.obj
 0001:0006178b       ??$destroy@PAD@?$allocator_traits@V?$allocator@D@std@@@std@@SAXAAV?$allocator@D@1@PAPAD@Z 1006278b f i libcpmt:xthrow.obj
 0001:0006178c       ??0?$_String_alloc@$0A@U?$_String_base_types@DV?$allocator@D@std@@@std@@@std@@QAE@ABV?$allocator@D@1@@Z 1006278c f i libcpmt:xthrow.obj
 0001:00061799       ??0?$_String_val@U?$_Simple_types@D@std@@@std@@QAE@XZ 10062799 f i libcpmt:xthrow.obj
 0001:000617a4       ??0?$_Wrap_alloc@V?$allocator@D@std@@@std@@QAE@XZ 100627a4 f i libcpmt:xthrow.obj
 0001:000617a7       ??0?$allocator@D@std@@QAE@XZ 100627a7 f i libcpmt:xthrow.obj
 0001:000617aa       ??0?$basic_string@DU?$char_traits@D@std@@V?$allocator@D@2@@std@@QAE@PBD@Z 100627aa f i libcpmt:xthrow.obj
 0001:000617d9       ??0_Generic_error_category@std@@QAE@XZ 100627d9 f i libcpmt:xthrow.obj
 0001:000617e2       ??0_Ignore@std@@QAE@XZ     100627e2 f i libcpmt:xthrow.obj
 0001:000617e5       ??0_Iostream_error_category@std@@QAE@XZ 100627e5 f i libcpmt:xthrow.obj
 0001:000617ee       ??0_System_error_category@std@@QAE@XZ 100627ee f i libcpmt:xthrow.obj
 0001:000617f7       ??0bad_alloc@std@@QAE@ABV01@@Z 100627f7 f i libcpmt:xthrow.obj
 0001:00061812       ??0bad_alloc@std@@QAE@XZ   10062812 f i libcpmt:xthrow.obj
 0001:00061838       ??0bad_function_call@std@@QAE@ABV01@@Z 10062838 f i libcpmt:xthrow.obj
 0001:00061853       ??0bad_function_call@std@@QAE@PBD@Z 10062853 f i libcpmt:xthrow.obj
 0001:00061867       ??0error_category@std@@QAE@XZ 10062867 f i libcpmt:xthrow.obj
 0001:00061870       ??0error_condition@std@@QAE@HABVerror_category@1@@Z 10062870 f i libcpmt:xthrow.obj
 0001:00061884       ??0id@locale@std@@QAE@I@Z  10062884 f i libcpmt:xthrow.obj
 0001:00061892       ??0invalid_argument@std@@QAE@ABV01@@Z 10062892 f i libcpmt:xthrow.obj
 0001:000618ad       ??0invalid_argument@std@@QAE@PBD@Z 100628ad f i libcpmt:xthrow.obj
 0001:000618cf       ??0length_error@std@@QAE@ABV01@@Z 100628cf f i libcpmt:xthrow.obj
 0001:000618ea       ??0length_error@std@@QAE@PBD@Z 100628ea f i libcpmt:xthrow.obj
 0001:0006190c       ??0logic_error@std@@QAE@ABV01@@Z 1006290c f i libcpmt:xthrow.obj
 0001:00061927       ??0logic_error@std@@QAE@PBD@Z 10062927 f i libcpmt:xthrow.obj
 0001:00061943       ??0out_of_range@std@@QAE@ABV01@@Z 10062943 f i libcpmt:xthrow.obj
 0001:0006195e       ??0out_of_range@std@@QAE@PBD@Z 1006295e f i libcpmt:xthrow.obj
 0001:00061980       ??0overflow_error@std@@QAE@ABV01@@Z 10062980 f i libcpmt:xthrow.obj
 0001:0006199b       ??0overflow_error@std@@QAE@PBD@Z 1006299b f i libcpmt:xthrow.obj
 0001:000619bd       ??0regex_error@std@@QAE@ABV01@@Z 100629bd f i libcpmt:xthrow.obj
 0001:000619e1       ??0regex_error@std@@QAE@W4error_type@regex_constants@1@@Z 100629e1 f i libcpmt:xthrow.obj
 0001:00061a11       ??0runtime_error@std@@QAE@ABV01@@Z 10062a11 f i libcpmt:xthrow.obj
 0001:00061a2c       ??0runtime_error@std@@QAE@PBD@Z 10062a2c f i libcpmt:xthrow.obj
 0001:00061a48       ??1?$basic_string@DU?$char_traits@D@std@@V?$allocator@D@2@@std@@QAE@XZ 10062a48 f i libcpmt:xthrow.obj
 0001:00061a52       ??1_Generic_error_category@std@@UAE@XZ 10062a52 f i libcpmt:xthrow.obj
 0001:00061a59       ??1_Iostream_error_category@std@@UAE@XZ 10062a59 f i libcpmt:xthrow.obj
 0001:00061a60       ??1_System_error_category@std@@UAE@XZ 10062a60 f i libcpmt:xthrow.obj
 0001:00061a67       ??1bad_alloc@std@@UAE@XZ   10062a67 f i libcpmt:xthrow.obj
 0001:00061a72       ??1bad_function_call@std@@UAE@XZ 10062a72 f i libcpmt:xthrow.obj
 0001:00061a77       ??1error_category@std@@UAE@XZ 10062a77 f i libcpmt:xthrow.obj
 0001:00061a7e       ??1invalid_argument@std@@UAE@XZ 10062a7e f i libcpmt:xthrow.obj
 0001:00061a83       ??1length_error@std@@UAE@XZ 10062a83 f i libcpmt:xthrow.obj
 0001:00061a88       ??1logic_error@std@@UAE@XZ 10062a88 f i libcpmt:xthrow.obj
 0001:00061a8d       ??1out_of_range@std@@UAE@XZ 10062a8d f i libcpmt:xthrow.obj
 0001:00061a92       ??1overflow_error@std@@UAE@XZ 10062a92 f i libcpmt:xthrow.obj
 0001:00061a97       ??1regex_error@std@@UAE@XZ 10062a97 f i libcpmt:xthrow.obj
 0001:00061a9c       ??1runtime_error@std@@UAE@XZ 10062a9c f i libcpmt:xthrow.obj
 0001:00061aa1       ??8error_category@std@@QBE_NABV01@@Z 10062aa1 f i libcpmt:xthrow.obj
 0001:00061ab0       ??8error_condition@std@@QBE_NABV01@@Z 10062ab0 f i libcpmt:xthrow.obj
 0001:00061acf       ??_G_Generic_error_category@std@@UAEPAXI@Z 10062acf f i libcpmt:xthrow.obj
 0001:00061acf       ??_E_Generic_error_category@std@@UAEPAXI@Z 10062acf f i libcpmt:xthrow.obj
 0001:00061aef       ??_G_Iostream_error_category@std@@UAEPAXI@Z 10062aef f i libcpmt:xthrow.obj
 0001:00061aef       ??_E_Iostream_error_category@std@@UAEPAXI@Z 10062aef f i libcpmt:xthrow.obj
 0001:00061b0f       ??_E_System_error_category@std@@UAEPAXI@Z 10062b0f f i libcpmt:xthrow.obj
 0001:00061b0f       ??_G_System_error_category@std@@UAEPAXI@Z 10062b0f f i libcpmt:xthrow.obj
 0001:00061b2f       ??_Gbad_alloc@std@@UAEPAXI@Z 10062b2f f i libcpmt:xthrow.obj
 0001:00061b2f       ??_Ebad_alloc@std@@UAEPAXI@Z 10062b2f f i libcpmt:xthrow.obj
 0001:00061b54       ??_Ebad_function_call@std@@UAEPAXI@Z 10062b54 f i libcpmt:xthrow.obj
 0001:00061b54       ??_Gbad_function_call@std@@UAEPAXI@Z 10062b54 f i libcpmt:xthrow.obj
 0001:00061b73       ??_Eerror_category@std@@UAEPAXI@Z 10062b73 f i libcpmt:xthrow.obj
 0001:00061b73       ??_Gerror_category@std@@UAEPAXI@Z 10062b73 f i libcpmt:xthrow.obj
 0001:00061b93       ??_Einvalid_argument@std@@UAEPAXI@Z 10062b93 f i libcpmt:xthrow.obj
 0001:00061b93       ??_Ginvalid_argument@std@@UAEPAXI@Z 10062b93 f i libcpmt:xthrow.obj
 0001:00061bb2       ??_Elength_error@std@@UAEPAXI@Z 10062bb2 f i libcpmt:xthrow.obj
 0001:00061bb2       ??_Glength_error@std@@UAEPAXI@Z 10062bb2 f i libcpmt:xthrow.obj
 0001:00061bd1       ??_Glogic_error@std@@UAEPAXI@Z 10062bd1 f i libcpmt:xthrow.obj
 0001:00061bd1       ??_Elogic_error@std@@UAEPAXI@Z 10062bd1 f i libcpmt:xthrow.obj
 0001:00061bf0       ??_Gout_of_range@std@@UAEPAXI@Z 10062bf0 f i libcpmt:xthrow.obj
 0001:00061bf0       ??_Eout_of_range@std@@UAEPAXI@Z 10062bf0 f i libcpmt:xthrow.obj
 0001:00061c0f       ??_Eoverflow_error@std@@UAEPAXI@Z 10062c0f f i libcpmt:xthrow.obj
 0001:00061c0f       ??_Goverflow_error@std@@UAEPAXI@Z 10062c0f f i libcpmt:xthrow.obj
 0001:00061c2e       ??_Gregex_error@std@@UAEPAXI@Z 10062c2e f i libcpmt:xthrow.obj
 0001:00061c2e       ??_Eregex_error@std@@UAEPAXI@Z 10062c2e f i libcpmt:xthrow.obj
 0001:00061c4d       ??_Eruntime_error@std@@UAEPAXI@Z 10062c4d f i libcpmt:xthrow.obj
 0001:00061c4d       ??_Gruntime_error@std@@UAEPAXI@Z 10062c4d f i libcpmt:xthrow.obj
 0001:00061c6c       ?_Copy@?$basic_string@DU?$char_traits@D@std@@V?$allocator@D@2@@std@@QAEXII@Z 10062c6c f i libcpmt:xthrow.obj
 0001:00061d63       ?_Eos@?$basic_string@DU?$char_traits@D@std@@V?$allocator@D@2@@std@@QAEXI@Z 10062d63 f i libcpmt:xthrow.obj
 0001:00061d7c       ?_Getal@?$_String_alloc@$0A@U?$_String_base_types@DV?$allocator@D@std@@@std@@@std@@QBE?AU?$_Wrap_alloc@V?$allocator@D@std@@@2@XZ 10062d7c f i libcpmt:xthrow.obj
 0001:00061d86       ?_Grow@?$basic_string@DU?$char_traits@D@std@@V?$allocator@D@2@@std@@QAE_NI_N@Z 10062d86 f i libcpmt:xthrow.obj
 0001:00061dea       ?_Inside@?$basic_string@DU?$char_traits@D@std@@V?$allocator@D@2@@std@@QAE_NPBD@Z 10062dea f i libcpmt:xthrow.obj
 0001:00061e25       ?_Myptr@?$_String_val@U?$_Simple_types@D@std@@@std@@QAEPADXZ 10062e25 f i libcpmt:xthrow.obj
 0001:00061e30       ?_Myptr@?$_String_val@U?$_Simple_types@D@std@@@std@@QBEPBDXZ 10062e30 f i libcpmt:xthrow.obj
 0001:00061e3b       ?_Stringify@regex_error@std@@CAPBDW4error_type@regex_constants@2@@Z 10062e3b f i libcpmt:xthrow.obj
 0001:00061efb       ?_Tidy@?$basic_string@DU?$char_traits@D@std@@V?$allocator@D@2@@std@@QAEX_NI@Z 10062efb f i libcpmt:xthrow.obj
 0001:00061f3f       ?_Xbad_alloc@std@@YAXXZ    10062f3f f   libcpmt:xthrow.obj
 0001:00061f70       ?_Xbad_function_call@std@@YAXXZ 10062f70 f   libcpmt:xthrow.obj
 0001:00061f94       ?_Xinvalid_argument@std@@YAXPBD@Z 10062f94 f   libcpmt:xthrow.obj
 0001:00061fc2       ?_Xlen@?$basic_string@DU?$char_traits@D@std@@V?$allocator@D@2@@std@@QBEXXZ 10062fc2 f i libcpmt:xthrow.obj
 0001:00061fcd       ?_Xlength_error@std@@YAXPBD@Z 10062fcd f   libcpmt:xthrow.obj
 0001:00061ffb       ?_Xout_of_range@std@@YAXPBD@Z 10062ffb f   libcpmt:xthrow.obj
 0001:00062029       ?_Xoverflow_error@std@@YAXPBD@Z 10063029 f   libcpmt:xthrow.obj
 0001:00062057       ?_Xran@?$basic_string@DU?$char_traits@D@std@@V?$allocator@D@2@@std@@QBEXXZ 10063057 f i libcpmt:xthrow.obj
 0001:00062062       ?_Xregex_error@std@@YAXW4error_type@regex_constants@1@@Z 10063062 f   libcpmt:xthrow.obj
 0001:00062082       ?_Xruntime_error@std@@YAXPBD@Z 10063082 f   libcpmt:xthrow.obj
 0001:000620b0       ?allocate@?$_Wrap_alloc@V?$allocator@D@std@@@std@@QAEPADI@Z 100630b0 f i libcpmt:xthrow.obj
 0001:000620c3       ?allocate@?$allocator@D@std@@QAEPADI@Z 100630c3 f i libcpmt:xthrow.obj
 0001:000620d6       ?assign@?$basic_string@DU?$char_traits@D@std@@V?$allocator@D@2@@std@@QAEAAV12@ABV12@II@Z 100630d6 f i libcpmt:xthrow.obj
 0001:0006216b       ?assign@?$basic_string@DU?$char_traits@D@std@@V?$allocator@D@2@@std@@QAEAAV12@PBD@Z 1006316b f i libcpmt:xthrow.obj
 0001:0006218a       ?assign@?$basic_string@DU?$char_traits@D@std@@V?$allocator@D@2@@std@@QAEAAV12@PBDI@Z 1006318a f i libcpmt:xthrow.obj
 0001:00062203       ?assign@?$char_traits@D@std@@SAXAADABD@Z 10063203 f i libcpmt:xthrow.obj
 0001:00062212       ?category@error_code@std@@QBEABVerror_category@2@XZ 10063212 f i libcpmt:xthrow.obj
 0001:00062216       ?category@error_condition@std@@QBEABVerror_category@2@XZ 10063216 f i libcpmt:xthrow.obj
 0001:0006221a       ?copy@?$char_traits@D@std@@SAPADPADPBDI@Z 1006321a f i libcpmt:xthrow.obj
 0001:0006222e       ?deallocate@?$_Wrap_alloc@V?$allocator@D@std@@@std@@QAEXPADI@Z 1006322e f i libcpmt:xthrow.obj
 0001:0006223e       ?deallocate@?$allocator@D@std@@QAEXPADI@Z 1006323e f i libcpmt:xthrow.obj
 0001:0006224e       ?default_error_condition@_System_error_category@std@@UBE?AVerror_condition@2@H@Z 1006324e f i libcpmt:xthrow.obj
 0001:0006227a       ?default_error_condition@error_category@std@@UBE?AVerror_condition@2@H@Z 1006327a f i libcpmt:xthrow.obj
 0001:0006228c       ?equivalent@error_category@std@@UBE_NABVerror_code@2@H@Z 1006328c f i libcpmt:xthrow.obj
 0001:000622a9       ?equivalent@error_category@std@@UBE_NHABVerror_condition@2@@Z 100632a9 f i libcpmt:xthrow.obj
 0001:000622ca       ?erase@?$basic_string@DU?$char_traits@D@std@@V?$allocator@D@2@@std@@QAEAAV12@I@Z 100632ca f i libcpmt:xthrow.obj
 0001:000622f9       ?erase@?$basic_string@DU?$char_traits@D@std@@V?$allocator@D@2@@std@@QAEAAV12@II@Z 100632f9 f i libcpmt:xthrow.obj
 0001:0006237b       ?generic_category@std@@YAABVerror_category@1@XZ 1006337b f i libcpmt:xthrow.obj
 0001:00062381       ?length@?$char_traits@D@std@@SAIPBD@Z 10063381 f i libcpmt:xthrow.obj
 0001:00062399       ?max_size@?$_Wrap_alloc@V?$allocator@D@std@@@std@@QBEIXZ 10063399 f i libcpmt:xthrow.obj
 0001:0006239d       ?max_size@?$allocator@D@std@@QBEIXZ 1006339d f i libcpmt:xthrow.obj
 0001:000623a1       ?max_size@?$allocator_traits@V?$allocator@D@std@@@std@@SAIABV?$allocator@D@2@@Z 100633a1 f i libcpmt:xthrow.obj
 0001:000623a5       ?max_size@?$basic_string@DU?$char_traits@D@std@@V?$allocator@D@2@@std@@QBEIXZ 100633a5 f i libcpmt:xthrow.obj
 0001:000623a9       ?message@_Generic_error_category@std@@UBE?AV?$basic_string@DU?$char_traits@D@std@@V?$allocator@D@2@@2@H@Z 100633a9 f i libcpmt:xthrow.obj
 0001:000623d5       ?message@_Iostream_error_category@std@@UBE?AV?$basic_string@DU?$char_traits@D@std@@V?$allocator@D@2@@2@H@Z 100633d5 f i libcpmt:xthrow.obj
 0001:00062406       ?message@_System_error_category@std@@UBE?AV?$basic_string@DU?$char_traits@D@std@@V?$allocator@D@2@@2@H@Z 10063406 f i libcpmt:xthrow.obj
 0001:00062432       ?move@?$char_traits@D@std@@SAPADPADPBDI@Z 10063432 f i libcpmt:xthrow.obj
 0001:00062446       ?name@_Generic_error_category@std@@UBEPBDXZ 10063446 f i libcpmt:xthrow.obj
 0001:0006244c       ?name@_Iostream_error_category@std@@UBEPBDXZ 1006344c f i libcpmt:xthrow.obj
 0001:00062452       ?name@_System_error_category@std@@UBEPBDXZ 10063452 f i libcpmt:xthrow.obj
 0001:00062458       ?size@?$basic_string@DU?$char_traits@D@std@@V?$allocator@D@2@@std@@QBEIXZ 10063458 f i libcpmt:xthrow.obj
 0001:0006245c       ?system_category@std@@YAABVerror_category@1@XZ 1006345c f i libcpmt:xthrow.obj
 0001:00062462       ?value@error_code@std@@QBEHXZ 10063462 f i libcpmt:xthrow.obj
 0001:00062465       ?value@error_condition@std@@QBEHXZ 10063465 f i libcpmt:xthrow.obj
 0001:00062468       ?what@bad_function_call@std@@UBEPBDXZ 10063468 f i libcpmt:xthrow.obj
 0001:0006246e       ?_Syserror_map@std@@YAPBDH@Z 1006346e f   libcpmt:syserror.obj
 0001:00062498       ?_Winerror_map@std@@YAPBDH@Z 10063498 f   libcpmt:syserror.obj
 0001:000624c2       ??3@YAXPAX@Z               100634c2 f   LIBCMT:delete.obj
 0001:000624c7       __fread_nolock             100634c7 f   LIBCMT:fread.obj
 0001:000624e2       __fread_nolock_s           100634e2 f   LIBCMT:fread.obj
 0001:000626a7       _fread                     100636a7 f   LIBCMT:fread.obj
 0001:000626c2       _fread_s                   100636c2 f   LIBCMT:fread.obj
 0001:00062753       __fwrite_nolock            10063753 f   LIBCMT:fwrite.obj
 0001:000628ac       _fwrite                    100638ac f   LIBCMT:fwrite.obj
 0001:0006292e       __scprintf                 1006392e f   LIBCMT:sprintf.obj
 0001:00062941       __scprintf_l               10063941 f   LIBCMT:sprintf.obj
 0001:00062958       __scprintf_p               10063958 f   LIBCMT:sprintf.obj
 0001:0006296b       __scprintf_p_l             1006396b f   LIBCMT:sprintf.obj
 0001:00062982       __snprintf_s               10063982 f   LIBCMT:sprintf.obj
 0001:000629a1       __snprintf_s_l             100639a1 f   LIBCMT:sprintf.obj
 0001:000629c1       __sprintf_l                100639c1 f   LIBCMT:sprintf.obj
 0001:000629db       __sprintf_p                100639db f   LIBCMT:sprintf.obj
 0001:000629f7       __sprintf_p_l              100639f7 f   LIBCMT:sprintf.obj
 0001:00062a14       __sprintf_s_l              10063a14 f   LIBCMT:sprintf.obj
 0001:00062a31       _sprintf                   10063a31 f   LIBCMT:sprintf.obj
 0001:00062ab5       _sprintf_s                 10063ab5 f   LIBCMT:sprintf.obj
 0001:00062ad1       __cabs                     10063ad1 f   LIBCMT:hypot.obj
 0001:00062af0       __hypot                    10063af0 f   LIBCMT:hypot.obj
 0001:00062d5b       @__security_check_cookie@4 10063d5b f   LIBCMT:secchk.obj
 0001:00062d70       _memcpy                    10063d70 f   LIBCMT:memcpy.obj
 0001:000633c0       _memset                    100643c0 f   LIBCMT:memset.obj
 0001:00063450       __fpmath                   10064450 f   LIBCMT:fpinit.obj
 0001:00063467       ___setfflag                10064467 f   LIBCMT:fpinit.obj
 0001:0006347a       __cfltcvt_init             1006447a f   LIBCMT:fpinit.obj
 0001:000634da       __get_purecall_handler     100644da f   LIBCMT:purevirt.obj
 0001:000634e7       __purecall                 100644e7 f   LIBCMT:purevirt.obj
 0001:00063509       __set_purecall_handler     10064509 f   LIBCMT:purevirt.obj
 0001:0006352e       ??2@YAPAXI@Z               1006452e f   LIBCMT:new.obj
 0001:00063580       _memmove                   10064580 f   LIBCMT:memmove.obj
 0001:00063bd0       _strncmp                   10064bd0 f   LIBCMT:strncmp.obj
 0001:00063c50       _strncpy                   10064c50 f   LIBCMT:strncpy.obj
 0001:00063d80       _strstr                    10064d80 f   LIBCMT:strstr.obj
 0001:00063fe3       __fclose_nolock            10064fe3 f   LIBCMT:fclose.obj
 0001:0006404f       _fclose                    1006504f f   LIBCMT:fclose.obj
 0001:000640c6       _feof                      100650c6 f   LIBCMT:feoferr.obj
 0001:000640ec       _ferror                    100650ec f   LIBCMT:feoferr.obj
 0001:00064112       __fsopen                   10065112 f   LIBCMT:fopen.obj
 0001:000641d6       _fopen                     100651d6 f   LIBCMT:fopen.obj
 0001:000641eb       _fopen_s                   100651eb f   LIBCMT:fopen.obj
 0001:00064230       __fprintf_l                10065230 f   LIBCMT:fprintf.obj
 0001:0006424a       __fprintf_p                1006524a f   LIBCMT:fprintf.obj
 0001:00064263       __fprintf_p_l              10065263 f   LIBCMT:fprintf.obj
 0001:0006427d       __fprintf_s_l              1006527d f   LIBCMT:fprintf.obj
 0001:00064297       _fprintf                   10065297 f   LIBCMT:fprintf.obj
 0001:000643a9       _fprintf_s                 100653a9 f   LIBCMT:fprintf.obj
 0001:000643c2       __get_printf_count_output  100653c2 f   LIBCMT:printf.obj
 0001:000643d7       __printf_l                 100653d7 f   LIBCMT:printf.obj
 0001:000643ee       __printf_p                 100653ee f   LIBCMT:printf.obj
 0001:00064404       __printf_p_l               10065404 f   LIBCMT:printf.obj
 0001:0006441b       __printf_s_l               1006541b f   LIBCMT:printf.obj
 0001:00064432       __set_printf_count_output  10065432 f   LIBCMT:printf.obj
 0001:0006445a       _printf                    1006545a f   LIBCMT:printf.obj
 0001:00064509       _printf_s                  10065509 f   LIBCMT:printf.obj
 0001:0006451f       __sscanf_l                 1006551f f   LIBCMT:sscanf.obj
 0001:0006453e       __sscanf_s_l               1006553e f   LIBCMT:sscanf.obj
 0001:0006455d       _sscanf                    1006555d f   LIBCMT:sscanf.obj
 0001:0006457b       _sscanf_s                  1006557b f   LIBCMT:sscanf.obj
 0001:0006460c       _vsscanf                   1006560c f   LIBCMT:sscanf.obj
 0001:00064629       _vsscanf_s                 10065629 f   LIBCMT:sscanf.obj
 0001:00064646       __vscprintf                10065646 f   LIBCMT:vsprintf.obj
 0001:00064660       __vscprintf_helper         10065660 f   LIBCMT:vsprintf.obj
 0001:000646bc       __vscprintf_l              100656bc f   LIBCMT:vsprintf.obj
 0001:000646d7       __vscprintf_p              100656d7 f   LIBCMT:vsprintf.obj
 0001:000646f1       __vscprintf_p_l            100656f1 f   LIBCMT:vsprintf.obj
 0001:0006470c       __vsprintf_l               1006570c f   LIBCMT:vsprintf.obj
 0001:00064790       _vsprintf                  10065790 f   LIBCMT:vsprintf.obj
 0001:000647a8       ___copy_path_to_wide_string 100657a8 f   LIBCMT:crt0dat.obj
 0001:0006485a       ___copy_to_char            1006585a f   LIBCMT:crt0dat.obj
 0001:0006490f       ___crtCorExitProcess       1006590f f   LIBCMT:crt0dat.obj
 0001:00064943       ___crtExitProcess          10065943 f   LIBCMT:crt0dat.obj
 0001:00064959       ___freeCrtMemory           10065959 f   LIBCMT:crt0dat.obj
 0001:00064a66       __amsg_exit                10065a66 f   LIBCMT:crt0dat.obj
 0001:00064a82       __c_exit                   10065a82 f   LIBCMT:crt0dat.obj
 0001:00064a91       __cexit                    10065a91 f   LIBCMT:crt0dat.obj
 0001:00064aa0       __cinit                    10065aa0 f   LIBCMT:crt0dat.obj
 0001:00064b24       __exit                     10065b24 f   LIBCMT:crt0dat.obj
 0001:00064b38       __exit_app                 10065b38 f   LIBCMT:crt0dat.obj
 0001:00064b46       __get_pgmptr               10065b46 f   LIBCMT:crt0dat.obj
 0001:00064b75       __get_wpgmptr              10065b75 f   LIBCMT:crt0dat.obj
 0001:00064ba4       __init_pointers            10065ba4 f   LIBCMT:crt0dat.obj
 0001:00064c12       __initterm_e               10065c12 f   LIBCMT:crt0dat.obj
 0001:00064c34       __lockexit                 10065c34 f   LIBCMT:crt0dat.obj
 0001:00064c3d       __unlockexit               10065c3d f   LIBCMT:crt0dat.obj
 0001:00064d75       _exit                      10065d75 f   LIBCMT:crt0dat.obj
 0001:00064d89       _free                      10065d89 f   LIBCMT:free.obj
 0001:00064dc1       __heap_alloc               10065dc1 f i LIBCMT:malloc.obj
 0001:00064dfe       _malloc                    10065dfe f   LIBCMT:malloc.obj
 0001:00064e90       ??0_LocaleUpdate@@QAE@PAUlocaleinfo_struct@@@Z 10065e90 f i LIBCMT:strftime.obj
 0001:00064f18       ??1_LocaleUpdate@@QAE@XZ   10065f18 f i LIBCMT:strftime.obj
 0001:00064f26       ?GetLocaleT@_LocaleUpdate@@QAEPAUlocaleinfo_struct@@XZ 10065f26 f i LIBCMT:strftime.obj
 0001:00064f29       __Getdays                  10065f29 f   LIBCMT:strftime.obj
 0001:00064f32       __Getdays_l                10065f32 f   LIBCMT:strftime.obj
 0001:00065019       __Getmonths                10066019 f   LIBCMT:strftime.obj
 0001:00065022       __Getmonths_l              10066022 f   LIBCMT:strftime.obj
 0001:00065115       __Gettnames                10066115 f   LIBCMT:strftime.obj
 0001:0006511e       __Strftime                 1006611e f   LIBCMT:strftime.obj
 0001:0006513c       __Strftime_l               1006613c f   LIBCMT:strftime.obj
 0001:0006525f       __invoke_watson_if_error   1006625f f i LIBCMT:strftime.obj
 0001:0006527f       __strftime_l               1006627f f   LIBCMT:strftime.obj
 0001:0006529d       _strftime                  1006629d f   LIBCMT:strftime.obj
 0001:000652ba       __localtime64              100662ba f   LIBCMT:loctim64.obj
 0001:000652df       __localtime64_s            100662df f   LIBCMT:loctim64.obj
 0001:00065559       __time64                   10066559 f   LIBCMT:time64.obj
 0001:000655aa       __CxxThrowException@8      100665aa f   LIBCMT:throw.obj
 0001:000656dd       ?_CallCatchBlock2@@YAPAXPAUEHRegistrationNode@@PBU_s_FuncInfo@@PAXHK@Z 100666dd f   LIBCMT:_trnsctrl_.obj
 0001:0006573d       ?_CallMemberFunction0@@YGXPAX0@Z 1006673d f   LIBCMT:_trnsctrl_.obj
 0001:00065744       ?_CallMemberFunction1@@YGXPAX00@Z 10066744 f   LIBCMT:_trnsctrl_.obj
 0001:0006574b       ?_CallMemberFunction2@@YGXPAX00H@Z 1006674b f   LIBCMT:_trnsctrl_.obj
 0001:00065752       ?_CallSETranslator@@YAHPAUEHExceptionRecord@@PAUEHRegistrationNode@@PAX2PBU_s_FuncInfo@@H1@Z 10066752 f   LIBCMT:_trnsctrl_.obj
 0001:00065829       ?_GetRangeOfTrysToCheck@@YAPBU_s_TryBlockMapEntry@@PBU_s_FuncInfo@@HHPAI1@Z 10066829 f   LIBCMT:_trnsctrl_.obj
 0001:000658a7       ?_JumpToContinuation@@YGXPAXPAUEHRegistrationNode@@@Z 100668a7 f   LIBCMT:_trnsctrl_.obj
 0001:000658d9       ?_UnwindNestedFrames@@YGXPAUEHRegistrationNode@@PAUEHExceptionRecord@@@Z 100668d9 f   LIBCMT:_trnsctrl_.obj
 0001:0006592e       __CreateFrameInfo          1006692e f   LIBCMT:_trnsctrl_.obj
 0001:00065958       __FindAndUnlinkFrame       10066958 f   LIBCMT:_trnsctrl_.obj
 0001:000659a8       __IsExceptionObjectToBeDestroyed 100669a8 f   LIBCMT:_trnsctrl_.obj
 0001:000659d1       ___CxxFrameHandler         100669d1 f   LIBCMT:_trnsctrl_.obj
 0001:00065a07       ___CxxFrameHandler2        10066a07 f   LIBCMT:_trnsctrl_.obj
 0001:00065a3d       ___CxxFrameHandler3        10066a3d f   LIBCMT:_trnsctrl_.obj
 0001:00065a73       ___CxxLongjmpUnwind@4      10066a73 f   LIBCMT:_trnsctrl_.obj
 0001:00065a90       __chkstk                   10066a90 f   LIBCMT:chkstk.obj
 0001:00065a90       __alloca_probe             10066a90 f   LIBCMT:chkstk.obj
 0001:00065ac0       __libm_sse2_cos_precise    10066ac0 f   LIBCMT:cos_sse2_precise.obj
 0001:00065c80       __libm_sse2_pow_precise    10066c80 f   LIBCMT:pow_sse2_precise.obj
 0001:000667f0       __libm_sse2_sin_precise    100677f0 f   LIBCMT:sin_sse2_precise.obj
 0001:000669c0       __libm_sse2_sqrt_precise   100679c0 f   LIBCMT:sqrt_sse2_precise.obj
 0001:00066ac0       ??0type_info@@AAE@ABV0@@Z  10067ac0 f   LIBCMT:typinfo.obj
 0001:00066acb       ??1type_info@@UAE@XZ       10067acb f   LIBCMT:typinfo.obj
 0001:00066ad9       ??4type_info@@AAEAAV0@ABV0@@Z 10067ad9 f   LIBCMT:typinfo.obj
 0001:00066ade       ??8type_info@@QBE_NABV0@@Z 10067ade f   LIBCMT:typinfo.obj
 0001:00066afc       ??9type_info@@QBE_NABV0@@Z 10067afc f   LIBCMT:typinfo.obj
 0001:00066b1b       ??_Etype_info@@UAEPAXI@Z   10067b1b f i LIBCMT:typinfo.obj
 0001:00066b1b       ??_Gtype_info@@UAEPAXI@Z   10067b1b f i LIBCMT:typinfo.obj
 0001:00066b3a       ?_name_internal_method@type_info@@QBEPBDPAU__type_info_node@@@Z 10067b3a f   LIBCMT:typinfo.obj
 0001:00066b4c       ?_type_info_dtor_internal_method@type_info@@QAEXXZ 10067b4c f   LIBCMT:typinfo.obj
 0001:00066b54       ?before@type_info@@QBE_NABV1@@Z 10067b54 f   LIBCMT:typinfo.obj
 0001:00066b74       ?name@type_info@@QBEPBDPAU__type_info_node@@@Z 10067b74 f   LIBCMT:typinfo.obj
 0001:00066b86       ?raw_name@type_info@@QBEPBDXZ 10067b86 f   LIBCMT:typinfo.obj
 0001:00066b8a       ___raise_securityfailure   10067b8a f   LIBCMT:gs_report.obj
 0001:00066bc7       ___report_gsfailure        10067bc7 f   LIBCMT:gs_report.obj
 0001:00066cc2       ___report_rangecheckfailure 10067cc2 f   LIBCMT:gs_report.obj
 0001:00066cce       ___report_securityfailure  10067cce f   LIBCMT:gs_report.obj
 0001:00066d9e       ___report_securityfailureEx 10067d9e f   LIBCMT:gs_report.obj
 0001:00066eb4       __fscanf_l                 10067eb4 f   LIBCMT:fscanf.obj
 0001:00066ed3       __fscanf_s_l               10067ed3 f   LIBCMT:fscanf.obj
 0001:00066ef2       _fscanf                    10067ef2 f   LIBCMT:fscanf.obj
 0001:00066f10       _fscanf_s                  10067f10 f   LIBCMT:fscanf.obj
 0001:00066f2e       _vfscanf                   10067f2e f   LIBCMT:fscanf.obj
 0001:00066f4b       _vfscanf_fn                10067f4b f   LIBCMT:fscanf.obj
 0001:0006704a       _vfscanf_s                 1006804a f   LIBCMT:fscanf.obj
 0001:00067067       ___STRINGTOLD              10068067 f   LIBCMT:atof.obj
 0001:000670a0       ___strgtold12              100680a0 f   LIBCMT:atof.obj
 0001:000670e2       __atof_l                   100680e2 f   LIBCMT:atof.obj
 0001:00067180       _atof                      10068180 f   LIBCMT:atof.obj
 0001:00067191       __atoi64                   10068191 f   LIBCMT:atox.obj
 0001:000671a5       __atoi64_l                 100681a5 f   LIBCMT:atox.obj
 0001:000671bc       __atoi_l                   100681bc f   LIBCMT:atox.obj
 0001:000671c5       __atol_l                   100681c5 f   LIBCMT:atox.obj
 0001:000671dc       __atoll_l                  100681dc f   LIBCMT:atox.obj
 0001:000671f3       _atoi                      100681f3 f   LIBCMT:atox.obj
 0001:000671fc       _atol                      100681fc f   LIBCMT:atox.obj
 0001:00067210       _atoll                     10068210 f   LIBCMT:atox.obj
 0001:00067224       __fflush_nolock            10068224 f   LIBCMT:fflush.obj
 0001:0006726a       __flush                    1006826a f   LIBCMT:fflush.obj
 0001:000672ce       __flushall                 100682ce f   LIBCMT:fflush.obj
 0001:000672d7       _fflush                    100682d7 f   LIBCMT:fflush.obj
 0001:00067414       _fgets                     10068414 f   LIBCMT:fgets.obj
 0001:00067553       __fseek_nolock             10068553 f   LIBCMT:fseek.obj
 0001:000675e2       _fseek                     100685e2 f   LIBCMT:fseek.obj
 0001:00067665       __ftell_nolock             10068665 f   LIBCMT:ftell.obj
 0001:000679f5       _ftell                     100689f5 f   LIBCMT:ftell.obj
 0001:00067a61       ??_L@YGXPAXIHP6EX0@Z1@Z    10068a61 f   LIBCMT:ehvecctr.obj
 0001:00067ac3       ??_M@YGXPAXIHP6EX0@Z@Z     10068ac3 f   LIBCMT:ehvecdtr.obj
 0001:00067b4b       ?__ArrayUnwind@@YGXPAXIHP6EX0@Z@Z 10068b4b f   LIBCMT:ehvecdtr.obj
 0001:00067ba9       ___onexitinit              10068ba9 f   LIBCMT:onexit.obj
 0001:00067bd8       __onexit                   10068bd8 f   LIBCMT:onexit.obj
 0001:00067cd4       _atexit                    10068cd4 f   LIBCMT:onexit.obj
 0001:00067ce9       __stat64i32                10068ce9 f   LIBCMT:stati32.obj
 0001:00067d2f       ___isascii                 10068d2f f i LIBCMT:_ctype.obj
 0001:00067d3f       ___iscsym                  10068d3f f i LIBCMT:_ctype.obj
 0001:00067d5f       ___iscsymf                 10068d5f f i LIBCMT:_ctype.obj
 0001:00067d7c       ___toascii                 10068d7c f i LIBCMT:_ctype.obj
 0001:00067d87       __isalnum_l                10068d87 f i LIBCMT:_ctype.obj
 0001:00067ddf       __isalpha_l                10068ddf f i LIBCMT:_ctype.obj
 0001:00067e37       __isblank_l                10068e37 f i LIBCMT:_ctype.obj
 0001:00067e91       __iscntrl_l                10068e91 f i LIBCMT:_ctype.obj
 0001:00067ee3       __iscsym_l                 10068ee3 f i LIBCMT:_ctype.obj
 0001:00067f04       __iscsymf_l                10068f04 f i LIBCMT:_ctype.obj
 0001:00067f25       __isdigit_l                10068f25 f i LIBCMT:_ctype.obj
 0001:00067f77       __isgraph_l                10068f77 f i LIBCMT:_ctype.obj
 0001:00067fcf       __islower_l                10068fcf f i LIBCMT:_ctype.obj
 0001:00068021       __isprint_l                10069021 f i LIBCMT:_ctype.obj
 0001:00068079       __ispunct_l                10069079 f i LIBCMT:_ctype.obj
 0001:000680cb       __isspace_l                100690cb f i LIBCMT:_ctype.obj
 0001:0006811d       __isupper_l                1006911d f i LIBCMT:_ctype.obj
 0001:0006816f       __isxdigit_l               1006916f f i LIBCMT:_ctype.obj
 0001:000681c7       _isalnum                   100691c7 f i LIBCMT:_ctype.obj
 0001:000681f4       _isalpha                   100691f4 f i LIBCMT:_ctype.obj
 0001:00068221       _isblank                   10069221 f i LIBCMT:_ctype.obj
 0001:00068256       _iscntrl                   10069256 f i LIBCMT:_ctype.obj
 0001:00068281       _isdigit                   10069281 f i LIBCMT:_ctype.obj
 0001:000682ac       _isgraph                   100692ac f i LIBCMT:_ctype.obj
 0001:000682d9       _islower                   100692d9 f i LIBCMT:_ctype.obj
 0001:00068304       _isprint                   10069304 f i LIBCMT:_ctype.obj
 0001:00068331       _ispunct                   10069331 f i LIBCMT:_ctype.obj
 0001:0006835c       _isspace                   1006935c f i LIBCMT:_ctype.obj
 0001:00068387       _isupper                   10069387 f i LIBCMT:_ctype.obj
 0001:000683b2       _isxdigit                  100693b2 f i LIBCMT:_ctype.obj
 0001:000683df       __toupper                  100693df f   LIBCMT:toupper.obj
 0001:000683ea       __toupper_l                100693ea f   LIBCMT:toupper.obj
 0001:0006852e       _toupper                   1006952e f   LIBCMT:toupper.obj
 0001:0006855a       __tolower                  1006955a f   LIBCMT:tolower.obj
 0001:00068565       __tolower_l                10069565 f   LIBCMT:tolower.obj
 0001:000686a8       _tolower                   100696a8 f   LIBCMT:tolower.obj
 0001:000686d4       _strtok                    100696d4 f   LIBCMT:strtok.obj
 0001:0006879b       _realloc                   1006979b f   LIBCMT:realloc.obj
 0001:00068850       __libm_sse2_exp_precise    10069850 f   LIBCMT:exp_sse2_precise.obj
 0001:00068b20       __libm_sse2_acos_precise   10069b20 f   LIBCMT:acos_sse2_precise.obj
 0001:00069040       __CRT_INIT@12              1006a040 f   LIBCMT:dllcrt0.obj
 0001:000691b2       __DllMainCRTStartup@12     1006a1b2 f   LIBCMT:dllcrt0.obj
 0001:000692e3       ___DllXcptFilter           1006a2e3 f   LIBCMT:dllcrt0.obj
 0001:00069310       _strlen                    1006a310 f   LIBCMT:strlen.obj
 0001:0006939b       ??0__non_rtti_object@std@@QAE@ABV01@@Z 1006a39b f   LIBCMT:stdexcpt.obj
 0001:000693b6       ??0__non_rtti_object@std@@QAE@PBD@Z 1006a3b6 f   LIBCMT:stdexcpt.obj
 0001:000693d1       ??0bad_cast@std@@QAE@ABV01@@Z 1006a3d1 f   LIBCMT:stdexcpt.obj
 0001:000693ec       ??0bad_cast@std@@QAE@PBD@Z 1006a3ec f   LIBCMT:stdexcpt.obj
 0001:00069408       ??0bad_typeid@std@@QAE@ABV01@@Z 1006a408 f   LIBCMT:stdexcpt.obj
 0001:00069423       ??0bad_typeid@std@@QAE@PBD@Z 1006a423 f   LIBCMT:stdexcpt.obj
 0001:0006943f       ??0exception@std@@QAE@ABQBD@Z 1006a43f f   LIBCMT:stdexcpt.obj
 0001:00069464       ??0exception@std@@QAE@ABQBDH@Z 1006a464 f   LIBCMT:stdexcpt.obj
 0001:0006947f       ??0exception@std@@QAE@ABV01@@Z 1006a47f f   LIBCMT:stdexcpt.obj
 0001:000694a2       ??0exception@std@@QAE@XZ   1006a4a2 f   LIBCMT:stdexcpt.obj
 0001:000694b3       ??1__non_rtti_object@std@@UAE@XZ 1006a4b3 f   LIBCMT:stdexcpt.obj
 0001:000694be       ??1bad_cast@std@@UAE@XZ    1006a4be f   LIBCMT:stdexcpt.obj
 0001:000694c9       ??1bad_typeid@std@@UAE@XZ  1006a4c9 f   LIBCMT:stdexcpt.obj
 0001:000694d4       ??1exception@std@@UAE@XZ   1006a4d4 f   LIBCMT:stdexcpt.obj
 0001:000694df       ??4exception@std@@QAEAAV01@ABV01@@Z 1006a4df f   LIBCMT:stdexcpt.obj
 0001:00069512       ??_G__non_rtti_object@std@@UAEPAXI@Z 1006a512 f i LIBCMT:stdexcpt.obj
 0001:00069512       ??_E__non_rtti_object@std@@UAEPAXI@Z 1006a512 f i LIBCMT:stdexcpt.obj
 0001:00069537       ??_Ebad_cast@std@@UAEPAXI@Z 1006a537 f i LIBCMT:stdexcpt.obj
 0001:00069537       ??_Gbad_cast@std@@UAEPAXI@Z 1006a537 f i LIBCMT:stdexcpt.obj
 0001:0006955c       ??_Gbad_typeid@std@@UAEPAXI@Z 1006a55c f i LIBCMT:stdexcpt.obj
 0001:0006955c       ??_Ebad_typeid@std@@UAEPAXI@Z 1006a55c f i LIBCMT:stdexcpt.obj
 0001:00069581       ??_Gexception@std@@UAEPAXI@Z 1006a581 f i LIBCMT:stdexcpt.obj
 0001:00069581       ??_Eexception@std@@UAEPAXI@Z 1006a581 f i LIBCMT:stdexcpt.obj
 0001:000695a6       ?_Copy_str@exception@std@@AAEXPBD@Z 1006a5a6 f   LIBCMT:stdexcpt.obj
 0001:000695e4       ?_Tidy@exception@std@@AAEXXZ 1006a5e4 f   LIBCMT:stdexcpt.obj
 0001:00069600       ?what@exception@std@@UBEPBDXZ 1006a600 f   LIBCMT:stdexcpt.obj
 0001:0006960d       __EH_epilog3               1006a60d f   LIBCMT:ehprolg3.obj
 0001:00069621       __EH_epilog3_GS            1006a621 f   LIBCMT:ehprolg3.obj
 0001:00069630       __EH_epilog3_catch_GS      1006a630 f   LIBCMT:ehprolg3.obj
 0001:0006963f       __EH_prolog3               1006a63f f   LIBCMT:ehprolg3.obj
 0001:00069672       __EH_prolog3_GS            1006a672 f   LIBCMT:ehprolg3.obj
 0001:000696a8       __EH_prolog3_catch         1006a6a8 f   LIBCMT:ehprolg3.obj
 0001:000696de       __EH_prolog3_catch_GS      1006a6de f   LIBCMT:ehprolg3.obj
 0001:00069717       ?_invalid_parameter@@YAXPBG00II@Z 1006a717 f   LIBCMT:invarg.obj
 0001:0006971c       ?_invoke_watson@@YAXPBG00II@Z 1006a71c f   LIBCMT:invarg.obj
 0001:00069734       __call_reportfault         1006a734 f   LIBCMT:invarg.obj
 0001:00069859       __get_invalid_parameter_handler 1006a859 f   LIBCMT:invarg.obj
 0001:00069866       __initp_misc_invarg        1006a866 f   LIBCMT:invarg.obj
 0001:00069873       __invalid_parameter        1006a873 f   LIBCMT:invarg.obj
 0001:0006989e       __invalid_parameter_noinfo 1006a89e f   LIBCMT:invarg.obj
 0001:000698ae       __invalid_parameter_noinfo_noreturn 1006a8ae f   LIBCMT:invarg.obj
 0001:000698c9       __invoke_watson            1006a8c9 f   LIBCMT:invarg.obj
 0001:000698f4       __set_invalid_parameter_handler 1006a8f4 f   LIBCMT:invarg.obj
 0001:00069919       __filbuf                   1006a919 f   LIBCMT:_filbuf.obj
 0001:00069a3a       __fileno                   1006aa3a f   LIBCMT:fileno.obj
 0001:00069a5e       ___initstdio               1006aa5e f   LIBCMT:_file.obj
 0001:00069ad1       ___endstdio                1006aad1 f   LIBCMT:_file.obj
 0001:00069af8       ___iob_func                1006aaf8 f   LIBCMT:_file.obj
 0001:00069afe       __lock_file                1006aafe f   LIBCMT:_file.obj
 0001:00069b3d       __lock_file2               1006ab3d f   LIBCMT:_file.obj
 0001:00069b6d       __unlock_file              1006ab6d f   LIBCMT:_file.obj
 0001:00069ba7       __unlock_file2             1006aba7 f   LIBCMT:_file.obj
 0001:00069bd4       _memcpy_s                  1006abd4 f   LIBCMT:memcpy_s.obj
 0001:00069c53       __read                     1006ac53 f   LIBCMT:read.obj
 0001:00069d67       __read_nolock              1006ad67 f   LIBCMT:read.obj
 0001:0006a4f8       ___doserrno                1006b4f8 f   LIBCMT:dosmap.obj
 0001:0006a50b       __dosmaperr                1006b50b f   LIBCMT:dosmap.obj
 0001:0006a52c       __errno                    1006b52c f   LIBCMT:dosmap.obj
 0001:0006a53f       __get_doserrno             1006b53f f   LIBCMT:dosmap.obj
 0001:0006a562       __get_errno                1006b562 f   LIBCMT:dosmap.obj
 0001:0006a585       __get_errno_from_oserr     1006b585 f   LIBCMT:dosmap.obj
 0001:0006a5c6       __set_doserrno             1006b5c6 f   LIBCMT:dosmap.obj
 0001:0006a5e5       __set_errno                1006b5e5 f   LIBCMT:dosmap.obj
 0001:0006a610       __SEH_prolog4              1006b610 f   LIBCMT:sehprolg4.obj
 0001:0006a655       __SEH_epilog4              1006b655 f   LIBCMT:sehprolg4.obj
 0001:0006a6b0       __except_handler4          1006b6b0 f   LIBCMT:chandler4.obj
 0001:0006a844       __flsbuf                   1006b844 f   LIBCMT:_flsbuf.obj
 0001:0006a993       __write                    1006b993 f   LIBCMT:write.obj
 0001:0006aa82       __write_nolock             1006ba82 f   LIBCMT:write.obj
 0001:0006b2e7       __vsnprintf_c              1006c2e7 f   LIBCMT:vsnprnc.obj
 0001:0006b30e       __vsnprintf_c_l            1006c30e f   LIBCMT:vsnprnc.obj
 0001:0006b336       __vsnprintf_helper         1006c336 f   LIBCMT:vsnprnc.obj
 0001:0006b400       __vsnprintf_s              1006c400 f   LIBCMT:vsnprnc.obj
 0001:0006b41e       __vsnprintf_s_l            1006c41e f   LIBCMT:vsnprnc.obj
 0001:0006b51e       __vsprintf_p               1006c51e f   LIBCMT:vsnprnc.obj
 0001:0006b545       __vsprintf_p_l             1006c545 f   LIBCMT:vsnprnc.obj
 0001:0006b56d       __vsprintf_s_l             1006c56d f   LIBCMT:vsnprnc.obj
 0001:0006b5e2       _vsprintf_s                1006c5e2 f   LIBCMT:vsnprnc.obj
 0001:0006b5fd       __output_l                 1006c5fd f   LIBCMT:output.obj
 0001:0006c17d       _get_int64_arg             1006d17d f i LIBCMT:output.obj
 0001:0006c190       _get_int_arg               1006d190 f i LIBCMT:output.obj
 0001:0006c1a0       _get_short_arg             1006d1a0 f i LIBCMT:output.obj
 0001:0006c2a0       __CIsqrt                   1006d2a0 f   LIBCMT:sqrt.obj
 0001:0006c2b4       _sqrt                      1006d2b4     LIBCMT:sqrt.obj
 0001:0006c35a       __add_exp                  1006d35a f   LIBCMT:util.obj
 0001:0006c389       __decomp                   1006d389 f   LIBCMT:util.obj
 0001:0006c45b       __get_exp                  1006d45b f   LIBCMT:util.obj
 0001:0006c474       __set_bexp                 1006d474 f   LIBCMT:util.obj
 0001:0006c49d       __set_exp                  1006d49d f   LIBCMT:util.obj
 0001:0006c4cc       __sptype                   1006d4cc f   LIBCMT:util.obj
 0001:0006c527       __errcode                  1006d527 f   LIBCMT:fpexcept.obj
 0001:0006c559       __except1                  1006d559 f   LIBCMT:fpexcept.obj
 0001:0006c621       __except2                  1006d621 f   LIBCMT:fpexcept.obj
 0001:0006c721       __handle_exc               1006d721 f   LIBCMT:fpexcept.obj
 0001:0006c8ff       __handle_qnan1             1006d8ff f   LIBCMT:fpexcept.obj
 0001:0006c94f       __handle_qnan2             1006d94f f   LIBCMT:fpexcept.obj
 0001:0006c9af       __raise_exc                1006d9af f   LIBCMT:fpexcept.obj
 0001:0006c9d0       __raise_exc_ex             1006d9d0 f   LIBCMT:fpexcept.obj
 0001:0006ccb5       __raise_excf               1006dcb5 f   LIBCMT:fpexcept.obj
 0001:0006ccd6       __set_errno_from_matherr   1006dcd6 f   LIBCMT:fpexcept.obj
 0001:0006cd03       __umatherr                 1006dd03 f   LIBCMT:fpexcept.obj
 0001:0006cda3       ___clrfp_sse2              1006dda3 f   LIBCMT:fpctrl.obj
 0001:0006cdc4       ___ctrlfp_sse2             1006ddc4 f   LIBCMT:fpctrl.obj
 0001:0006cdfd       ___fclrf_sse2              1006ddfd f   LIBCMT:fpctrl.obj
 0001:0006ce1a       ___get_fpsr_sse2           1006de1a f   LIBCMT:fpctrl.obj
 0001:0006ce36       ___set_fpsr_sse2           1006de36 f   LIBCMT:fpctrl.obj
 0001:0006ceac       ___set_statfp_sse2         1006deac f   LIBCMT:fpctrl.obj
 0001:0006cec5       ___statfp_sse2             1006dec5 f   LIBCMT:fpctrl.obj
 0001:0006ceda       __clrfp                    1006deda f   LIBCMT:fpctrl.obj
 0001:0006ceeb       __ctrlfp                   1006deeb f   LIBCMT:fpctrl.obj
 0001:0006cf16       __set_statfp               1006df16 f   LIBCMT:fpctrl.obj
 0001:0006cf6e       __statfp                   1006df6e f   LIBCMT:fpctrl.obj
 0001:0006cf7e       ___isa_available_init      1006df7e f   LIBCMT:cpu_disp.obj
 0001:0006d0f7       __VEC_memset               1006e0f7 f   LIBCMT:p4_memset.obj
 0001:0006d1bf       ?strrchr@@YAPADPADH@Z      1006e1bf f i LIBCMT:cvt.obj
 0001:0006d1c8       __cfltcvt                  1006e1c8 f   LIBCMT:cvt.obj
 0001:0006d1e9       __cfltcvt_l                1006e1e9 f   LIBCMT:cvt.obj
 0001:0006d26f       __cftoa                    1006e26f f   LIBCMT:cvt.obj
 0001:0006d28d       __cftoa_l                  1006e28d f   LIBCMT:cvt.obj
 0001:0006d5e9       __cftoe                    1006e5e9 f   LIBCMT:cvt.obj
 0001:0006d758       __cftoe_l                  1006e758 f   LIBCMT:cvt.obj
 0001:0006d826       __cftof                    1006e826 f   LIBCMT:cvt.obj
 0001:0006d92d       __cftof_l                  1006e92d f   LIBCMT:cvt.obj
 0001:0006d9ee       __cftog                    1006e9ee f   LIBCMT:cvt.obj
 0001:0006da0c       __cftog_l                  1006ea0c f   LIBCMT:cvt.obj
 0001:0006db0b       __cropzeros                1006eb0b f   LIBCMT:cvt.obj
 0001:0006db1c       __cropzeros_l              1006eb1c f   LIBCMT:cvt.obj
 0001:0006db9c       __fassign                  1006eb9c f   LIBCMT:cvt.obj
 0001:0006dbb4       __fassign_l                1006ebb4 f   LIBCMT:cvt.obj
 0001:0006dbf6       __forcdecpt                1006ebf6 f   LIBCMT:cvt.obj
 0001:0006dc07       __forcdecpt_l              1006ec07 f   LIBCMT:cvt.obj
 0001:0006dc7b       __positive                 1006ec7b f   LIBCMT:cvt.obj
 0001:0006dcbd       __setdefaultprecision      1006ecbd f   LIBCMT:fp8.obj
 0001:0006dce4       __initp_misc_cfltcvt_tab   1006ece4 f   LIBCMT:cmiscdat.obj
 0001:0006dd03       __set_abort_behavior       1006ed03 f   LIBCMT:abort.obj
 0001:0006dd22       _abort                     1006ed22 f   LIBCMT:abort.obj
 0001:0006dd65       ___getlocaleinfo           1006ed65 f   LIBCMT:inithelp.obj
 0001:0006df3e       __initp_misc_purevirt      1006ef3e f   LIBCMT:inithelp.obj
 0001:0006df4b       ?_query_new_handler@@YAP6AHI@ZXZ 1006ef4b f   LIBCMT:handler.obj
 0001:0006df58       ?_set_new_handler@@YAP6AHI@ZH@Z 1006ef58 f   LIBCMT:handler.obj
 0001:0006df61       ?_set_new_handler@@YAP6AHI@ZP6AHI@Z@Z 1006ef61 f   LIBCMT:handler.obj
 0001:0006df96       __callnewh                 1006ef96 f   LIBCMT:handler.obj
 0001:0006dfbc       __initp_heap_handler       1006efbc f   LIBCMT:handler.obj
 0001:0006dfd0       _strchr                    1006efd0 f   LIBCMT:strchr.obj
 0001:0006e03e       ___from_strstr_to_strchr   1006f03e     LIBCMT:strchr.obj
 0001:0006e0fb       __close                    1006f0fb f   LIBCMT:close.obj
 0001:0006e1d6       __close_nolock             1006f1d6 f   LIBCMT:close.obj
 0001:0006e270       __freebuf                  1006f270 f   LIBCMT:_freebuf.obj
 0001:0006e2a0       __getstream                1006f2a0 f   LIBCMT:stream.obj
 0001:0006e3bf       __openfile                 1006f3bf f   LIBCMT:_open.obj
 0001:0006e640       __local_unwind4            1006f640 f   LIBCMT:exsup4.obj
 0001:0006e716       __seh_longjmp_unwind4@4    1006f716 f   LIBCMT:exsup4.obj
 0001:0006e732       @_EH4_CallFilterFunc@8     1006f732 f   LIBCMT:exsup4.obj
 0001:0006e749       @_EH4_TransferToHandler@8  1006f749 f   LIBCMT:exsup4.obj
 0001:0006e762       @_EH4_GlobalUnwind2@8      1006f762 f   LIBCMT:exsup4.obj
 0001:0006e77b       @_EH4_LocalUnwind@16       1006f77b f   LIBCMT:exsup4.obj
 0001:0006e792       __vfprintf_l               1006f792 f   LIBCMT:vfprintf.obj
 0001:0006e7b0       __vfprintf_p               1006f7b0 f   LIBCMT:vfprintf.obj
 0001:0006e7cd       __vfprintf_p_l             1006f7cd f   LIBCMT:vfprintf.obj
 0001:0006e7eb       __vfprintf_s_l             1006f7eb f   LIBCMT:vfprintf.obj
 0001:0006e809       _vfprintf                  1006f809 f   LIBCMT:vfprintf.obj
 0001:0006e826       _vfprintf_helper           1006f826 f   LIBCMT:vfprintf.obj
 0001:0006e937       _vfprintf_s                1006f937 f   LIBCMT:vfprintf.obj
 0001:0006e954       __ftbuf                    1006f954 f   LIBCMT:_sftbuf.obj
 0001:0006e985       __stbuf                    1006f985 f   LIBCMT:_sftbuf.obj
 0001:0006ea2b       __ioinit                   1006fa2b f   LIBCMT:ioinit.obj
 0001:0006ecdf       __ioterm                   1006fcdf f   LIBCMT:ioinit.obj
 0001:0006ed31       __vprintf_l                1006fd31 f   LIBCMT:vprintf.obj
 0001:0006ed4c       __vprintf_p                1006fd4c f   LIBCMT:vprintf.obj
 0001:0006ed66       __vprintf_p_l              1006fd66 f   LIBCMT:vprintf.obj
 0001:0006ed81       __vprintf_s_l              1006fd81 f   LIBCMT:vprintf.obj
 0001:0006ed9c       _vprintf                   1006fd9c f   LIBCMT:vprintf.obj
 0001:0006edb6       _vprintf_helper            1006fdb6 f   LIBCMT:vprintf.obj
 0001:0006ee43       _vprintf_s                 1006fe43 f   LIBCMT:vprintf.obj
 0001:0006ee5d       __INTRN_LOCALE_CONV        1006fe5d f i LIBCMT:input.obj
 0001:0006ef0f       __input_l                  1006ff0f f   LIBCMT:input.obj
 0001:0007013f       __input_s_l                1007113f f   LIBCMT:inputs.obj
 0001:0007142d       __output_p_l               1007242d f   LIBCMT:outputp.obj
 0001:00072765       __validate_param_reuseA    10073765 f   LIBCMT:outputp.obj
 0001:0007289b       _get_crtdouble_arg         1007389b f i LIBCMT:outputp.obj
 0001:0007299a       __RTC_Initialize           1007399a f   LIBCMT:initsect.obj
 0001:000729ba       __RTC_Terminate            100739ba f   LIBCMT:initsect.obj
 0001:000729da       __lock                     100739da f   LIBCMT:mlock.obj
 0001:00072a0e       __lockerr_exit             10073a0e f   LIBCMT:mlock.obj
 0001:00072a2e       __mtdeletelocks            10073a2e f   LIBCMT:mlock.obj
 0001:00072a82       __mtinitlocknum            10073a82 f   LIBCMT:mlock.obj
 0001:00072b2b       __mtinitlocks              10073b2b f   LIBCMT:mlock.obj
 0001:00072b64       __unlock                   10073b64 f   LIBCMT:mlock.obj
 0001:00072ba6       ___crtCloseThreadpoolTimer 10073ba6 f   LIBCMT:winapisupp.obj
 0001:00072bbd       ___crtCloseThreadpoolWait  10073bbd f   LIBCMT:winapisupp.obj
 0001:00072bd4       ___crtCreateEventExW       10073bd4 f   LIBCMT:winapisupp.obj
 0001:00072c0f       ___crtCreateSemaphoreExW   10073c0f f   LIBCMT:winapisupp.obj
 0001:00072c49       ___crtCreateSymbolicLinkW  10073c49 f   LIBCMT:winapisupp.obj
 0001:00072c72       ___crtCreateThreadpoolTimer 10073c72 f   LIBCMT:winapisupp.obj
 0001:00072c93       ___crtCreateThreadpoolWait 10073c93 f   LIBCMT:winapisupp.obj
 0001:00072cb4       ___crtFlsAlloc             10073cb4 f   LIBCMT:winapisupp.obj
 0001:00072cd2       ___crtFlsFree              10073cd2 f   LIBCMT:winapisupp.obj
 0001:00072cf1       ___crtFlsGetValue          10073cf1 f   LIBCMT:winapisupp.obj
 0001:00072d10       ___crtFlsSetValue          10073d10 f   LIBCMT:winapisupp.obj
 0001:00072d32       ___crtFlushProcessWriteBuffers 10073d32 f   LIBCMT:winapisupp.obj
 0001:00072d42       ___crtFreeLibraryWhenCallbackReturns 10073d42 f   LIBCMT:winapisupp.obj
 0001:00072d5c       ___crtGetCurrentProcessorNumber 10073d5c f   LIBCMT:winapisupp.obj
 0001:00072d6e       ___crtGetFileInformationByHandleEx 10073d6e f   LIBCMT:winapisupp.obj
 0001:00072d9a       ___crtGetLogicalProcessorInformation 10073d9a f   LIBCMT:winapisupp.obj
 0001:00072dc0       ___crtGetShowWindowMode    10073dc0 f   LIBCMT:winapisupp.obj
 0001:00072de3       ___crtGetTickCount64       10073de3 f   LIBCMT:winapisupp.obj
 0001:00072dfb       ___crtInitializeCriticalSectionEx 10073dfb f   LIBCMT:winapisupp.obj
 0001:00072e29       ___crtIsPackagedApp        10073e29 f   LIBCMT:winapisupp.obj
 0001:00072e69       ___crtLoadWinApiPointers   10073e69 f   LIBCMT:winapisupp.obj
 0001:000730f4       ___crtSetFileInformationByHandle 100740f4 f   LIBCMT:winapisupp.obj
 0001:00073120       ___crtSetThreadStackGuarantee 10074120 f   LIBCMT:winapisupp.obj
 0001:0007313b       ___crtSetThreadpoolTimer   1007413b f   LIBCMT:winapisupp.obj
 0001:0007315b       ___crtSetThreadpoolWait    1007415b f   LIBCMT:winapisupp.obj
 0001:00073178       ___crtSetUnhandledExceptionFilter 10074178 f   LIBCMT:winapisupp.obj
 0001:00073186       ___crtSleep                10074186 f   LIBCMT:winapisupp.obj
 0001:00073194       ___crtTerminateProcess     10074194 f   LIBCMT:winapisupp.obj
 0001:000731a9       ___crtUnhandledException   100741a9 f   LIBCMT:winapisupp.obj
 0001:000731bf       ___crtWaitForThreadpoolTimerCallbacks 100741bf f   LIBCMT:winapisupp.obj
 0001:000731d9       __FF_MSGBANNER             100741d9 f   LIBCMT:crt0msg.obj
 0001:00073212       __GET_RTERRMSG             10074212 f   LIBCMT:crt0msg.obj
 0001:00073236       __NMSG_WRITE               10074236 f   LIBCMT:crt0msg.obj
 0001:00073400       __FindPESection            10074400 f   LIBCMT:pesect.obj
 0001:00073450       __IsNonwritableInCurrentImage 10074450 f   LIBCMT:pesect.obj
 0001:00073510       __ValidateImageBase        10074510 f   LIBCMT:pesect.obj
 0001:00073541       __calloc_crt               10074541 f   LIBCMT:crtheap.obj
 0001:00073589       __malloc_crt               10074589 f   LIBCMT:crtheap.obj
 0001:000735d0       __realloc_crt              100745d0 f   LIBCMT:crtheap.obj
 0001:0007361a       __recalloc_crt             1007461a f   LIBCMT:crtheap.obj
 0001:00073668       __set_malloc_crt_max_wait  10074668 f   LIBCMT:crtheap.obj
 0001:0007367b       _wait_a_bit                1007467b f i LIBCMT:crtheap.obj
 0001:0007369f       ?_inconsistency@@YAXXZ     1007469f f   LIBCMT:hooks.obj
 0001:000736d7       ?terminate@@YAXXZ          100746d7 f   LIBCMT:hooks.obj
 0001:0007370b       ?unexpected@@YAXXZ         1007470b f   LIBCMT:hooks.obj
 0001:0007371e       __initp_eh_hooks           1007471e f   LIBCMT:hooks.obj
 0001:0007372f       ___fpecode                 1007472f f   LIBCMT:winsig.obj
 0001:00073738       ___get_sigabrt             10074738 f   LIBCMT:winsig.obj
 0001:00073745       ___pxcptinfoptrs           10074745 f   LIBCMT:winsig.obj
 0001:0007374e       __initp_misc_winsig        1007474e f   LIBCMT:winsig.obj
 0001:0007380f       _raise                     1007480f f   LIBCMT:winsig.obj
 0001:00073a04       _signal                    10074a04 f   LIBCMT:winsig.obj
 0001:00073c5b       __initp_misc_rand_s        10074c5b f   LIBCMT:rand_s.obj
 0001:00073c68       _rand_s                    10074c68 f   LIBCMT:rand_s.obj
 0001:00073d6e       ___initmbctable            10074d6e f   LIBCMT:mbctype.obj
 0001:00074025       ___updatetmbcinfo          10075025 f   LIBCMT:mbctype.obj
 0001:000740cb       __getmbcp                  100750cb f   LIBCMT:mbctype.obj
 0001:000740fc       __setmbcp                  100750fc f   LIBCMT:mbctype.obj
 0001:000742a4       __setmbcp_nolock           100752a4 f   LIBCMT:mbctype.obj
 0001:0007448f       __get_heap_handle          1007548f f   LIBCMT:heapinit.obj
 0001:00074495       __heap_init                10075495 f   LIBCMT:heapinit.obj
 0001:000744aa       __heap_term                100754aa f   LIBCMT:heapinit.obj
 0001:000744b2       ___addlocaleref            100754b2 f   LIBCMT:localref.obj
 0001:00074547       ___freetlocinfo            10075547 f   LIBCMT:localref.obj
 0001:000746a1       ___removelocaleref         100756a1 f   LIBCMT:localref.obj
 0001:00074741       ___updatetlocinfo          10075741 f   LIBCMT:localref.obj
 0001:000747c1       __updatetlocinfoEx_nolock  100757c1 f   LIBCMT:localref.obj
 0001:0007480c       _strcpy_s                  1007580c f   LIBCMT:strcpy_s.obj
 0001:00074861       ___get_flsindex            10075861 f   LIBCMT:tidtable.obj
 0001:00074867       ___threadhandle            10075867 f   LIBCMT:tidtable.obj
 0001:0007486d       ___threadid                1007586d f   LIBCMT:tidtable.obj
 0001:00074873       __freefls@4                10075873 f   LIBCMT:tidtable.obj
 0001:000749a8       __freeptd                  100759a8 f   LIBCMT:tidtable.obj
 0001:000749de       __getptd                   100759de f   LIBCMT:tidtable.obj
 0001:000749f6       __getptd_noexit            100759f6 f   LIBCMT:tidtable.obj
 0001:00074a65       __initptd                  10075a65 f   LIBCMT:tidtable.obj
 0001:00074b18       __mtinit                   10075b18 f   LIBCMT:tidtable.obj
 0001:00074b8e       __mtterm                   10075b8e f   LIBCMT:tidtable.obj
 0001:000755c4       __MallocaIsSizeInRange     100765c4 f i LIBCMT:wcsftime.obj
 0001:000755d5       __MarkAllocaS              100765d5 f i LIBCMT:wcsftime.obj
 0001:000755e9       __W_Getdays                100765e9 f   LIBCMT:wcsftime.obj
 0001:000755f2       __W_Getdays_l              100765f2 f   LIBCMT:wcsftime.obj
 0001:0007570b       __W_Getmonths              1007670b f   LIBCMT:wcsftime.obj
 0001:00075714       __W_Getmonths_l            10076714 f   LIBCMT:wcsftime.obj
 0001:0007582d       __W_Gettnames              1007682d f   LIBCMT:wcsftime.obj
 0001:00075836       __W_Gettnames_l            10076836 f   LIBCMT:wcsftime.obj
 0001:00075ee5       __Wcsftime                 10076ee5 f   LIBCMT:wcsftime.obj
 0001:00075f03       __Wcsftime_l               10076f03 f   LIBCMT:wcsftime.obj
 0001:00076046       __freea                    10077046 f i LIBCMT:wcsftime.obj
 0001:00076064       __invoke_watson_if_oneof   10077064 f i LIBCMT:wcsftime.obj
 0001:0007608f       __wcsftime_l               1007708f f   LIBCMT:wcsftime.obj
 0001:000760ad       _wcsftime                  100770ad f   LIBCMT:wcsftime.obj
 0001:000760ca       ___daylight                100770ca f   LIBCMT:timeset.obj
 0001:000760d0       ___dstbias                 100770d0 f   LIBCMT:timeset.obj
 0001:000760d6       ___timezone                100770d6 f   LIBCMT:timeset.obj
 0001:000760dc       ___tzname                  100770dc f   LIBCMT:timeset.obj
 0001:000760e2       __get_daylight             100770e2 f   LIBCMT:timeset.obj
 0001:0007610c       __get_dstbias              1007710c f   LIBCMT:timeset.obj
 0001:00076136       __get_timezone             10077136 f   LIBCMT:timeset.obj
 0001:00076160       __get_tzname               10077160 f   LIBCMT:timeset.obj
 0001:000761f3       __gmtime64                 100771f3 f   LIBCMT:gmtime64.obj
 0001:00076218       __gmtime64_s               10077218 f   LIBCMT:gmtime64.obj
 0001:00076443       ___tzset                   10077443 f   LIBCMT:tzset.obj
 0001:00076493       __isindst                  10077493 f   LIBCMT:tzset.obj
 0001:000766c1       __set_daylight             100776c1 f i LIBCMT:tzset.obj
 0001:000766d0       __set_dstbias              100776d0 f i LIBCMT:tzset.obj
 0001:000766df       __set_timezone             100776df f i LIBCMT:tzset.obj
 0001:000766ee       __tzset                    100776ee f   LIBCMT:tzset.obj
 0001:00076c3c       ___getgmtimebuf            10077c3c f   LIBCMT:gmtime.obj
 0001:00076c71       __gmtime32                 10077c71 f   LIBCMT:gmtime.obj
 0001:00076c96       __gmtime32_s               10077c96 f   LIBCMT:gmtime.obj
 0001:00076dd0       __alldiv                   10077dd0 f   LIBCMT:lldiv.obj
 0001:00076e80       __allrem                   10077e80 f   LIBCMT:llrem.obj
 0001:00076f40       __aulldiv                  10077f40 f   LIBCMT:ulldiv.obj
 0001:00076fb0       __CallSettingFrame@12      10077fb0 f   LIBCMT:lowhelpr.obj
 0001:00076fd7       __NLG_Return               10077fd7     LIBCMT:lowhelpr.obj
 0001:00076ffd       ___DestructExceptionObject 10077ffd f   LIBCMT:frame.obj
 0001:00077088       ??0bad_exception@std@@QAE@ABV01@@Z 10078088 f i LIBCMT:frame.obj
 0001:000770a3       ??0bad_exception@std@@QAE@PBD@Z 100780a3 f i LIBCMT:frame.obj
 0001:000770bf       ??1bad_exception@std@@UAE@XZ 100780bf f i LIBCMT:frame.obj
 0001:000770ca       ??_Gbad_exception@std@@UAEPAXI@Z 100780ca f i LIBCMT:frame.obj
 0001:000770ca       ??_Ebad_exception@std@@UAEPAXI@Z 100780ca f i LIBCMT:frame.obj
 0001:00077937       ?__uncaught_exception@@YA_NXZ 10078937 f   LIBCMT:frame.obj
 0001:00077948       ?_is_exception_typeof@@YAHABVtype_info@@PAU_EXCEPTION_POINTERS@@@Z 10078948 f   LIBCMT:frame.obj
 0001:000779cf       __SetWinRTOutOfMemoryExceptionCallback 100789cf f   LIBCMT:frame.obj
 0001:000779dc       ___AdjustPointer           100789dc f   LIBCMT:frame.obj
 0001:00077a01       ___BuildCatchObject        10078a01 f   LIBCMT:frame.obj
 0001:00077a8f       ___BuildCatchObjectHelper  10078a8f f   LIBCMT:frame.obj
 0001:00077c51       ___CxxDetectRethrow        10078c51 f   LIBCMT:frame.obj
 0001:00077ca0       ___CxxExceptionFilter      10078ca0 f   LIBCMT:frame.obj
 0001:00077dfa       ___CxxQueryExceptionSize   10078dfa f   LIBCMT:frame.obj
 0001:00077dfe       ___CxxRegisterExceptionObject 10078dfe f   LIBCMT:frame.obj
 0001:00077eb5       ___CxxUnregisterExceptionObject 10078eb5 f   LIBCMT:frame.obj
 0001:00077ff2       ___FrameUnwindFilter       10078ff2 f   LIBCMT:frame.obj
 0001:00078040       ___FrameUnwindToState      10079040 f   LIBCMT:frame.obj
 0001:00078119       ___GetPlatformExceptionInfo 10079119 f   LIBCMT:frame.obj
 0001:0007816e       ___InternalCxxFrameHandler 1007916e f   LIBCMT:frame.obj
 0001:0007824f       ___TypeMatch               1007924f f   LIBCMT:frame.obj
 0001:000782c0       _cos                       100792c0 f   LIBCMT:cos.obj
 0001:00078300       __CIcos                    10079300 f   LIBCMT:cos.obj
 0001:0007833b       __CIcos_default            1007933b f   LIBCMT:cos.obj
 0001:0007834f       __cos_default              1007934f     LIBCMT:cos.obj
 0001:000783e9       ___libm_error_support      100793e9 f   LIBCMT:libm_error.obj
 0001:000786d1       ___libm_setusermatherr     100796d1 f   LIBCMT:libm_error.obj
 0001:00078700       _pow                       10079700 f   LIBCMT:pow.obj
 0001:00078740       __CIpow                    10079740 f   LIBCMT:pow.obj
 0001:0007877b       __CIpow_default            1007977b f   LIBCMT:pow.obj
 0001:00078794       __pow_default              10079794     LIBCMT:pow.obj
 0001:00078990       _sin                       10079990 f   LIBCMT:sin.obj
 0001:000789d0       __CIsin                    100799d0 f   LIBCMT:sin.obj
 0001:00078a0b       __CIsin_default            10079a0b f   LIBCMT:sin.obj
 0001:00078a1f       __sin_default              10079a1f     LIBCMT:sin.obj
 0001:00078ac0       _strcmp                    10079ac0 f   LIBCMT:strcmp.obj
 0001:00078b4c       ?_Name_base@type_info@@CAPBDPBV1@PAU__type_info_node@@@Z 10079b4c f   LIBCMT:typname.obj
 0001:00078c3d       ?_Name_base_internal@type_info@@CAPBDPBV1@PAU__type_info_node@@@Z 10079c3d f   LIBCMT:typname.obj
 0001:00078d47       ?_Type_info_dtor@type_info@@CAXPAV1@@Z 10079d47 f   LIBCMT:typname.obj
 0001:00078db8       ?_Type_info_dtor_internal@type_info@@CAXPAV1@@Z 10079db8 f   LIBCMT:typname.obj
 0001:00078e29       ___clean_type_info_names_internal 10079e29 f   LIBCMT:typname.obj
 0001:00078e7c       ___unDNameHelper           10079e7c f   LIBCMT:typname.obj
 0001:00078eaa       __crt_debugger_hook        10079eaa f   LIBCMT:dbghook.obj
 0001:00078eb2       __fltin2                   10079eb2 f   LIBCMT:cfin.obj
 0001:00078f59       ___STRINGTOLD_L            10079f59 f   LIBCMT:strgtold.obj
 0001:00078fb4       ___addl                    10079fb4 f i LIBCMT:strgtold.obj
 0001:00078fd8       ___ld12mul                 10079fd8 f i LIBCMT:strgtold.obj
 0001:000792a4       ___multtenpow12            1007a2a4 f i LIBCMT:strgtold.obj
 0001:000795f7       ___shl_12                  1007a5f7 f i LIBCMT:strgtold.obj
 0001:00079628       ___shr_12                  1007a628 f i LIBCMT:strgtold.obj
 0001:00079658       ___strgtold12_l            1007a658 f   LIBCMT:strgtold.obj
 0001:00079e00       __isctype                  1007ae00 f   LIBCMT:isctype.obj
 0001:00079e2f       __isctype_l                1007ae2f f   LIBCMT:isctype.obj
 0001:0007a150       __strtof_l                 1007b150 f   LIBCMT:strtoq.obj
 0001:0007a170       __strtoi64                 1007b170 f   LIBCMT:strtoq.obj
 0001:0007a19a       __strtoi64_l               1007b19a f   LIBCMT:strtoq.obj
 0001:0007a1b5       __strtoimax_l              1007b1b5 f   LIBCMT:strtoq.obj
 0001:0007a1be       __strtold_l                1007b1be f   LIBCMT:strtoq.obj
 0001:0007a1c7       __strtoll_l                1007b1c7 f   LIBCMT:strtoq.obj
 0001:0007a1d0       __strtoui64                1007b1d0 f   LIBCMT:strtoq.obj
 0001:0007a1fa       __strtoui64_l              1007b1fa f   LIBCMT:strtoq.obj
 0001:0007a215       __strtoull_l               1007b215 f   LIBCMT:strtoq.obj
 0001:0007a21e       __strtoumax_l              1007b21e f   LIBCMT:strtoq.obj
 0001:0007a227       _strtof                    1007b227 f   LIBCMT:strtoq.obj
 0001:0007a246       _strtoimax                 1007b246 f   LIBCMT:strtoq.obj
 0001:0007a24f       _strtold                   1007b24f f   LIBCMT:strtoq.obj
 0001:0007a258       _strtoll                   1007b258 f   LIBCMT:strtoq.obj
 0001:0007a261       _strtoull                  1007b261 f   LIBCMT:strtoq.obj
 0001:0007a26a       _strtoumax                 1007b26a f   LIBCMT:strtoq.obj
 0001:0007a499       __strtol_l                 1007b499 f   LIBCMT:strtol.obj
 0001:0007a4b4       __strtoul_l                1007b4b4 f   LIBCMT:strtol.obj
 0001:0007a4cf       _strtol                    1007b4cf f   LIBCMT:strtol.obj
 0001:0007a4f9       _strtoul                   1007b4f9 f   LIBCMT:strtol.obj
 0001:0007a523       __commit                   1007b523 f   LIBCMT:commit.obj
 0001:0007a60c       __lseek                    1007b60c f   LIBCMT:lseek.obj
 0001:0007a6fb       __lseek_nolock             1007b6fb f   LIBCMT:lseek.obj
 0001:0007a7a2       __lseeki64                 1007b7a2 f   LIBCMT:lseeki64.obj
 0001:0007a89e       __lseeki64_nolock          1007b89e f   LIBCMT:lseeki64.obj
 0001:0007a911       __msize                    1007b911 f   LIBCMT:msize.obj
 0001:0007aa4b       __wstat64i32               1007ba4b f   LIBCMT:wstati32.obj
 0001:0007aec5       ___init_dummy              1007bec5 f   LIBCMT:wsetloca.obj
 0001:0007aec8       __locterm                  1007bec8 f   LIBCMT:wsetloca.obj
 0001:0007af1a       ____setlc_active_func      1007bf1a f   LIBCMT:wsetloca.obj
 0001:0007af20       ____unguarded_readlc_active_add_func 1007bf20 f   LIBCMT:wsetloca.obj
 0001:0007af26       ___copy_locale_name        1007bf26 f   LIBCMT:wsetloca.obj
 0001:0007af8a       ___create_locale           1007bf8a f   LIBCMT:wsetloca.obj
 0001:0007af93       ___free_locale             1007bf93 f   LIBCMT:wsetloca.obj
 0001:0007af98       ___get_current_locale      1007bf98 f   LIBCMT:wsetloca.obj
 0001:0007af9d       ___lc_lctowcs              1007bf9d f   LIBCMT:wsetloca.obj
 0001:0007b00b       ___lc_wcstolc              1007c00b f   LIBCMT:wsetloca.obj
 0001:0007b137       __configthreadlocale       1007c137 f   LIBCMT:wsetloca.obj
 0001:0007b1bd       __create_locale            1007c1bd f   LIBCMT:wsetloca.obj
 0001:0007b21f       __expandlocale             1007c21f f   LIBCMT:wsetloca.obj
 0001:0007b516       __free_locale              1007c516 f   LIBCMT:wsetloca.obj
 0001:0007b5cd       __get_current_locale       1007c5cd f   LIBCMT:wsetloca.obj
 0001:0007b67c       __wcreate_locale           1007c67c f   LIBCMT:wsetloca.obj
 0001:0007b753       __wcscats                  1007c753 f   LIBCMT:wsetloca.obj
 0001:0007b792       __wsetlocale               1007c792 f   LIBCMT:wsetloca.obj
 0001:0007c0d4       ___iswcsym                 1007d0d4 f i LIBCMT:_wctype.obj
 0001:0007c0f8       ___iswcsymf                1007d0f8 f i LIBCMT:_wctype.obj
 0001:0007c11c       __isleadbyte_l             1007d11c f i LIBCMT:_wctype.obj
 0001:0007c156       __iswalnum_l               1007d156 f i LIBCMT:_wctype.obj
 0001:0007c16a       __iswalpha_l               1007d16a f i LIBCMT:_wctype.obj
 0001:0007c17e       __iswblank_l               1007d17e f i LIBCMT:_wctype.obj
 0001:0007c199       __iswcntrl_l               1007d199 f i LIBCMT:_wctype.obj
 0001:0007c1aa       __iswcsym_l                1007d1aa f i LIBCMT:_wctype.obj
 0001:0007c1ce       __iswcsymf_l               1007d1ce f i LIBCMT:_wctype.obj
 0001:0007c1f2       __iswdigit_l               1007d1f2 f i LIBCMT:_wctype.obj
 0001:0007c203       __iswgraph_l               1007d203 f i LIBCMT:_wctype.obj
 0001:0007c217       __iswlower_l               1007d217 f i LIBCMT:_wctype.obj
 0001:0007c228       __iswprint_l               1007d228 f i LIBCMT:_wctype.obj
 0001:0007c23c       __iswpunct_l               1007d23c f i LIBCMT:_wctype.obj
 0001:0007c24d       __iswspace_l               1007d24d f i LIBCMT:_wctype.obj
 0001:0007c25e       __iswupper_l               1007d25e f i LIBCMT:_wctype.obj
 0001:0007c26f       __iswxdigit_l              1007d26f f i LIBCMT:_wctype.obj
 0001:0007c283       _isleadbyte                1007d283 f i LIBCMT:_wctype.obj
 0001:0007c294       _iswalnum                  1007d294 f i LIBCMT:_wctype.obj
 0001:0007c2a8       _iswalpha                  1007d2a8 f i LIBCMT:_wctype.obj
 0001:0007c2bc       _iswascii                  1007d2bc f i LIBCMT:_wctype.obj
 0001:0007c2ce       _iswblank                  1007d2ce f i LIBCMT:_wctype.obj
 0001:0007c2e9       _iswcntrl                  1007d2e9 f i LIBCMT:_wctype.obj
 0001:0007c2fa       _iswdigit                  1007d2fa f i LIBCMT:_wctype.obj
 0001:0007c30b       _iswgraph                  1007d30b f i LIBCMT:_wctype.obj
 0001:0007c31f       _iswlower                  1007d31f f i LIBCMT:_wctype.obj
 0001:0007c330       _iswprint                  1007d330 f i LIBCMT:_wctype.obj
 0001:0007c344       _iswpunct                  1007d344 f i LIBCMT:_wctype.obj
 0001:0007c355       _iswspace                  1007d355 f i LIBCMT:_wctype.obj
 0001:0007c366       _iswupper                  1007d366 f i LIBCMT:_wctype.obj
 0001:0007c377       _iswxdigit                 1007d377 f i LIBCMT:_wctype.obj
 0001:0007c5af       ___crtLCMapStringA         1007d5af f   LIBCMT:a_map.obj
 0001:0007c600       _exp                       1007d600 f   LIBCMT:87ctran.obj
 0001:0007c63c       __CIexp                    1007d63c f   LIBCMT:87ctran.obj
 0001:0007c677       __exp_default              1007d677 f   LIBCMT:87ctran.obj
 0001:0007c681       __CIexp_default            1007d681 f   LIBCMT:87ctran.obj
 0001:0007c690       _acos                      1007d690 f   LIBCMT:acos.obj
 0001:0007c6d0       __CIacos                   1007d6d0 f   LIBCMT:acos.obj
 0001:0007c70b       __CIacos_default           1007d70b f   LIBCMT:acos.obj
 0001:0007c71f       __acos_default             1007d71f     LIBCMT:acos.obj
 0001:0007c7d6       __XcptFilter               1007d7d6 f   LIBCMT:winxfltr.obj
 0001:0007c931       ___CppXcptFilter           1007d931 f   LIBCMT:winxfltr.obj
 0001:0007c983       __set_pgmptr               1007d983 f i LIBCMT:stdargv.obj
 0001:0007c990       __setargv                  1007d990 f   LIBCMT:stdargv.obj
 0001:0007cbbf       __setenvp                  1007dbbf f   LIBCMT:stdenvp.obj
 0001:0007cca0       ___security_init_cookie    1007dca0 f   LIBCMT:gs_support.obj
 0001:0007cd3c       ___crtGetEnvironmentStringsA 1007dd3c f   LIBCMT:a_env.obj
 0001:0007cdc9       __getbuf                   1007ddc9 f   LIBCMT:_getbuf.obj
 0001:0007ce0f       __fcloseall                1007de0f f   LIBCMT:closeall.obj
 0001:0007ceac       __isatty                   1007deac f   LIBCMT:isatty.obj
 0001:0007cf00       ___lock_fhandle            1007df00 f   LIBCMT:osfinfo.obj
 0001:0007cf8e       __alloc_osfhnd             1007df8e f   LIBCMT:osfinfo.obj
 0001:0007d137       __free_osfhnd              1007e137 f   LIBCMT:osfinfo.obj
 0001:0007d1bd       __get_osfhandle            1007e1bd f   LIBCMT:osfinfo.obj
 0001:0007d224       __open_osfhandle           1007e224 f   LIBCMT:osfinfo.obj
 0001:0007d33a       __set_osfhnd               1007e33a f   LIBCMT:osfinfo.obj
 0001:0007d3bc       __unlock_fhandle           1007e3bc f   LIBCMT:osfinfo.obj
 0001:0007d3e2       __mbtowc_l                 1007e3e2 f   LIBCMT:mbtowc.obj
 0001:0007d4d7       _mbtowc                    1007e4d7 f   LIBCMT:mbtowc.obj
 0001:0007d4ef       __putwch                   1007e4ef f   LIBCMT:putwch.obj
 0001:0007d53b       __putwch_nolock            1007e53b f   LIBCMT:putwch.obj
 0001:0007d57e       __output_s_l               1007e57e f   LIBCMT:outputs.obj
 0001:0007e206       __wctomb_l                 1007f206 f   LIBCMT:wctomb.obj
 0001:0007e255       __wctomb_s_l               1007f255 f   LIBCMT:wctomb.obj
 0001:0007e379       _wctomb                    1007f379 f   LIBCMT:wctomb.obj
 0001:0007e3ac       _wctomb_s                  1007f3ac f   LIBCMT:wctomb.obj
 0001:0007e3d0       __aulldvrm                 1007f3d0 f   LIBCMT:ulldvrm.obj
 0001:0007e470       __trandisp1                1007f470 f   LIBCMT:87disp.obj
 0001:0007e4d7       __trandisp2                1007f4d7 f   LIBCMT:87disp.obj
 0001:0007e563       __rttospopde               1007f563     LIBCMT:87disp.obj
 0001:0007e568       __rttospop                 1007f568     LIBCMT:87disp.obj
 0001:0007e56a       __rtnospop                 1007f56a     LIBCMT:87disp.obj
 0001:0007e56c       __rttosnpop                1007f56c     LIBCMT:87disp.obj
 0001:0007e56d       __rtnospopde               1007f56d     LIBCMT:87disp.obj
 0001:0007e574       __rtzeropop                1007f574     LIBCMT:87disp.obj
 0001:0007e576       __rtzeronpop               1007f576     LIBCMT:87disp.obj
 0001:0007e57b       __rtonepop                 1007f57b     LIBCMT:87disp.obj
 0001:0007e57d       __rtonenpop                1007f57d     LIBCMT:87disp.obj
 0001:0007e582       __tosnan1                  1007f582     LIBCMT:87disp.obj
 0001:0007e5ad       __nosnan2                  1007f5ad     LIBCMT:87disp.obj
 0001:0007e5af       __tosnan2                  1007f5af     LIBCMT:87disp.obj
 0001:0007e5d7       __nan2                     1007f5d7     LIBCMT:87disp.obj
 0001:0007e616       __rtindfpop                1007f616     LIBCMT:87disp.obj
 0001:0007e618       __rtindfnpop               1007f618     LIBCMT:87disp.obj
 0001:0007e629       __rttosnpopde              1007f629     LIBCMT:87disp.obj
 0001:0007e633       __rtchsifneg               1007f633     LIBCMT:87disp.obj
 0001:0007e640       __startTwoArgErrorHandling 1007f640 f   LIBCMT:genexcep.obj
 0001:0007e657       __startOneArgErrorHandling 1007f657 f   LIBCMT:genexcep.obj
 0001:0007e6a0       __twoToTOS                 1007f6a0 f   LIBCMT:common.obj
 0001:0007e6b5       __load_CW                  1007f6b5 f   LIBCMT:common.obj
 0001:0007e6cc       __convertTOStoQNaN         1007f6cc f   LIBCMT:common.obj
 0001:0007e6e5       __fload_withFB             1007f6e5 f   LIBCMT:common.obj
 0001:0007e728       __checkTOS_withFB          1007f728 f   LIBCMT:common.obj
 0001:0007e73e       __fast_exit                1007f73e f   LIBCMT:common.obj
 0001:0007e74b       __math_exit                1007f74b f   LIBCMT:common.obj
 0001:0007e775       __check_overflow_exit      1007f775 f   LIBCMT:common.obj
 0001:0007e789       __check_range_exit         1007f789 f   LIBCMT:common.obj
 0001:0007e82c       __matherr                  1007f82c f   LIBCMT:matherr.obj
 0001:0007e830       _strrchr                   1007f830 f   LIBCMT:strrchr.obj
 0001:0007e967       __fptostr                  1007f967 f   LIBCMT:_fptostr.obj
 0001:0007ea17       ___crt_atoflt_l            1007fa17 f   LIBCMT:atodbl.obj
 0001:0007eabb       __atodbl                   1007fabb f   LIBCMT:atodbl.obj
 0001:0007ead0       __atodbl_l                 1007fad0 f   LIBCMT:atodbl.obj
 0001:0007eb5e       __atoflt                   1007fb5e f   LIBCMT:atodbl.obj
 0001:0007eb73       __atoflt_l                 1007fb73 f   LIBCMT:atodbl.obj
 0001:0007eb8b       __atoldbl                  1007fb8b f   LIBCMT:atodbl.obj
 0001:0007eba0       __atoldbl_l                1007fba0 f   LIBCMT:atodbl.obj
 0001:0007ec2f       ___dtold                   1007fc2f f   LIBCMT:cfout.obj
 0001:0007ecf7       __fltout2                  1007fcf7 f   LIBCMT:cfout.obj
 0001:0007ed90       __alldvrm                  1007fd90 f   LIBCMT:lldvrm.obj
 0001:0007ee70       __aullshr                  1007fe70 f   LIBCMT:ullshr.obj
 0001:0007ee8f       __get_output_format        1007fe8f f   LIBCMT:outputformat.obj
 0001:0007ee95       __set_output_format        1007fe95 f   LIBCMT:outputformat.obj
 0001:0007eec7       __controlfp_s              1007fec7 f   LIBCMT:contrlfp.obj
 0001:0007ef24       __fptrap                   1007ff24 f   LIBCMT:crt0fp.obj
 0001:0007ef2d       _strncpy_s                 1007ff2d f   LIBCMT:strncpy_s.obj
 0001:0007f0b5       ___crtGetLocaleInfoA       100800b5 f   LIBCMT:a_loc.obj
 0001:0007f0ef       _GetTableIndexFromLcid     100800ef f   LIBCMT:winapinls.obj
 0001:0007f124       _GetTableIndexFromLocaleName 10080124 f   LIBCMT:winapinls.obj
 0001:0007f172       ___crtCompareStringEx      10080172 f   LIBCMT:winapinls.obj
 0001:0007f1be       ___crtDownlevelLCIDToLocaleName 100801be f   LIBCMT:winapinls.obj
 0001:0007f23a       ___crtDownlevelLocaleNameToLCID 1008023a f   LIBCMT:winapinls.obj
 0001:0007f278       ___crtEnumSystemLocalesEx  10080278 f   LIBCMT:winapinls.obj
 0001:0007f2b5       ___crtGetDateFormatEx      100802b5 f   LIBCMT:winapinls.obj
 0001:0007f2fe       ___crtGetLocaleInfoEx      100802fe f   LIBCMT:winapinls.obj
 0001:0007f32d       ___crtGetTimeFormatEx      1008032d f   LIBCMT:winapinls.obj
 0001:0007f362       ___crtGetUserDefaultLocaleName 10080362 f   LIBCMT:winapinls.obj
 0001:0007f38d       ___crtIsValidLocaleName    1008038d f   LIBCMT:winapinls.obj
 0001:0007f3b8       ___crtLCMapStringEx        100803b8 f   LIBCMT:winapinls.obj
 0001:0007f404       ___wcsnicmp_ascii          10080404 f   LIBCMT:winapinls.obj
 0001:0007f472       __open                     10080472 f   LIBCMT:open.obj
 0001:0007f522       __sopen                    10080522 f   LIBCMT:open.obj
 0001:0007f555       __sopen_helper             10080555 f   LIBCMT:open.obj
 0001:0007f61e       __sopen_nolock             1008061e f   LIBCMT:open.obj
 0001:0007f66c       __sopen_s                  1008066c f   LIBCMT:open.obj
 0001:0007f68a       __mbsnbcmp                 1008068a f   LIBCMT:mbsnbcmp.obj
 0001:0007f6a2       __mbsnbcmp_l               100806a2 f   LIBCMT:mbsnbcmp.obj
 0001:0007f7b9       __mbsnbicmp                100807b9 f   LIBCMT:mbsnbicm.obj
 0001:0007f7d1       __mbsnbicmp_l              100807d1 f   LIBCMT:mbsnbicm.obj
 0001:0007f990       __global_unwind2           10080990 f   LIBCMT:exsup.obj
 0001:0007f9f5       __local_unwind2            100809f5 f   LIBCMT:exsup.obj
 0001:0007fa79       __abnormal_termination     10080a79 f   LIBCMT:exsup.obj
 0001:0007fa9c       __NLG_Notify1              10080a9c f   LIBCMT:exsup.obj
 0001:0007faa5       __NLG_Notify               10080aa5 f   LIBCMT:exsup.obj
 0001:0007fabc       __NLG_Dispatch             10080abc     LIBCMT:exsup.obj
 0001:0007fabc       __NLG_Dispatch2            10080abc     LIBCMT:exsup.obj
 0001:0007fac4       __NLG_Call                 10080ac4 f   LIBCMT:exsup.obj
 0001:0007fac6       __NLG_Return2              10080ac6     LIBCMT:exsup.obj
 0001:0007fac7       __ungetc_nolock            10080ac7 f   LIBCMT:ungetc.obj
 0001:0007fba7       _ungetc                    10080ba7 f   LIBCMT:ungetc.obj
 0001:0007fc20       __allmul                   10080c20 f   LIBCMT:llmul.obj
 0001:0007fc54       _wcscat_s                  10080c54 f   LIBCMT:wcscat_s.obj
 0001:0007fcc0       _wcscpy_s                  10080cc0 f   LIBCMT:wcscpy_s.obj
 0001:0007fd1c       _wcslen                    10080d1c f   LIBCMT:wcslen.obj
 0001:0007fd35       _wcsncpy_s                 10080d35 f   LIBCMT:wcsncpy_s.obj
 0001:0007fdf3       ___set_app_type            10080df3 f   LIBCMT:errmode.obj
 0001:0007fe00       __set_error_mode           10080e00 f   LIBCMT:errmode.obj
 0001:0007fe43       ___crtMessageBoxW          10080e43 f   LIBCMT:crtmboxw.obj
 0001:00080029       ___crtMessageBoxWaitThreadW@4 10081029 f   LIBCMT:crtmboxw.obj
 0001:00080047       __recalloc                 10081047 f   LIBCMT:recalloc.obj
 0001:000800b0       __calloc_impl              100810b0 f   LIBCMT:calloc_impl.obj
 0001:00080222       ___crtGetStringTypeA       10081222 f   LIBCMT:a_str.obj
 0001:00080262       ___free_lconv_mon          10081262 f   LIBCMT:initmon.obj
 0001:0008035e       ___init_monetary           1008135e f   LIBCMT:initmon.obj
 0001:00080737       ___free_lconv_num          10081737 f   LIBCMT:initnum.obj
 0001:0008079e       ___init_numeric            1008179e f   LIBCMT:initnum.obj
 0001:000809dc       ___free_lc_time            100819dc f   LIBCMT:inittime.obj
 0001:00080d5c       ___init_time               10081d5c f   LIBCMT:inittime.obj
 0001:000815cb       _localeconv                100825cb f   LIBCMT:lconv.obj
 0001:000815f1       __wcsicmp                  100825f1 f   LIBCMT:wcsicmp.obj
 0001:00081684       __wcsicmp_l                10082684 f   LIBCMT:wcsicmp.obj
 0001:0008175f       __mbstowcs_l               1008275f f   LIBCMT:mbstowcs.obj
 0001:00081768       __mbstowcs_l_helper        10082768 f   LIBCMT:mbstowcs.obj
 0001:000818c9       __mbstowcs_s_l             100828c9 f   LIBCMT:mbstowcs.obj
 0001:000819a7       _mbstowcs                  100829a7 f   LIBCMT:mbstowcs.obj
 0001:000819cf       _mbstowcs_s                100829cf f   LIBCMT:mbstowcs.obj
 0001:000819f0       __alloca_probe_16          100829f0 f   LIBCMT:alloca16.obj
 0001:00081a06       __alloca_probe_8           10082a06     LIBCMT:alloca16.obj
 0001:00081a1c       ___pctype_func             10082a1c f   LIBCMT:ctype.obj
 0001:00081a45       ___pwctype_func            10082a45 f   LIBCMT:ctype.obj
 0001:00081a4b       __dupenv_s                 10082a4b f   LIBCMT:getenv.obj
 0001:00081bbe       __getenv_helper_nolock     10082bbe f   LIBCMT:getenv.obj
 0001:00081cdd       _getenv                    10082cdd f   LIBCMT:getenv.obj
 0001:00081d5d       _getenv_s                  10082d5d f   LIBCMT:getenv.obj
 0001:00081e2e       ____lc_codepage_func       10082e2e f   LIBCMT:initctyp.obj
 0001:00081e54       ____lc_collate_cp_func     10082e54 f   LIBCMT:initctyp.obj
 0001:00081e7a       ____lc_locale_name_func    10082e7a f   LIBCMT:initctyp.obj
 0001:00081ea2       ____mb_cur_max_func        10082ea2 f   LIBCMT:initctyp.obj
 0001:00081ec8       ____mb_cur_max_l_func      10082ec8 f   LIBCMT:initctyp.obj
 0001:00081edf       ___init_ctype              10082edf f   LIBCMT:initctyp.obj
 0001:00082277       ?_ValidateExecute@@YAHP6GHXZ@Z 10083277 f   LIBCMT:validate.obj
 0001:00082286       ?_ValidateRead@@YAHPBXI@Z  10083286 f   LIBCMT:validate.obj
 0001:00082295       ?_ValidateWrite@@YAHPAXI@Z 10083295 f   LIBCMT:validate.obj
 0001:000822a4       __sse2_mathfcns_init       100832a4 f   LIBCMT:mathfcns.obj
 0001:000822b3       __set_SSE2_enable          100832b3 f   LIBCMT:mathfcns.obj
 0001:000822e0       __CIcos_pentium4           100832e0 f   LIBCMT:cos_pentium4.obj
 0001:000822f8       __cos_pentium4             100832f8     LIBCMT:cos_pentium4.obj
 0001:00082490       __CIpow_pentium4           10083490 f   LIBCMT:pow_pentium4.obj
 0001:000824a9       __pow_pentium4             100834a9     LIBCMT:pow_pentium4.obj
 0001:00083001       __fFEXP                    10084001     LIBCMT:87tran.obj
 0001:00083058       __rtinfpopse               10084058     LIBCMT:87tran.obj
 0001:0008305a       __rtinfnpopse              1008405a     LIBCMT:87tran.obj
 0001:0008306a       __fFLN                     1008406a     LIBCMT:87tran.obj
 0001:0008311f       __rtinfpop                 1008411f     LIBCMT:87tran.obj
 0001:00083121       __rtinfnpop                10084121     LIBCMT:87tran.obj
 0001:0008313e       __ffexpm1                  1008413e     LIBCMT:87tran.obj
 0001:000831e7       __d_inttype                100841e7 f   LIBCMT:powhlp.obj
 0001:0008324f       __powhlp                   1008424f f   LIBCMT:powhlp.obj
 0001:00083390       __CIsin_pentium4           10084390 f   LIBCMT:sin_pentium4.obj
 0001:000833a8       __sin_pentium4             100843a8     LIBCMT:sin_pentium4.obj
 0001:00083558       ??0Block@_HeapManager@@QAE@XZ 10084558 f i LIBCMT:undname.obj
 0001:0008355e       ??0DName@@QAE@AAPBDD@Z     1008455e f   LIBCMT:undname.obj
 0001:00083617       ??0DName@@QAE@ABV0@@Z      10084617 f i LIBCMT:undname.obj
 0001:0008362d       ??0DName@@QAE@D@Z          1008462d f   LIBCMT:undname.obj
 0001:00083659       ??0DName@@QAE@PAV0@@Z      10084659 f   LIBCMT:undname.obj
 0001:000836a6       ??0DName@@QAE@PBD@Z        100846a6 f   LIBCMT:undname.obj
 0001:000836e0       ??0DName@@QAE@W4DNameStatus@@@Z 100846e0 f   LIBCMT:undname.obj
 0001:00083723       ??0DName@@QAE@XZ           10084723 f i LIBCMT:undname.obj
 0001:00083734       ??0DName@@QAE@_J@Z         10084734 f   LIBCMT:undname.obj
 0001:000837c7       ??0DName@@QAE@_K@Z         100847c7 f   LIBCMT:undname.obj
 0001:00083834       ??0DNameNode@@IAE@XZ       10084834 f   LIBCMT:undname.obj
 0001:0008383d       ??0DNameStatusNode@@AAE@W4DNameStatus@@@Z 1008483d f   LIBCMT:undname.obj
 0001:00083860       ??0Replicator@@QAE@XZ      10084860 f i LIBCMT:undname.obj
 0001:00083866       ??0UnDecorator@@QAE@PADPBDHP6APADJ@ZK@Z 10084866 f i LIBCMT:undname.obj
 0001:000838cf       ??0charNode@@QAE@D@Z       100848cf f   LIBCMT:undname.obj
 0001:000838e4       ??0pDNameNode@@QAE@PAVDName@@@Z 100848e4 f   LIBCMT:undname.obj
 0001:0008390c       ??0pairNode@@QAE@PAVDNameNode@@0@Z 1008490c f   LIBCMT:undname.obj
 0001:0008392b       ??0pcharNode@@QAE@PBDH@Z   1008492b f   LIBCMT:undname.obj
 0001:00083982       ??2@YAPAXIAAV_HeapManager@@H@Z 10084982 f i LIBCMT:undname.obj
 0001:00083997       ??4DName@@QAEAAV0@ABV0@@Z  10084997 f   LIBCMT:undname.obj
 0001:000839ad       ??4DName@@QAEAAV0@D@Z      100849ad f i LIBCMT:undname.obj
 0001:000839d9       ??4DName@@QAEAAV0@PAV0@@Z  100849d9 f   LIBCMT:undname.obj
 0001:00083a22       ??4DName@@QAEAAV0@PBD@Z    10084a22 f   LIBCMT:undname.obj
 0001:00083a54       ??4DName@@QAEAAV0@W4DNameStatus@@@Z 10084a54 f   LIBCMT:undname.obj
 0001:00083a89       ??AReplicator@@QBE?AVDName@@H@Z 10084a89 f   LIBCMT:undname.obj
 0001:00083ac5       ??BUnDecorator@@QAEPADXZ   10084ac5 f i LIBCMT:undname.obj
 0001:00083c44       ??H@YA?AVDName@@DABV0@@Z   10084c44 f i LIBCMT:undname.obj
 0001:00083c68       ??H@YA?AVDName@@PBDABV0@@Z 10084c68 f i LIBCMT:undname.obj
 0001:00083c8c       ??H@YA?AVDName@@W4DNameStatus@@ABV0@@Z 10084c8c f i LIBCMT:undname.obj
 0001:00083cb0       ??HDName@@QBE?AV0@ABV0@@Z  10084cb0 f   LIBCMT:undname.obj
 0001:00083cd2       ??HDName@@QBE?AV0@D@Z      10084cd2 f   LIBCMT:undname.obj
 0001:00083cf4       ??HDName@@QBE?AV0@PAV0@@Z  10084cf4 f   LIBCMT:undname.obj
 0001:00083d16       ??HDName@@QBE?AV0@PBD@Z    10084d16 f   LIBCMT:undname.obj
 0001:00083d38       ??HDName@@QBE?AV0@W4DNameStatus@@@Z 10084d38 f   LIBCMT:undname.obj
 0001:00083d5a       ??YDName@@QAEAAV0@ABV0@@Z  10084d5a f   LIBCMT:undname.obj
 0001:00083d9d       ??YDName@@QAEAAV0@D@Z      10084d9d f   LIBCMT:undname.obj
 0001:00083ded       ??YDName@@QAEAAV0@PAV0@@Z  10084ded f   LIBCMT:undname.obj
 0001:00083e52       ??YDName@@QAEAAV0@PBD@Z    10084e52 f   LIBCMT:undname.obj
 0001:00083eb3       ??YDName@@QAEAAV0@W4DNameStatus@@@Z 10084eb3 f   LIBCMT:undname.obj
 0001:00083ef3       ??YReplicator@@QAEAAV0@ABVDName@@@Z 10084ef3 f   LIBCMT:undname.obj
 0001:00083f3d       ??_5DName@@QAEAAV0@ABV0@@Z 10084f3d f   LIBCMT:undname.obj
 0001:00083f59       ?Constructor@_HeapManager@@QAEXP6APAXI@ZP6AXPAX@Z@Z 10084f59 f i LIBCMT:undname.obj
 0001:00083f76       ?Destructor@_HeapManager@@QAEXXZ 10084f76 f i LIBCMT:undname.obj
 0001:00083f9c       ?UScore@UnDecorator@@SAPBDW4Tokens@@@Z 10084f9c f   LIBCMT:undname.obj
 0001:00083fb9       ?append@DName@@AAEXPAVDNameNode@@@Z 10084fb9 f   LIBCMT:undname.obj
 0001:00083fff       ?composeDeclaration@UnDecorator@@CA?AVDName@@ABV2@@Z 10084fff f i LIBCMT:undname.obj
 0001:00084d35       ?doAccessSpecifiers@UnDecorator@@SAHXZ 10085d35 f i LIBCMT:undname.obj
 0001:00084d43       ?doAllocationLanguage@UnDecorator@@SAHXZ 10085d43 f i LIBCMT:undname.obj
 0001:00084d51       ?doAllocationModel@UnDecorator@@SAHXZ 10085d51 f i LIBCMT:undname.obj
 0001:00084d5f       ?doEcsu@UnDecorator@@SAHXZ 10085d5f f i LIBCMT:undname.obj
 0001:00084d6d       ?doEllipsis@UnDecorator@@SAHXZ 10085d6d f i LIBCMT:undname.obj
 0001:00084d7b       ?doFunctionReturns@UnDecorator@@SAHXZ 10085d7b f i LIBCMT:undname.obj
 0001:00084d89       ?doMSKeywords@UnDecorator@@SAHXZ 10085d89 f i LIBCMT:undname.obj
 0001:00084d96       ?doMemberTypes@UnDecorator@@SAHXZ 10085d96 f i LIBCMT:undname.obj
 0001:00084da4       ?doNameOnly@UnDecorator@@SAHXZ 10085da4 f i LIBCMT:undname.obj
 0001:00084daf       ?doNoIdentCharCheck@UnDecorator@@SAHXZ 10085daf f i LIBCMT:undname.obj
 0001:00084dba       ?doPchar@DName@@AAEXPBDH@Z 10085dba f   LIBCMT:undname.obj
 0001:00084e42       ?doPtr64@UnDecorator@@SAHXZ 10085e42 f i LIBCMT:undname.obj
 0001:00084e50       ?doRestrictionSpec@UnDecorator@@SAHXZ 10085e50 f i LIBCMT:undname.obj
 0001:00084e5e       ?doThisTypes@UnDecorator@@SAHXZ 10085e5e f i LIBCMT:undname.obj
 0001:00084e70       ?doThrowTypes@UnDecorator@@SAHXZ 10085e70 f i LIBCMT:undname.obj
 0001:00084e7e       ?doTypeOnly@UnDecorator@@SAHXZ 10085e7e f i LIBCMT:undname.obj
 0001:00084e89       ?doUnderScore@UnDecorator@@SAHXZ 10085e89 f i LIBCMT:undname.obj
 0001:00084e94       ?getArgumentList@UnDecorator@@CA?AVDName@@XZ 10085e94 f   LIBCMT:undname.obj
 0001:00084fa0       ?getArgumentTypes@UnDecorator@@CA?AVDName@@XZ 10085fa0 f   LIBCMT:undname.obj
 0001:0008507e       ?getArrayType@UnDecorator@@CA?AVDName@@ABV2@@Z 1008607e f i LIBCMT:undname.obj
 0001:00085280       ?getBasedType@UnDecorator@@CA?AVDName@@XZ 10086280 f   LIBCMT:undname.obj
 0001:00085317       ?getBasicDataType@UnDecorator@@CA?AVDName@@ABV2@@Z 10086317 f   LIBCMT:undname.obj
 0001:000856ee       ?getCallIndex@UnDecorator@@CA?AVDName@@XZ 100866ee f i LIBCMT:undname.obj
 0001:00085702       ?getCallingConvention@UnDecorator@@CA?AVDName@@XZ 10086702 f   LIBCMT:undname.obj
 0001:000857c1       ?getDataIndirectType@UnDecorator@@CA?AVDName@@ABV2@PBD0H@Z 100867c1 f   LIBCMT:undname.obj
 0001:00085d5e       ?getDataIndirectType@UnDecorator@@CA?AVDName@@XZ 10086d5e f i LIBCMT:undname.obj
 0001:00085d97       ?getDataType@UnDecorator@@CA?AVDName@@PAV2@@Z 10086d97 f   LIBCMT:undname.obj
 0001:00085e69       ?getDecoratedName@UnDecorator@@CA?AVDName@@XZ 10086e69 f   LIBCMT:undname.obj
 0001:000860b5       ?getDimension@UnDecorator@@CA?AVDName@@_N@Z 100870b5 f   LIBCMT:undname.obj
 0001:000861ec       ?getDispatchTarget@UnDecorator@@CA?AVDName@@XZ 100871ec f   LIBCMT:undname.obj
 0001:00086247       ?getDisplacement@UnDecorator@@CA?AVDName@@XZ 10087247 f i LIBCMT:undname.obj
 0001:0008625b       ?getECSUDataType@UnDecorator@@CA?AVDName@@XZ 1008725b f   LIBCMT:undname.obj
 0001:0008636e       ?getECSUName@UnDecorator@@CA?AVDName@@XZ 1008736e f i LIBCMT:undname.obj
 0001:0008637f       ?getEnumType@UnDecorator@@CA?AVDName@@XZ 1008737f f i LIBCMT:undname.obj
 0001:00086463       ?getExtendedDataIndirectType@UnDecorator@@CA?AVDName@@AAPBDAA_NH@Z 10087463 f   LIBCMT:undname.obj
 0001:00086608       ?getExternalDataType@UnDecorator@@CA?AVDName@@ABV2@@Z 10087608 f i LIBCMT:undname.obj
 0001:00086681       ?getFunctionIndirectType@UnDecorator@@CA?AVDName@@ABV2@@Z 10087681 f   LIBCMT:undname.obj
 0001:00086a77       ?getGuardNumber@UnDecorator@@CA?AVDName@@XZ 10087a77 f i LIBCMT:undname.obj
 0001:00086a8b       ?getLastChar@DName@@QBEDXZ 10087a8b f i LIBCMT:undname.obj
 0001:00086a99       ?getLastChar@DNameStatusNode@@UBEDXZ 10087a99 f i LIBCMT:undname.obj
 0001:00086aa5       ?getLastChar@charNode@@UBEDXZ 10087aa5 f i LIBCMT:undname.obj
 0001:00086aa9       ?getLastChar@pDNameNode@@UBEDXZ 10087aa9 f i LIBCMT:undname.obj
 0001:00086abe       ?getLastChar@pairNode@@UBEDXZ 10087abe f i LIBCMT:undname.obj
 0001:00086ad8       ?getLastChar@pcharNode@@UBEDXZ 10087ad8 f i LIBCMT:undname.obj
 0001:00086aea       ?getLexicalFrame@UnDecorator@@CA?AVDName@@XZ 10087aea f i LIBCMT:undname.obj
 0001:00086b27       ?getMemory@_HeapManager@@QAEPAXIH@Z 10087b27 f   LIBCMT:undname.obj
 0001:00086bac       ?getNumberOfDimensions@UnDecorator@@CAHXZ 10087bac f   LIBCMT:undname.obj
 0001:00086c0d       ?getOperatorName@UnDecorator@@CA?AVDName@@_NPA_N@Z 10087c0d f i LIBCMT:undname.obj
 0001:000871e7       ?getPointerType@UnDecorator@@CA?AVDName@@ABV2@0@Z 100881e7 f i LIBCMT:undname.obj
 0001:00087205       ?getPointerTypeArray@UnDecorator@@CA?AVDName@@ABV2@0@Z 10088205 f i LIBCMT:undname.obj
 0001:00087223       ?getPrimaryDataType@UnDecorator@@CA?AVDName@@ABV2@@Z 10088223 f   LIBCMT:undname.obj
 0001:000873db       ?getPtrRefDataType@UnDecorator@@CA?AVDName@@ABV2@H@Z 100883db f i LIBCMT:undname.obj
 0001:000874c5       ?getPtrRefType@UnDecorator@@CA?AVDName@@ABV2@0PBD@Z 100884c5 f   LIBCMT:undname.obj
 0001:000875c1       ?getReferenceType@UnDecorator@@CA?AVDName@@ABV2@0PBD@Z 100885c1 f i LIBCMT:undname.obj
 0001:000875dd       ?getRestrictionSpec@UnDecorator@@CA?AVDName@@XZ 100885dd f   LIBCMT:undname.obj
 0001:000876cb       ?getReturnType@UnDecorator@@CA?AVDName@@PAV2@@Z 100886cb f   LIBCMT:undname.obj
 0001:000876fa       ?getScope@UnDecorator@@CA?AVDName@@XZ 100886fa f   LIBCMT:undname.obj
 0001:00087ad1       ?getScopedName@UnDecorator@@CA?AVDName@@XZ 10088ad1 f   LIBCMT:undname.obj
 0001:00087bcc       ?getSignedDimension@UnDecorator@@CA?AVDName@@XZ 10088bcc f   LIBCMT:undname.obj
 0001:00087c1f       ?getStorageConvention@UnDecorator@@CA?AVDName@@XZ 10088c1f f i LIBCMT:undname.obj
 0001:00087c30       ?getString@DName@@QBEPADPAD0@Z 10088c30 f i LIBCMT:undname.obj
 0001:00087c46       ?getString@DName@@QBEPADPADH@Z 10088c46 f i LIBCMT:undname.obj
 0001:00087ca4       ?getString@DNameStatusNode@@UBEPADPAD0@Z 10088ca4 f i LIBCMT:undname.obj
 0001:00087ccb       ?getString@charNode@@UBEPADPAD0@Z 10088ccb f i LIBCMT:undname.obj
 0001:00087ce0       ?getString@pDNameNode@@UBEPADPAD0@Z 10088ce0 f i LIBCMT:undname.obj
 0001:00087cfd       ?getString@pairNode@@UBEPADPAD0@Z 10088cfd f i LIBCMT:undname.obj
 0001:00087d27       ?getString@pcharNode@@UBEPADPAD0@Z 10088d27 f i LIBCMT:undname.obj
 0001:00087d42       ?getStringEncoding@UnDecorator@@CA?AVDName@@PADH@Z 10088d42 f   LIBCMT:undname.obj
 0001:00087de5       ?getStringHelper@@YAPADPAD00H@Z 10088de5 f i LIBCMT:undname.obj
 0001:00087e1a       ?getSymbolName@UnDecorator@@CA?AVDName@@XZ 10088e1a f i LIBCMT:undname.obj
 0001:00087e62       ?getTemplateArgumentList@UnDecorator@@CA?AVDName@@XZ 10088e62 f   LIBCMT:undname.obj
 0001:000880db       ?getTemplateConstant@UnDecorator@@CA?AVDName@@XZ 100890db f   LIBCMT:undname.obj
 0001:000883db       ?getTemplateName@UnDecorator@@CA?AVDName@@_N@Z 100893db f   LIBCMT:undname.obj
 0001:00088535       ?getThisType@UnDecorator@@CA?AVDName@@XZ 10089535 f i LIBCMT:undname.obj
 0001:0008856f       ?getThrowTypes@UnDecorator@@CA?AVDName@@XZ 1008956f f   LIBCMT:undname.obj
 0001:000885f9       ?getTypeEncoding@UnDecorator@@CAHXZ 100895f9 f i LIBCMT:undname.obj
 0001:00088ae9       ?getVCallThunkType@UnDecorator@@CA?AVDName@@XZ 10089ae9 f i LIBCMT:undname.obj
 0001:00088b24       ?getVbTableType@UnDecorator@@CA?AVDName@@ABV2@@Z 10089b24 f i LIBCMT:undname.obj
 0001:00088b39       ?getVdispMapType@UnDecorator@@CA?AVDName@@ABV2@@Z 10089b39 f i LIBCMT:undname.obj
 0001:00088b8f       ?getVfTableType@UnDecorator@@CA?AVDName@@ABV2@@Z 10089b8f f i LIBCMT:undname.obj
 0001:00088cf4       ?getZName@UnDecorator@@CA?AVDName@@_N0@Z 10089cf4 f   LIBCMT:undname.obj
 0001:00088f1e       ?haveTemplateParameters@UnDecorator@@SAHXZ 10089f1e f i LIBCMT:undname.obj
 0001:00088f29       ?isArray@DName@@QBEHXZ     10089f29 f i LIBCMT:undname.obj
 0001:00088f33       ?isComArray@DName@@QBEHXZ  10089f33 f i LIBCMT:undname.obj
 0001:00088f3d       ?isEmpty@DName@@QBEHXZ     10089f3d f i LIBCMT:undname.obj
 0001:00088f45       ?isFull@Replicator@@QBEHXZ 10089f45 f i LIBCMT:undname.obj
 0001:00088f4e       ?isNoTE@DName@@QBEHXZ      10089f4e f i LIBCMT:undname.obj
 0001:00088f58       ?isPinPtr@DName@@QBEHXZ    10089f58 f i LIBCMT:undname.obj
 0001:00088f62       ?isPtrRef@DName@@QBEHXZ    10089f62 f i LIBCMT:undname.obj
 0001:00088f6c       ?isUDC@DName@@QBEHXZ       10089f6c f i LIBCMT:undname.obj
 0001:00088f7d       ?isUDTThunk@DName@@QBEHXZ  10089f7d f i LIBCMT:undname.obj
 0001:00088f8e       ?isVCallThunk@DName@@QBEHXZ 10089f8e f i LIBCMT:undname.obj
 0001:00088f98       ?isValid@DName@@QBEHXZ     10089f98 f i LIBCMT:undname.obj
 0001:00088fa2       ?length@DName@@QBEHXZ      10089fa2 f i LIBCMT:undname.obj
 0001:00088faf       ?length@DNameStatusNode@@UBEHXZ 10089faf f i LIBCMT:undname.obj
 0001:00088fb3       ?length@charNode@@UBEHXZ   10089fb3 f i LIBCMT:undname.obj
 0001:00088fb7       ?length@pDNameNode@@UBEHXZ 10089fb7 f i LIBCMT:undname.obj
 0001:00088fcb       ?length@pairNode@@UBEHXZ   10089fcb f i LIBCMT:undname.obj
 0001:00088ff4       ?length@pcharNode@@UBEHXZ  10089ff4 f i LIBCMT:undname.obj
 0001:00088ff8       ?make@DNameStatusNode@@SAPAV1@W4DNameStatus@@@Z 10089ff8 f i LIBCMT:undname.obj
 0001:0008907e       ?setIsArray@DName@@QAEXXZ  1008a07e f i LIBCMT:undname.obj
 0001:00089086       ?setIsComArray@DName@@QAEXXZ 1008a086 f i LIBCMT:undname.obj
 0001:0008908e       ?setIsNoTE@DName@@QAEXXZ   1008a08e f i LIBCMT:undname.obj
 0001:00089096       ?setIsPinPtr@DName@@QAEXXZ 1008a096 f i LIBCMT:undname.obj
 0001:0008909e       ?setIsUDC@DName@@QAEXXZ    1008a09e f i LIBCMT:undname.obj
 0001:000890ab       ?setIsVCallThunk@DName@@QAEXXZ 1008a0ab f i LIBCMT:undname.obj
 0001:000890b3       ?setPtrRef@DName@@QAEAAV1@XZ 1008a0b3 f i LIBCMT:undname.obj
 0001:000890bd       ?status@DName@@QBE?AW4DNameStatus@@XZ 1008a0bd f i LIBCMT:undname.obj
 0001:00089125       ___unDName                 1008a125 f   LIBCMT:undname.obj
 0001:000891c8       ___unDNameEx               1008a1c8 f   LIBCMT:undname.obj
 0001:00089269       __CopyMan                  1008a269 f i LIBCMT:intrncvt.obj
 0001:00089286       __FillZeroMan              1008a286 f i LIBCMT:intrncvt.obj
 0001:00089295       __IncMan                   1008a295 f i LIBCMT:intrncvt.obj
 0001:000892f7       __IsZeroMan                1008a2f7 f i LIBCMT:intrncvt.obj
 0001:00089314       __RoundMan                 1008a314 f i LIBCMT:intrncvt.obj
 0001:00089415       __ShrMan                   1008a415 f i LIBCMT:intrncvt.obj
 0001:000894a3       __ZeroTail                 1008a4a3 f i LIBCMT:intrncvt.obj
 0001:000894eb       __ld12cvt                  1008a4eb f i LIBCMT:intrncvt.obj
 0001:00089a56       __ld12tod                  1008aa56 f   LIBCMT:intrncvt.obj
 0001:00089fc8       __ld12tof                  1008afc8 f   LIBCMT:intrncvt.obj
 0001:0008a53a       __ld12told                 1008b53a f   LIBCMT:intrncvt.obj
 0001:0008a609       ___add_12                  1008b609 f i LIBCMT:mantold.obj
 0001:0008a67b       ___mtold12                 1008b67b f   LIBCMT:mantold.obj
 0001:0008a85b       __strtod_l                 1008b85b f   LIBCMT:strtod.obj
 0001:0008a972       _strtod                    1008b972 f   LIBCMT:strtod.obj
 0001:0008a987       __fstat64i32               1008b987 f   LIBCMT:fstati32.obj
 0001:0008acfd       __towlower_l               1008bcfd f   LIBCMT:towlower.obj
 0001:0008adae       _towlower                  1008bdae f   LIBCMT:towlower.obj
 0001:0008adbf       _wcspbrk                   1008bdbf f   LIBCMT:wcspbrk.obj
 0001:0008ae01       ___loctotime64_t           1008be01 f   LIBCMT:dtoxtm64.obj
 0001:0008b067       __wfullpath                1008c067 f   LIBCMT:wfullpat.obj
 0001:0008b15f       __chdrive                  1008c15f f   LIBCMT:drive.obj
 0001:0008b1dd       __getdrive                 1008c1dd f   LIBCMT:drive.obj
 0001:0008b334       __wopen                    1008c334 f   LIBCMT:wopen.obj
 0001:0008b3e4       __wsopen                   1008c3e4 f   LIBCMT:wopen.obj
 0001:0008b417       __wsopen_helper            1008c417 f   LIBCMT:wopen.obj
 0001:0008b4e0       __wsopen_nolock            1008c4e0 f   LIBCMT:wopen.obj
 0001:0008bc33       __wsopen_s                 1008cc33 f   LIBCMT:wopen.obj
 0001:0008bcfc       ___wdtoxmode               1008ccfc f   LIBCMT:wstat.obj
 0001:0008be1b       __wstat32                  1008ce1b f   LIBCMT:wstat.obj
 0001:0008c26a       ___init_collate            1008d26a f   LIBCMT:initcoll.obj
 0001:0008c38a       _memcmp                    1008d38a f   LIBCMT:memcmp.obj
 0001:0008f29e       _wcscmp                    1009029e f   LIBCMT:wcscmp.obj
 0001:0008f2dc       _wcscspn                   100902dc f   LIBCMT:wcscspn.obj
 0001:0008f327       _wcsnlen                   10090327 f   LIBCMT:wcslen_s.obj
 0001:0008f346       _wcsncmp                   10090346 f   LIBCMT:wcsncmp.obj
 0001:0008f93e       ___get_qualified_locale    1009093e f   LIBCMT:getqloc.obj
 0001:000901ae       ___get_qualified_locale_downlevel 100911ae f   LIBCMT:getqloc_downlevel.obj
 0001:000903ca       __iswctype_l               100913ca f   LIBCMT:iswctype.obj
 0001:000903dc       _is_wctype                 100913dc f   LIBCMT:iswctype.obj
 0001:000903e5       _iswctype                  100913e5 f   LIBCMT:iswctype.obj
 0001:00090440       __CIexp_pentium4           10091440 f   LIBCMT:exp_pentium4.obj
 0001:00090458       __exp_pentium4             10091458     LIBCMT:exp_pentium4.obj
 0001:00090700       __cintrindisp2             10091700 f   LIBCMT:87cdisp.obj
 0001:0009073e       __cintrindisp1             1009173e f   LIBCMT:87cdisp.obj
 0001:0009077b       __ctrandisp2               1009177b f   LIBCMT:87cdisp.obj
 0001:0009090a       __ctrandisp1               1009190a f   LIBCMT:87cdisp.obj
 0001:0009093d       __fload                    1009193d f   LIBCMT:87cdisp.obj
 0001:00090980       __CIacos_pentium4          10091980 f   LIBCMT:acos_pentium4.obj
 0001:00090998       __acos_pentium4            10091998     LIBCMT:acos_pentium4.obj
 0001:00090f2e       __ismbbalnum               10091f2e f   LIBCMT:ismbbyte.obj
 0001:00090f47       __ismbbalnum_l             10091f47 f   LIBCMT:ismbbyte.obj
 0001:00090f61       __ismbbalpha               10091f61 f   LIBCMT:ismbbyte.obj
 0001:00090f7a       __ismbbalpha_l             10091f7a f   LIBCMT:ismbbyte.obj
 0001:00090f94       __ismbbblank               10091f94 f   LIBCMT:ismbbyte.obj
 0001:00090fb5       __ismbbblank_l             10091fb5 f   LIBCMT:ismbbyte.obj
 0001:00090fd7       __ismbbgraph               10091fd7 f   LIBCMT:ismbbyte.obj
 0001:00090ff0       __ismbbgraph_l             10091ff0 f   LIBCMT:ismbbyte.obj
 0001:0009100a       __ismbbkalnum              1009200a f   LIBCMT:ismbbyte.obj
 0001:00091020       __ismbbkalnum_l            10092020 f   LIBCMT:ismbbyte.obj
 0001:00091037       __ismbbkana                10092037 f   LIBCMT:ismbbyte.obj
 0001:00091048       __ismbbkana_l              10092048 f   LIBCMT:ismbbyte.obj
 0001:00091094       __ismbbkprint              10092094 f   LIBCMT:ismbbyte.obj
 0001:000910aa       __ismbbkprint_l            100920aa f   LIBCMT:ismbbyte.obj
 0001:000910c1       __ismbbkpunct              100920c1 f   LIBCMT:ismbbyte.obj
 0001:000910d7       __ismbbkpunct_l            100920d7 f   LIBCMT:ismbbyte.obj
 0001:000910ee       __ismbblead                100920ee f   LIBCMT:ismbbyte.obj
 0001:00091104       __ismbblead_l              10092104 f   LIBCMT:ismbbyte.obj
 0001:0009111b       __ismbbprint               1009211b f   LIBCMT:ismbbyte.obj
 0001:00091134       __ismbbprint_l             10092134 f   LIBCMT:ismbbyte.obj
 0001:0009114e       __ismbbpunct               1009214e f   LIBCMT:ismbbyte.obj
 0001:00091164       __ismbbpunct_l             10092164 f   LIBCMT:ismbbyte.obj
 0001:0009117b       __ismbbtrail               1009217b f   LIBCMT:ismbbyte.obj
 0001:00091191       __ismbbtrail_l             10092191 f   LIBCMT:ismbbyte.obj
 0001:000911a8       ___termconout              100921a8 f   LIBCMT:initcon.obj
 0001:000911bf       ___initconout              100921bf f   LIBCMT:initcon.obj
 0001:000911de       __87except                 100921de f   LIBCMT:87except.obj
 0001:000912e7       _$I10_OUTPUT               100922e7 f   LIBCMT:x10fout.obj
 0001:00091df5       ___control87_2             10092df5 f   LIBCMT:ieee87.obj
 0001:00092469       __clearfp                  10093469 f   LIBCMT:ieee87.obj
 0001:00092549       __control87                10093549 f i LIBCMT:ieee87.obj
 0001:0009284b       __controlfp                1009384b f   LIBCMT:ieee87.obj
 0001:00092b56       __fpreset                  10093b56 f   LIBCMT:ieee87.obj
 0001:00092c23       __set_controlfp            10093c23 f   LIBCMT:ieee87.obj
 0001:00092c96       __statusfp                 10093c96 f   LIBCMT:ieee87.obj
 0001:00092d30       __statusfp2                10093d30 f   LIBCMT:ieee87.obj
 0001:00092d8f       __strnicmp                 10093d8f f   LIBCMT:strnicmp.obj
 0001:00092dfa       __strnicmp_l               10093dfa f   LIBCMT:strnicmp.obj
 0001:00092eab       _strnlen                   10093eab f   LIBCMT:strlen_s.obj
 0001:00092ec6       ___wtomb_environ           10093ec6 f   LIBCMT:wtombenv.obj
 0001:00092f55       _calloc                    10093f55 f   LIBCMT:calloc.obj
 0001:00092f95       __mbsnbicoll               10093f95 f   LIBCMT:mbsnbico.obj
 0001:00092fad       __mbsnbicoll_l             10093fad f   LIBCMT:mbsnbico.obj
 0001:00093063       __frnd                     10094063 f   LIBCMT:frnd.obj
 0001:00093077       __chgsign                  10094077 f   LIBCMT:ieeemisc.obj
 0001:000930a4       __chgsignf                 100940a4 f   LIBCMT:ieeemisc.obj
 0001:000930c5       __copysign                 100940c5 f   LIBCMT:ieeemisc.obj
 0001:000930ed       __copysignf                100940ed f   LIBCMT:ieeemisc.obj
 0001:00093109       __finite                   10094109 f   LIBCMT:ieeemisc.obj
 0001:00093121       __fpclass                  10094121 f   LIBCMT:ieeemisc.obj
 0001:000931bd       __isnan                    100941bd f   LIBCMT:ieeemisc.obj
 0001:000931f0       __logb                     100941f0 f   LIBCMT:ieeemisc.obj
 0001:000932d1       __nextafter                100942d1 f   LIBCMT:ieeemisc.obj
 0001:00093571       __scalb                    10094571 f   LIBCMT:ieeemisc.obj
 0001:00093590       __SEH_prolog4_GS           10094590 f   LIBCMT:sehprolg4gs.obj
 0001:000935d8       __SEH_epilog4_GS           100945d8 f   LIBCMT:sehprolg4gs.obj
 0001:000935e7       ___crtLCMapStringW         100945e7 f   LIBCMT:w_map.obj
 0001:00093616       __wgetcwd                  10094616 f   LIBCMT:wgetcwd.obj
 0001:0009362b       __wgetdcwd                 1009462b f   LIBCMT:wgetcwd.obj
 0001:00093768       __chsize                   10094768 f   LIBCMT:chsize.obj
 0001:00093782       __chsize_nolock            10094782 f   LIBCMT:chsize.obj
 0001:00093938       __chsize_s                 10094938 f   LIBCMT:chsize.obj
 0001:00093a26       __get_fmode                10094a26 f   LIBCMT:setmode.obj
 0001:00093a50       __set_fmode                10094a50 f   LIBCMT:setmode.obj
 0001:00093a8b       __setmode                  10094a8b f   LIBCMT:setmode.obj
 0001:00093b90       __setmode_nolock           10094b90 f   LIBCMT:setmode.obj
 0001:00093c5d       __fstat32                  10094c5d f   LIBCMT:fstat.obj
 0001:00093fac       _wcsrchr                   10094fac f   LIBCMT:wcsrchr.obj
 0001:00094052       ___loctotime32_t           10095052 f   LIBCMT:dtoxtime.obj
 0001:0009437d       __i64tow_s                 1009537d f   LIBCMT:xtows.obj
 0001:000943ae       __itow_s                   100953ae f   LIBCMT:xtows.obj
 0001:000943d7       __ltow_s                   100953d7 f   LIBCMT:xtows.obj
 0001:00094401       __ui64tow_s                10095401 f   LIBCMT:xtows.obj
 0001:0009441c       __ultow_s                  1009541c f   LIBCMT:xtows.obj
 0001:00094527       __wtoi                     10095527 f   LIBCMT:wtox.obj
 0001:00094530       __wtoi64                   10095530 f   LIBCMT:wtox.obj
 0001:00094544       __wtoi64_l                 10095544 f   LIBCMT:wtox.obj
 0001:0009455b       __wtoi_l                   1009555b f   LIBCMT:wtox.obj
 0001:00094564       __wtol                     10095564 f   LIBCMT:wtox.obj
 0001:00094578       __wtol_l                   10095578 f   LIBCMT:wtox.obj
 0001:0009458f       __wtoll                    1009558f f   LIBCMT:wtox.obj
 0001:000945a3       __wtoll_l                  100955a3 f   LIBCMT:wtox.obj
 0001:000945ba       _wcschr                    100955ba f   LIBCMT:wcschr.obj
 0001:00094668       __wcsnicmp                 10095668 f   LIBCMT:wcsnicmp.obj
 0001:0009471e       __wcsnicmp_l               1009571e f   LIBCMT:wcsnicmp.obj
 0001:00094820       ___ascii_strnicmp          10095820 f   LIBCMT:_strnicm.obj
 0001:00094881       ___crtsetenv               10095881 f   LIBCMT:setenv.obj
 0001:00094b84       __strnicoll                10095b84 f   LIBCMT:strnicol.obj
 0001:00094bab       __strnicoll_l              10095bab f   LIBCMT:strnicol.obj
 0001:00094f14       ___crtCompareStringA       10095f14 f   LIBCMT:a_cmp.obj
 0001:00094f57       _ldexp                     10095f57 f   LIBCMT:ldexp.obj
 0001:00095143       __getcwd                   10096143 f   LIBCMT:getcwd.obj
 0001:00095158       __getdcwd                  10096158 f   LIBCMT:getcwd.obj
 0001:00095274       __validdrive               10096274 f   LIBCMT:getcwd.obj
 0001:000954d1       __wcstol_l                 100964d1 f   LIBCMT:wcstol.obj
 0001:000954e9       __wcstoul_l                100964e9 f   LIBCMT:wcstol.obj
 0001:00095501       _wcstol                    10096501 f   LIBCMT:wcstol.obj
 0001:00095519       _wcstoul                   10096519 f   LIBCMT:wcstol.obj
 0001:00095801       __wcstof_l                 10096801 f   LIBCMT:wcstoq.obj
 0001:000958b4       __wcstoi64                 100968b4 f   LIBCMT:wcstoq.obj
 0001:000958de       __wcstoi64_l               100968de f   LIBCMT:wcstoq.obj
 0001:000958f9       __wcstoimax_l              100968f9 f   LIBCMT:wcstoq.obj
 0001:00095902       __wcstold_l                10096902 f   LIBCMT:wcstoq.obj
 0001:0009590b       __wcstoll_l                1009690b f   LIBCMT:wcstoq.obj
 0001:00095914       __wcstoui64                10096914 f   LIBCMT:wcstoq.obj
 0001:0009593e       __wcstoui64_l              1009693e f   LIBCMT:wcstoq.obj
 0001:00095959       __wcstoull_l               10096959 f   LIBCMT:wcstoq.obj
 0001:00095962       __wcstoumax_l              10096962 f   LIBCMT:wcstoq.obj
 0001:0009596b       _wcstof                    1009696b f   LIBCMT:wcstoq.obj
 0001:00095980       _wcstoimax                 10096980 f   LIBCMT:wcstoq.obj
 0001:00095989       _wcstold                   10096989 f   LIBCMT:wcstoq.obj
 0001:00095992       _wcstoll                   10096992 f   LIBCMT:wcstoq.obj
 0001:0009599b       _wcstoull                  1009699b f   LIBCMT:wcstoq.obj
 0001:000959a4       _wcstoumax                 100969a4 f   LIBCMT:wcstoq.obj
 0001:000959ad       _strdup                    100969ad f   LIBCMT:strdup.obj
 0001:000959ad       __strdup                   100969ad f   LIBCMT:strdup.obj
 0001:000959fd       __mbschr                   100969fd f   LIBCMT:mbschr.obj
 0001:00095a12       __mbschr_l                 10096a12 f   LIBCMT:mbschr.obj
 0001:00095aaf       __wchartodigit             10096aaf f   LIBCMT:wchtodig.obj
 0001:00095c4e       __wcstod_l                 10096c4e f   LIBCMT:wcstod.obj
 0001:00095d49       _wcstod                    10096d49 f   LIBCMT:wcstod.obj
 0001:00095d5e       __wfltin2                  10096d5e f   LIBCMT:wcfin.obj
 0001:00095e07       ___WSTRINGTOLD_L           10096e07 f   LIBCMT:wstrgtold.obj
 0001:00095e62       ___wstrgtold12_l           10096e62 f   LIBCMT:wstrgtold.obj
 0001:000966b2       _EncodePointer@4           100976b2 f   kernel32:KERNEL32.dll
 0001:000966b8       _DecodePointer@4           100976b8 f   kernel32:KERNEL32.dll
 0001:000966be       _GetLastError@0            100976be f   kernel32:KERNEL32.dll
 0001:000966c4       _ExitProcess@4             100976c4 f   kernel32:KERNEL32.dll
 0001:000966ca       _GetModuleHandleExW@12     100976ca f   kernel32:KERNEL32.dll
 0001:000966d0       _GetProcAddress@8          100976d0 f   kernel32:KERNEL32.dll
 0001:000966d6       _AreFileApisANSI@0         100976d6 f   kernel32:KERNEL32.dll
 0001:000966dc       _MultiByteToWideChar@24    100976dc f   kernel32:KERNEL32.dll
 0001:000966e2       _WideCharToMultiByte@32    100976e2 f   kernel32:KERNEL32.dll
 0001:000966e8       _HeapFree@12               100976e8 f   kernel32:KERNEL32.dll
 0001:000966ee       _HeapAlloc@12              100976ee f   kernel32:KERNEL32.dll
 0001:000966f4       _GetSystemTimeAsFileTime@4 100976f4 f   kernel32:KERNEL32.dll
 0001:000966fa       _RaiseException@16         100976fa f   kernel32:KERNEL32.dll
 0001:00096700       _RtlUnwind@16              10097700 f   kernel32:KERNEL32.dll
 0001:00096706       _IsDebuggerPresent@0       10097706 f   kernel32:KERNEL32.dll
 0001:0009670c       _IsProcessorFeaturePresent@4 1009770c f   kernel32:KERNEL32.dll
 0001:00096712       _ReadFile@20               10097712 f   kernel32:KERNEL32.dll
 0001:00096718       _HeapReAlloc@16            10097718 f   kernel32:KERNEL32.dll
 0001:0009671e       _GetCommandLineA@0         1009771e f   kernel32:KERNEL32.dll
 0001:00096724       _GetCurrentThreadId@0      10097724 f   kernel32:KERNEL32.dll
 0001:0009672a       _EnterCriticalSection@4    1009772a f   kernel32:KERNEL32.dll
 0001:00096730       _LeaveCriticalSection@4    10097730 f   kernel32:KERNEL32.dll
 0001:00096736       _GetConsoleMode@8          10097736 f   kernel32:KERNEL32.dll
 0001:0009673c       _ReadConsoleW@20           1009773c f   kernel32:KERNEL32.dll
 0001:00096742       _WriteFile@20              10097742 f   kernel32:KERNEL32.dll
 0001:00096748       _GetConsoleCP@0            10097748 f   kernel32:KERNEL32.dll
 0001:0009674e       _CloseHandle@4             1009774e f   kernel32:KERNEL32.dll
 0001:00096754       _GetStdHandle@4            10097754 f   kernel32:KERNEL32.dll
 0001:0009675a       _GetFileType@4             1009775a f   kernel32:KERNEL32.dll
 0001:00096760       _DeleteCriticalSection@4   10097760 f   kernel32:KERNEL32.dll
 0001:00096766       _GetStartupInfoW@4         10097766 f   kernel32:KERNEL32.dll
 0001:0009676c       _FatalAppExitA@8           1009776c f   kernel32:KERNEL32.dll
 0001:00096772       _UnhandledExceptionFilter@4 10097772 f   kernel32:KERNEL32.dll
 0001:00096778       _SetUnhandledExceptionFilter@4 10097778 f   kernel32:KERNEL32.dll
 0001:0009677e       _SetLastError@4            1009777e f   kernel32:KERNEL32.dll
 0001:00096784       _InitializeCriticalSectionAndSpinCount@8 10097784 f   kernel32:KERNEL32.dll
 0001:0009678a       _CreateEventW@16           1009778a f   kernel32:KERNEL32.dll
 0001:00096790       _Sleep@4                   10097790 f   kernel32:KERNEL32.dll
 0001:00096796       _GetCurrentProcess@0       10097796 f   kernel32:KERNEL32.dll
 0001:0009679c       _TerminateProcess@8        1009779c f   kernel32:KERNEL32.dll
 0001:000967a2       _TlsAlloc@0                100977a2 f   kernel32:KERNEL32.dll
 0001:000967a8       _TlsGetValue@4             100977a8 f   kernel32:KERNEL32.dll
 0001:000967ae       _TlsSetValue@8             100977ae f   kernel32:KERNEL32.dll
 0001:000967b4       _TlsFree@4                 100977b4 f   kernel32:KERNEL32.dll
 0001:000967ba       _GetTickCount@0            100977ba f   kernel32:KERNEL32.dll
 0001:000967c0       _GetModuleHandleW@4        100977c0 f   kernel32:KERNEL32.dll
 0001:000967c6       _CreateSemaphoreW@16       100977c6 f   kernel32:KERNEL32.dll
 0001:000967cc       _GetModuleFileNameW@12     100977cc f   kernel32:KERNEL32.dll
 0001:000967d2       _SetConsoleCtrlHandler@8   100977d2 f   kernel32:KERNEL32.dll
 0001:000967d8       _FreeLibrary@4             100977d8 f   kernel32:KERNEL32.dll
 0001:000967de       _LoadLibraryExW@12         100977de f   kernel32:KERNEL32.dll
 0001:000967e4       _IsValidCodePage@4         100977e4 f   kernel32:KERNEL32.dll
 0001:000967ea       _GetACP@0                  100977ea f   kernel32:KERNEL32.dll
 0001:000967f0       _GetOEMCP@0                100977f0 f   kernel32:KERNEL32.dll
 0001:000967f6       _GetCPInfo@8               100977f6 f   kernel32:KERNEL32.dll
 0001:000967fc       _GetProcessHeap@0          100977fc f   kernel32:KERNEL32.dll
 0001:00096802       _GetCurrentThread@0        10097802 f   kernel32:KERNEL32.dll
 0001:00096808       _GetTimeZoneInformation@4  10097808 f   kernel32:KERNEL32.dll
 0001:0009680e       _FlushFileBuffers@4        1009780e f   kernel32:KERNEL32.dll
 0001:00096814       _SetFilePointerEx@20       10097814 f   kernel32:KERNEL32.dll
 0001:0009681a       _HeapSize@12               1009781a f   kernel32:KERNEL32.dll
 0001:00096820       _FindFirstFileExW@24       10097820 f   kernel32:KERNEL32.dll
 0001:00096826       _GetDriveTypeW@4           10097826 f   kernel32:KERNEL32.dll
 0001:0009682c       _SystemTimeToTzSpecificLocalTime@12 1009782c f   kernel32:KERNEL32.dll
 0001:00096832       _FileTimeToSystemTime@8    10097832 f   kernel32:KERNEL32.dll
 0001:00096838       _GetModuleFileNameA@12     10097838 f   kernel32:KERNEL32.dll
 0001:0009683e       _QueryPerformanceCounter@4 1009783e f   kernel32:KERNEL32.dll
 0001:00096844       _GetCurrentProcessId@0     10097844 f   kernel32:KERNEL32.dll
 0001:0009684a       _GetEnvironmentStringsW@0  1009784a f   kernel32:KERNEL32.dll
 0001:00096850       _FreeEnvironmentStringsW@4 10097850 f   kernel32:KERNEL32.dll
 0001:00096856       _SetStdHandle@8            10097856 f   kernel32:KERNEL32.dll
 0001:0009685c       _WriteConsoleW@20          1009785c f   kernel32:KERNEL32.dll
 0001:00096862       _GetDateFormatW@24         10097862 f   kernel32:KERNEL32.dll
 0001:00096868       _GetTimeFormatW@24         10097868 f   kernel32:KERNEL32.dll
 0001:0009686e       _CompareStringW@24         1009786e f   kernel32:KERNEL32.dll
 0001:00096874       _LCMapStringW@24           10097874 f   kernel32:KERNEL32.dll
 0001:0009687a       _GetLocaleInfoW@16         1009787a f   kernel32:KERNEL32.dll
 0001:00096880       _IsValidLocale@8           10097880 f   kernel32:KERNEL32.dll
 0001:00096886       _GetUserDefaultLCID@0      10097886 f   kernel32:KERNEL32.dll
 0001:0009688c       _EnumSystemLocalesW@8      1009788c f   kernel32:KERNEL32.dll
 0001:00096892       _OutputDebugStringW@4      10097892 f   kernel32:KERNEL32.dll
 0001:00096898       _GetStringTypeW@16         10097898 f   kernel32:KERNEL32.dll
 0001:0009689e       _FileTimeToLocalFileTime@8 1009789e f   kernel32:KERNEL32.dll
 0001:000968a4       _GetFileInformationByHandle@8 100978a4 f   kernel32:KERNEL32.dll
 0001:000968aa       _PeekNamedPipe@24          100978aa f   kernel32:KERNEL32.dll
 0001:000968b0       _GetFullPathNameW@16       100978b0 f   kernel32:KERNEL32.dll
 0001:000968b6       _SetCurrentDirectoryW@4    100978b6 f   kernel32:KERNEL32.dll
 0001:000968bc       _GetCurrentDirectoryW@8    100978bc f   kernel32:KERNEL32.dll
 0001:000968c2       _CreateFileW@28            100978c2 f   kernel32:KERNEL32.dll
 0001:000968c8       _SetEndOfFile@4            100978c8 f   kernel32:KERNEL32.dll
 0001:000968ce       _SetEnvironmentVariableA@8 100978ce f   kernel32:KERNEL32.dll
 0001:000968d4       _GetFullPathNameA@16       100978d4 f   kernel32:KERNEL32.dll
 0001:000968da       ___ascii_stricmp           100978da f   LIBCMT:stricmp.obj
 0001:00096913       _strcmpi                   10097913 f   LIBCMT:stricmp.obj
 0001:00096913       __stricmp                  10097913 f   LIBCMT:stricmp.obj
 0001:0009695a       __stricmp_l                1009795a f   LIBCMT:stricmp.obj
 0002:00000000       __imp__FindClose@4         1009a000     kernel32:KERNEL32.dll
 0002:00000004       __imp__FindFirstFileA@8    1009a004     kernel32:KERNEL32.dll
 0002:00000008       __imp__FindNextFileA@8     1009a008     kernel32:KERNEL32.dll
 0002:0000000c       __imp__SetEnvironmentVariableA@8 1009a00c     kernel32:KERNEL32.dll
 0002:00000010       __imp__SetEndOfFile@4      1009a010     kernel32:KERNEL32.dll
 0002:00000014       __imp__EncodePointer@4     1009a014     kernel32:KERNEL32.dll
 0002:00000018       __imp__DecodePointer@4     1009a018     kernel32:KERNEL32.dll
 0002:0000001c       __imp__GetLastError@0      1009a01c     kernel32:KERNEL32.dll
 0002:00000020       __imp__ExitProcess@4       1009a020     kernel32:KERNEL32.dll
 0002:00000024       __imp__GetModuleHandleExW@12 1009a024     kernel32:KERNEL32.dll
 0002:00000028       __imp__GetProcAddress@8    1009a028     kernel32:KERNEL32.dll
 0002:0000002c       __imp__AreFileApisANSI@0   1009a02c     kernel32:KERNEL32.dll
 0002:00000030       __imp__MultiByteToWideChar@24 1009a030     kernel32:KERNEL32.dll
 0002:00000034       __imp__WideCharToMultiByte@32 1009a034     kernel32:KERNEL32.dll
 0002:00000038       __imp__HeapFree@12         1009a038     kernel32:KERNEL32.dll
 0002:0000003c       __imp__HeapAlloc@12        1009a03c     kernel32:KERNEL32.dll
 0002:00000040       __imp__GetSystemTimeAsFileTime@4 1009a040     kernel32:KERNEL32.dll
 0002:00000044       __imp__RaiseException@16   1009a044     kernel32:KERNEL32.dll
 0002:00000048       __imp__RtlUnwind@16        1009a048     kernel32:KERNEL32.dll
 0002:0000004c       __imp__IsDebuggerPresent@0 1009a04c     kernel32:KERNEL32.dll
 0002:00000050       __imp__IsProcessorFeaturePresent@4 1009a050     kernel32:KERNEL32.dll
 0002:00000054       __imp__ReadFile@20         1009a054     kernel32:KERNEL32.dll
 0002:00000058       __imp__HeapReAlloc@16      1009a058     kernel32:KERNEL32.dll
 0002:0000005c       __imp__GetCommandLineA@0   1009a05c     kernel32:KERNEL32.dll
 0002:00000060       __imp__GetCurrentThreadId@0 1009a060     kernel32:KERNEL32.dll
 0002:00000064       __imp__EnterCriticalSection@4 1009a064     kernel32:KERNEL32.dll
 0002:00000068       __imp__LeaveCriticalSection@4 1009a068     kernel32:KERNEL32.dll
 0002:0000006c       __imp__GetConsoleMode@8    1009a06c     kernel32:KERNEL32.dll
 0002:00000070       __imp__ReadConsoleW@20     1009a070     kernel32:KERNEL32.dll
 0002:00000074       __imp__WriteFile@20        1009a074     kernel32:KERNEL32.dll
 0002:00000078       __imp__GetConsoleCP@0      1009a078     kernel32:KERNEL32.dll
 0002:0000007c       __imp__CloseHandle@4       1009a07c     kernel32:KERNEL32.dll
 0002:00000080       __imp__GetStdHandle@4      1009a080     kernel32:KERNEL32.dll
 0002:00000084       __imp__GetFileType@4       1009a084     kernel32:KERNEL32.dll
 0002:00000088       __imp__DeleteCriticalSection@4 1009a088     kernel32:KERNEL32.dll
 0002:0000008c       __imp__GetStartupInfoW@4   1009a08c     kernel32:KERNEL32.dll
 0002:00000090       __imp__FatalAppExitA@8     1009a090     kernel32:KERNEL32.dll
 0002:00000094       __imp__UnhandledExceptionFilter@4 1009a094     kernel32:KERNEL32.dll
 0002:00000098       __imp__SetUnhandledExceptionFilter@4 1009a098     kernel32:KERNEL32.dll
 0002:0000009c       __imp__SetLastError@4      1009a09c     kernel32:KERNEL32.dll
 0002:000000a0       __imp__InitializeCriticalSectionAndSpinCount@8 1009a0a0     kernel32:KERNEL32.dll
 0002:000000a4       __imp__CreateEventW@16     1009a0a4     kernel32:KERNEL32.dll
 0002:000000a8       __imp__Sleep@4             1009a0a8     kernel32:KERNEL32.dll
 0002:000000ac       __imp__GetCurrentProcess@0 1009a0ac     kernel32:KERNEL32.dll
 0002:000000b0       __imp__TerminateProcess@8  1009a0b0     kernel32:KERNEL32.dll
 0002:000000b4       __imp__TlsAlloc@0          1009a0b4     kernel32:KERNEL32.dll
 0002:000000b8       __imp__TlsGetValue@4       1009a0b8     kernel32:KERNEL32.dll
 0002:000000bc       __imp__TlsSetValue@8       1009a0bc     kernel32:KERNEL32.dll
 0002:000000c0       __imp__TlsFree@4           1009a0c0     kernel32:KERNEL32.dll
 0002:000000c4       __imp__GetTickCount@0      1009a0c4     kernel32:KERNEL32.dll
 0002:000000c8       __imp__GetModuleHandleW@4  1009a0c8     kernel32:KERNEL32.dll
 0002:000000cc       __imp__CreateSemaphoreW@16 1009a0cc     kernel32:KERNEL32.dll
 0002:000000d0       __imp__GetModuleFileNameW@12 1009a0d0     kernel32:KERNEL32.dll
 0002:000000d4       __imp__SetConsoleCtrlHandler@8 1009a0d4     kernel32:KERNEL32.dll
 0002:000000d8       __imp__FreeLibrary@4       1009a0d8     kernel32:KERNEL32.dll
 0002:000000dc       __imp__LoadLibraryExW@12   1009a0dc     kernel32:KERNEL32.dll
 0002:000000e0       __imp__IsValidCodePage@4   1009a0e0     kernel32:KERNEL32.dll
 0002:000000e4       __imp__GetACP@0            1009a0e4     kernel32:KERNEL32.dll
 0002:000000e8       __imp__GetOEMCP@0          1009a0e8     kernel32:KERNEL32.dll
 0002:000000ec       __imp__GetCPInfo@8         1009a0ec     kernel32:KERNEL32.dll
 0002:000000f0       __imp__GetProcessHeap@0    1009a0f0     kernel32:KERNEL32.dll
 0002:000000f4       __imp__GetCurrentThread@0  1009a0f4     kernel32:KERNEL32.dll
 0002:000000f8       __imp__GetTimeZoneInformation@4 1009a0f8     kernel32:KERNEL32.dll
 0002:000000fc       __imp__FlushFileBuffers@4  1009a0fc     kernel32:KERNEL32.dll
 0002:00000100       __imp__SetFilePointerEx@20 1009a100     kernel32:KERNEL32.dll
 0002:00000104       __imp__HeapSize@12         1009a104     kernel32:KERNEL32.dll
 0002:00000108       __imp__FindFirstFileExW@24 1009a108     kernel32:KERNEL32.dll
 0002:0000010c       __imp__GetDriveTypeW@4     1009a10c     kernel32:KERNEL32.dll
 0002:00000110       __imp__SystemTimeToTzSpecificLocalTime@12 1009a110     kernel32:KERNEL32.dll
 0002:00000114       __imp__FileTimeToSystemTime@8 1009a114     kernel32:KERNEL32.dll
 0002:00000118       __imp__GetModuleFileNameA@12 1009a118     kernel32:KERNEL32.dll
 0002:0000011c       __imp__QueryPerformanceCounter@4 1009a11c     kernel32:KERNEL32.dll
 0002:00000120       __imp__GetCurrentProcessId@0 1009a120     kernel32:KERNEL32.dll
 0002:00000124       __imp__GetEnvironmentStringsW@0 1009a124     kernel32:KERNEL32.dll
 0002:00000128       __imp__FreeEnvironmentStringsW@4 1009a128     kernel32:KERNEL32.dll
 0002:0000012c       __imp__SetStdHandle@8      1009a12c     kernel32:KERNEL32.dll
 0002:00000130       __imp__WriteConsoleW@20    1009a130     kernel32:KERNEL32.dll
 0002:00000134       __imp__GetDateFormatW@24   1009a134     kernel32:KERNEL32.dll
 0002:00000138       __imp__GetTimeFormatW@24   1009a138     kernel32:KERNEL32.dll
 0002:0000013c       __imp__CompareStringW@24   1009a13c     kernel32:KERNEL32.dll
 0002:00000140       __imp__LCMapStringW@24     1009a140     kernel32:KERNEL32.dll
 0002:00000144       __imp__GetLocaleInfoW@16   1009a144     kernel32:KERNEL32.dll
 0002:00000148       __imp__IsValidLocale@8     1009a148     kernel32:KERNEL32.dll
 0002:0000014c       __imp__GetUserDefaultLCID@0 1009a14c     kernel32:KERNEL32.dll
 0002:00000150       __imp__EnumSystemLocalesW@8 1009a150     kernel32:KERNEL32.dll
 0002:00000154       __imp__OutputDebugStringW@4 1009a154     kernel32:KERNEL32.dll
 0002:00000158       __imp__GetStringTypeW@16   1009a158     kernel32:KERNEL32.dll
 0002:0000015c       __imp__FileTimeToLocalFileTime@8 1009a15c     kernel32:KERNEL32.dll
 0002:00000160       __imp__GetFileInformationByHandle@8 1009a160     kernel32:KERNEL32.dll
 0002:00000164       __imp__PeekNamedPipe@24    1009a164     kernel32:KERNEL32.dll
 0002:00000168       __imp__GetFullPathNameW@16 1009a168     kernel32:KERNEL32.dll
 0002:0000016c       __imp__SetCurrentDirectoryW@4 1009a16c     kernel32:KERNEL32.dll
 0002:00000170       __imp__GetCurrentDirectoryW@8 1009a170     kernel32:KERNEL32.dll
 0002:00000174       __imp__CreateFileW@28      1009a174     kernel32:KERNEL32.dll
 0002:00000178       __imp__GetFullPathNameA@16 1009a178     kernel32:KERNEL32.dll
 0002:0000017c       \177KERNEL32_NULL_THUNK_DATA 1009a17c     kernel32:KERNEL32.dll
 0002:00000180       __imp__MessageBoxA@16      1009a180     user32:USER32.dll
 0002:00000184       \177USER32_NULL_THUNK_DATA 1009a184     user32:USER32.dll
 0002:00000188       ___xc_a                    1009a188     LIBCMT:crt0init.obj
 0002:000001a4       ___xc_z                    1009a1a4     LIBCMT:crt0init.obj
 0002:000001a8       ___xi_a                    1009a1a8     LIBCMT:crt0init.obj
 0002:000001c0       ___xi_z                    1009a1c0     LIBCMT:crt0init.obj
 0002:000001c4       ___xp_a                    1009a1c4     LIBCMT:crt0init.obj
 0002:000001d4       ___xp_z                    1009a1d4     LIBCMT:crt0init.obj
 0002:000001d8       ___xt_a                    1009a1d8     LIBCMT:crt0init.obj
 0002:000001dc       ___xt_z                    1009a1dc     LIBCMT:crt0init.obj
 0002:00000218       ??_C@_09DGAJACOH@t?9?$CFd?9s?9?$CFd?$AA@ 1009a218     bits.obj
 0002:00000224       ??_C@_0CF@FCDIMPMM@Learn?5data?5version?5mismatch?5?9?5wi@ 1009a224     bits.obj
 0002:0000024c       __real@3e000000            1009a24c     bits.obj
 0002:00000250       __real@3f000000            1009a250     bits.obj
 0002:00000260       __xmm@41f00000000000000000000000000000 1009a260     bits.obj
 0002:00000270       ??_C@_0L@FEPNPAJD@targetname?$AA@ 1009a270     bot.obj
 0002:0000027c       ??_C@_06JJLAMBGK@target?$AA@ 1009a27c     bot.obj
 0002:00000284       ??_C@_0P@MEFBJHHF@monster_turret?$AA@ 1009a284     bot.obj
 0002:00000294       ??_C@_0BC@KJGHPNJA@monster_robogrunt?$AA@ 1009a294     bot.obj
 0002:000002ac       ??_7IIndividual@@6B@       1009a2ac     bot.obj
 0002:000002c8       ??_7ISelection@@6B@        1009a2c8     bot.obj
 0002:000002d0       ??_7CRouletteSelection@@6B@ 1009a2d0     bot.obj
 0002:000002d8       ??_7CIntGAValues@@6B@      1009a2d8     bot.obj
 0002:000002f0       ??_C@_0EA@DAPMPJK@bad?5rep?5data?4?4?4?5?$CItry?5deleting?5al@ 1009a2f0     bot.obj
 0002:00000330       ??_C@_0O@KIAFCFA@BOT_TASK_NONE?$AA@ 1009a330     bot.obj
 0002:00000340       ??_C@_0BC@FNBKGJLB@BOT_TASK_USE_TANK?$AA@ 1009a340     bot.obj
 0002:00000354       ??_C@_0BH@OIFJLPCJ@BOT_TASK_WAIT_FOR_LIFT?$AA@ 1009a354     bot.obj
 0002:0000036c       ??_C@_0BA@MOALGMCC@BOT_TASK_RELOAD?$AA@ 1009a36c     bot.obj
 0002:0000037c       ??_C@_0BJ@DENEDBM@BOT_TASK_LISTEN_TO_SOUND?$AA@ 1009a37c     bot.obj
 0002:00000398       ??_C@_0BJ@PCJAHGON@BOT_TASK_FIND_ENEMY_PATH?$AA@ 1009a398     bot.obj
 0002:000003b4       ??_C@_0BG@MHOEMEGG@BOT_TASK_FOLLOW_ENEMY?$AA@ 1009a3b4     bot.obj
 0002:000003cc       ??_C@_0BH@EOHABJDB@BOT_TASK_FOLLOW_LEADER?$AA@ 1009a3cc     bot.obj
 0002:000003e4       ??_C@_0BF@MLEJMDOC@BOT_TASK_FIND_WEAPON?$AA@ 1009a3e4     bot.obj
 0002:000003fc       ??_C@_0BD@DBABMAPC@BOT_TASK_FIND_PATH?$AA@ 1009a3fc     bot.obj
 0002:00000410       ??_C@_0BC@DCAPIKKA@BOT_TASK_RUN_PATH?$AA@ 1009a410     bot.obj
 0002:00000424       ??_C@_0BF@GNKJMGKH@BOT_TASK_PICKUP_ITEM?$AA@ 1009a424     bot.obj
 0002:0000043c       ??_C@_0BM@ICCNHJNG@BOT_TASK_WAIT_FOR_RESOURCES?$AA@ 1009a43c     bot.obj
 0002:00000458       ??_C@_0BN@LDOAGLJO@BOT_TASK_GOTO_FLANK_POSITION?$AA@ 1009a458     bot.obj
 0002:00000478       ??_C@_0BG@JEBPHLCJ@BOT_TASK_RANGE_ATTACK?$AA@ 1009a478     bot.obj
 0002:00000490       ??_C@_0BH@MANMIHKO@BOT_TASK_NORMAL_ATTACK?$AA@ 1009a490     bot.obj
 0002:000004a8       ??_C@_0O@KNDMHNPK@BOT_TASK_HIDE?$AA@ 1009a4a8     bot.obj
 0002:000004b8       ??_C@_0BI@GEDNLFKB@BOT_TASK_ASSEMBLE_SQUAD?$AA@ 1009a4b8     bot.obj
 0002:000004d0       ??_C@_0BJ@CLKKKGLJ@BOT_TASK_WAIT_FOR_ORDERS?$AA@ 1009a4d0     bot.obj
 0002:000004ec       ??_C@_0BC@MLCCACKD@BOT_TASK_SOLO_RUN?$AA@ 1009a4ec     bot.obj
 0002:00000500       ??_C@_0BG@OLPGPCIC@BOT_TASK_ATTACK_ENEMY?$AA@ 1009a500     bot.obj
 0002:00000518       ??_C@_0BH@LBMADDFP@BOT_TASK_CHANGE_WEAPON?$AA@ 1009a518     bot.obj
 0002:00000530       ??_C@_0BI@IMPBAAJL@BOT_TASK_MOVE_TO_VECTOR?$AA@ 1009a530     bot.obj
 0002:00000548       ??_C@_0BF@LCAPFHJJ@BOT_TASK_WELD_OBJECT?$AA@ 1009a548     bot.obj
 0002:00000560       ??_C@_0BF@OKJELNCA@BOT_TASK_GOTO_OBJECT?$AA@ 1009a560     bot.obj
 0002:00000578       ??_C@_0BF@BGPBIDOJ@BOT_TASK_HEAL_PLAYER?$AA@ 1009a578     bot.obj
 0002:00000590       ??_C@_0BH@EJCKOHDE@BOT_TASK_ALIEN_UPGRADE?$AA@ 1009a590     bot.obj
 0002:000005a8       ??_C@_0BP@MHFBKFJH@BOT_TASK_BUILD_ALIEN_STRUCTURE?$AA@ 1009a5a8     bot.obj
 0002:000005c8       ??_C@_0BF@CGKNCPIK@BOT_TASK_FACE_VECTOR?$AA@ 1009a5c8     bot.obj
 0002:000005e0       ??_C@_0BE@JGLKNBGG@BOT_TASK_FACE_EDICT?$AA@ 1009a5e0     bot.obj
 0002:000005f4       ??_C@_0BO@HLIEDAOI@BOT_TASK_WAIT_AND_FACE_VECTOR?$AA@ 1009a5f4     bot.obj
 0002:00000614       ??_C@_0BG@DFDGGEIP@BOT_TASK_AVOID_OBJECT?$AA@ 1009a614     bot.obj
 0002:0000062c       ??_C@_0P@DAOABHMJ@BOT_TASK_BUILD?$AA@ 1009a62c     bot.obj
 0002:0000063c       ??_C@_0N@PHJKJBNA@BOT_TASK_USE?$AA@ 1009a63c     bot.obj
 0002:0000064c       ??_C@_0BA@OEFEHKCO@BOT_TASK_DEFEND?$AA@ 1009a64c     bot.obj
 0002:0000065c       ??_C@_0O@NBDJOFAF@BOT_TASK_WAIT?$AA@ 1009a65c     bot.obj
 0002:0000066c       ??_C@_0BG@IBGHLNDM@BOT_TASK_DEPLOY_MINES?$AA@ 1009a66c     bot.obj
 0002:00000684       ??_C@_0BH@EKKIJIHL@BOT_TASK_USE_AMMO_DISP?$AA@ 1009a684     bot.obj
 0002:0000069c       ??_C@_0BD@PGNIPPKI@BOT_TASK_WALK_PATH?$AA@ 1009a69c     bot.obj
 0002:000006b0       ??_C@_0BG@DALLDFG@BOT_TASK_TYPE_MESSAGE?$AA@ 1009a6b0     bot.obj
 0002:000006c8       ??_C@_0BJ@CPJKIHBF@BOT_TASK_WAIT_FOR_ENTITY?$AA@ 1009a6c8     bot.obj
 0002:000006e4       ??_C@_0BJ@JEBAFOMC@BOT_TASK_USE_DOOR_BUTTON?$AA@ 1009a6e4     bot.obj
 0002:00000700       ??_C@_0BK@EDPBIGCP@BOT_TASK_SEARCH_FOR_ENEMY?$AA@ 1009a700     bot.obj
 0002:0000071c       ??_C@_0BG@HEFFFMPD@BOT_TASK_ALIEN_EVOLVE?$AA@ 1009a71c     bot.obj
 0002:00000734       ??_C@_0BJ@GIGOOIEP@BOT_TASK_USE_HEV_CHARGER?$AA@ 1009a734     bot.obj
 0002:00000750       ??_C@_0BM@DDIBDLDI@BOT_TASK_USE_HEALTH_CHARGER?$AA@ 1009a750     bot.obj
 0002:0000076c       ??_C@_0BF@KFEHEIAD@BOT_TASK_HUMAN_TOWER?$AA@ 1009a76c     bot.obj
 0002:00000784       ??_C@_0BH@GOMFJIAA@BOT_TASK_THROW_GRENADE?$AA@ 1009a784     bot.obj
 0002:0000079c       ??_C@_0BH@EADDEAMN@BOT_TASK_PUSH_PUSHABLE?$AA@ 1009a79c     bot.obj
 0002:000007b4       ??_C@_0BK@MGDAMFAD@BOT_TASK_SECONDARY_ATTACK?$AA@ 1009a7b4     bot.obj
 0002:000007d0       ??_C@_0CA@DMMCCONC@BOT_COMMAND_TASK_MOVE_TO_VECTOR?$AA@ 1009a7d0     bot.obj
 0002:000007f0       ??_C@_0CA@IPJPIKHD@BOT_COMMAND_TASK_SELECT_PLAYERS?$AA@ 1009a7f0     bot.obj
 0002:00000810       ??_C@_0BO@CEJOLDDO@BOT_COMMAND_TASK_BUILD_OBJECT?$AA@ 1009a810     bot.obj
 0002:00000830       ??_C@_0BN@PAJCEFGH@BOT_COMMAND_TASK_ISSUE_ORDER?$AA@ 1009a830     bot.obj
 0002:00000850       ??_C@_0BO@FGHAELEP@BOT_COMMAND_TASK_SELECT_POINT?$AA@ 1009a850     bot.obj
 0002:00000870       ??_C@_0BN@NOPICNAD@BOT_COMMAND_TASK_SELECT_AREA?$AA@ 1009a870     bot.obj
 0002:00000890       ??_C@_0BP@MGGOJIBP@BOT_COMMAND_TASK_ISSUE_COMMAND?$AA@ 1009a890     bot.obj
 0002:000008b0       ??_C@_0BK@GKLIBBEF@BOT_TASK_TFC_BUILD_SENTRY?$AA@ 1009a8b0     bot.obj
 0002:000008cc       ??_C@_0BO@JEAOFKCD@BOT_TASK_TFC_REPAIR_BUILDABLE?$AA@ 1009a8cc     bot.obj
 0002:000008ec       ??_C@_0CF@DMADMEJG@BOT_TASK_TFC_BUILD_TELEPORT_ENTR@ 1009a8ec     bot.obj
 0002:00000914       ??_C@_0CB@JFEDEGJG@BOT_TASK_TFC_BUILD_TELEPORT_EXIT@ 1009a914     bot.obj
 0002:00000938       ??_C@_0BN@DLPCJHID@BOT_TASK_TFC_BUILD_DISPENSER?$AA@ 1009a938     bot.obj
 0002:00000958       ??_C@_0CA@PMPKNICM@BOT_TASK_TFC_DETONATE_DISPENSER?$AA@ 1009a958     bot.obj
 0002:00000978       ??_C@_0BJ@FCHOPLEO@BOT_TASK_TFC_FEIGN_DEATH?$AA@ 1009a978     bot.obj
 0002:00000994       ??_C@_0BD@OMDOJEPF@BOT_TASK_TFC_SNIPE?$AA@ 1009a994     bot.obj
 0002:000009a8       ??_C@_0BL@KJIHEHON@BOT_TASK_TFC_PLACE_DETPACK?$AA@ 1009a9a8     bot.obj
 0002:000009c4       ??_C@_0BH@EBNJIEDE@BOT_TASK_TFC_CONC_JUMP?$AA@ 1009a9c4     bot.obj
 0002:000009dc       ??_C@_0BJ@LEGCPLNP@BOT_TASK_TFC_ROCKET_JUMP?$AA@ 1009a9dc     bot.obj
 0002:000009f8       ??_C@_0BJ@NIIHBPNC@BOT_TASK_TFC_PLACE_PIPES?$AA@ 1009a9f8     bot.obj
 0002:00000a14       ??_C@_0BM@EPCNPEBP@BOT_TASK_TFC_DETONATE_PIPES?$AA@ 1009aa14     bot.obj
 0002:00000a30       ??_C@_0BG@BNFCJPPM@BOT_TASK_TFC_DISGUISE?$AA@ 1009aa30     bot.obj
 0002:00000a48       ??_C@_0CF@IAOLKKFK@BOT_TASK_TFC_DETONATE_ENTRY_TELE@ 1009aa48     bot.obj
 0002:00000a70       ??_C@_0CE@ODDIFIIE@BOT_TASK_TFC_DETONATE_EXIT_TELEP@ 1009aa70     bot.obj
 0002:00000a94       ??_C@_0BL@PICEIMPH@BOT_TASK_TFC_ROTATE_SENTRY?$AA@ 1009aa94     bot.obj
 0002:00000ab0       ??_C@_0BI@HONHDNFE@BOT_TASK_FIND_COVER_POS?$AA@ 1009aab0     bot.obj
 0002:00000ac8       ??_C@_0BG@CEGLJFEP@BOT_TASK_USE_TELEPORT?$AA@ 1009aac8     bot.obj
 0002:00000ae0       ??_C@_0BI@JKNNLPLF@BOT_TASK_COMBAT_UPGRADE?$AA@ 1009aae0     bot.obj
 0002:00000af8       ??_C@_0BA@MGEEJPDC@BOT_TASK_CROUCH?$AA@ 1009aaf8     bot.obj
 0002:00000b08       ??_C@_0BH@MLMEHCDO@BOT_TASK_ACCEPT_HEALTH?$AA@ 1009ab08     bot.obj
 0002:00000b20       ??_C@_0P@NJAMCKJL@BOT_TASK_BLINK?$AA@ 1009ab20     bot.obj
 0002:00000b30       ??_C@_0N@KHJBAFO@BOT_TASK_WEB?$AA@ 1009ab30     bot.obj
 0002:00000b40       ??_C@_0BH@PBJHAAKN@BOT_TASK_WAIT_FOR_FLAG?$AA@ 1009ab40     bot.obj
 0002:00000b58       ??_C@_0BI@JFIGAJH@BOT_TASK_USE_TELEPORTER?$AA@ 1009ab58     bot.obj
 0002:00000b70       ??_C@_07NBCGADJA@Unknown?$AA@ 1009ab70     bot.obj
 0002:00000b78       ??_C@_0P@NEGENJPI@BOT_SCHED_NONE?$AA@ 1009ab78     bot.obj
 0002:00000b88       ??_C@_0BD@DFLBMOIL@BOT_SCHED_USE_LIFT?$AA@ 1009ab88     bot.obj
 0002:00000b9c       ??_C@_0P@MMLGCJEA@BOT_SCHED_WELD?$AA@ 1009ab9c     bot.obj
 0002:00000bac       ??_C@_0BA@OIDDNIJI@BOT_SCHED_BUILD?$AA@ 1009abac     bot.obj
 0002:00000bbc       ??_C@_0BN@DKIPNBNL@BOT_SCHED_NS_CHECK_STRUCTURE?$AA@ 1009abbc     bot.obj
 0002:00000bdc       ??_C@_0BI@PNJBPMEF@BOT_SCHED_NS_CHECK_HIVE?$AA@ 1009abdc     bot.obj
 0002:00000bf4       ??_C@_0BI@FPKIIKIF@BOT_SCHED_RUN_FOR_COVER?$AA@ 1009abf4     bot.obj
 0002:00000c0c       ??_C@_0BK@DONBBKOM@BOT_SCHED_LOOK_FOR_WEAPON?$AA@ 1009ac0c     bot.obj
 0002:00000c28       ??_C@_0BD@GDNMGFAB@BOT_SCHED_USE_TANK?$AA@ 1009ac28     bot.obj
 0002:00000c3c       ??_C@_0BI@MAIGFPBC@BOT_SCHED_FOLLOW_LEADER?$AA@ 1009ac3c     bot.obj
 0002:00000c54       ??_C@_0BK@LICDFHBK@BOT_SCHED_USING_SCIENTIST?$AA@ 1009ac54     bot.obj
 0002:00000c70       ??_C@_0BH@HDJHKCGC@BOT_SCHED_USING_BARNEY?$AA@ 1009ac70     bot.obj
 0002:00000c88       ??_C@_0BG@JMFOLIPH@BOT_SCHED_PICKUP_FLAG?$AA@ 1009ac88     bot.obj
 0002:00000ca0       ??_C@_07CODPFHNF@STEALTH?$AA@ 1009aca0     bot.obj
 0002:00000ca8       ??_C@_05DEBNJJOB@PRONE?$AA@ 1009aca8     bot.obj
 0002:00000cb0       ??_C@_06DKDKCAAF@CROUCH?$AA@ 1009acb0     bot.obj
 0002:00000cb8       ??_C@_06IOJAGNKJ@NORMAL?$AA@ 1009acb8     bot.obj
 0002:00000cc0       ??_C@_0BH@EGPOELBM@Combat?5mode?5is?5now?5?$CFs?6?$AA@ 1009acc0     bot.obj
 0002:00000cd8       ??_C@_04HDOCAJNK@?$CFs?$CFs?$AA@ 1009acd8     bot.obj
 0002:00000ce0       ??_C@_0CK@EKPOLMDM@?$CFs?5failed?5task?5?$CC?$CFs?$CC?5part?5of?5sche@ 1009ace0     bot.obj
 0002:00000d0c       ??_C@_0CM@GNELACGF@?$CFs?5finished?5task?5?$CC?$CFs?$CC?5part?5of?5sc@ 1009ad0c     bot.obj
 0002:00000d38       ??_C@_0P@NGDPBEAP@func_breakable?$AA@ 1009ad38     bot.obj
 0002:00000d48       ??_C@_06BKNOCAEO@osprey?$AA@ 1009ad48     bot.obj
 0002:00000d50       ??_C@_0BD@FJGMEJJB@building_sentrygun?$AA@ 1009ad50     bot.obj
 0002:00000d64       ??_C@_0L@DKOPJJFA@usepowerup?$AA@ 1009ad64     bot.obj
 0002:00000d70       ??_C@_08OKDEBLGF@1?4443_mm?$AA@ 1009ad70     bot.obj
 0002:00000d7c       ??_C@_06JDOIBOGD@?$CFd?4rld?$AA@ 1009ad7c     bot.obj
 0002:00000d84       ??_C@_0M@GOJEHHBB@botprofiles?$AA@ 1009ad84     bot.obj
 0002:00000d90       ??_C@_02JDPG@rb?$AA@       1009ad90     bot.obj
 0002:00000d94       ??_C@_0DG@EKENKJPH@Bots?5learned?5data?5for?5?$CFs?5?$CIprofil@ 1009ad94     bot.obj
 0002:00000dcc       ??_C@_02GMLFBBN@wb?$AA@    1009adcc     bot.obj
 0002:00000dd0       ??_C@_0N@MFFHNGOA@mp_timelimit?$AA@ 1009add0     bot.obj
 0002:00000de0       ??_C@_05CJONHFGA@RCBot?$AA@ 1009ade0     bot.obj
 0002:00000de8       ??_C@_0GF@PIMJGDMI@Caution?5?3?5BotChat?$CI?$CJ?5Can?8t?5find?5p@ 1009ade8     bot.obj
 0002:00000e50       ??_C@_02MFEGOEMP@?$CFn?$AA@ 1009ae50     bot.obj
 0002:00000e54       ??_C@_02CDDBLJJC@?$CFr?$AA@ 1009ae54     bot.obj
 0002:00000e58       ??_C@_02BEIEFPIG@?$CFg?$AA@ 1009ae58     bot.obj
 0002:00000e5c       ??_C@_02GJPDKLMD@?$CFb?$AA@ 1009ae5c     bot.obj
 0002:00000e60       ??_C@_02CGLCDNAE@?$CFe?$AA@ 1009ae60     bot.obj
 0002:00000e64       ??_C@_02OOGLLHAM@?$CFm?$AA@ 1009ae64     bot.obj
 0002:00000e68       ??_C@_06DIJPEION@?$CFs?$CFs?$CFs?$AA@ 1009ae68     bot.obj
 0002:00000e70       ??_C@_0BE@HDHNLIIG@building_teleporter?$AA@ 1009ae70     bot.obj
 0002:00000e84       ??_C@_0M@PAILLMDG@jointeam?5?$CFd?$AA@ 1009ae84     bot.obj
 0002:00000e90       ??_C@_0P@PLEGJNPN@changeclass?5?$CFd?$AA@ 1009ae90     bot.obj
 0002:00000ea0       ??_C@_0L@FPALOINN@autoassign?$AA@ 1009aea0     bot.obj
 0002:00000eac       ??_C@_0M@DICIAHNG@jointeamtwo?$AA@ 1009aeac     bot.obj
 0002:00000eb8       ??_C@_0M@FGCIKHDN@jointeamone?$AA@ 1009aeb8     bot.obj
 0002:00000ec4       ??_C@_0L@JOMDMEIB@changeteam?$AA@ 1009aec4     bot.obj
 0002:00000ed0       ??_C@_0O@POMDAL@menuselect?5?$CFd?$AA@ 1009aed0     bot.obj
 0002:00000ee0       ??_C@_0N@JKLCHJBE@menuselect?51?$AA@ 1009aee0     bot.obj
 0002:00000ef0       ??_C@_0N@BJNMEFCA@joinclass?5?$CFd?$AA@ 1009aef0     bot.obj
 0002:00000f00       ??_C@_0M@OGMFDBAO@_firstspawn?$AA@ 1009af00     bot.obj
 0002:00000f0c       ??_C@_0BF@JIDDPMB@say_team?5?$CCLet?8s?5go?$CB?$CC?$AA@ 1009af0c     bot.obj
 0002:00000f24       ??_C@_03ODFDHHGP@buy?$AA@  1009af24     bot.obj
 0002:00000f28       ??_C@_0N@MMOINOJC@menuselect?57?$AA@ 1009af28     bot.obj
 0002:00000f38       ??_C@_06FOFEODAH@saveme?$AA@ 1009af38     bot.obj
 0002:00000f40       ??_C@_04PIONEEJD@drop?$AA@ 1009af40     bot.obj
 0002:00000f48       ??_C@_07JBPBHDIL@grenade?$AA@ 1009af48     bot.obj
 0002:00000f50       ??_C@_05BGBHBCHK@medic?$AA@ 1009af50     bot.obj
 0002:00000f58       ??_C@_0L@BIFLFHPF@worldspawn?$AA@ 1009af58     bot.obj
 0002:00000f64       ??_C@_09KJCKJKEG@func_door?$AA@ 1009af64     bot.obj
 0002:00000f70       ??_C@_06HFKPFKMP@button?$AA@ 1009af70     bot.obj
 0002:00000f78       ??_C@_0O@JFBLPFLE@func_recharge?$AA@ 1009af78     bot.obj
 0002:00000f88       ??_C@_0BD@IHHCOEJ@func_healthcharger?$AA@ 1009af88     bot.obj
 0002:00000f9c       ??_C@_0BC@PPPFFKMO@monster_scientist?$AA@ 1009af9c     bot.obj
 0002:00000fb0       ??_C@_0P@PHHJOIGG@monster_barney?$AA@ 1009afb0     bot.obj
 0002:00000fc0       ??_C@_0N@PDAODJGK@monster_otis?$AA@ 1009afc0     bot.obj
 0002:00000fd0       ??_C@_07HENPKEJH@ts_hack?$AA@ 1009afd0     bot.obj
 0002:00000fd8       ??_C@_07FOMFNEG@ts_bomb?$AA@ 1009afd8     bot.obj
 0002:00000fe0       ??_C@_0O@HNKJMAFM@func_resource?$AA@ 1009afe0     bot.obj
 0002:00000ff0       ??_C@_0BD@HDHLCIGB@alienresourcetower?$AA@ 1009aff0     bot.obj
 0002:00001004       ??_C@_09DNGIEGNG@momentary?$AA@ 1009b004     bot.obj
 0002:00001010       ??_C@_0BE@FKCBEADL@trigger_changelevel?$AA@ 1009b010     bot.obj
 0002:00001024       ??_C@_08HKIOADHH@game_end?$AA@ 1009b024     bot.obj
 0002:00001030       ??_C@_0N@BEIPBACL@team_command?$AA@ 1009b030     bot.obj
 0002:00001040       ??_C@_09FJEBEOKH@team_hive?$AA@ 1009b040     bot.obj
 0002:0000104c       ??_C@_0BI@PDEDIKMM@building_sentrygun_base?$AA@ 1009b04c     bot.obj
 0002:00001064       ??_C@_07MDJDKHIJ@weapon_?$AA@ 1009b064     bot.obj
 0002:0000106c       ??_C@_05FLNDNDAH@ammo_?$AA@ 1009b06c     bot.obj
 0002:00001074       ??_C@_0L@MFNEJJJF@rpg_rocket?$AA@ 1009b074     bot.obj
 0002:00001080       ??_C@_08BMKPIIHI@trigger_?$AA@ 1009b080     bot.obj
 0002:0000108c       ??_C@_05DLEGDHMH@crash?$AA@ 1009b08c     bot.obj
 0002:00001094       ??_C@_04NAFIGEAM@hurt?$AA@ 1009b094     bot.obj
 0002:000010a0       ??_C@_0FD@ECHOGCOE@CBot?3?3SwitchWeapon?$CI?$CJ?5?3?5szClassna@ 1009b0a0     bot.obj
 0002:000010f4       ??_C@_03OFAPEBGM@?$CFs?6?$AA@ 1009b0f4     bot.obj
 0002:000010f8       ??_C@_06GMNKCJKE@gearup?$AA@ 1009b0f8     bot.obj
 0002:00001100       ??_C@_08HHODEMFM@geardown?$AA@ 1009b100     bot.obj
 0002:0000110c       ??_C@_0N@NMLIDLNP@item_powerup?$AA@ 1009b10c     bot.obj
 0002:0000111c       ??_C@_09ENPIJEF@weaponbox?$AA@ 1009b11c     bot.obj
 0002:00001128       ??_C@_0L@BPLAPMHE@item_armor?$AA@ 1009b128     bot.obj
 0002:00001134       ??_C@_0P@PMNEPGFM@item_healthkit?$AA@ 1009b134     bot.obj
 0002:00001144       ??_C@_05BMEAFIBI@item_?$AA@ 1009b144     bot.obj
 0002:0000114c       ??_C@_09EBGFNOFG@healthkit?$AA@ 1009b14c     bot.obj
 0002:00001158       ??_C@_08IEEBDNGL@longjump?$AA@ 1009b158     bot.obj
 0002:00001164       ??_C@_0O@BDLHIPAB@item_artifact?$AA@ 1009b164     bot.obj
 0002:00001174       ??_C@_0L@EAHOAMNM@ts_powerup?$AA@ 1009b174     bot.obj
 0002:00001180       ??_C@_0BA@NAHONLKL@ts_groundweapon?$AA@ 1009b180     bot.obj
 0002:00001190       ??_C@_0O@IIJLCLJL@item_longjump?$AA@ 1009b190     bot.obj
 0002:000011a0       ??_C@_0M@GHEONHBO@item_tfgoal?$AA@ 1009b1a0     bot.obj
 0002:000011ac       ??_C@_0BG@NLDDFKIG@Touch?$CI?$CJ?5?$CFs?5touched?5?$CFs?$AA@ 1009b1ac     bot.obj
 0002:000011c4       ??_C@_09HCDLIOGG@func_plat?$AA@ 1009b1c4     bot.obj
 0002:000011d0       ??_C@_0M@PNMKBMEP@func_button?$AA@ 1009b1d0     bot.obj
 0002:000011dc       ??_C@_0O@EOPDJMJL@button_target?$AA@ 1009b1dc     bot.obj
 0002:000011ec       ??_C@_0BA@EGAICAJI@func_rot_button?$AA@ 1009b1ec     bot.obj
 0002:000011fc       ??_C@_0BJ@KEEEDFO@Block?$CI?$CJ?5?$CFs?5blocked?5by?5?$CFs?$AA@ 1009b1fc     bot.obj
 0002:00001218       ??_C@_06NCPGBCDJ@?9gren1?$AA@ 1009b218     bot.obj
 0002:00001220       ??_C@_06PJNLEBPK@?9gren2?$AA@ 1009b220     bot.obj
 0002:00001228       ??_C@_06LBCGCHAD@?$CLgren1?$AA@ 1009b228     bot.obj
 0002:00001230       ??_C@_06JKALHEMA@?$CLgren2?$AA@ 1009b230     bot.obj
 0002:00001238       ??_C@_0BE@MKHPBDMI@monster_human_grunt?$AA@ 1009b238     bot.obj
 0002:0000124c       ??_C@_05NCCFOPHA@model?$AA@ 1009b24c     bot.obj
 0002:00001254       ??_C@_0N@BPBAFHBK@monster_gman?$AA@ 1009b254     bot.obj
 0002:00001264       ??_C@_0BC@JHKPMDKG@monster_furniture?$AA@ 1009b264     bot.obj
 0002:00001278       ??_C@_0BB@FHLGAPMJ@monster_tentacle?$AA@ 1009b278     bot.obj
 0002:0000128c       ??_C@_0BD@IAOCGHKJ@building_dispenser?$AA@ 1009b28c     bot.obj
 0002:000012a0       ??_C@_0BA@IEHFJADB@monster_generic?$AA@ 1009b2a0     bot.obj
 0002:000012b0       ??_C@_0O@INFELHIE@monster_leech?$AA@ 1009b2b0     bot.obj
 0002:000012c0       ??_C@_0BC@KDFBPNBG@monster_cockroach?$AA@ 1009b2c0     bot.obj
 0002:000012d4       ??_C@_0CC@IGBPGBBN@Cheeseh?5?$CIcheeseh?$EAbots?9united?4com@ 1009b2d4     bot.obj
 0002:000012f8       ??_C@_0BD@OPEMFFKO@?5Report?5bugs?5to?5?3?5?$AA@ 1009b2f8     bot.obj
 0002:0000130c       ??_C@_05EGOFJBOA@BUG?3?5?$AA@ 1009b30c     bot.obj
 0002:00001314       ??_C@_08KJEDNCKC@?$CFs?$CFs?$CFs?$CFs?$AA@ 1009b314     bot.obj
 0002:00001320       ??_C@_0BG@HJHCBGJM@Assertion?5Failed?5?3?5?$CFs?$AA@ 1009b320     bot.obj
 0002:00001338       ??_C@_06KDMJKHKA@?$FLDEBUG?$AA@ 1009b338     bot.obj
 0002:00001340       ??_C@_0M@HBJGENL@?$CFs?3TOUCH?$FN?$DN?$DO?$AA@ 1009b340     bot.obj
 0002:0000134c       ??_C@_0M@FGJMPCHG@?$CFs?3THINK?$FN?$DN?$DO?$AA@ 1009b34c     bot.obj
 0002:00001358       ??_C@_0L@PLFPGFHE@?$CFs?3HEAR?$FN?$DN?$DO?$AA@ 1009b358     bot.obj
 0002:00001364       ??_C@_0O@FPLJGGNJ@?$CFs?3MESSAGE?$FN?$DN?$DO?$AA@ 1009b364     bot.obj
 0002:00001374       ??_C@_0M@NCECOBJD@?$CFs?3BLOCK?$FN?$DN?$DO?$AA@ 1009b374     bot.obj
 0002:00001380       ??_C@_0L@NLNMENOP@?$CFs?3MOVE?$FN?$DN?$DO?$AA@ 1009b380     bot.obj
 0002:0000138c       ??_C@_09FGHLOMOI@?$CFs?3AIM?$FN?$DN?$DO?$AA@ 1009b38c     bot.obj
 0002:00001398       ??_C@_09FLFALIPP@?$CFs?3NAV?$FN?$DN?$DO?$AA@ 1009b398     bot.obj
 0002:000013a4       ??_C@_09OBIIOKLF@?$CFs?3SEE?$FN?$DN?$DO?$AA@ 1009b3a4     bot.obj
 0002:000013b0       ??_C@_01MCMALHOG@a?$AA@    1009b3b0     bot.obj
 0002:000013b4       ??_C@_0BD@LNIMABDP@rcbot_crashlog?4txt?$AA@ 1009b3b4     bot.obj
 0002:000013c8       ??_C@_0BC@FGFOCNMM@?$CFm?1?$CFd?1?$CFY?5?$CFH?3?$CFM?3?$CFS?$AA@ 1009b3c8     bot.obj
 0002:000013dc       ??_C@_06KFBKKJF@?$CFs?5?$DN?$DO?5?$AA@ 1009b3dc     bot.obj
 0002:000013e4       ??_C@_09KHCKOFPJ@?$FLRCBOT?$DO?$FN?5?$AA@ 1009b3e4     bot.obj
 0002:000013f0       ??_C@_0BD@GFPPJECG@?$CFs?$CFs?5Message?5?3?5?$CFs?6?$AA@ 1009b3f0     bot.obj
 0002:00001404       ??_C@_01EEMJAFIK@?6?$AA@   1009b404     bot.obj
 0002:00001408       ??_C@_0BC@EKHDHLG@?$CB?$CB?$CB?$CBERROR?5?3?5?$CFs?$CFs?6?$AA@ 1009b408     bot.obj
 0002:0000141c       ??_C@_0M@KGMBGKPN@RCBot?5Error?$AA@ 1009b41c     bot.obj
 0002:00001428       ??_C@_0CD@BIAIBIEE@BotMessage?$CI?$CJ?5?3?5errorlevel?5invali@ 1009b428     bot.obj
 0002:0000144c       ??_C@_0P@LMGAPGKB@team_webstrand?$AA@ 1009b44c     bot.obj
 0002:0000145c       ??_C@_0BM@NGGEHBKM@?$CFs?5?$CFs?5has?5joined?5your?5squad?$AA@ 1009b45c     bot.obj
 0002:00001478       ??_C@_0BI@DHLOMLPI@say_team?5?$CCIn?5Position?$CB?$CC?$AA@ 1009b478     bot.obj
 0002:00001490       ??_C@_08OLGKFJAO@topcolor?$AA@ 1009b490     bot.obj
 0002:0000149c       ??_C@_02DPKJAMEF@?$CFd?$AA@ 1009b49c     bot.obj
 0002:000014a0       ??_C@_07KEADMOMH@build?52?$AA@ 1009b4a0     bot.obj
 0002:000014a8       ??_C@_0N@NLBBCFML@rotatesentry?$AA@ 1009b4a8     bot.obj
 0002:000014b8       ??_C@_0BA@KCBAJEHA@rotatesentry180?$AA@ 1009b4b8     bot.obj
 0002:000014c8       ??_C@_07PCFJGJEB@build?54?$AA@ 1009b4c8     bot.obj
 0002:000014d0       ??_C@_07OLECFIAA@build?55?$AA@ 1009b4d0     bot.obj
 0002:000014d8       ??_C@_07IPCOJNAE@build?51?$AA@ 1009b4d8     bot.obj
 0002:000014e0       ??_C@_0N@HCBEKMHJ@detdispenser?$AA@ 1009b4e0     bot.obj
 0002:000014f0       ??_C@_0BD@LFLKGLOD@detentryteleporter?$AA@ 1009b4f0     bot.obj
 0002:00001504       ??_C@_0BC@IEMHJOIL@detexitteleporter?$AA@ 1009b504     bot.obj
 0002:00001518       ??_C@_05DBIKGJCD@feign?$AA@ 1009b518     bot.obj
 0002:00001520       ??_C@_06MAKENNEI@sfeign?$AA@ 1009b520     bot.obj
 0002:00001528       ??_C@_0BC@EBDBAGIM@disguise_enemy?5?$CFd?$AA@ 1009b528     bot.obj
 0002:0000153c       ??_C@_05LCNFHPCP@?$CLdet5?$AA@ 1009b53c     bot.obj
 0002:00001544       ??_C@_05GEIMJMDC@?9det5?$AA@ 1009b544     bot.obj
 0002:0000154c       ??_C@_0L@PGCOCBM@func_train?$AA@ 1009b54c     bot.obj
 0002:00001558       ??_C@_07FGAIHHOI@discard?$AA@ 1009b558     bot.obj
 0002:00001560       ??_C@_0BJ@BHELHLHC@say_team?5?$CCBuilding?5Hive?$CC?$AA@ 1009b560     bot.obj
 0002:0000157c       ??_C@_0CD@BNFDKBOP@say_team?5?$CCBuilding?5Resource?5Towe@ 1009b57c     bot.obj
 0002:000015a0       ??_C@_0O@PMLIFLIE@say_team?5?$CC?$CFs?$CC?$AA@ 1009b5a0     bot.obj
 0002:000015b0       ??_C@_08GPCNJHOL@say?5?$CC?$CFs?$CC?$AA@ 1009b5b0     bot.obj
 0002:000015bc       ??_C@_09LDNHLJNI@func_tank?$AA@ 1009b5bc     bot.obj
 0002:000015c8       ??_C@_0BA@LPLBJLOD@func_tankmortar?$AA@ 1009b5c8     bot.obj
 0002:000015d8       ??_C@_0BA@CKIOIBGF@func_tankrocket?$AA@ 1009b5d8     bot.obj
 0002:000015e8       ??_C@_0BI@KCMMIOCE@?$CFs?5really?5hates?5?$CFs?5?$CI?$CFd?$CJ?$AA@ 1009b5e8     bot.obj
 0002:00001600       ??_C@_0BB@GBKICDCA@?$CFs?5hates?5?$CFs?5?$CI?$CFd?$CJ?$AA@ 1009b600     bot.obj
 0002:00001614       ??_C@_0BJ@FDKLIDEN@?$CFs?5kind?5of?5hates?5?$CFs?5?$CI?$CFd?$CJ?$AA@ 1009b614     bot.obj
 0002:00001630       ??_C@_0BI@JOALFMPJ@?$CFs?5doesn?8t?5like?5?$CFs?5?$CI?$CFd?$CJ?$AA@ 1009b630     bot.obj
 0002:00001648       ??_C@_0BB@FMILANNL@?$CFs?5likes?5?$CFs?5?$CI?$CFd?$CJ?$AA@ 1009b648     bot.obj
 0002:0000165c       ??_C@_0BI@JPOPKANP@?$CFs?5really?5likes?5?$CFs?5?$CI?$CFd?$CJ?$AA@ 1009b65c     bot.obj
 0002:00001674       ??_C@_0BB@GONJDOBE@?$CFs?5loves?5?$CFs?5?$CI?$CFd?$CJ?$AA@ 1009b674     bot.obj
 0002:00001688       ??_C@_0BI@KNLNJDBA@?$CFs?5really?5loves?5?$CFs?5?$CI?$CFd?$CJ?$AA@ 1009b688     bot.obj
 0002:000016a0       ??_C@_0BI@PBLINBEI@?$CFs?5LURRVESS?5?$CFs?5?$CB?$CB?$CB?5?$CI?$CFd?$CJ?$AA@ 1009b6a0     bot.obj
 0002:000016b8       ??_C@_0EB@KGLFNNDO@?$FLRCBOT?$DO?$FN?5dataUnconstarray?$FL?$FN?5Arra@ 1009b6b8     bot.obj
 0002:000016fc       ??_C@_0BD@OLBABOEK@vector?$DMT?$DO?5too?5long?$AA@ 1009b6fc     bot.obj
 0002:00001710       __real@00000000            1009b710     bot.obj
 0002:00001714       __real@39800000            1009b714     bot.obj
 0002:00001718       __real@3c23d70a            1009b718     bot.obj
 0002:0000171c       __real@3dcccccd            1009b71c     bot.obj
 0002:00001720       __real@3e4ccccd            1009b720     bot.obj
 0002:00001724       __real@3e800000            1009b724     bot.obj
 0002:00001728       __real@3ecccccd            1009b728     bot.obj
 0002:0000172c       __real@3f400000            1009b72c     bot.obj
 0002:00001730       __real@3f50624dd2f1a9fc    1009b730     bot.obj
 0002:00001738       __real@3f800000            1009b738     bot.obj
 0002:00001740       __real@3f847ae147ae147b    1009b740     bot.obj
 0002:00001748       __real@3fb999999999999a    1009b748     bot.obj
 0002:00001750       __real@3fc999999999999a    1009b750     bot.obj
 0002:00001758       __real@3fd0000000000000    1009b758     bot.obj
 0002:00001760       __real@3fd3333333333333    1009b760     bot.obj
 0002:00001768       __real@3fd999999999999a    1009b768     bot.obj
 0002:00001770       __real@3fe0000000000000    1009b770     bot.obj
 0002:00001778       __real@3fe6666666666666    1009b778     bot.obj
 0002:00001780       __real@3fe8000000000000    1009b780     bot.obj
 0002:00001788       __real@3fe999999999999a    1009b788     bot.obj
 0002:00001790       __real@3feccccccccccccd    1009b790     bot.obj
 0002:00001798       __real@3fee666666666666    1009b798     bot.obj
 0002:000017a0       __real@3ff0000000000000    1009b7a0     bot.obj
 0002:000017a8       __real@3ff199999999999a    1009b7a8     bot.obj
 0002:000017b0       __real@3ff3333333333333    1009b7b0     bot.obj
 0002:000017b8       __real@3ff8000000000000    1009b7b8     bot.obj
 0002:000017c0       __real@40000000            1009b7c0     bot.obj
 0002:000017c8       __real@4000000000000000    1009b7c8     bot.obj
 0002:000017d0       __real@4008000000000000    1009b7d0     bot.obj
 0002:000017d8       __real@400f45a1cac08312    1009b7d8     bot.obj
 0002:000017e0       __real@4010000000000000    1009b7e0     bot.obj
 0002:000017e8       __real@4014000000000000    1009b7e8     bot.obj
 0002:000017f0       __real@4018000000000000    1009b7f0     bot.obj
 0002:000017f8       __real@4020000000000000    1009b7f8     bot.obj
 0002:00001800       __real@4024000000000000    1009b800     bot.obj
 0002:00001808       __real@40400000            1009b808     bot.obj
 0002:00001810       __real@4046800000000000    1009b810     bot.obj
 0002:00001818       __real@40490fd8            1009b818     bot.obj
 0002:00001820       __real@4050000000000000    1009b820     bot.obj
 0002:00001828       __real@4059000000000000    1009b828     bot.obj
 0002:00001830       __real@4060000000000000    1009b830     bot.obj
 0002:00001838       __real@4066800000000000    1009b838     bot.obj
 0002:00001840       __real@4069000000000000    1009b840     bot.obj
 0002:00001848       __real@4070000000000000    1009b848     bot.obj
 0002:00001850       __real@4079000000000000    1009b850     bot.obj
 0002:00001858       __real@40800000            1009b858     bot.obj
 0002:00001860       __real@4089000000000000    1009b860     bot.obj
 0002:00001868       __real@408f400000000000    1009b868     bot.obj
 0002:00001870       __real@41000000            1009b870     bot.obj
 0002:00001874       __real@41100000            1009b874     bot.obj
 0002:00001878       __real@41200000            1009b878     bot.obj
 0002:0000187c       __real@41700000            1009b87c     bot.obj
 0002:00001880       __real@41800000            1009b880     bot.obj
 0002:00001884       __real@41a00000            1009b884     bot.obj
 0002:00001888       __real@41b80000            1009b888     bot.obj
 0002:0000188c       __real@41c00000            1009b88c     bot.obj
 0002:00001890       __real@41f00000            1009b890     bot.obj
 0002:00001894       __real@42000000            1009b894     bot.obj
 0002:00001898       __real@420c0000            1009b898     bot.obj
 0002:0000189c       __real@42100000            1009b89c     bot.obj
 0002:000018a0       __real@42140000            1009b8a0     bot.obj
 0002:000018a4       __real@42200000            1009b8a4     bot.obj
 0002:000018a8       __real@42340000            1009b8a8     bot.obj
 0002:000018ac       __real@42400000            1009b8ac     bot.obj
 0002:000018b0       __real@42480000            1009b8b0     bot.obj
 0002:000018b4       __real@42700000            1009b8b4     bot.obj
 0002:000018b8       __real@42800000            1009b8b8     bot.obj
 0002:000018bc       __real@428c0000            1009b8bc     bot.obj
 0002:000018c0       __real@42900000            1009b8c0     bot.obj
 0002:000018c4       __real@42a00000            1009b8c4     bot.obj
 0002:000018c8       __real@42aa0000            1009b8c8     bot.obj
 0002:000018cc       __real@42b40000            1009b8cc     bot.obj
 0002:000018d0       __real@42c00000            1009b8d0     bot.obj
 0002:000018d4       __real@42c80000            1009b8d4     bot.obj
 0002:000018d8       __real@42dc0000            1009b8d8     bot.obj
 0002:000018dc       __real@42e20000            1009b8dc     bot.obj
 0002:000018e0       __real@43000000            1009b8e0     bot.obj
 0002:000018e4       __real@43020000            1009b8e4     bot.obj
 0002:000018e8       __real@43160000            1009b8e8     bot.obj
 0002:000018ec       __real@431e0000            1009b8ec     bot.obj
 0002:000018f0       __real@43340000            1009b8f0     bot.obj
 0002:000018f4       __real@43480000            1009b8f4     bot.obj
 0002:000018f8       __real@434b0000            1009b8f8     bot.obj
 0002:000018fc       __real@43780000            1009b8fc     bot.obj
 0002:00001900       __real@437f0000            1009b900     bot.obj
 0002:00001904       __real@43800000            1009b904     bot.obj
 0002:00001908       __real@43940000            1009b908     bot.obj
 0002:0000190c       __real@43960000            1009b90c     bot.obj
 0002:00001910       __real@43a00000            1009b910     bot.obj
 0002:00001914       __real@43c80000            1009b914     bot.obj
 0002:00001918       __real@44000000            1009b918     bot.obj
 0002:0000191c       __real@44400000            1009b91c     bot.obj
 0002:00001920       __real@44480000            1009b920     bot.obj
 0002:00001924       __real@447a0000            1009b924     bot.obj
 0002:00001928       __real@45000000            1009b928     bot.obj
 0002:0000192c       __real@45800000            1009b92c     bot.obj
 0002:00001930       __real@46000000            1009b930     bot.obj
 0002:00001934       __real@bf800000            1009b934     bot.obj
 0002:00001938       __real@c0000000            1009b938     bot.obj
 0002:0000193c       __real@c0400000            1009b93c     bot.obj
 0002:00001940       __real@c08f400000000000    1009b940     bot.obj
 0002:00001948       __real@c1200000            1009b948     bot.obj
 0002:0000194c       __real@c2700000            1009b94c     bot.obj
 0002:00001950       __real@c2b20000            1009b950     bot.obj
 0002:00001960       __xmm@7fffffffffffffff7fffffffffffffff 1009b960     bot.obj
 0002:00001970       __xmm@80000000800000008000000080000000 1009b970     bot.obj
 0002:00001984       ??_7CBotNetMessage@@6B@    1009b984     bot_client.obj
 0002:00001990       ??_7BotClient_TS_ClipInfo@@6B@ 1009b990     bot_client.obj
 0002:00001998       ??_C@_08EMIEBPGC@ClipInfo?$AA@ 1009b998     bot_client.obj
 0002:000019a8       ??_7BotClient_TS_DelObj@@6B@ 1009b9a8     bot_client.obj
 0002:000019b0       ??_C@_06MBBKKBEG@DelObj?$AA@ 1009b9b0     bot_client.obj
 0002:000019bc       ??_7BotClient_TS_WStatus@@6B@ 1009b9bc     bot_client.obj
 0002:000019c4       ??_C@_07FBJHIPAM@WStatus?$AA@ 1009b9c4     bot_client.obj
 0002:000019d0       ??_7BotClient_TS_WeaponInfo@@6B@ 1009b9d0     bot_client.obj
 0002:000019d8       ??_C@_0L@HKFOGFCD@WeaponInfo?$AA@ 1009b9d8     bot_client.obj
 0002:000019e8       ??_7BotClient_Generic_WeaponList@@6B@ 1009b9e8     bot_client.obj
 0002:000019f0       ??_C@_0L@JMLCHIOL@WeaponList?$AA@ 1009b9f0     bot_client.obj
 0002:00001a00       ??_7BotClient_Generic_CurrentWeapon@@6B@ 1009ba00     bot_client.obj
 0002:00001a08       ??_C@_09PEGKEGNI@CurWeapon?$AA@ 1009ba08     bot_client.obj
 0002:00001a18       ??_7BotClient_Generic_AmmoX@@6B@ 1009ba18     bot_client.obj
 0002:00001a20       ??_C@_05BDDOEAPG@AmmoX?$AA@ 1009ba20     bot_client.obj
 0002:00001a2c       ??_7BotClient_Generic_AmmoPickup@@6B@ 1009ba2c     bot_client.obj
 0002:00001a34       ??_C@_0L@EANOMKOP@AmmoPickup?$AA@ 1009ba34     bot_client.obj
 0002:00001a44       ??_7BotClient_Generic_WeaponPickup@@6B@ 1009ba44     bot_client.obj
 0002:00001a4c       ??_C@_0L@FGOFFEAA@WeapPickup?$AA@ 1009ba4c     bot_client.obj
 0002:00001a5c       ??_7BotClient_Generic_ItemPickup@@6B@ 1009ba5c     bot_client.obj
 0002:00001a64       ??_C@_0L@NIFLCEON@ItemPickup?$AA@ 1009ba64     bot_client.obj
 0002:00001a74       ??_7BotClient_Generic_Health@@6B@ 1009ba74     bot_client.obj
 0002:00001a7c       ??_C@_06GGDALCBD@Health?$AA@ 1009ba7c     bot_client.obj
 0002:00001a88       ??_7BotClient_Generic_Battery@@6B@ 1009ba88     bot_client.obj
 0002:00001a90       ??_C@_07OFDFNCDP@Battery?$AA@ 1009ba90     bot_client.obj
 0002:00001a9c       ??_7BotClient_Generic_Damage@@6B@ 1009ba9c     bot_client.obj
 0002:00001aa4       ??_C@_06KGFFMMMJ@Damage?$AA@ 1009baa4     bot_client.obj
 0002:00001ab0       ??_7BotClient_Generic_ScreenFade@@6B@ 1009bab0     bot_client.obj
 0002:00001ab8       ??_C@_0L@OBKHMDDA@ScreenFade?$AA@ 1009bab8     bot_client.obj
 0002:00001ac8       ??_7BotClient_DMC_QuakeItem@@6B@ 1009bac8     bot_client.obj
 0002:00001ad0       ??_C@_06ILNBKKFO@QItems?$AA@ 1009bad0     bot_client.obj
 0002:00001adc       ??_7BotClient_Generic_VGUIMenu@@6B@ 1009badc     bot_client.obj
 0002:00001ae4       ??_C@_08NOMGHFLN@VGUIMenu?$AA@ 1009bae4     bot_client.obj
 0002:00001af4       ??_7BotClient_NS_TechSlots@@6B@ 1009baf4     bot_client.obj
 0002:00001afc       ??_C@_09LODEDNHD@TechSlots?$AA@ 1009bafc     bot_client.obj
 0002:00001b0c       ??_7BotClient_Generic_ShowMenu@@6B@ 1009bb0c     bot_client.obj
 0002:00001b14       ??_C@_08IGGENMMJ@ShowMenu?$AA@ 1009bb14     bot_client.obj
 0002:00001b24       ??_7BotClient_TS_State@@6B@ 1009bb24     bot_client.obj
 0002:00001b2c       ??_C@_07BHCMNNNO@TSState?$AA@ 1009bb2c     bot_client.obj
 0002:00001b38       ??_7BotClient_TS_Objective@@6B@ 1009bb38     bot_client.obj
 0002:00001b40       ??_C@_09BFBOLFMF@Objective?$AA@ 1009bb40     bot_client.obj
 0002:00001b50       ??_7BotClient_Generic_TeamScore@@6B@ 1009bb50     bot_client.obj
 0002:00001b58       ??_C@_09DEGMELBN@TeamScore?$AA@ 1009bb58     bot_client.obj
 0002:00001b68       ??_7BotClient_NS_Commndr@@6B@ 1009bb68     bot_client.obj
 0002:00001b70       ??_C@_07BMNHIOFE@Commndr?$AA@ 1009bb70     bot_client.obj
 0002:00001b7c       ??_7BotClient_NS_HudText@@6B@ 1009bb7c     bot_client.obj
 0002:00001b84       ??_C@_07JNEKKACO@HudText?$AA@ 1009bb84     bot_client.obj
 0002:00001b90       ??_7BotClient_NS_SetOrder@@6B@ 1009bb90     bot_client.obj
 0002:00001b98       ??_C@_08EIEILFPI@SetOrder?$AA@ 1009bb98     bot_client.obj
 0002:00001ba8       ??_7BotClient_NS_SetTech@@6B@ 1009bba8     bot_client.obj
 0002:00001bb0       ??_C@_07COJHACMK@SetTech?$AA@ 1009bbb0     bot_client.obj
 0002:00001bbc       ??_7BotClient_NS_AlienInfo@@6B@ 1009bbbc     bot_client.obj
 0002:00001bc4       ??_C@_09NDKLEFKN@AlienInfo?$AA@ 1009bbc4     bot_client.obj
 0002:00001bd4       ??_7BotClient_BG_MakeMessage@@6B@ 1009bbd4     bot_client.obj
 0002:00001bdc       ??_C@_0M@KBFHODF@MakeMessage?$AA@ 1009bbdc     bot_client.obj
 0002:00001bec       ??_7BotClient_Generic_ScreenShake@@6B@ 1009bbec     bot_client.obj
 0002:00001bf4       ??_C@_0M@FNPJCEOM@ScreenShake?$AA@ 1009bbf4     bot_client.obj
 0002:00001c04       ??_7BotClient_Generic_TextMessage@@6B@ 1009bc04     bot_client.obj
 0002:00001c0c       ??_C@_07GMGJNMMC@TextMsg?$AA@ 1009bc0c     bot_client.obj
 0002:00001c18       ??_7BotClient_Generic_SayText@@6B@ 1009bc18     bot_client.obj
 0002:00001c20       ??_C@_07JAECCEML@SayText?$AA@ 1009bc20     bot_client.obj
 0002:00001c2c       ??_7BotClient_All_Generic_SayText@@6B@ 1009bc2c     bot_client.obj
 0002:00001c38       ??_7BotClient_Generic_DeathMessage@@6B@ 1009bc38     bot_client.obj
 0002:00001c40       ??_C@_08DMGIIAG@DeathMsg?$AA@ 1009bc40     bot_client.obj
 0002:00001c4c       ??_C@_08JAAIKLOC@tsweapon?$AA@ 1009bc4c     bot_client.obj
 0002:00001c58       ??_C@_0BL@OEHCFNNE@?$CDTeleporter_Entrance_Built?$AA@ 1009bc58     bot_client.obj
 0002:00001c74       ??_C@_0BH@MFHNKGNJ@?$CDTeleporter_Exit_Built?$AA@ 1009bc74     bot_client.obj
 0002:00001c8c       ??_C@_0BL@HLCDGAMG@?$CDTeleporter_Exit_Destroyed?$AA@ 1009bc8c     bot_client.obj
 0002:00001ca8       ??_C@_0BP@PLCJCILL@?$CDTeleporter_Entrance_Destroyed?$AA@ 1009bca8     bot_client.obj
 0002:00001cc8       ??_C@_0BP@NKAAPMOA@?$CDTeleporter_entrance_dismantle?$AA@ 1009bcc8     bot_client.obj
 0002:00001ce8       ??_C@_0BL@PEELPMBH@?$CDTeleporter_exit_dismantle?$AA@ 1009bce8     bot_client.obj
 0002:00001d04       ??_C@_0O@OGJJAMCH@?$CDSentry_built?$AA@ 1009bd04     bot_client.obj
 0002:00001d14       ??_C@_0BA@CCHMBMGC@?$CDSentry_upgrade?$AA@ 1009bd14     bot_client.obj
 0002:00001d24       ??_C@_0BC@FBAAJOHO@?$CDSentry_destroyed?$AA@ 1009bd24     bot_client.obj
 0002:00001d38       ??_C@_0BC@BJPADPOB@?$CDSentry_dismantle?$AA@ 1009bd38     bot_client.obj
 0002:00001d4c       ??_C@_0P@BFGNPELE@?$CDBuild_nometal?$AA@ 1009bd4c     bot_client.obj
 0002:00001d5c       ??_C@_0BG@NOPCCNOH@?$CDBuild_notenoughmetal?$AA@ 1009bd5c     bot_client.obj
 0002:00001d74       ??_C@_0M@LGPPNGIK@?$CDBuild_stop?$AA@ 1009bd74     bot_client.obj
 0002:00001d80       ??_C@_0L@NIHMAFCI@?$CDBuild_air?$AA@ 1009bd80     bot_client.obj
 0002:00001d8c       ??_C@_0P@OGKJEHPK@?$CDBuild_nobuild?$AA@ 1009bd8c     bot_client.obj
 0002:00001d9c       ??_C@_0O@MCBGDDIE@?$CDBuild_noroom?$AA@ 1009bd9c     bot_client.obj
 0002:00001dac       ??_C@_0BA@FCFJGHBP@?$CDDispenser_used?$AA@ 1009bdac     bot_client.obj
 0002:00001dbc       ??_C@_0BC@JENONBPI@?$CDDispenser_finish?$AA@ 1009bdbc     bot_client.obj
 0002:00001dd0       ??_C@_0BF@GBCPJEGH@?$CDDispenser_destroyed?$AA@ 1009bdd0     bot_client.obj
 0002:00001de8       ??_C@_0O@LBBDIPDH@?$CDDisguise_now?$AA@ 1009bde8     bot_client.obj
 0002:00001df8       ??_C@_0P@JKGOLOBD@?$CDDisguise_stop?$AA@ 1009bdf8     bot_client.obj
 0002:00001e08       ??_C@_0P@EPFHNOMK@?$CDDisguise_Lost?$AA@ 1009be08     bot_client.obj
 0002:00001e18       ??_C@_0CB@CNNGHIJL@?9?9?9?9?5END?5Alien?5Info?5Message?5?9?9?9?9@ 1009be18     bot_client.obj
 0002:00001e3c       ??_C@_0CD@HNIMKGOO@?9?9?9?9?5BEGIN?5Alien?5Info?5Message?5?9?9@ 1009be3c     bot_client.obj
 0002:00001e60       ??_C@_0BM@LCEGJELP@message_type?5?3?5UPGRADE?5INFO?$AA@ 1009be60     bot_client.obj
 0002:00001e7c       ??_C@_0BJ@HIAONJCI@message_type?5?3?5HIVE?5INFO?$AA@ 1009be7c     bot_client.obj
 0002:00001e98       ??_C@_0BC@GJFDANMF@num?5upgrades?5?3?5?$CFd?$AA@ 1009be98     bot_client.obj
 0002:00001eac       ??_C@_0BF@HDKCKFKP@Upgrade?5Info?5?3?5?$CFd?4?4?4?$AA@ 1009beac     bot_client.obj
 0002:00001ec4       ??_C@_0P@MKIMLLAI@num?5hives?5?3?5?$CFd?$AA@ 1009bec4     bot_client.obj
 0002:00001ed4       ??_C@_0BH@NPMGKOCB@reading?5hive?5info?5?3?5?$CFd?$AA@ 1009bed4     bot_client.obj
 0002:00001eec       ??_C@_0BH@GJHJOJJK@hive?5info?5changed?5?3?5?$CFd?$AA@ 1009beec     bot_client.obj
 0002:00001f04       ??_C@_0BF@DNPGAOJA@the?5sent?5coords?5?3?5?$CFd?$AA@ 1009bf04     bot_client.obj
 0002:00001f1c       ??_C@_0BE@LCKEFNB@the?5X?5coord?5?3?5?$CF0?42f?$AA@ 1009bf1c     bot_client.obj
 0002:00001f30       ??_C@_0N@GFAICCIC@mStatus?5?3?5?$CFd?$AA@ 1009bf30     bot_client.obj
 0002:00001f40       ??_C@_0BE@KFECNEEA@the?5Y?5coord?5?3?5?$CF0?42f?$AA@ 1009bf40     bot_client.obj
 0002:00001f54       ??_C@_0BC@MECAKBAA@mUnderAttack?5?3?5?$CFd?$AA@ 1009bf54     bot_client.obj
 0002:00001f68       ??_C@_0BE@IMIKGALC@the?5Z?5coord?5?3?5?$CF0?42f?$AA@ 1009bf68     bot_client.obj
 0002:00001f7c       ??_C@_0BB@EFOENKK@mTechnology?5?3?5?$CFd?$AA@ 1009bf7c     bot_client.obj
 0002:00001f90       ??_C@_04CAKOHOCJ@Blue?$AA@ 1009bf90     bot_client.obj
 0002:00001f98       ??_C@_03PADCEAKC@Red?$AA@  1009bf98     bot_client.obj
 0002:00001f9c       ??_C@_05GGOIJPPE@Green?$AA@ 1009bf9c     bot_client.obj
 0002:00001fa4       ??_C@_06ICCAKDNH@Yellow?$AA@ 1009bfa4     bot_client.obj
 0002:00001fac       ??_C@_03DAJENNMM@Won?$AA@  1009bfac     bot_client.obj
 0002:00001fb0       ??_C@_0CE@LHJEHPI@?9?9?9?9?9?9?9?9?9?9?9?6Round?5Restart?6?9?9?9?9?9?9@ 1009bfb0     bot_client.obj
 0002:00001fd4       ??_C@_0BC@PPNHNHIF@PTakeDam?5message?6?$AA@ 1009bfd4     bot_client.obj
 0002:00001fe8       __real@44228000            1009bfe8     bot_client.obj
 0002:00001fec       ??_C@_0CC@OPELFPDG@?$CFs?8s?5boredom?5?$DN?5?$CFd?5?$CI?$CF0?41f?5percent@ 1009bfec     bot_commands.obj
 0002:00002010       ??_C@_0DD@JDFJMBKL@name?$DN?$CC?$CFs?$CC?0?5pass?$DN?$CC?$CFs?$CC?0?5accessleve@ 1009c010     bot_commands.obj
 0002:00002048       ??_7CBotCvar@@6B@          1009c048     bot_commands.obj
 0002:00002050       ??_C@_0CC@NIOCIEHO@There?5is?5no?5help?5for?5this?5comman@ 1009c050     bot_commands.obj
 0002:00002074       ??_C@_04OEDFLLKD@?$CC?$CFs?$CC?$AA@ 1009c074     bot_commands.obj
 0002:0000207c       ??_C@_08KMDADLMJ@Whichbot?$AA@ 1009c07c     bot_commands.obj
 0002:00002088       ??_C@_03DHPBGMGE@wpt?$AA@  1009c088     bot_commands.obj
 0002:0000208c       ??_C@_07CCFEOMGD@HPB_bot?$AA@ 1009c08c     bot_commands.obj
 0002:00002094       ??_C@_0BF@CBONKFG@addons?2whichbot?2data?$AA@ 1009c094     bot_commands.obj
 0002:000020b0       ??_7CRemoveBotCommand@@6B@ 1009c0b0     bot_commands.obj
 0002:000020b8       ??_C@_09NLHDJGCH@removebot?$AA@ 1009c0b8     bot_commands.obj
 0002:000020c4       ??_C@_0BC@LINJHHAO@removebot?5command?$AA@ 1009c0c4     bot_commands.obj
 0002:000020dc       ??_7CDebugBotCommand@@6B@  1009c0dc     bot_commands.obj
 0002:000020e4       ??_C@_09MIFGMHLN@debug_bot?$AA@ 1009c0e4     bot_commands.obj
 0002:000020f0       ??_C@_0BC@PDBKEEOD@debug_bot?5command?$AA@ 1009c0f0     bot_commands.obj
 0002:00002104       ??_C@_0BC@POFMJFLK@?$DN?$DN?$DN?$DN?$DN?$DN?$DN?$DN?$DN?$DN?$DN?$DN?$DN?$DN?$DN?$DN?$DN?$AA@ 1009c104     bot_commands.obj
 0002:00002118       ??_C@_08BPLPECIC@commands?$AA@ 1009c118     bot_commands.obj
 0002:00002124       ??_C@_08GGNFKEJM@?9?9?9?9?9?9?9?9?$AA@ 1009c124     bot_commands.obj
 0002:00002130       ??_C@_0EB@NLLPAJIO@?$CCdebug_bot?5bot?5?$DMbot?5name?$DO?$CC?5?3?5sho@ 1009c130     bot_commands.obj
 0002:00002174       ??_C@_0DB@PDLDCPAA@?$CCdebug_bot?5off?$CC?5stops?5showing?5bo@ 1009c174     bot_commands.obj
 0002:000021ac       ??_7CDebugEntCommand@@6B@  1009c1ac     bot_commands.obj
 0002:000021b4       ??_C@_09FEEDJFDD@debug_ent?$AA@ 1009c1b4     bot_commands.obj
 0002:000021c0       ??_C@_0BC@EGAMHCKM@debug_ent?5command?$AA@ 1009c1c0     bot_commands.obj
 0002:000021d4       ??_C@_0DI@NKCPKNPP@?$CCdebug_ent?5entity?$CC?5?3?5shows?5facin@ 1009c1d4     bot_commands.obj
 0002:0000220c       ??_C@_0CN@CBFKCBCD@?$CCdebug_ent?5off?$CC?5stops?5showing?5in@ 1009c20c     bot_commands.obj
 0002:00002240       ??_7CUsersCommand@@6B@     1009c240     bot_commands.obj
 0002:00002248       ??_C@_05PEDPMJAL@users?$AA@ 1009c248     bot_commands.obj
 0002:00002250       ??_C@_0O@PIJGOLIL@users?5command?$AA@ 1009c250     bot_commands.obj
 0002:00002260       ??_C@_0O@CLAFNEAB@?$DN?$DN?$DN?$DN?$DN?$DN?$DN?$DN?$DN?$DN?$DN?$DN?$DN?$AA@ 1009c260     bot_commands.obj
 0002:00002270       ??_C@_0L@CNBPIBCO@commands?3?5?$AA@ 1009c270     bot_commands.obj
 0002:0000227c       ??_C@_09NJPFFACE@?9?9?9?9?9?9?9?9?9?$AA@ 1009c27c     bot_commands.obj
 0002:00002288       ??_C@_0CL@IHMMDMMP@readusers?5?$CIReads?5bot_users?4ini?5f@ 1009c288     bot_commands.obj
 0002:000022b4       ??_C@_0DL@GENNBHEP@adduser?5?9?9?5adds?5a?5user?6Usage?3?5?$DMp@ 1009c2b4     bot_commands.obj
 0002:000022f0       ??_C@_0EB@DILENLBO@removeuser?5?9?9?5removes?5a?5user?6Usa@ 1009c2f0     bot_commands.obj
 0002:00002334       ??_C@_0CJ@CKADEHAC@showusers?5?9?9?5shows?5all?5allowed?5b@ 1009c334     bot_commands.obj
 0002:00002364       ??_7CHelpCommand@@6B@      1009c364     bot_commands.obj
 0002:0000236c       ??_C@_04PCJFHION@help?$AA@ 1009c36c     bot_commands.obj
 0002:00002374       ??_C@_0N@MOMEEFB@help?5command?$AA@ 1009c374     bot_commands.obj
 0002:00002384       ??_C@_0N@KMPENJN@?9?9?9?9?9?9?9?9?9?9?9?9?$AA@ 1009c384     bot_commands.obj
 0002:00002394       ??_C@_0CC@BNDBECLD@Usage?5?3?5rcbot?5help?5?$FLcommand?5name@ 1009c394     bot_commands.obj
 0002:000023b8       ??_C@_0CF@EEBMFJKB@You?5can?5view?5useful?5tips?5on?5comm@ 1009c3b8     bot_commands.obj
 0002:000023e0       ??_C@_0BE@GGDLOABD@and?5how?5to?5use?5them?$AA@ 1009c3e0     bot_commands.obj
 0002:000023f4       ??_C@_0O@KOCCGBHN@?9?9?5general?5?9?9?$AA@ 1009c3f4     bot_commands.obj
 0002:00002404       ??_C@_0BN@IEMLHDPE@commands?5may?5have?5parameters?$AA@ 1009c404     bot_commands.obj
 0002:00002428       ??_C@_0EF@HDFGNPAN@?9?5if?5a?5parameter?5is?5needed?5that?5@ 1009c428     bot_commands.obj
 0002:00002470       ??_C@_0CP@IOIKELOL@?5?5?$CIexample?3?5rcbot?5util?5teleport?5@ 1009c470     bot_commands.obj
 0002:000024a0       ??_C@_0EH@DIONMMJF@?9?5if?5a?5parameter?5is?5optional?5tha@ 1009c4a0     bot_commands.obj
 0002:000024e8       ??_C@_0CL@DBCNPEPK@?5?5?$CIexample?3?5rcbot?5util?5killbot?5?$DM@ 1009c4e8     bot_commands.obj
 0002:00002518       ??_7CAutoWaypointCommand@@6B@ 1009c518     bot_commands.obj
 0002:00002520       ??_C@_0N@FPBHKGAD@autowaypoint?$AA@ 1009c520     bot_commands.obj
 0002:00002530       ??_C@_0BG@PAHLCNFO@auto_waypoint?5command?$AA@ 1009c530     bot_commands.obj
 0002:00002548       ??_C@_0BG@NHAMHJPM@?9?9?9?9?9?9?9?9?9?9?9?9?9?9?9?9?9?9?9?9?9?$AA@ 1009c548     bot_commands.obj
 0002:00002560       ??_C@_0DM@FDOEBPJC@Usage?5?3?5rcbot?5autowaypoint?5?$FLplay@ 1009c560     bot_commands.obj
 0002:0000259c       ??_C@_0CJ@IBMEBIEI@Automatically?5places?5waypoints?5o@ 1009c59c     bot_commands.obj
 0002:000025c8       ??_C@_0EB@GBMHFDAL@If?5no?5player?5name?5is?5issued?0?5it?5@ 1009c5c8     bot_commands.obj
 0002:00002610       ??_C@_0EA@EBGLMEHB@If?5no?5on?1off?5value?5is?5issued?0?5it@ 1009c610     bot_commands.obj
 0002:00002650       ??_C@_0DJ@MHNPDLIB@You?5must?5issue?5a?5player?5name?5if?5@ 1009c650     bot_commands.obj
 0002:00002690       ??_7CMenuSelectCommand@@6B@ 1009c690     bot_commands.obj
 0002:00002698       ??_C@_0L@JMKGJPHD@menuselect?$AA@ 1009c698     bot_commands.obj
 0002:000026a8       ??_7CSetPassCommand@@6B@   1009c6a8     bot_commands.obj
 0002:000026b0       ??_C@_08IFMBHIBB@set_pass?$AA@ 1009c6b0     bot_commands.obj
 0002:000026bc       ??_C@_0BG@INHKOKMP@set_pass?5command?5help?$AA@ 1009c6bc     bot_commands.obj
 0002:000026d4       ??_C@_0CC@INEDBEHG@Usage?5?3?5rcbot?5set_pass?5?$DMpassword@ 1009c6d4     bot_commands.obj
 0002:000026f8       ??_C@_0DF@FLFMDBBD@Allows?5the?5bot?5program?5to?5check?5@ 1009c6f8     bot_commands.obj
 0002:00002730       ??_C@_0DF@NGAGKODE@with?5your?5name?5to?5gain?5access?5to@ 1009c730     bot_commands.obj
 0002:00002768       ??_C@_0DG@DFJNPPKO@Your?5password?5is?5case?5sensitive?5@ 1009c768     bot_commands.obj
 0002:000027a0       ??_C@_0DG@CMEEMGHP@also?5case?5sensitive?0?5they?5must?5m@ 1009c7a0     bot_commands.obj
 0002:000027dc       ??_7CWaypointMenuCommand@@6B@ 1009c7dc     bot_commands.obj
 0002:000027e4       ??_C@_0O@LIKLDODF@waypoint_menu?$AA@ 1009c7e4     bot_commands.obj
 0002:000027f8       ??_7CBotMenuCommand@@6B@   1009c7f8     bot_commands.obj
 0002:00002800       ??_C@_08PKAMGBCK@bot_menu?$AA@ 1009c800     bot_commands.obj
 0002:00002810       ??_7CUtilCommand@@6B@      1009c810     bot_commands.obj
 0002:00002818       ??_C@_04GCPMIEJC@util?$AA@ 1009c818     bot_commands.obj
 0002:00002820       ??_C@_0BC@OHJNBAJA@util?5command?5help?$AA@ 1009c820     bot_commands.obj
 0002:00002834       ??_C@_0BC@OAHAFPFE@?9?9?9?9?9?9?9?9?9?9?9?9?9?9?9?9?9?$AA@ 1009c834     bot_commands.obj
 0002:00002848       ??_C@_0BD@BCHBGMMA@killbot?5?$DMbot?5name?$DO?$AA@ 1009c848     bot_commands.obj
 0002:0000285c       ??_C@_0CL@CLJPDMFG@kills?5the?5bot?5with?5the?5name?5of?5?$DM@ 1009c85c     bot_commands.obj
 0002:00002888       ??_C@_0N@OGHKMNLD@set_teleport?$AA@ 1009c888     bot_commands.obj
 0002:00002898       ??_C@_0FH@FDEBHECA@sets?5your?5current?5teleport?5possi@ 1009c898     bot_commands.obj
 0002:000028f0       ??_C@_0BH@MFIGKMMC@teleport?5?$FLplayer?5name?$FN?$AA@ 1009c8f0     bot_commands.obj
 0002:00002908       ??_C@_0EN@CBLFHBAK@will?5teleport?5the?5player?5with?5?$FLp@ 1009c908     bot_commands.obj
 0002:00002958       ??_C@_0BG@NKIDBJOK@notouch?5?$FLplayer?5name?$FN?$AA@ 1009c958     bot_commands.obj
 0002:00002970       ??_C@_0FO@DAJPFHOO@will?5stop?5touch?5calls?5reaching?5t@ 1009c970     bot_commands.obj
 0002:000029d0       ??_C@_0GL@DLDIGOMH@no?5touch?5means?5you?5won?8t?5pick?5up@ 1009c9d0     bot_commands.obj
 0002:00002a3c       ??_C@_0BM@BJGOKNMM@notarget_mode?5?$FLplayer?5name?$FN?$AA@ 1009ca3c     bot_commands.obj
 0002:00002a58       ??_C@_0FM@LLDCHCJN@will?5stop?5monsters?5shooting?5the?5@ 1009ca58     bot_commands.obj
 0002:00002ab4       ??_C@_0BO@JCDGJGCL@send_sound?5?$DMsound?5path?$DO?$FL?4wav?$FN?$AA@ 1009cab4     bot_commands.obj
 0002:00002ad8       ??_C@_0FL@JMJJDEH@makes?5the?5sound?5in?5the?5?$DMsound?5pa@ 1009cad8     bot_commands.obj
 0002:00002b34       ??_C@_0BK@LJNEBIOC@noclip_mode?5?$FLplayer?5name?$FN?$AA@ 1009cb34     bot_commands.obj
 0002:00002b50       ??_C@_0FL@NJPACAAE@will?5make?5the?5player?5fly?5through@ 1009cb50     bot_commands.obj
 0002:00002bac       ??_C@_0BG@PFGEFBHL@godmode?5?$FLplayer?5name?$FN?$AA@ 1009cbac     bot_commands.obj
 0002:00002bc8       ??_C@_0FE@JPCGCACF@will?5put?5god?5mode?5on?5the?5player?5@ 1009cbc8     bot_commands.obj
 0002:00002c20       ??_C@_0FE@MIBDNNNJ@showboredom?5?3?5will?5print?5bot?8s?5b@ 1009cc20     bot_commands.obj
 0002:00002c78       ??_C@_0FE@BEMNGKJF@showreps?5?3?5will?5print?5bots?5reput@ 1009cc78     bot_commands.obj
 0002:00002cd0       ??_7CAddBotCommand@@6B@    1009ccd0     bot_commands.obj
 0002:00002cd8       ??_C@_06CJHCPEHG@addbot?$AA@ 1009ccd8     bot_commands.obj
 0002:00002ce4       ??_7CWaypointCommand@@6B@  1009cce4     bot_commands.obj
 0002:00002cec       ??_C@_08LHPBHPJM@waypoint?$AA@ 1009ccec     bot_commands.obj
 0002:00002cfc       ??_7CBotCamCommand@@6B@    1009ccfc     bot_commands.obj
 0002:00002d04       ??_C@_06DLJPGKNN@botcam?$AA@ 1009cd04     bot_commands.obj
 0002:00002d0c       ??_C@_0BF@JKNLDOE@bot?5cam?5command?5help?$AA@ 1009cd0c     bot_commands.obj
 0002:00002d24       ??_C@_0BF@EEHEEOJE@?9?9?9?9?9?9?9?9?9?9?9?9?9?9?9?9?9?9?9?9?$AA@ 1009cd24     bot_commands.obj
 0002:00002d3c       ??_C@_0CP@HHPMDKJD@Provided?5that?5?$CCrcbot?5config?5allo@ 1009cd3c     bot_commands.obj
 0002:00002d6c       ??_C@_0CJ@MBLMHHLC@you?5can?5view?5the?5bot?5cam?0?5simply@ 1009cd6c     bot_commands.obj
 0002:00002d98       ??_C@_0CH@LEFJLFNN@?$CCrcbot?5botcam?$CC?5to?5view?5the?5bot?5c@ 1009cd98     bot_commands.obj
 0002:00002dc0       ??_C@_0CP@MFMILHHI@?$CCrcbot?5botcam?5off?$CC?5to?5stop?5viewi@ 1009cdc0     bot_commands.obj
 0002:00002df4       ??_7CBotSquadCommand@@6B@  1009cdf4     bot_commands.obj
 0002:00002dfc       ??_C@_05BDFMLHFG@squad?$AA@ 1009cdfc     bot_commands.obj
 0002:00002e04       ??_C@_0BD@LBICHOKA@squad?5command?5help?$AA@ 1009ce04     bot_commands.obj
 0002:00002e18       ??_C@_0BD@EMMMLPFN@?9?9?9?9?9?9?9?9?9?9?9?9?9?9?9?9?9?9?$AA@ 1009ce18     bot_commands.obj
 0002:00002e2c       ??_C@_0CF@GCIJFNHA@Allows?5you?5control?5squad?5as?5a?5le@ 1009ce2c     bot_commands.obj
 0002:00002e54       ??_C@_0BM@HPMNNHNF@Available?5sub?5commands?5are?3?$AA@ 1009ce54     bot_commands.obj
 0002:00002e70       ??_C@_0CL@FHHHCPEI@?$CCform?5?$DMformation?5name?$DO?$CC?5?$CIchange?5@ 1009ce70     bot_commands.obj
 0002:00002e9c       ??_C@_0DM@LCPFNNKF@?$CCspread?5?$DMspread?5size?$DO?$CC?5?$CIchange?5s@ 1009ce9c     bot_commands.obj
 0002:00002ed8       ??_C@_0DP@ILHANPDC@NOTE?3?5I?5recommend?5using?5the?5?$CCrcb@ 1009ced8     bot_commands.obj
 0002:00002f1c       ??_7CDebugCommand@@6B@     1009cf1c     bot_commands.obj
 0002:00002f24       ??_C@_05GFCDIDHO@debug?$AA@ 1009cf24     bot_commands.obj
 0002:00002f2c       ??_C@_0BD@NJFNLIKJ@debug?5command?5help?$AA@ 1009cf2c     bot_commands.obj
 0002:00002f40       ??_C@_0CK@JOOLHJKL@Usage?3?5rcbot?5debug?5?$DMdebug?5level?$DO@ 1009cf40     bot_commands.obj
 0002:00002f6c       ??_C@_0BA@LLFNIADF@on?5?$DN?51?0?5off?5?$DN?50?$AA@ 1009cf6c     bot_commands.obj
 0002:00002f7c       ??_C@_0BM@CMPKDLDL@Available?5debug?5levels?5are?3?$AA@ 1009cf7c     bot_commands.obj
 0002:00002f98       ??_C@_07DJNMOHOA@?$CCtouch?$CC?$AA@ 1009cf98     bot_commands.obj
 0002:00002fa0       ??_C@_07HBOFMLFP@?$CCthink?$CC?$AA@ 1009cfa0     bot_commands.obj
 0002:00002fa8       ??_C@_06PMJJBHEG@?$CChear?$CC?$AA@ 1009cfa8     bot_commands.obj
 0002:00002fb0       ??_C@_09NJMBOHDN@?$CCmessage?$CC?$AA@ 1009cfb0     bot_commands.obj
 0002:00002fbc       ??_C@_07JDFAANMA@?$CCblock?$CC?$AA@ 1009cfbc     bot_commands.obj
 0002:00002fc4       ??_C@_06DCEDEEIH@?$CCmove?$CC?$AA@ 1009cfc4     bot_commands.obj
 0002:00002fcc       ??_C@_05BJIACEG@?$CCaim?$CC?$AA@ 1009cfcc     bot_commands.obj
 0002:00002fd4       ??_C@_05FGAPPBOJ@?$CCnav?$CC?$AA@ 1009cfd4     bot_commands.obj
 0002:00002fdc       ??_C@_05FPHNCIKE@?$CCsee?$CC?$AA@ 1009cfdc     bot_commands.obj
 0002:00002fe8       ??_7CSquadMenuCommand@@6B@ 1009cfe8     bot_commands.obj
 0002:00002ff0       ??_C@_0L@LDDMLPHI@squad_menu?$AA@ 1009cff0     bot_commands.obj
 0002:00003000       ??_7CConfigCommand@@6B@    1009d000     bot_commands.obj
 0002:00003008       ??_C@_06HEJKKHEK@config?$AA@ 1009d008     bot_commands.obj
 0002:00003010       ??_C@_0BE@OJAAHFEH@config?5command?5help?$AA@ 1009d010     bot_commands.obj
 0002:00003024       ??_C@_0BE@DFLMLLBJ@?9?9?9?9?9?9?9?9?9?9?9?9?9?9?9?9?9?9?9?$AA@ 1009d024     bot_commands.obj
 0002:00003038       ??_C@_0CB@LCLPLAID@available?5config?5commands?5are?4?4?4@ 1009d038     bot_commands.obj
 0002:0000305c       ??_C@_0BI@IBGPDPHJ@?9?9?9?9?9?9?9?9?9?9?9?9?9?9?9?9?9?9?9?9?9?9?9?$AA@ 1009d05c     bot_commands.obj
 0002:00003074       ??_C@_0BB@FDMCNHKB@Boolean?5commands?$AA@ 1009d074     bot_commands.obj
 0002:00003088       ??_C@_0DA@EOBNKAIO@these?5commands?5take?5booleans?5as?5@ 1009d088     bot_commands.obj
 0002:000030b8       ??_C@_0BE@CNMBLBKK@booleans?5are?50?5or?51?$AA@ 1009d0b8     bot_commands.obj
 0002:000030cc       ??_C@_0BI@NIEEDOJH@?4?4?4?4?4?4?4?4?4?4?4?4?4?4?4?4?4?4?4?4?4?4?4?$AA@ 1009d0cc     bot_commands.obj
 0002:000030e4       ??_C@_0CB@LBNKDBCE@bots_leave_and_join?5?$CIincomplete?$CJ@ 1009d0e4     bot_commands.obj
 0002:00003108       ??_C@_08KFCFIEFB@tooltips?$AA@ 1009d108     bot_commands.obj
 0002:00003114       ??_C@_0BE@HENACMBH@autowaypoint_humans?$AA@ 1009d114     bot_commands.obj
 0002:00003128       ??_C@_0N@DFFMMFAH@allow_botcam?$AA@ 1009d128     bot_commands.obj
 0002:00003138       ??_C@_0O@MNCAENPP@balance_teams?$AA@ 1009d138     bot_commands.obj
 0002:00003148       ??_C@_0BA@DLIACKD@chat_dont_learn?$AA@ 1009d148     bot_commands.obj
 0002:00003158       ??_C@_0BC@IMGHECBP@marine_auto_build?$AA@ 1009d158     bot_commands.obj
 0002:0000316c       ??_C@_0BD@IGDNIDPL@chat_reply_to_bots?$AA@ 1009d16c     bot_commands.obj
 0002:00003180       ??_C@_0BA@BONABLAF@wait_for_orders?$AA@ 1009d180     bot_commands.obj
 0002:00003190       ??_C@_0BC@FADHBKPA@reserve_bot_slots?$AA@ 1009d190     bot_commands.obj
 0002:000031a4       ??_C@_0L@HCNGDMAP@dont_shoot?$AA@ 1009d1a4     bot_commands.obj
 0002:000031b0       ??_C@_08OAONAAHE@chatting?$AA@ 1009d1b0     bot_commands.obj
 0002:000031bc       ??_C@_09BJCOG@real_mode?$AA@ 1009d1bc     bot_commands.obj
 0002:000031c8       ??_C@_0L@MGDGGJHL@commanding?$AA@ 1009d1c8     bot_commands.obj
 0002:000031d4       ??_C@_0CC@OOBPBDMN@abnormal_game?5?$CIalien?5v?5alien?5eg?4@ 1009d1d4     bot_commands.obj
 0002:000031f8       ??_C@_0CH@BJCNHCGH@bots_wait_for_bots?5?$CIbots?5wait?5at@ 1009d1f8     bot_commands.obj
 0002:00003220       ??_C@_0N@GGGCOPCD@not_ns3final?$AA@ 1009d220     bot_commands.obj
 0002:00003230       ??_C@_0CA@GAAMCENE@blinking?5?$CIfade?5blinking?5on?1off?$CJ?$AA@ 1009d230     bot_commands.obj
 0002:00003250       ??_C@_0CP@BDDPGHHF@wait_at_res?5?$CIbots?5wait?5at?5res?5fo@ 1009d250     bot_commands.obj
 0002:00003280       ??_C@_0CH@JBFELOFJ@ts_kungfu?5?$CIbots?5use?5kung?5fu?5only@ 1009d280     bot_commands.obj
 0002:000032a8       ??_C@_0DF@DHAOKFPA@disable_weapon_learning?5?$CIbots?5ch@ 1009d2a8     bot_commands.obj
 0002:000032e0       ??_C@_0CL@MOBPPBGI@disable_bot_squads?5?$CIbots?5dont?5ma@ 1009d2e0     bot_commands.obj
 0002:0000330c       ??_C@_0BB@LLFGEMOD@Integer?5commands?$AA@ 1009d30c     bot_commands.obj
 0002:00003320       ??_C@_0DA@DODOFOFI@these?5commands?5take?5integers?5as?5@ 1009d320     bot_commands.obj
 0002:00003350       ??_C@_0CH@KJKFCJP@integers?5are?5?91?0?50?0?51?0?52?0?53?0?54?4?4@ 1009d350     bot_commands.obj
 0002:00003378       ??_C@_08IKHCJCGJ@min_bots?$AA@ 1009d378     bot_commands.obj
 0002:00003384       ??_C@_08FNJJCACI@max_bots?$AA@ 1009d384     bot_commands.obj
 0002:00003390       ??_C@_0N@EGLLPJMK@chat_percent?$AA@ 1009d390     bot_commands.obj
 0002:000033a0       ??_C@_0BD@BBBILNBC@chat_reply_percent?$AA@ 1009d3a0     bot_commands.obj
 0002:000033b4       ??_C@_0O@EEIBJIF@max_path_revs?$AA@ 1009d3b4     bot_commands.obj
 0002:000033c4       ??_C@_0BH@KLIDEDMC@max_update_vision_revs?$AA@ 1009d3c4     bot_commands.obj
 0002:000033dc       ??_C@_0P@PLJOOJON@Float?5commands?$AA@ 1009d3dc     bot_commands.obj
 0002:000033ec       ??_C@_0DE@HGBCHIAD@these?5commands?5take?5real?5numbers@ 1009d3ec     bot_commands.obj
 0002:00003420       ??_C@_0DC@OAFJCIIA@float?5numbers?5are?50?40?0?50?45?0?50?46?0@ 1009d420     bot_commands.obj
 0002:00003454       ??_C@_0BA@GBIGNPKI@bot_stuck_speed?$AA@ 1009d454     bot_commands.obj
 0002:00003464       ??_C@_0BD@POOHKOHH@update_ladder_time?$AA@ 1009d464     bot_commands.obj
 0002:00003478       ??_C@_0N@BHIPGIH@gorge_amount?$AA@ 1009d478     bot_commands.obj
 0002:00003488       ??_C@_0BF@FJACEDGL@wall_stick_tolerance?$AA@ 1009d488     bot_commands.obj
 0002:000034a0       ??_C@_0P@BJMBINLG@lerk_hold_time?$AA@ 1009d4a0     bot_commands.obj
 0002:000034b0       ??_C@_0P@DGBBCMMM@lerk_flap_time?$AA@ 1009d4b0     bot_commands.obj
 0002:000034c0       ??_C@_0BD@KHIINNBL@update_vision_time?$AA@ 1009d4c0     bot_commands.obj
 0002:000034d4       ??_C@_06IGIBGKCK@u_hive?$AA@ 1009d4d4     bot_commands.obj
 0002:000034dc       ??_C@_0L@OGOAMHIM@u_restower?$AA@ 1009d4dc     bot_commands.obj
 0002:000034e8       ??_C@_09MKMPGKMO@u_healing?$AA@ 1009d4e8     bot_commands.obj
 0002:000034f4       ??_C@_0M@KCLNGLDM@u_structure?$AA@ 1009d4f4     bot_commands.obj
 0002:00003500       ??_C@_08NENDPPMB@u_refill?$AA@ 1009d500     bot_commands.obj
 0002:00003510       ??_7CPathWaypointCommand@@6B@ 1009d510     bot_commands.obj
 0002:00003518       ??_C@_0N@NLEEBEKG@pathwaypoint?$AA@ 1009d518     bot_commands.obj
 0002:00003528       ??_C@_0BK@NLCJCKAA@pathwaypoint?5command?5help?$AA@ 1009d528     bot_commands.obj
 0002:00003544       ??_C@_0BK@FICEOBLB@?9?9?9?9?9?9?9?9?9?9?9?9?9?9?9?9?9?9?9?9?9?9?9?9?9?$AA@ 1009d544     bot_commands.obj
 0002:00003560       ??_C@_0DA@KOEIKMA@?$CCpathwaypoint?5on?$CC?5shows?5paths?5be@ 1009d560     bot_commands.obj
 0002:00003590       ??_C@_0CH@OONLLBOF@?$CCpathwaypoint?5off?$CC?5stops?5showing@ 1009d590     bot_commands.obj
 0002:000035b8       ??_C@_0FE@KOFPIOPF@?$CCpathwaypoint?5create1?$CC?5marks?5the@ 1009d5b8     bot_commands.obj
 0002:00003610       ??_C@_0FG@KJOBHKKH@?$CCpathwaypoint?5create2?$CC?5creates?5a@ 1009d610     bot_commands.obj
 0002:00003668       ??_C@_0FE@FLBCLFCG@?$CCpathwaypoint?5remove1?$CC?5marks?5the@ 1009d668     bot_commands.obj
 0002:000036c0       ??_C@_0FG@EPKCIEJP@?$CCpathwaypoint?5remove2?$CC?5removes?5a@ 1009d6c0     bot_commands.obj
 0002:00003718       ??_C@_0EJ@CNBOOKNL@?$CCpathwaypoint?5enable?$CC?5allows?5aut@ 1009d718     bot_commands.obj
 0002:00003764       ??_C@_0DJ@BMHNFFDC@?$CCpathwaypoint?5disable?$CC?5disallows@ 1009d764     bot_commands.obj
 0002:000037a0       ??_C@_0N@FIOFAODG@Password?5Set?$AA@ 1009d7a0     bot_commands.obj
 0002:000037b0       ??_C@_0CM@DJLJFLLC@This?5command?5can?5only?5be?5used?5on@ 1009d7b0     bot_commands.obj
 0002:000037dc       ??_C@_0DI@MDOHFFOO@Error?3?5You?5are?5not?5standing?5clos@ 1009d7dc     bot_commands.obj
 0002:00003814       ??_C@_0BD@HGCGEEKD@no?5command?5entered?$AA@ 1009d814     bot_commands.obj
 0002:00003828       ??_C@_0M@FGFDNKJG@showboredom?$AA@ 1009d828     bot_commands.obj
 0002:00003834       ??_C@_08HOJNEFJC@bot_goto?$AA@ 1009d834     bot_commands.obj
 0002:00003840       ??_C@_07CPCPJPKL@version?$AA@ 1009d840     bot_commands.obj
 0002:00003848       ??_C@_0BB@LPDCOGIH@Bot?5Version?5?3?5?$CFs?$AA@ 1009d848     bot_commands.obj
 0002:0000385c       ??_C@_0N@JOFHCENF@givetsweapon?$AA@ 1009d85c     bot_commands.obj
 0002:0000386c       ??_C@_0L@MLNOJGON@numclients?$AA@ 1009d86c     bot_commands.obj
 0002:00003878       ??_C@_0BA@LLLCBIDN@Loop?5count?5?$DN?5?$CFd?$AA@ 1009d878     bot_commands.obj
 0002:00003888       ??_C@_07KFPNONHM@hudtext?$AA@ 1009d888     bot_commands.obj
 0002:00003890       ??_C@_01JKBOJNNK@?$FO?$AA@ 1009d890     bot_commands.obj
 0002:00003894       ??_C@_01CLKCMJKC@?5?$AA@   1009d894     bot_commands.obj
 0002:00003898       ??_C@_01IDAFKMJL@_?$AA@    1009d898     bot_commands.obj
 0002:0000389c       ??_C@_04OBGPFBCN@blue?$AA@ 1009d89c     bot_commands.obj
 0002:000038a4       ??_C@_05GBEEJKMC@green?$AA@ 1009d8a4     bot_commands.obj
 0002:000038ac       ??_C@_03FAAAOPJM@red?$AA@  1009d8ac     bot_commands.obj
 0002:000038b0       ??_C@_06ENJNJKEL@yellow?$AA@ 1009d8b0     bot_commands.obj
 0002:000038b8       ??_C@_06GEHONCEN@purple?$AA@ 1009d8b8     bot_commands.obj
 0002:000038c0       ??_C@_04EDBDANFH@cyan?$AA@ 1009d8c0     bot_commands.obj
 0002:000038c8       ??_C@_05BHDBIOAL@explo?$AA@ 1009d8c8     bot_commands.obj
 0002:000038d0       ??_C@_0BO@KEIPJKDG@can?8t?5use?5on?5dedicated?5server?$AA@ 1009d8d0     bot_commands.obj
 0002:000038f0       ??_C@_08GHAGFIMB@showreps?$AA@ 1009d8f0     bot_commands.obj
 0002:000038fc       ??_C@_07LDHBMPEH@killbot?$AA@ 1009d8fc     bot_commands.obj
 0002:00003904       ??_C@_0BL@EKNLECLD@?$CFs?5is?5killing?5bot?5?$CC?$CFs?$CC?4?4?4?6?$AA@ 1009d904     bot_commands.obj
 0002:00003920       ??_C@_0BP@BPBHPKFJ@Server?5is?5killing?5bot?5?$CC?$CFs?$CC?4?4?4?6?$AA@ 1009d920     bot_commands.obj
 0002:00003940       ??_C@_0BD@JLHAIBDO@bot?5name?5not?5found?$AA@ 1009d940     bot_commands.obj
 0002:00003954       ??_C@_0CD@ECDGEIFC@usage?5rcbot?5util?5killbot?5?$DMbotnam@ 1009d954     bot_commands.obj
 0002:00003978       ??_C@_0P@LJFGIOFG@projectile_rep?$AA@ 1009d978     bot_commands.obj
 0002:00003988       ??_C@_07IFNDKGJF@?$CFs?5?3?5?$CFd?$AA@ 1009d988     bot_commands.obj
 0002:00003990       ??_C@_0O@JNHMKIMD@grenade_deact?$AA@ 1009d990     bot_commands.obj
 0002:000039a0       ??_C@_0N@PKLKIFFI@teleport_ent?$AA@ 1009d9a0     bot_commands.obj
 0002:000039b0       ??_C@_0BL@HBPIOHNE@no?5teleport?5vector?5set?5yet?$AA@ 1009d9b0     bot_commands.obj
 0002:000039cc       ??_C@_08JEBIBPE@buildres?$AA@ 1009d9cc     bot_commands.obj
 0002:000039d8       ??_C@_0O@MBJCONCD@resourcetower?$AA@ 1009d9d8     bot_commands.obj
 0002:000039e8       ??_C@_09EOAPLCEC@buildcomm?$AA@ 1009d9e8     bot_commands.obj
 0002:000039f4       ??_C@_08LOCMGIHJ@teleport?$AA@ 1009d9f4     bot_commands.obj
 0002:00003a00       ??_C@_0CH@JEIGMKHK@?$CFs?5teleported?5?$CFs?5to?5another?5loca@ 1009da00     bot_commands.obj
 0002:00003a28       ??_C@_0CI@GBDGPLBE@?$CFs?5teleported?5self?5to?5another?5lo@ 1009da28     bot_commands.obj
 0002:00003a50       ??_C@_0DH@OMGABDBB@Error?3?5No?5teleport?5destination?5s@ 1009da50     bot_commands.obj
 0002:00003a88       ??_C@_07BCMHMFCA@notouch?$AA@ 1009da88     bot_commands.obj
 0002:00003a90       ??_C@_0BM@PLODFOGB@?$CFs?5used?5notouch?5?$CFd?5on?5self?6?$AA@ 1009da90     bot_commands.obj
 0002:00003aac       ??_C@_0O@BEGOFBDD@notarget_mode?$AA@ 1009daac     bot_commands.obj
 0002:00003abc       ??_C@_0CA@FGMJJOAB@?$CFs?5used?5notarget_mode?5?$CFd?5on?5?$CFs?6?$AA@ 1009dabc     bot_commands.obj
 0002:00003adc       ??_C@_0CC@JDCDKHME@?$CFs?5used?5notarget_mode?5?$CFd?5on?5self@ 1009dadc     bot_commands.obj
 0002:00003b00       ??_C@_0L@FIAGFPCI@send_sound?$AA@ 1009db00     bot_commands.obj
 0002:00003b0c       ??_C@_0M@INEFFAJF@noclip_mode?$AA@ 1009db0c     bot_commands.obj
 0002:00003b18       ??_C@_0BK@FLDKOPDN@?$CFs?5used?5no_clip?5?$CFd?5on?5?$CFs?6?$AA@ 1009db18     bot_commands.obj
 0002:00003b34       ??_C@_0BM@MHNCJCGC@?$CFs?5used?5no_clip?5?$CFd?5on?5self?6?$AA@ 1009db34     bot_commands.obj
 0002:00003b50       ??_C@_07PLNLFAMD@godmode?$AA@ 1009db50     bot_commands.obj
 0002:00003b58       ??_C@_0BK@EKHPFOLC@?$CFs?5used?5godmode?5?$CFd?5on?5?$CFs?6?$AA@ 1009db58     bot_commands.obj
 0002:00003b74       ??_C@_0BM@MHKPIELJ@?$CFs?5used?5godmode?5?$CFd?5on?5self?6?$AA@ 1009db74     bot_commands.obj
 0002:00003b90       ??_C@_06GFPLNGOC@search?$AA@ 1009db90     bot_commands.obj
 0002:00003b98       ??_C@_0ID@LGFGKIJF@Found?3?5id?3?5?$CFd?0?5classname?3?$CFs?5dist@ 1009db98     bot_commands.obj
 0002:00003c1c       ??_C@_09CAMGPAF@offsearch?$AA@ 1009dc1c     bot_commands.obj
 0002:00003c28       ??_C@_09CBIHFJED@readusers?$AA@ 1009dc28     bot_commands.obj
 0002:00003c34       ??_C@_0BI@LGHLBKOA@re?9reading?5bot?5users?4?4?4?$AA@ 1009dc34     bot_commands.obj
 0002:00003c4c       ??_C@_07HBKNNHHL@adduser?$AA@ 1009dc4c     bot_commands.obj
 0002:00003c54       ??_C@_0BD@NHMIFFLA@Player?5not?5found?$CB?$CB?$AA@ 1009dc54     bot_commands.obj
 0002:00003c68       ??_C@_0CH@GJPEIJP@Can?8t?5give?5yourself?5different?5ac@ 1009dc68     bot_commands.obj
 0002:00003c90       ??_C@_03ELIFGAKH@?$CK?$CK?$CK?$AA@ 1009dc90     bot_commands.obj
 0002:00003c94       ??_C@_0BL@IALKLDJO@Gave?5?$CFs?5access?5level?5of?5?$CFd?$AA@ 1009dc94     bot_commands.obj
 0002:00003cb0       ??_C@_0DI@IIABDGFH@Usage?3?5rcbot?5readusers?5add?5?$DMplay@ 1009dcb0     bot_commands.obj
 0002:00003ce8       ??_C@_0L@GNDDLHHL@removeuser?$AA@ 1009dce8     bot_commands.obj
 0002:00003cf4       ??_C@_0BK@OLJPMGGB@Cannot?5remove?5yourself?$CB?$CB?$CB?$AA@ 1009dcf4     bot_commands.obj
 0002:00003d10       ??_C@_0BE@JJHPNGLJ@Removed?5?$CFs?8s?5access?$AA@ 1009dd10     bot_commands.obj
 0002:00003d24       ??_C@_0CJ@IBHGIJAM@Usage?3?5rcbot?5readusers?5add?5?$DMplay@ 1009dd24     bot_commands.obj
 0002:00003d50       ??_C@_09HMLGEBEL@showusers?$AA@ 1009dd50     bot_commands.obj
 0002:00003d5c       ??_C@_0DE@PFDHKMNF@Error?3?5No?5command?5issued?5or?5comm@ 1009dd5c     bot_commands.obj
 0002:00003d90       ??_C@_03MCADLMAF@off?$AA@  1009dd90     bot_commands.obj
 0002:00003d94       ??_C@_0BA@HMMHKHMP@No?5entity?5found?$AA@ 1009dd94     bot_commands.obj
 0002:00003da4       ??_C@_03EHEMCPIE@bot?$AA@  1009dda4     bot_commands.obj
 0002:00003da8       ??_C@_0DO@CGFONDLN@Bot?5not?5found?5?$CInot?5found?1?5not?5an@ 1009dda8     bot_commands.obj
 0002:00003de8       ??_C@_06LJBECLPP@facing?$AA@ 1009dde8     bot_commands.obj
 0002:00003df0       ??_C@_0BL@EJCPMANK@Facing?5entity?5is?5not?5a?5bot?$AA@ 1009ddf0     bot_commands.obj
 0002:00003e0c       ??_C@_0CM@MGCGDLLI@You?5can?5only?5use?5this?5command?5on@ 1009de0c     bot_commands.obj
 0002:00003e38       ??_C@_0CN@HHPCBDDO@Usage?3?5rcbot_debug?5?$DMlevel?$DO?5?$DM1?5?3?5@ 1009de38     bot_commands.obj
 0002:00003e68       ??_C@_05HOLIDFGP@touch?$AA@ 1009de68     bot_commands.obj
 0002:00003e70       ??_C@_05PFKCMBMI@think?$AA@ 1009de70     bot_commands.obj
 0002:00003e78       ??_C@_04MIHLIJDM@hear?$AA@ 1009de78     bot_commands.obj
 0002:00003e80       ??_C@_07ONPBMBOP@message?$AA@ 1009de80     bot_commands.obj
 0002:00003e88       ??_C@_05PIBOEKAB@block?$AA@ 1009de88     bot_commands.obj
 0002:00003e90       ??_C@_04HDMMNHEL@move?$AA@ 1009de90     bot_commands.obj
 0002:00003e98       ??_C@_03MKHEFFMA@aim?$AA@  1009de98     bot_commands.obj
 0002:00003e9c       ??_C@_03DFDCNPLE@nav?$AA@  1009de9c     bot_commands.obj
 0002:00003ea0       ??_C@_03PBKHLJLI@see?$AA@  1009dea0     bot_commands.obj
 0002:00003ea4       ??_C@_0BJ@IKAPCODO@debugging?5?$CC?$CFs?$CC?5is?5now?5ON?$AA@ 1009dea4     bot_commands.obj
 0002:00003ec0       ??_C@_0BK@GJNLKLLO@debugging?5?$CC?$CFs?$CC?5is?5now?5OFF?$AA@ 1009dec0     bot_commands.obj
 0002:00003edc       ??_C@_0BG@JADBBJHM@Debug?5level?5not?5found?$AA@ 1009dedc     bot_commands.obj
 0002:00003ef4       ??_C@_0BN@PIHOHJHK@Error?3?5no?5sub?9command?5issued?$AA@ 1009def4     bot_commands.obj
 0002:00003f14       ??_C@_0BG@KBFDHNKF@ts_dont_steal_weapons?$AA@ 1009df14     bot_commands.obj
 0002:00003f2c       ??_C@_0BH@DGIFCJBL@ts_dont_pickup_weapons?$AA@ 1009df2c     bot_commands.obj
 0002:00003f44       ??_C@_0BD@OEPIBPCB@disable_bot_squads?$AA@ 1009df44     bot_commands.obj
 0002:00003f58       ??_C@_09OKEABEML@ts_kungfu?$AA@ 1009df58     bot_commands.obj
 0002:00003f64       ??_C@_0BI@BHIEKIMA@disable_weapon_learning?$AA@ 1009df64     bot_commands.obj
 0002:00003f7c       ??_C@_0O@FBGEKJPA@abnormal_game?$AA@ 1009df7c     bot_commands.obj
 0002:00003f8c       ??_C@_07KOLGMOCG@unstick?$AA@ 1009df8c     bot_commands.obj
 0002:00003f94       ??_C@_0BE@PAHCJBEA@bots_leave_and_join?$AA@ 1009df94     bot_commands.obj
 0002:00003fa8       ??_C@_0BD@IIGAKHDG@bots_wait_for_bots?$AA@ 1009dfa8     bot_commands.obj
 0002:00003fbc       ??_C@_08MOHFAE@blinking?$AA@ 1009dfbc     bot_commands.obj
 0002:00003fc8       ??_C@_0M@MFBAFPGP@wait_at_res?$AA@ 1009dfc8     bot_commands.obj
 0002:00003fd4       ??_C@_09FLAOKKFN@turnspeed?$AA@ 1009dfd4     bot_commands.obj
 0002:00003fe0       ??_C@_0BD@GFDOJLBO@Error?0?5must?5be?5?$DO?50?$AA@ 1009dfe0     bot_commands.obj
 0002:00003ff4       ??_C@_0L@DBHOCNDN@force_team?$AA@ 1009dff4     bot_commands.obj
 0002:00004000       ??_C@_0N@DKEDLJAP@tfc_map_type?$AA@ 1009e000     bot_commands.obj
 0002:00004010       ??_C@_0DC@HHFPELBH@Error?3?5Command?5does?5not?5exist?1co@ 1009e010     bot_commands.obj
 0002:00004044       ??_C@_0DC@ILGCIGIG@?9?9?9?9?9?9?9?9?9?9?9?9?9?9?9?9?9?9?9?9?9?9?9?9?9?9?9?9?9?9?9?9@ 1009e044     bot_commands.obj
 0002:00004078       ??_C@_0N@GAMEBMMK@?$CFs?5is?5now?5?$CFd?$AA@ 1009e078     bot_commands.obj
 0002:00004088       ??_C@_0BH@GKKLGMLD@?$CC?$CFs?$CC?5is?5currently?5?$CC?$CFd?$CC?$AA@ 1009e088     bot_commands.obj
 0002:000040a0       ??_C@_0BK@KMHBHIJA@?$CC?$CFs?$CC?5is?5currently?5?$CC?$CF0?42f?$CC?$AA@ 1009e0a0     bot_commands.obj
 0002:000040bc       ??_C@_0N@HGMIGPIF@?$CFs?5set?5to?5?$CFs?$AA@ 1009e0bc     bot_commands.obj
 0002:000040cc       ??_C@_0CD@IBDKHHJ@Error?5with?5command?0?5wrong?5argume@ 1009e0cc     bot_commands.obj
 0002:000040f0       ??_C@_0BP@HINFDHKC@You?5are?5not?5leader?5of?5a?5squad?6?$AA@ 1009e0f0     bot_commands.obj
 0002:00004110       ??_C@_04MLMMMEIO@form?$AA@ 1009e110     bot_commands.obj
 0002:00004118       ??_C@_04HJPCFDOP@line?$AA@ 1009e118     bot_commands.obj
 0002:00004120       ??_C@_0BN@DGAKLFNH@Squad?5formation?5is?5now?5LINE?6?$AA@ 1009e120     bot_commands.obj
 0002:00004140       ??_C@_03MGHJEJIK@vee?$AA@  1009e140     bot_commands.obj
 0002:00004144       ??_C@_0BM@PCBIEEAE@Squad?5formation?5is?5now?5VEE?6?$AA@ 1009e144     bot_commands.obj
 0002:00004160       ??_C@_05OIJOLJAL@wedge?$AA@ 1009e160     bot_commands.obj
 0002:00004168       ??_C@_0BO@GLAKLHNA@Squad?5formation?5is?5now?5WEDGE?6?$AA@ 1009e168     bot_commands.obj
 0002:00004188       ??_C@_06JKDNBPMO@column?$AA@ 1009e188     bot_commands.obj
 0002:00004190       ??_C@_0BP@GEICBLAK@Squad?5formation?5is?5now?5COLUMN?6?$AA@ 1009e190     bot_commands.obj
 0002:000041b0       ??_C@_07LBMMDBL@echleft?$AA@ 1009e1b0     bot_commands.obj
 0002:000041b8       ??_C@_0CF@CMNCGLJP@Squad?5formation?5is?5now?5ECHELON?5L@ 1009e1b8     bot_commands.obj
 0002:000041e0       ??_C@_08JAJBNKEG@echright?$AA@ 1009e1e0     bot_commands.obj
 0002:000041ec       ??_C@_0CG@JLNNFBPB@Squad?5formation?5is?5now?5ECHELON?5R@ 1009e1ec     bot_commands.obj
 0002:00004214       ??_C@_06HDFPFMNM@spread?$AA@ 1009e214     bot_commands.obj
 0002:0000421c       ??_C@_0BG@DPGKMCIM@Squad?5spread?5changed?6?$AA@ 1009e21c     bot_commands.obj
 0002:00004234       ??_C@_0CM@INEPDOOJ@You?5can?5only?5use?5this?5command?5on@ 1009e234     bot_commands.obj
 0002:00004260       ??_C@_02LIELOMNJ@on?$AA@   1009e260     bot_commands.obj
 0002:00004264       ??_C@_0CD@DPPEEAAJ@Waypoint?5paths?5are?5now?5being?5sho@ 1009e264     bot_commands.obj
 0002:00004288       ??_C@_0CE@NGOOPGL@Waypoints?5paths?5are?5not?5being?5sh@ 1009e288     bot_commands.obj
 0002:000042ac       ??_C@_06HBNONAG@create?$AA@ 1009e2ac     bot_commands.obj
 0002:000042b4       ??_C@_06LEMKAMD@remove?$AA@ 1009e2b4     bot_commands.obj
 0002:000042bc       ??_C@_06OFNJOBDK@enable?$AA@ 1009e2bc     bot_commands.obj
 0002:000042c4       ??_C@_0CJ@LAAAOABP@automatic?5path?5generation?5is?5now@ 1009e2c4     bot_commands.obj
 0002:000042f0       ??_C@_07DBNODEFN@disable?$AA@ 1009e2f0     bot_commands.obj
 0002:000042f8       ??_C@_0CK@CELINKHJ@automatic?5path?5generation?5is?5now@ 1009e2f8     bot_commands.obj
 0002:00004324       ??_C@_0CB@CEAOLCAG@Error?3?5You?5must?5issue?5a?5command?$CB@ 1009e324     bot_commands.obj
 0002:00004348       ??_C@_0CB@GNHPAIID@?9?9?9?9?9?9?9?9?9?9?9?9?9?9?9?9?9?9?9?9?9?9?9?9?9?9?9?9?9?9?9?9@ 1009e348     bot_commands.obj
 0002:0000436c       ??_C@_0BN@OOILHGNN@You?5must?5issue?5a?5player?5name?$AA@ 1009e36c     bot_commands.obj
 0002:00004390       ??_C@_0FA@HFGALKEM@autowaypoint?5set?5to?52?5?$CIdebug?$CJ?5on@ 1009e390     bot_commands.obj
 0002:000043e0       ??_C@_0BN@LELNJNCI@autowaypoint?5set?5to?5?$CFd?5on?5?$CFs?$AA@ 1009e3e0     bot_commands.obj
 0002:00004400       ??_C@_0BB@HBAMEPMH@Player?5not?5found?$AA@ 1009e400     bot_commands.obj
 0002:00004414       ??_C@_0BG@MNLOPEPL@Finished?5using?5botcam?$AA@ 1009e414     bot_commands.obj
 0002:0000442c       ??_C@_0N@MLDFDGAC@Using?5botcam?$AA@ 1009e42c     bot_commands.obj
 0002:00004440       ??_C@_0FA@LBOIFAPP@Camera?5never?5worked?5or?5is?5not?5en@ 1009e440     bot_commands.obj
 0002:00004490       ??_C@_0CF@MNBAKILM@Can?8t?5use?5botcam?5on?5dedicated?5se@ 1009e490     bot_commands.obj
 0002:000044b8       ??_C@_0BG@FKMIFPDA@waypoint?5command?5help?$AA@ 1009e4b8     bot_commands.obj
 0002:000044d0       ??_C@_0DE@BLDCENIC@Waypoints?5are?5for?5bots?5to?5naviga@ 1009e4d0     bot_commands.obj
 0002:00004504       ??_C@_0DF@JECEDACN@waypoints?5on?5the?5map?5then?5the?5bo@ 1009e504     bot_commands.obj
 0002:0000453c       ??_C@_0DM@ILLFEDLO@Waypoints?5are?5files?5stored?5in?5th@ 1009e53c     bot_commands.obj
 0002:00004578       ??_C@_0CD@FHGDANKP@?$CCwaypoint?5on?$CC?5?$CIdisplays?5waypoint@ 1009e578     bot_commands.obj
 0002:0000459c       ??_C@_0CM@FMIEICNK@?$CCwaypoint?5off?$CC?5?$CIstops?5displaying@ 1009e59c     bot_commands.obj
 0002:000045c8       ??_C@_0DA@NABHDFCA@?$CCwaypoint?5add?$CC?5?$CIadds?5waypoint?5at@ 1009e5c8     bot_commands.obj
 0002:000045f8       ??_C@_0DG@PKLGKPFC@?$CCwaypoint?5remove?$CC?5?$CIremoves?5waypo@ 1009e5f8     bot_commands.obj
 0002:00004630       ??_C@_0DC@JHIPCIMH@?$CCwaypoint?5load?$CC?5?$CIloads?5waypoints@ 1009e630     bot_commands.obj
 0002:00004664       ??_C@_0DJ@OBEDCLOF@?$CCwaypoint?5save?$CC?5?$CIsaves?5waypoints@ 1009e664     bot_commands.obj
 0002:000046a0       ??_C@_0BO@KMKLLKFH@Waypoints?5are?5now?5being?5shown?$AA@ 1009e6a0     bot_commands.obj
 0002:000046c0       ??_C@_0BO@NAMKJPIM@Waypoints?5are?5not?5being?5shown?$AA@ 1009e6c0     bot_commands.obj
 0002:000046e0       ??_C@_04EONOHKEP@load?$AA@ 1009e6e0     bot_commands.obj
 0002:000046e8       ??_C@_0BL@PIEEPLDD@Waypoints?5have?5been?5loaded?$AA@ 1009e6e8     bot_commands.obj
 0002:00004704       ??_C@_04EMMDIJJL@save?$AA@ 1009e704     bot_commands.obj
 0002:0000470c       ??_C@_0BK@PECNMFOD@Waypoints?5have?5been?5saved?$AA@ 1009e70c     bot_commands.obj
 0002:00004728       ??_C@_0BP@CEMBCGCL@?$CISaved?5waypoints?5as?5?$CFs?5format?$CJ?$AA@ 1009e728     bot_commands.obj
 0002:00004748       ??_C@_0GG@PJCGMFMK@ERROR?3?5CANNOT?5save?5waypoints?$CB?5?$CIF@ 1009e748     bot_commands.obj
 0002:000047b0       ??_C@_03BDGOHNNK@add?$AA@  1009e7b0     bot_commands.obj
 0002:000047b4       ??_C@_06FOBLBEIN@delete?$AA@ 1009e7b4     bot_commands.obj
 0002:000047bc       ??_C@_04NIDJFNBE@info?$AA@ 1009e7bc     bot_commands.obj
 0002:000047c4       ??_C@_0BN@HPHCKJDA@ERROR?3?5Game?5not?5started?5yet?$CB?$AA@ 1009e7c4     bot_commands.obj
 0002:000047e4       ??_C@_0CC@PELMBKNC@Error?5?3?5Max?5Bots?5Already?5Added?$CB?$CB@ 1009e7e4     bot_commands.obj
 0002:00004808       ??_C@_0CP@NNDIFPLC@Can?8t?5add?5bot?0?5Number?5of?5bots?5re@ 1009e808     bot_commands.obj
 0002:00004838       ??_C@_0BM@NPMBPAI@max?5bots?5?$DN?5?$CFd?0?5numbots?5?$DN?5?$CFd?$AA@ 1009e838     bot_commands.obj
 0002:00004854       ??_C@_0O@GNHCEAFO@Adding?5Bot?4?4?4?$AA@ 1009e854     bot_commands.obj
 0002:00004864       ??_C@_0BB@FLJIBHLK@bot_profiles?4ini?$AA@ 1009e864     bot_commands.obj
 0002:00004878       ??_C@_01KDCPPGHE@r?$AA@    1009e878     bot_commands.obj
 0002:0000487c       ??_C@_04PHHEBHMK@?4ini?$AA@ 1009e87c     bot_commands.obj
 0002:00004884       ??_C@_0DI@MLGJGADC@Error?3?5Bot?5Profile?5?3?5?$CFd?4ini?5Expe@ 1009e884     bot_commands.obj
 0002:000048bc       ??_C@_06KCNKGENO@?$CFd?4ini?$AA@ 1009e8bc     bot_commands.obj
 0002:000048c4       ??_C@_0DI@DLJLAAKL@Error?3?5No?5Bot?5Profiles?5have?5been@ 1009e8c4     bot_commands.obj
 0002:000048fc       ??_C@_0CD@BMDEMLHL@Error?3?5Can?8t?5read?5bot?8s?5profile?$CB@ 1009e8fc     bot_commands.obj
 0002:00004920       ??_C@_0DD@CJMNMKAL@Maximum?5Players?5Reached?0?5Can?8t?5C@ 1009e920     bot_commands.obj
 0002:00004954       ??_C@_06BALNJMNP@player?$AA@ 1009e954     bot_commands.obj
 0002:0000495c       ??_C@_0M@CPANPEKN@mp_teamlist?$AA@ 1009e95c     bot_commands.obj
 0002:00004968       ??_C@_04ODIEBBEE@3500?$AA@ 1009e968     bot_commands.obj
 0002:00004970       ??_C@_04HCCHHEEF@rate?$AA@ 1009e970     bot_commands.obj
 0002:00004978       ??_C@_02PIBHCBOA@20?$AA@   1009e978     bot_commands.obj
 0002:0000497c       ??_C@_0O@GLEIJHMA@cl_updaterate?$AA@ 1009e97c     bot_commands.obj
 0002:0000498c       ??_C@_01HIHLOKLC@1?$AA@    1009e98c     bot_commands.obj
 0002:00004990       ??_C@_05COECHLGF@cl_lw?$AA@ 1009e990     bot_commands.obj
 0002:00004998       ??_C@_05OMKMDA@cl_lc?$AA@  1009e998     bot_commands.obj
 0002:000049a0       ??_C@_03KGFMDCCC@128?$AA@  1009e9a0     bot_commands.obj
 0002:000049a4       ??_C@_08IGNJNAKN@cl_dlmax?$AA@ 1009e9a4     bot_commands.obj
 0002:000049b0       ??_C@_01GBGANLPD@0?$AA@    1009e9b0     bot_commands.obj
 0002:000049b4       ??_C@_0M@CHANDLAH@_vgui_menus?$AA@ 1009e9b4     bot_commands.obj
 0002:000049c0       ??_C@_03KJOEHPKP@_ah?$AA@  1009e9c0     bot_commands.obj
 0002:000049c4       ??_C@_02JPDDFAPL@dm?$AA@   1009e9c4     bot_commands.obj
 0002:000049c8       ??_C@_07GLDIMNCB@tracker?$AA@ 1009e9c8     bot_commands.obj
 0002:000049d0       ??_C@_0M@IIFIMDEK@bottomcolor?$AA@ 1009e9d0     bot_commands.obj
 0002:000049dc       ??_C@_09PFCHIMEP@127?40?40?41?$AA@ 1009e9dc     bot_commands.obj
 0002:000049e8       ??_C@_0BF@FBHPABGF@Add?5bot?5command?5help?$AA@ 1009e9e8     bot_commands.obj
 0002:00004a00       ??_C@_0BP@JEEEPGEM@You?5can?5add?5a?5bot?5by?5typing?4?4?4?$AA@ 1009ea00     bot_commands.obj
 0002:00004a20       ??_C@_0CG@NPNCIKNK@?$CCrcbot?5addbot?$CC?5?$CIcreates?5a?5random@ 1009ea20     bot_commands.obj
 0002:00004a48       ??_C@_0CI@HIDEGNAM@?$CCrcbot?5addbot?51?$CC?5?$CIcreates?5a?5mari@ 1009ea48     bot_commands.obj
 0002:00004a70       ??_C@_0CI@FMOFCAG@?$CCrcbot?5addbot?52?$CC?5?$CIcreates?5an?5ali@ 1009ea70     bot_commands.obj
 0002:00004a98       ??_C@_0BO@NAGPFKJP@No?5command?5specified?5for?5help?$AA@ 1009ea98     bot_commands.obj
 0002:00004ab8       ??_C@_0CB@FDCLDNGP@Usage?3?5rcbot?5help?5?$DMcommand?5name?$DO@ 1009eab8     bot_commands.obj
 0002:00004adc       ??_C@_0DJ@NEMADIPP@command?5specified?5does?5not?5exist@ 1009eadc     bot_commands.obj
 0002:00004b18       ??_C@_0DH@JOHEOKHM@Error?3?5Can?8t?5use?5this?5command?5on@ 1009eb18     bot_commands.obj
 0002:00004b50       ??_C@_0DF@MFKJJAH@Accessing?5debug?5commands?5?3?5detec@ 1009eb50     bot_commands.obj
 0002:00004b88       ??_C@_0FF@LLJDMJIK@Access?5to?5debug?5commands?5failed?5@ 1009eb88     bot_commands.obj
 0002:00004be0       ??_C@_0CH@BALJGFED@The?5bot?5command?5?$CFs?5returned?5an?5e@ 1009ebe0     bot_commands.obj
 0002:00004c08       ??_C@_0CE@FOIMHIOG@The?5bot?5command?5?$CFs?5does?5not?5exis@ 1009ec08     bot_commands.obj
 0002:00004c2c       ??_C@_0BE@HEGMOELA@No?5command?5issued?$CB?6?$AA@ 1009ec2c     bot_commands.obj
 0002:00004c40       ??_C@_0BN@FAACLNIB@Available?5SUB?9commands?5are?3?6?$AA@ 1009ec40     bot_commands.obj
 0002:00004c60       ??_C@_0N@FCLMIHJL@weapon_tsgun?$AA@ 1009ec60     bot_commands.obj
 0002:00004c74       ??_7CBotGAValues@@6B@      1009ec74     bot_ga.obj
 0002:00004c90       ??_7CBitsGAValues@@6B@     1009ec90     bot_ga.obj
 0002:00004ca8       ??_C@_04LBABLPF@Exit?$AA@  1009eca8     bot_menu.obj
 0002:00004cb0       ??_C@_0BI@LHJEDFIO@Squad?5can?5now?5OPEN?5FIRE?$AA@ 1009ecb0     bot_menu.obj
 0002:00004cc8       ??_C@_0BK@BBAFHGDL@Squad?5is?5now?5HOLDING?5FIRE?$AA@ 1009ecc8     bot_menu.obj
 0002:00004ce4       ??_C@_0O@EOHKNGPN@Waypoint?5Menu?$AA@ 1009ece4     bot_menu.obj
 0002:00004cf4       ??_C@_0BE@KADDOJIP@Team?5Specific?5Flags?$AA@ 1009ecf4     bot_menu.obj
 0002:00004d08       ??_C@_0BB@IGILACGO@Give?5Other?5Flags?$AA@ 1009ed08     bot_menu.obj
 0002:00004d1c       ??_C@_0L@PCFLBPNB@Edit?5Paths?$AA@ 1009ed1c     bot_menu.obj
 0002:00004d28       ??_C@_0BA@CIPLPIPK@Clear?5Waypoints?$AA@ 1009ed28     bot_menu.obj
 0002:00004d38       ??_C@_0BF@GPINFBBJ@Clear?5All?5Waypoints?$DP?$AA@ 1009ed38     bot_menu.obj
 0002:00004d50       ??_C@_03CCLAEDDF@Yes?$AA@  1009ed50     bot_menu.obj
 0002:00004d54       ??_C@_02JINPPBEP@No?$AA@   1009ed54     bot_menu.obj
 0002:00004d58       ??_C@_0O@FHANNEMG@Team?5Specific?$AA@ 1009ed58     bot_menu.obj
 0002:00004d68       ??_C@_07EGLLKKMD@Marines?$AA@ 1009ed68     bot_menu.obj
 0002:00004d70       ??_C@_06CBFIEPHP@Aliens?$AA@ 1009ed70     bot_menu.obj
 0002:00004d78       ??_C@_06HODOEDLN@Team?51?$AA@ 1009ed78     bot_menu.obj
 0002:00004d80       ??_C@_06FFBDBAHO@Team?52?$AA@ 1009ed80     bot_menu.obj
 0002:00004d88       ??_C@_06EMAICBDP@Team?53?$AA@ 1009ed88     bot_menu.obj
 0002:00004d90       ??_C@_06DEJLHPI@Team?54?$AA@ 1009ed90     bot_menu.obj
 0002:00004d98       ??_C@_0L@NNCFFEBC@Give?5Flags?$AA@ 1009ed98     bot_menu.obj
 0002:00004da4       ??_C@_04BIEPDJCB@Jump?$AA@ 1009eda4     bot_menu.obj
 0002:00004dac       ??_C@_0M@IDNMOMDE@Crouch?9Jump?$AA@ 1009edac     bot_menu.obj
 0002:00004db8       ??_C@_06PBKMMHEL@Crouch?$AA@ 1009edb8     bot_menu.obj
 0002:00004dc0       ??_C@_0L@GPHICNNN@More?5Flags?$AA@ 1009edc0     bot_menu.obj
 0002:00004dcc       ??_C@_0BD@JJIMKPCE@Give?5More?5Flags?4?4?4?$AA@ 1009edcc     bot_menu.obj
 0002:00004de0       ??_C@_0M@MKJLKMDG@Lift?5Button?$AA@ 1009ede0     bot_menu.obj
 0002:00004dec       ??_C@_05JNIOGIHM@Stunt?$AA@ 1009edec     bot_menu.obj
 0002:00004df4       ??_C@_0L@GGOKDBHI@Pain?1Death?$AA@ 1009edf4     bot_menu.obj
 0002:00004e00       ??_C@_0L@GEFPDFCI@Wall?9Stick?$AA@ 1009ee00     bot_menu.obj
 0002:00004e0c       ??_C@_03NPPENHPJ@Fly?$AA@  1009ee0c     bot_menu.obj
 0002:00004e10       ??_C@_08DMNNOKNK@Teleport?$AA@ 1009ee10     bot_menu.obj
 0002:00004e1c       ??_C@_04LDJEKFMJ@Tank?$AA@ 1009ee1c     bot_menu.obj
 0002:00004e24       ??_C@_0O@PIGJKIJ@Wait?5For?5Lift?$AA@ 1009ee24     bot_menu.obj
 0002:00004e34       ??_C@_0O@GLBDMPLK@Capture?5Point?$AA@ 1009ee34     bot_menu.obj
 0002:00004e44       ??_C@_0BE@DFGEPIKP@End?5of?5Race?1New?5Lap?$AA@ 1009ee44     bot_menu.obj
 0002:00004e58       ??_C@_0DF@IPGPJJPK@Detpack?5?$CIAlso?5add?5?$CCOpens?5Later?$CC?5@ 1009ee58     bot_menu.obj
 0002:00004e90       ??_C@_0BI@JJCAKAOD@Capture?5Point?1Objective?$AA@ 1009ee90     bot_menu.obj
 0002:00004ea8       ??_C@_0O@JOIFFOPP@Stay?5Close?5To?$AA@ 1009eea8     bot_menu.obj
 0002:00004eb8       ??_C@_0M@BNHCMIJB@Opens?5Later?$AA@ 1009eeb8     bot_menu.obj
 0002:00004ec4       ??_C@_0M@HBGNLHPK@Human?5Tower?$AA@ 1009eec4     bot_menu.obj
 0002:00004ed0       ??_C@_0N@ONNCGFPO@Un?9Reachable?$AA@ 1009eed0     bot_menu.obj
 0002:00004ee0       ??_C@_06KJHDEABF@Ladder?$AA@ 1009eee0     bot_menu.obj
 0002:00004ee8       ??_C@_0BH@KABEHCPK@More?5Waypoint?5Flags?4?4?4?$AA@ 1009eee8     bot_menu.obj
 0002:00004f00       ??_C@_0N@DHJMBBFB@Sniper?5Point?$AA@ 1009ef00     bot_menu.obj
 0002:00004f10       ??_C@_0N@PDBFDDEI@Sentry?5Point?$AA@ 1009ef10     bot_menu.obj
 0002:00004f20       ??_C@_0L@GHANHGKC@Flag?5Point?$AA@ 1009ef20     bot_menu.obj
 0002:00004f2c       ??_C@_0O@BCNKDKNA@Start?5of?5Race?$AA@ 1009ef2c     bot_menu.obj
 0002:00004f3c       ??_C@_0O@CLHAJLBB@Throw?5Grenade?$AA@ 1009ef3c     bot_menu.obj
 0002:00004f4c       ??_C@_0BD@LDJFIFFG@CTF?5Flag?1Important?$AA@ 1009ef4c     bot_menu.obj
 0002:00004f60       ??_C@_0P@BAGILNMC@Pushable?5Point?$AA@ 1009ef60     bot_menu.obj
 0002:00004f70       ??_C@_0BA@EEPKBMID@Scientist?5Point?$AA@ 1009ef70     bot_menu.obj
 0002:00004f80       ??_C@_0N@MFEDBPPN@Barney?5Point?$AA@ 1009ef80     bot_menu.obj
 0002:00004f90       ??_C@_0P@HLJKBOLC@Check?5for?5lift?$AA@ 1009ef90     bot_menu.obj
 0002:00004fa0       ??_C@_0BA@FIJEDEDE@VIP?5Rescue?5Zone?$AA@ 1009efa0     bot_menu.obj
 0002:00004fb0       ??_C@_0BA@NFMKLPMM@Marine?5Building?$AA@ 1009efb0     bot_menu.obj
 0002:00004fc0       ??_C@_0M@KKNAKJAH@Defend?5Zone?$AA@ 1009efc0     bot_menu.obj
 0002:00004fcc       ??_C@_0BB@COKHEKBB@Remove?5All?5Paths?$AA@ 1009efcc     bot_menu.obj
 0002:00004fe0       ??_C@_0BA@KIODHLJ@Remove?5Paths?5TO?$AA@ 1009efe0     bot_menu.obj
 0002:00004ff0       ??_C@_0BC@LPIAKGF@Remove?5Paths?5FROM?$AA@ 1009eff0     bot_menu.obj
 0002:00005004       ??_C@_08EDEIHDJJ@Bot?5Menu?$AA@ 1009f004     bot_menu.obj
 0002:00005010       ??_C@_0P@NBOPEHGP@Add?5random?5bot?$AA@ 1009f010     bot_menu.obj
 0002:00005020       ??_C@_0BA@JLNDFPHG@Kick?5random?5bot?$AA@ 1009f020     bot_menu.obj
 0002:00005030       ??_C@_0BA@MMKNNMDN@Add?5bot?5to?5team?$AA@ 1009f030     bot_menu.obj
 0002:00005040       ??_C@_0BD@IMEGIEBH@Kick?5bot?5from?5team?$AA@ 1009f040     bot_menu.obj
 0002:00005054       ??_C@_08DDAPAEJF@Any?5Team?$AA@ 1009f054     bot_menu.obj
 0002:00005060       ??_C@_0BA@BFFNCIMB@Add?5Bot?5to?5Team?$AA@ 1009f060     bot_menu.obj
 0002:00005070       ??_C@_09NNFMABBK@Auto?5Team?$AA@ 1009f070     bot_menu.obj
 0002:0000507c       ??_C@_0L@KGMBCCIB@Edit?5Squad?$AA@ 1009f07c     bot_menu.obj
 0002:00005088       ??_C@_0P@EJNMLGCB@Edit?5Formation?$AA@ 1009f088     bot_menu.obj
 0002:00005098       ??_C@_0BD@LOJBPFIP@Edit?5Member?5Spread?$AA@ 1009f098     bot_menu.obj
 0002:000050ac       ??_C@_0L@KKOCHEDJ@Edit?5Modes?$AA@ 1009f0ac     bot_menu.obj
 0002:000050b8       ??_C@_0N@HOMHGMLP@More?5Options?$AA@ 1009f0b8     bot_menu.obj
 0002:000050c8       ??_C@_0BD@EDCJLFDN@More?5Squad?5Options?$AA@ 1009f0c8     bot_menu.obj
 0002:000050dc       ??_C@_0L@GEMMBBLD@Make?5Squad?$AA@ 1009f0dc     bot_menu.obj
 0002:000050e8       ??_C@_0M@CACHFHPF@Leave?5Squad?$AA@ 1009f0e8     bot_menu.obj
 0002:000050f4       ??_C@_0N@BMMCGFLN@Remove?5Squad?$AA@ 1009f0f4     bot_menu.obj
 0002:00005104       ??_C@_0BG@JKJFIBKL@Remove?5All?5Bot?5Squads?$AA@ 1009f104     bot_menu.obj
 0002:0000511c       ??_C@_0M@GGOJMKDN@Squad?5Modes?$AA@ 1009f11c     bot_menu.obj
 0002:00005128       ??_C@_0P@LECPLNFO@Open?1Hold?5Fire?$AA@ 1009f128     bot_menu.obj
 0002:00005138       ??_C@_0BC@JBENIID@Keep?5Low?1Stand?5up?$AA@ 1009f138     bot_menu.obj
 0002:0000514c       ??_C@_0P@KBDENPBK@Stealth?1Normal?$AA@ 1009f14c     bot_menu.obj
 0002:0000515c       ??_C@_0BE@BOOINPLF@Return?5to?5formation?$AA@ 1009f15c     bot_menu.obj
 0002:00005170       ??_C@_0BA@HIFIKFDM@Squad?5Formation?$AA@ 1009f170     bot_menu.obj
 0002:00005180       ??_C@_05OPDCLMDN@Wedge?$AA@ 1009f180     bot_menu.obj
 0002:00005188       ??_C@_04LIDDHMOL@Line?$AA@ 1009f188     bot_menu.obj
 0002:00005190       ??_C@_06FFIACGFC@Column?$AA@ 1009f190     bot_menu.obj
 0002:00005198       ??_C@_04LFAEFAJD@More?$AA@ 1009f198     bot_menu.obj
 0002:000051a0       ??_C@_0BG@FADHNJEI@More?5Squad?5Formations?$AA@ 1009f1a0     bot_menu.obj
 0002:000051b8       ??_C@_0N@CLHHNGEE@Echelon?5Left?$AA@ 1009f1b8     bot_menu.obj
 0002:000051c8       ??_C@_0O@GLGFPNDG@Echelon?5Right?$AA@ 1009f1c8     bot_menu.obj
 0002:000051d8       ??_C@_03GGELOGLE@Vee?$AA@  1009f1d8     bot_menu.obj
 0002:000051dc       ??_C@_04FEOMFELI@Back?$AA@ 1009f1dc     bot_menu.obj
 0002:000051e4       ??_C@_05CMMFABME@Wider?$AA@ 1009f1e4     bot_menu.obj
 0002:000051ec       ??_C@_08JAGFJECP@Narrower?$AA@ 1009f1ec     bot_menu.obj
 0002:000051f8       ??_C@_0BD@HAGHHFNI@?$CFs?6?9?9?9?9?9?6Options?3?6?$AA@ 1009f1f8     bot_menu.obj
 0002:0000520c       ??_C@_0L@OOOJFBLH@?$CFd?4?5?$CFs?4?4?4?6?$AA@ 1009f20c     bot_menu.obj
 0002:00005218       ??_C@_07JDGBAOJP@?$CFd?4?5?$CFs?6?$AA@ 1009f218     bot_menu.obj
 0002:00005220       ??_C@_01FDFGLJHB@2?$AA@    1009f220     bot_menu.obj
 0002:00005224       ??_C@_01BMBHCPLG@5?$AA@    1009f224     bot_menu.obj
 0002:00005228       ??_C@_0BK@LOOHCCDG@You?5have?5left?5your?5squad?6?$AA@ 1009f228     bot_menu.obj
 0002:00005244       ??_C@_0P@OBBCGFPE@Squad?5removed?6?$AA@ 1009f244     bot_menu.obj
 0002:00005254       ??_C@_0BK@NGAHDEIE@?$CFs?5?$CFd?5bot?5squads?5removed?6?$AA@ 1009f254     bot_menu.obj
 0002:00005270       ??_C@_0CN@DODAGCNH@AStarAlgo?$CI?$CJ?5?$CFs?5has?5no?5goal?1curre@ 1009f270     bot_navigate.obj
 0002:000052a0       ??_C@_0CK@NCKJIKFJ@AStarAlgo?$CI?$CJ?5?$CFs?5finding?5path?5from@ 1009f2a0     bot_navigate.obj
 0002:000052cc       ??_C@_0DF@HJKGKPIO@AStarAlgo?$CI?$CJ?5?$CFs?5continuing?5to?5fin@ 1009f2cc     bot_navigate.obj
 0002:00005304       ??_C@_0N@JFLGFCMM@trigger_hurt?$AA@ 1009f304     bot_navigate.obj
 0002:00005314       ??_C@_0DL@GEFJEGEF@AStarAlgo?$CI?$CJ?5?$CFs?5could?5not?5find?5pa@ 1009f314     bot_navigate.obj
 0002:00005350       ??_C@_0CL@DKANPEID@AStarAlgo?$CI?$CJ?5?$CFs?5Too?5many?5waypoint@ 1009f350     bot_navigate.obj
 0002:0000537c       ??_C@_0CB@OJPAAACD@?$CFs?5missed?5out?5a?5waypoint?5in?5path@ 1009f37c     bot_navigate.obj
 0002:000053a0       ??_C@_0BJ@HGODAKFL@?$CFs?5reached?5goal?5waypoint?$AA@ 1009f3a0     bot_navigate.obj
 0002:000053bc       ??_C@_0DB@HFEOOKFB@BotFindNextWaypoint?$CI?$CJ?5?$CFs?5has?5no?5@ 1009f3bc     bot_navigate.obj
 0002:000053f0       ??_C@_0DC@BKNLDPHA@UpdateWaypoint?$CI?$CJ?5?$CFs?5can?8t?5find?5a@ 1009f3f0     bot_navigate.obj
 0002:00005424       ??_C@_0O@PMMEMIKJ@func_pushable?$AA@ 1009f424     bot_navigate.obj
 0002:00005434       ??_C@_0CM@HKPOKDDO@UpdateWaypoint?$CI?$CJ?5?$CFs?5has?5no?5curre@ 1009f434     bot_navigate.obj
 0002:00005460       ??_C@_0BE@CKKOHDNI@func_seethroughdoor?$AA@ 1009f460     bot_navigate.obj
 0002:00005478       __real@4030000000000000    1009f478     bot_navigate.obj
 0002:00005480       __real@42c60000            1009f480     bot_navigate.obj
 0002:00005484       __real@42d80000            1009f484     bot_navigate.obj
 0002:00005488       __real@43330000            1009f488     bot_navigate.obj
 0002:0000548c       __real@43b38000            1009f48c     bot_navigate.obj
 0002:00005490       __real@43b40000            1009f490     bot_navigate.obj
 0002:00005494       __real@c1800000            1009f494     bot_navigate.obj
 0002:00005498       __real@c2200000            1009f498     bot_navigate.obj
 0002:000054a0       ??_7NN@@6B@                1009f4a0     bot_nn.obj
 0002:000054a8       ??_7NNGATrained@@6B@       1009f4a8     bot_nn.obj
 0002:000054ac       ??_C@_0CG@LCJLFNFN@GetRepArrayNum?3?5Bad?5rep?5recieved@ 1009f4ac     bot_rep.obj
 0002:000054d4       ??_C@_06IECMOMIJ@?$CFd?4rcr?$AA@ 1009f4d4     bot_rep.obj
 0002:000054dc       ??_C@_03CCKOKKND@rb?$CL?$AA@ 1009f4dc     bot_rep.obj
 0002:000054e0       ??_C@_0CE@HPCFOIJO@could?5not?5save?5Bot?5id?5?$CFd?8s?5rep?5f@ 1009f4e0     bot_rep.obj
 0002:00005504       ??_C@_02BOGAIONP@ab?$AA@   1009f504     bot_rep.obj
 0002:00005508       ??_C@_0CO@LLJJCNLM@Can?8t?5open?5reputation?5file?5?$CC?$CFs?$CC?5@ 1009f508     bot_rep.obj
 0002:00005538       ??_C@_0BC@EMLNCEDM@bot_playerids?4ini?$AA@ 1009f538     bot_rep.obj
 0002:0000554c       ??_C@_01NOFIACDB@w?$AA@    1009f54c     bot_rep.obj
 0002:00005550       ??_C@_0GL@EKMKAMKD@?$CD?5Automatically?5generated?0?5do?5no@ 1009f550     bot_rep.obj
 0002:000055bc       ??_C@_02DKCKIIND@?$CFs?$AA@ 1009f5bc     bot_rep.obj
 0002:000055c0       ??_C@_05LFNECPGD@?$CC?$CFs?$CC?6?$AA@ 1009f5c0     bot_rep.obj
 0002:000055c8       ??_C@_0CI@HMJOPEPK@Cannot?5open?1write?5to?5bot?5player?5@ 1009f5c8     bot_rep.obj
 0002:000055f0       ??_C@_0EJ@ELFLCBDE@warning?3?5GetClientRep?$CI?$CJ?3?5Bad?5pCl@ 1009f5f0     bot_rep.obj
 0002:00005640       ??_C@_0EJ@EJJKFJFL@warning?3?5GetClientRep?$CI?$CJ?3?5No?5Rep?5@ 1009f640     bot_rep.obj
 0002:0000568c       ??_C@_0BF@NDJKFBOO@models?1w_glock18?4mdl?$AA@ 1009f68c     bot_weapons.obj
 0002:000056a4       ??_C@_08MDKFNONE@2?5No?5gun?$AA@ 1009f6a4     bot_weapons.obj
 0002:000056b0       ??_C@_0BB@PJCDDNDO@models?1w_uzi?4mdl?$AA@ 1009f6b0     bot_weapons.obj
 0002:000056c4       ??_C@_0BA@GPKDHOP@models?1w_m3?4mdl?$AA@ 1009f6c4     bot_weapons.obj
 0002:000056d4       ??_C@_0BA@BLPPAHFH@models?1w_m4?4mdl?$AA@ 1009f6d4     bot_weapons.obj
 0002:000056e4       ??_C@_0BD@PDBHLKCB@models?1w_mp5sd?4mdl?$AA@ 1009f6e4     bot_weapons.obj
 0002:000056f8       ??_C@_0BC@FJKAMCCL@models?1w_mp5k?4mdl?$AA@ 1009f6f8     bot_weapons.obj
 0002:0000570c       ??_C@_0BG@BOMCMLED@models?1w_berettas?4mdl?$AA@ 1009f70c     bot_weapons.obj
 0002:00005724       ??_C@_0BC@FNALFLEC@models?1w_mk23?4mdl?$AA@ 1009f724     bot_weapons.obj
 0002:00005738       ??_C@_0BJ@GKENJHFB@models?1w_mk23_akimbo?4mdl?$AA@ 1009f738     bot_weapons.obj
 0002:00005754       ??_C@_0BC@PICIGIPD@models?1w_usas?4mdl?$AA@ 1009f754     bot_weapons.obj
 0002:00005768       ??_C@_0BE@ONBHKLIJ@models?1w_desert?4mdl?$AA@ 1009f768     bot_weapons.obj
 0002:0000577c       ??_C@_0BC@EDHONPHK@models?1w_ak47?4mdl?$AA@ 1009f77c     bot_weapons.obj
 0002:00005790       ??_C@_0BB@FDNKGAIO@models?1w_fnh?4mdl?$AA@ 1009f790     bot_weapons.obj
 0002:000057a4       ??_C@_0BB@MNJABDHG@models?1w_aug?4mdl?$AA@ 1009f7a4     bot_weapons.obj
 0002:000057b8       ??_C@_0BB@LDCJMMLD@models?1w_tmp?4mdl?$AA@ 1009f7b8     bot_weapons.obj
 0002:000057cc       ??_C@_0BB@ODKAILME@models?1w_m82?4mdl?$AA@ 1009f7cc     bot_weapons.obj
 0002:000057e0       ??_C@_0BB@LPPOLHCC@models?1w_pdw?4mdl?$AA@ 1009f7e0     bot_weapons.obj
 0002:000057f4       ??_C@_0BE@DPFNOEKD@models?1w_spas12?4mdl?$AA@ 1009f7f4     bot_weapons.obj
 0002:00005808       ??_C@_0BC@COAOHFID@models?1w_gold?4mdl?$AA@ 1009f808     bot_weapons.obj
 0002:0000581c       ??_C@_0BF@EDOJGIBF@models?1w_glock22?4mdl?$AA@ 1009f81c     bot_weapons.obj
 0002:00005834       ??_C@_0BB@HPIDMMCN@models?1w_ump?4mdl?$AA@ 1009f834     bot_weapons.obj
 0002:00005848       ??_C@_0BB@DFALICDH@models?1w_m61?4mdl?$AA@ 1009f848     bot_weapons.obj
 0002:0000585c       ??_C@_0BD@GGDINFMA@models?1w_knife?4mdl?$AA@ 1009f85c     bot_weapons.obj
 0002:00005870       ??_C@_0BG@JJABBEOI@models?1w_mossberg?4mdl?$AA@ 1009f870     bot_weapons.obj
 0002:00005888       ??_C@_0BB@ONKJIMAB@models?1w_m16?4mdl?$AA@ 1009f888     bot_weapons.obj
 0002:0000589c       ??_C@_0BD@KJKHJJMC@models?1w_ruger?4mdl?$AA@ 1009f89c     bot_weapons.obj
 0002:000058b0       ??_C@_0P@FNDDJLBH@29?5no?5gun?5here?$AA@ 1009f8b0     bot_weapons.obj
 0002:000058c0       ??_C@_0P@EKJOLPLP@30?5no?5gun?5here?$AA@ 1009f8c0     bot_weapons.obj
 0002:000058d0       ??_C@_0BC@GFLBJPEC@models?1w_bull?4mdl?$AA@ 1009f8d0     bot_weapons.obj
 0002:000058e4       ??_C@_0BB@POFHFBJC@models?1w_m60?4mdl?$AA@ 1009f8e4     bot_weapons.obj
 0002:000058f8       ??_C@_0BG@BOKPOBIL@models?1w_sawedoff?4mdl?$AA@ 1009f8f8     bot_weapons.obj
 0002:00005910       ??_C@_0BE@GEEKPJJE@models?1w_katana?4mdl?$AA@ 1009f910     bot_weapons.obj
 0002:00005924       ??_C@_0BH@NNGKFGIL@models?1w_sealknife?4mdl?$AA@ 1009f924     bot_weapons.obj
 0002:00005940       ??_7CWeapon@@6B@           1009f940     bot_weapons.obj
 0002:00005968       ??_7CWeaponPreset@@6B@     1009f968     bot_weapons.obj
 0002:0000598c       ??_C@_0BA@EIKAFPFI@bot_weapons?4ini?$AA@ 1009f98c     bot_weapons.obj
 0002:0000599c       ??_C@_0M@PMDLFFDG@?$FLmod_id?$DN?$CFd?$FN?$AA@ 1009f99c     bot_weapons.obj
 0002:000059a8       ??_C@_0P@JCHMHPIN@?$FLweapon_id?$DN?$CFd?$FN?$AA@ 1009f9a8     bot_weapons.obj
 0002:000059b8       ??_C@_0O@DKCPGIMF@underwater?$DN?$CFd?$AA@ 1009f9b8     bot_weapons.obj
 0002:000059c8       ??_C@_0P@HMIHLPG@primaryfire?$DN?$CFd?$AA@ 1009f9c8     bot_weapons.obj
 0002:000059d8       ??_C@_0BB@JEPMJAC@secondaryfire?$DN?$CFd?$AA@ 1009f9d8     bot_weapons.obj
 0002:000059ec       ??_C@_0BF@EJNAOIEH@primary_min_range?$DN?$CFd?$AA@ 1009f9ec     bot_weapons.obj
 0002:00005a04       ??_C@_0BF@JJPJADB@primary_max_range?$DN?$CFd?$AA@ 1009fa04     bot_weapons.obj
 0002:00005a1c       ??_C@_0BH@NHMEELLE@secondary_min_range?$DN?$CFd?$AA@ 1009fa1c     bot_weapons.obj
 0002:00005a34       ??_C@_0BH@JHILDDMC@secondary_max_range?$DN?$CFd?$AA@ 1009fa34     bot_weapons.obj
 0002:00005a4c       ??_C@_0M@FDICAEID@is_melee?$DN?$CFd?$AA@ 1009fa4c     bot_weapons.obj
 0002:00005a58       ??_C@_0M@BHKGKPP@priority?$DN?$CFd?$AA@ 1009fa58     bot_weapons.obj
 0002:00005a64       ??_C@_09GLLBECNJ@?$FL?1weapon?$FN?$AA@ 1009fa64     bot_weapons.obj
 0002:00005a70       ??_C@_0BC@DEFEHJM@monster_gargantua?$AA@ 1009fa70     bot_weapons.obj
 0002:00005a90       __xmm@00010001000100010001000100010001 1009fa90     bot_weapons.obj
 0002:00005aa0       ??_C@_0BD@ENKJHIHO@BOT_LOOK_TASK_NONE?$AA@ 1009faa0     client.obj
 0002:00005ab4       ??_C@_0BM@JJHFPHD@BOT_LOOK_TASK_NEXT_WAYPOINT?$AA@ 1009fab4     client.obj
 0002:00005ad0       ??_C@_0BP@NPHJBPEO@BOT_LOOK_TASK_SEARCH_FOR_ENEMY?$AA@ 1009fad0     client.obj
 0002:00005af0       ??_C@_0BJ@DHNEANCK@BOT_LOOK_TASK_FACE_ENEMY?$AA@ 1009faf0     client.obj
 0002:00005b0c       ??_C@_0BM@EDCHPGMA@BOT_LOOK_TASK_FACE_TEAMMATE?$AA@ 1009fb0c     client.obj
 0002:00005b28       ??_C@_0BP@MBKOCOAC@BOT_LOOK_TASK_FACE_GOAL_OBJECT?$AA@ 1009fb28     client.obj
 0002:00005b48       ??_C@_0BK@GKMPEBPA@BOT_LOOK_TASK_FACE_ENTITY?$AA@ 1009fb48     client.obj
 0002:00005b64       ??_C@_0BP@PKNCODNI@BOT_LOOK_TASK_FACE_TASK_VECTOR?$AA@ 1009fb64     client.obj
 0002:00005b84       ??_C@_0BO@DPHLEMEI@BOT_LOOK_TASK_FACE_TASK_EDICT?$AA@ 1009fb84     client.obj
 0002:00005ba4       ??_C@_0CE@OACGEHFB@BOT_LOOK_TASK_SEARCH_FOR_LAST_EN@ 1009fba4     client.obj
 0002:00005bc8       ??_C@_0BK@GDAJFLHG@BOT_LOOK_TASK_LOOK_AROUND?$AA@ 1009fbc8     client.obj
 0002:00005be4       ??_C@_0BK@GKGGJGDH@BOT_LOOK_TASK_FACE_GROUND?$AA@ 1009fbe4     client.obj
 0002:00005c00       ??_C@_0DE@PCHJNBMH@Debugging?5Bot?3?5?$CC?$CFs?$CC?6No?5Tasks?6Way@ 1009fc00     client.obj
 0002:00005c38       ??_C@_0IC@KCBJNPFN@Debugging?5Bot?3?5?$CC?$CFs?$CC?6Task?3?5?$CFs?6?5in@ 1009fc38     client.obj
 0002:00005cc0       ??_C@_0BBB@PMDCEBKP@name?5?$CFs?0?5flags?5?$CFd?6health?5?$CF0?41f?0?5@ 1009fcc0     client.obj
 0002:00005dd4       ??_C@_0BM@JIHFKPA@You?5have?5been?5authenticated?$AA@ 1009fdd4     client.obj
 0002:00005df0       ??_C@_0BA@JKHIGFLA@scientist?1hello?$AA@ 1009fdf0     client.obj
 0002:00005e00       ??_C@_0BB@CGILJPJI@scientist?1hello2?$AA@ 1009fe00     client.obj
 0002:00005e14       ??_C@_0BH@HMKMLNIN@scientist?1hellofreeman?$AA@ 1009fe14     client.obj
 0002:00005e2c       ??_C@_0BH@PJEOPNED@scientist?1hellofromlab?$AA@ 1009fe2c     client.obj
 0002:00005e44       ??_C@_0BF@LHIFADOL@scientist?1hellothere?$AA@ 1009fe44     client.obj
 0002:00005e5c       ??_C@_0CH@PBAKBODL@Could?5not?5allocate?5client?5space?5@ 1009fe5c     client.obj
 0002:00005e88       ??_C@_0FP@DLIECEIL@Could?5not?5find?5?$CFs?5in?5list?5of?5cli@ 1009fe88     client.obj
 0002:00005ee8       __real@4034000000000000    1009fee8     client.obj
 0002:00005ef0       __real@403e000000000000    1009fef0     client.obj
 0002:00005ef8       __real@43520000            1009fef8     client.obj
 0002:00005efc       ??_C@_09FDKGBOLF@rcbot_ver?$AA@ 1009fefc     dll.obj
 0002:00005f08       ??_C@_07GOEDNHDP@bot?4txt?$AA@ 1009ff08     dll.obj
 0002:00005f10       ??_C@_0BG@KDALCNB@DispatchSpawn?3?5?$CFx?5?$CFs?6?$AA@ 1009ff10     dll.obj
 0002:00005f28       ??_C@_0L@CFDLBPOL@?5model?$DN?$CFs?6?$AA@ 1009ff28     dll.obj
 0002:00005f34       ??_C@_0CA@OHKCLLHB@ClientConnect?3?5pent?$DN?$CFx?5name?$DN?$CFs?6?$AA@ 1009ff34     dll.obj
 0002:00005f54       ??_C@_08HAEGGJGF@loopback?$AA@ 1009ff54     dll.obj
 0002:00005f60       ??_C@_0CM@JGHECDJH@Kicking?5a?5bot?5from?5server?5to?5fre@ 1009ff60     dll.obj
 0002:00005f8c       ??_C@_0L@BGEEDJPK@kick?5?$CC?$CFs?$CC?6?$AA@ 1009ff8c     dll.obj
 0002:00005f98       ??_C@_0EF@JJADJLOI@Player?5joining?0?5min_bots?5not?5rea@ 1009ff98     dll.obj
 0002:00005fe0       ??_C@_0GK@GMOHAGDN@numplayers?5to?5be?5?$DN?5?$CFd?6min_bots?5?$DN@ 1009ffe0     dll.obj
 0002:00006050       ??_C@_0EL@OMGHBJIO@Rejecting?5real?5player?5from?5joini@ 100a0050     dll.obj
 0002:0000609c       ??_C@_0DI@MEAIHGFF@?6Maximum?5public?5slots?5reached?5?$CIs@ 100a009c     dll.obj
 0002:000060d4       ??_C@_0BA@KDPPEAIK@ClientKill?3?5?$CFx?6?$AA@ 100a00d4     dll.obj
 0002:000060e4       ??_C@_0BH@GKFBLGID@ClientPutInServer?3?5?$CFx?6?$AA@ 100a00e4     dll.obj
 0002:000060fc       ??_C@_0L@FKMMBKBD@sv_gravity?$AA@ 100a00fc     dll.obj
 0002:00006108       ??_C@_0O@FHFBNAMJ@get_rcbot_ver?$AA@ 100a0108     dll.obj
 0002:00006118       ??_C@_08ILMMNLBN@18?357?329?$AA@ 100a0118     dll.obj
 0002:00006124       ??_C@_0M@HAPLNHEK@Mar?5?54?52018?$AA@ 100a0124     dll.obj
 0002:00006130       ??_C@_0CA@GFPMEJIE@Bot?5version?5is?5?3?5?$CFs?5build?5?$CFs?9?$CFs?$AA@ 100a0130     dll.obj
 0002:00006150       ??_C@_03BANJEMDJ@say?$AA@  100a0150     dll.obj
 0002:00006154       ??_C@_08NBFNGOHN@say_team?$AA@ 100a0154     dll.obj
 0002:00006160       ??_C@_03DIMFMJA@?5up?$AA@  100a0160     dll.obj
 0002:00006164       ??_C@_02HNLLPFKA@up?$AA@   100a0164     dll.obj
 0002:00006168       ??_C@_05DNIIFBMG@?$CFs?5?$CFs?$AA@ 100a0168     dll.obj
 0002:00006170       ??_C@_0CN@LFOMKINL@Your?5client?5was?5not?5found?5in?5lis@ 100a0170     dll.obj
 0002:000061a0       ??_C@_0BC@CCNAFMBB@?$CLrcbot_force_grip?$AA@ 100a01a0     dll.obj
 0002:000061b4       ??_C@_0BC@CMKMOAJE@?9rcbot_force_grip?$AA@ 100a01b4     dll.obj
 0002:000061c8       ??_C@_05EPLCPAGM@rcbot?$AA@ 100a01c8     dll.obj
 0002:000061d0       ??_C@_0CK@HFFHKFDB@You?5do?5not?5have?5access?5to?5this?5c@ 100a01d0     dll.obj
 0002:000061fc       ??_C@_0BL@EMOHHIOD@Error?5accessing?5command?4?4?4?$AA@ 100a01fc     dll.obj
 0002:00006218       ??_C@_0DC@LBHMAEJN@No?5command?5entered?5or?5bot?5comman@ 100a0218     dll.obj
 0002:00006250       ??_C@_0EB@LAMCNHDL@Tip?3?5If?5you?5want?5to?5add?5an?5RCBOT@ 100a0250     dll.obj
 0002:00006294       ??_C@_0DB@IHFDMIEG@ClientUserInfoChanged?3?5pEntity?$DN?$CF@ 100a0294     dll.obj
 0002:000062c8       ??_C@_0BJ@COJIABAL@PlayerCustomization?3?5?$CFx?6?$AA@ 100a02c8     dll.obj
 0002:000062e4       ??_C@_0BE@DIFDMEAJ@System?5Error?3?5?$CC?$CFs?$CC?6?$AA@ 100a02e4     dll.obj
 0002:000062f8       ??_C@_0CC@MMEFNCFF@InconsistentFile?3?5?$CFx?5filename?$DN?$CFs@ 100a02f8     dll.obj
 0002:0000631c       ??_C@_0CD@PADNMLB@FakeClientCommand?5?3?5No?5fakeclien@ 100a031c     dll.obj
 0002:00006340       ??_C@_0CA@FICKBADF@FakeClientCommand?5?3?5No?5command?$CB?$AA@ 100a0340     dll.obj
 0002:00006360       ??_C@_05DFCJAACA@name?$DN?$AA@ 100a0360     dll.obj
 0002:00006368       ??_C@_07FLDCFPMM@favmod?$DN?$AA@ 100a0368     dll.obj
 0002:00006370       ??_C@_08MNGKGBAK@favteam?$DN?$AA@ 100a0370     dll.obj
 0002:0000637c       ??_C@_07KAMCCDFD@favmap?$DN?$AA@ 100a037c     dll.obj
 0002:00006384       ??_C@_06BDNHDCND@skill?$DN?$AA@ 100a0384     dll.obj
 0002:0000638c       ??_C@_06IFHBNPFO@spray?$DN?$AA@ 100a038c     dll.obj
 0002:00006394       ??_C@_0P@OKKAAHAK@gorge_percent?$DN?$AA@ 100a0394     dll.obj
 0002:000063a4       ??_C@_0O@EGCPADGA@lerk_percent?$DN?$AA@ 100a03a4     dll.obj
 0002:000063b4       ??_C@_0O@OFPCNAHH@fade_percent?$DN?$AA@ 100a03b4     dll.obj
 0002:000063c4       ??_C@_0O@FLAFFAIE@onos_percent?$DN?$AA@ 100a03c4     dll.obj
 0002:000063d4       ??_C@_09PODNBEFE@numgames?$DN?$AA@ 100a03d4     dll.obj
 0002:000063e0       ??_C@_0CH@KIMKFHDI@Error?5writing?5bot?5profile?0?5tag?5m@ 100a03e0     dll.obj
 0002:00006408       ??_C@_07NCCPHCN@?$CFs?$CC?$CFs?$CC?6?$AA@ 100a0408     dll.obj
 0002:00006410       ??_C@_05IFPDIELM@?$CFs?$CFd?6?$AA@ 100a0410     dll.obj
 0002:00006418       ??_C@_06EGHMHGOA@class?$DN?$AA@ 100a0418     dll.obj
 0002:00006420       ??_C@_06DKDPBMGN@model?$DN?$AA@ 100a0420     dll.obj
 0002:00006428       ??_C@_0L@KHEELMPB@aim_speed?$DN?$AA@ 100a0428     dll.obj
 0002:00006434       ??_C@_0L@HILOLNJK@aim_skill?$DN?$AA@ 100a0434     dll.obj
 0002:00006440       ??_C@_09KFMKNHEM@aim_time?$DN?$AA@ 100a0440     dll.obj
 0002:0000644c       ??_C@_0N@PMGJLIPD@bottomcolor?$DN?$AA@ 100a044c     dll.obj
 0002:0000645c       ??_C@_09INLLAPOA@topcolor?$DN?$AA@ 100a045c     dll.obj
 0002:00006468       ??_C@_0BD@LBBMEJPK@hal_pretrain_file?$DN?$AA@ 100a0468     dll.obj
 0002:0000647c       ??_C@_0O@LFAJBGIN@hal_aux_file?$DN?$AA@ 100a047c     dll.obj
 0002:0000648c       ??_C@_0O@BFMGIGFP@hal_ban_file?$DN?$AA@ 100a048c     dll.obj
 0002:0000649c       ??_C@_0P@DAOEHKHE@hal_swap_file?$DN?$AA@ 100a049c     dll.obj
 0002:000064ac       ??_C@_0P@PHDOHHAI@max_path_revs?$DN?$AA@ 100a04ac     dll.obj
 0002:000064bc       ??_C@_0BI@BPCJGIGB@max_update_vision_revs?$DN?$AA@ 100a04bc     dll.obj
 0002:000064d4       ??_C@_0BE@OACKAJIP@update_vision_time?$DN?$AA@ 100a04d4     dll.obj
 0002:000064e8       ??_C@_0O@NPNDOPOI@bot_users?4ini?$AA@ 100a04e8     dll.obj
 0002:000064f8       ??_C@_0DE@NKIKEME@Added?3?5name?$DN?$CC?$CFs?$CC?0?5pass?$DN?$CFs?0?5acces@ 100a04f8     dll.obj
 0002:0000652c       ??_C@_0DH@NNLEGIIB@Error?5in?5bot_users?4ini?0?5error?5on@ 100a052c     dll.obj
 0002:00006564       ??_C@_0CG@CLJPIOJO@?$CFd?5users?5added?5to?5list?5of?5RCBot?5@ 100a0564     dll.obj
 0002:00006590       ??_C@_0HN@GGMGLINH@?$CB?$CB?$CB?5Cannot?5find?5bot_users?4ini?5?$CB?$CB@ 100a0590     dll.obj
 0002:00006610       ??_C@_0N@ECGDJKDG@rcbot?5addbot?$AA@ 100a0610     dll.obj
 0002:00006620       ??_C@_0CJ@BECNHJMJ@Error?3?5Nearest?5resource?5fountain@ 100a0620     dll.obj
 0002:0000664c       ??_C@_0DA@KNNBIIJJ@Error?3?5Can?8t?5find?5a?5resource?5fou@ 100a064c     dll.obj
 0002:0000667c       ??_C@_0M@BLHFOIPE@info_target?$AA@ 100a067c     dll.obj
 0002:00006688       ??_C@_0BE@JNMMIBGH@models?1mechgibs?4mdl?$AA@ 100a0688     dll.obj
 0002:0000669c       ??_C@_0O@KIFCFIPO@entity_botcam?$AA@ 100a069c     dll.obj
 0002:000066ac       ??_C@_0CA@CHBHDOGK@No?5Bots?5are?5running?5for?5bot?5cam?$AA@ 100a06ac     dll.obj
 0002:000066cc       ??_C@_0CI@NGDHEFBJ@Oops?0?5looks?5like?5camera?5never?5wo@ 100a06cc     dll.obj
 0002:000066f4       ??_C@_0CO@LEEOHNIN@GetEntityAPI2?5called?5with?5null?5p@ 100a06f4     dll.obj
 0002:00006724       ??_C@_0DF@CBACLFAI@GetEntityAPI2?5version?5mismatch?$DL?5@ 100a0724     dll.obj
 0002:00006760       __real@4038000000000000    100a0760     dll.obj
 0002:00006768       ??_C@_0BG@ECGCNGLA@pfnPrecacheModel?3?5?$CFs?6?$AA@ 100a0768     engine.obj
 0002:00006780       ??_C@_0BG@GLNMDNHO@pfnPrecacheSound?3?5?$CFs?6?$AA@ 100a0780     engine.obj
 0002:00006798       ??_C@_0BK@IGHFOCO@pfnSetModel?3?5edict?$DN?$CFx?5?$CFs?6?$AA@ 100a0798     engine.obj
 0002:000067b4       ??_C@_0BB@KIOILAMA@pfnModelFrames?3?6?$AA@ 100a07b4     engine.obj
 0002:000067c8       ??_C@_0BA@LENGEMNC@pfnSetSize?3?5?$CFx?6?$AA@ 100a07c8     engine.obj
 0002:000067d8       ??_C@_0BB@ODHNIGBA@pfnChangeLevel?3?6?$AA@ 100a07d8     engine.obj
 0002:000067ec       ??_C@_0BD@KDOAPOCJ@pfnGetSpawnParms?3?6?$AA@ 100a07ec     engine.obj
 0002:00006800       ??_C@_0BE@OBHAFLMG@pfnSaveSpawnParms?3?6?$AA@ 100a0800     engine.obj
 0002:00006814       ??_C@_0BC@EKAADFEL@pfnMoveToOrigin?3?6?$AA@ 100a0814     engine.obj
 0002:00006828       ??_C@_0BE@DFFFHHKO@pfnGetEntityIllum?3?6?$AA@ 100a0828     engine.obj
 0002:0000683c       ??_C@_0BI@LKDMONGP@pfnFindEntityInSphere?3?6?$AA@ 100a083c     engine.obj
 0002:00006854       ??_C@_0BF@LGGGGKFN@pfnFindClientInPVS?3?6?$AA@ 100a0854     engine.obj
 0002:0000686c       ??_C@_0BD@KJJIAAAJ@pfnEntitiesInPVS?3?6?$AA@ 100a086c     engine.obj
 0002:00006880       ??_C@_0BF@FELGGFEE@pfnRemoveEntity?3?5?$CFx?6?$AA@ 100a0880     engine.obj
 0002:00006898       ??_C@_0BA@FGNIGMLD@pfnMakeStatic?3?6?$AA@ 100a0898     engine.obj
 0002:000068a8       ??_C@_0BC@DKPCNJCG@pfnEntIsOnFloor?3?6?$AA@ 100a08a8     engine.obj
 0002:000068bc       ??_C@_0BB@NBEEFBBP@pfnDropToFloor?3?6?$AA@ 100a08bc     engine.obj
 0002:000068d0       ??_C@_0O@IGCPNFPI@pfnWalkMove?3?6?$AA@ 100a08d0     engine.obj
 0002:000068e0       ??_C@_0P@EDPHNCIO@pfnSetOrigin?3?6?$AA@ 100a08e0     engine.obj
 0002:000068f0       ??_C@_0O@FCDGGCPD@speech?1saveme?$AA@ 100a08f0     engine.obj
 0002:00006900       ??_C@_0P@CLCNCHAP@speech?1grenade?$AA@ 100a0900     engine.obj
 0002:00006910       ??_C@_06HKDHJDBH@doors?1?$AA@ 100a0910     engine.obj
 0002:00006918       ??_C@_06PFGJLINJ@plats?1?$AA@ 100a0918     engine.obj
 0002:00006920       ??_C@_08LHOMCPMK@weapons?1?$AA@ 100a0920     engine.obj
 0002:0000692c       ??_C@_07EGAEKLE@player?1?$AA@ 100a092c     engine.obj
 0002:00006934       ??_C@_04PPONMOMN@pain?$AA@ 100a0934     engine.obj
 0002:0000693c       ??_C@_08IDHHOIKA@buttons?1?$AA@ 100a093c     engine.obj
 0002:00006948       ??_C@_04EJMNPOCH@ssay?$AA@ 100a0948     engine.obj
 0002:00006950       ??_C@_04FDONDKMF@asay?$AA@ 100a0950     engine.obj
 0002:00006958       ??_C@_0P@KBKKOHJG@pfnEmitSound?3?6?$AA@ 100a0958     engine.obj
 0002:00006968       ??_C@_0BG@NICKGEP@pfnEmitAmbientSound?3?6?$AA@ 100a0968     engine.obj
 0002:00006980       ??_C@_0BG@OMDOOMAB@pfnServerCommand?3?5?$CFs?6?$AA@ 100a0980     engine.obj
 0002:00006998       ??_C@_0BD@IICDOPIA@pfnServerExecute?3?6?$AA@ 100a0998     engine.obj
 0002:000069ac       ??_C@_0BF@OHNCKOKA@pfnClientCommand?$DN?$CFs?6?$AA@ 100a09ac     engine.obj
 0002:000069c4       ??_C@_0BA@INDGEJMD@pfnMessageEnd?3?6?$AA@ 100a09c4     engine.obj
 0002:000069d4       ??_C@_0CD@GJGIDNCH@?9?9?9?9?9?9?9?9?9MESSAGE_END?$CI?$CC?$CFs?$CC?$CJ?9?9?9?9?9?9@ 100a09d4     engine.obj
 0002:000069f8       ??_C@_0BC@HMIIHCNJ@pfnWriteByte?3?5?$CFd?6?$AA@ 100a09f8     engine.obj
 0002:00006a0c       ??_C@_0BA@HNKJDIIA@WRITE_BYTE?$CI?$CFd?$CJ?6?$AA@ 100a0a0c     engine.obj
 0002:00006a1c       ??_C@_0BA@CCCFKADK@WRITE_CHAR?$CI?$CFc?$CJ?6?$AA@ 100a0a1c     engine.obj
 0002:00006a2c       ??_C@_0BD@OFBLGGBA@pfnWriteShort?3?5?$CFd?6?$AA@ 100a0a2c     engine.obj
 0002:00006a40       ??_C@_0BB@EJGFHHPA@WRITE_SHORT?$CI?$CFd?$CJ?6?$AA@ 100a0a40     engine.obj
 0002:00006a54       ??_C@_0BC@MHHPEFFL@pfnWriteLong?3?5?$CFd?6?$AA@ 100a0a54     engine.obj
 0002:00006a68       ??_C@_0BA@MGFOAPAC@WRITE_LONG?$CI?$CFd?$CJ?6?$AA@ 100a0a68     engine.obj
 0002:00006a78       ??_C@_0BD@OFLKJEI@pfnWriteAngle?3?5?$CFf?6?$AA@ 100a0a78     engine.obj
 0002:00006a8c       ??_C@_0BE@EICLEHFH@WRITE_ANGLE?$CI?$CF0?43f?$CJ?6?$AA@ 100a0a8c     engine.obj
 0002:00006aa0       ??_C@_0BD@MNGLPBAC@pfnWriteCoord?3?5?$CFf?6?$AA@ 100a0aa0     engine.obj
 0002:00006ab4       ??_C@_0BE@GBJNKIHC@WRITE_COORD?$CI?$CF0?43f?$CJ?6?$AA@ 100a0ab4     engine.obj
 0002:00006ac8       ??_C@_0BE@CMIAEOO@pfnWriteString?3?5?$CFs?6?$AA@ 100a0ac8     engine.obj
 0002:00006adc       ??_C@_0BC@MIABJLKO@WRITE_STRING?$CI?$CFs?$CJ?6?$AA@ 100a0adc     engine.obj
 0002:00006af0       ??_C@_0BE@GDFJNPHP@pfnWriteEntity?3?5?$CFd?6?$AA@ 100a0af0     engine.obj
 0002:00006b04       ??_C@_0BC@HNDHJKOM@WRITE_ENTITY?$CI?$CFd?$CJ?6?$AA@ 100a0b04     engine.obj
 0002:00006b18       ??_C@_0BC@GNLLNDOE@pfnCVarRegister?3?6?$AA@ 100a0b18     engine.obj
 0002:00006b2c       ??_C@_0BL@DJCDEIOK@pfnPvAllocEntPrivateData?3?6?$AA@ 100a0b2c     engine.obj
 0002:00006b48       ??_C@_0BG@MANEJNLI@pfnPvEntPrivateData?3?6?$AA@ 100a0b48     engine.obj
 0002:00006b60       ??_C@_0BH@NJNHNMIC@Free?5ent?5provate?5data?3?$AA@ 100a0b60     engine.obj
 0002:00006b78       ??_C@_0BI@IPKMDOFB@pfnFreeEntPrivateData?3?6?$AA@ 100a0b78     engine.obj
 0002:00006b90       ??_C@_0BB@OKFMBGLM@pfnSzFromIndex?3?6?$AA@ 100a0b90     engine.obj
 0002:00006ba4       ??_C@_0BB@GPELADPB@pfnAllocString?3?6?$AA@ 100a0ba4     engine.obj
 0002:00006bb8       ??_C@_0BC@JANLOECK@pfnGetVarsOfEnt?3?6?$AA@ 100a0bb8     engine.obj
 0002:00006bcc       ??_C@_0BG@OLPNALKB@pfnFunctionFromName?3?6?$AA@ 100a0bcc     engine.obj
 0002:00006be4       ??_C@_0BF@EMDEOFFC@pfnNameForFunction?3?6?$AA@ 100a0be4     engine.obj
 0002:00006bfc       ??_C@_0BC@FEFMLFDJ@pfnClientPrintf?3?6?$AA@ 100a0bfc     engine.obj
 0002:00006c10       ??_C@_0BE@PCABPFEH@pfnServerPrint?3?5?$CFs?6?$AA@ 100a0c10     engine.obj
 0002:00006c24       ??_C@_0BA@DLAJMOKN@pfnCRC32_Init?3?6?$AA@ 100a0c24     engine.obj
 0002:00006c34       ??_C@_0BJ@DNIJMBEH@pfnCRC32_ProcessBuffer?3?6?$AA@ 100a0c34     engine.obj
 0002:00006c50       ??_C@_0BH@LDMNLHIN@pfnCRC32_ProcessByte?3?6?$AA@ 100a0c50     engine.obj
 0002:00006c68       ??_C@_0BB@DBDMIPJH@pfnCRC32_Final?3?6?$AA@ 100a0c68     engine.obj
 0002:00006c7c       ??_C@_0N@PIKILNCO@pfnSetView?3?6?$AA@ 100a0c7c     engine.obj
 0002:00006c8c       ??_C@_09EGAMPHIB@pfnTime?3?6?$AA@ 100a0c8c     engine.obj
 0002:00006c98       ??_C@_0BE@CAHJEGD@pfnCrosshairAngle?3?6?$AA@ 100a0c98     engine.obj
 0002:00006cac       ??_C@_0BP@PJCIBOAB@pfnLoadFileForMe?3?5filename?$DN?$CFs?6?$AA@ 100a0cac     engine.obj
 0002:00006ccc       ??_C@_0O@GCOJGILF@pfnFreeFile?3?6?$AA@ 100a0ccc     engine.obj
 0002:00006cdc       ??_C@_0BA@FEILCICN@pfnEndSection?3?6?$AA@ 100a0cdc     engine.obj
 0002:00006cec       ??_C@_0BF@BNCLEOLO@pfnCompareFileTime?3?6?$AA@ 100a0cec     engine.obj
 0002:00006d04       ??_C@_0BA@GCIEADBK@pfnGetGameDir?3?6?$AA@ 100a0d04     engine.obj
 0002:00006d14       ??_C@_0BL@MNHLECFC@pfnCvar_RegisterVariable?3?6?$AA@ 100a0d14     engine.obj
 0002:00006d30       ??_C@_0BG@JMKKIKGO@pfnFadeClientVolume?3?6?$AA@ 100a0d30     engine.obj
 0002:00006d48       ??_C@_0CD@KHNGCFAO@pfnSetClientMaxspeed?3?5edict?$DN?$CFx?5?$CF@ 100a0d48     engine.obj
 0002:00006d6c       ??_C@_0BG@HEGCNEAB@pfnCreateFakeClient?3?6?$AA@ 100a0d6c     engine.obj
 0002:00006d84       ??_C@_0BD@IJHJIPJC@pfnRunPlayerMove?3?6?$AA@ 100a0d84     engine.obj
 0002:00006d98       ??_C@_0BG@NFCCEMNO@pfnNumberOfEntities?3?6?$AA@ 100a0d98     engine.obj
 0002:00006db0       ??_C@_0BG@GLBJEDM@pfnGetInfoKeyBuffer?3?6?$AA@ 100a0db0     engine.obj
 0002:00006dc8       ??_C@_0BI@ONJCBFIK@pfnInfoKeyValue?3?5?$CFs?5?$CFs?6?$AA@ 100a0dc8     engine.obj
 0002:00006de0       ??_C@_0BH@MAPKFPG@pfnSetKeyValue?3?5?$CFs?5?$CFs?6?$AA@ 100a0de0     engine.obj
 0002:00006df8       ??_C@_04MEMAJGDJ@name?$AA@ 100a0df8     engine.obj
 0002:00006e00       ??_C@_0BN@DFGKGLGJ@pfnSetClientKeyValue?3?5?$CFs?5?$CFs?6?$AA@ 100a0e00     engine.obj
 0002:00006e20       ??_C@_0BA@GDPNPDKK@pfnIsMapValid?3?6?$AA@ 100a0e20     engine.obj
 0002:00006e30       ??_C@_0BB@PPIGFOHG@pfnStaticDecal?3?6?$AA@ 100a0e30     engine.obj
 0002:00006e44       ??_C@_0BI@KKMAMLGE@pfnPrecacheGeneric?3?5?$CFs?6?$AA@ 100a0e44     engine.obj
 0002:00006e5c       ??_C@_0BI@OHJMEAGF@pfnGetPlayerUserId?3?5?$CFx?6?$AA@ 100a0e5c     engine.obj
 0002:00006e74       ??_C@_03EKLHOCPI@BOT?$AA@  100a0e74     engine.obj
 0002:00006e78       ??_C@_0BD@DOJGMDAI@pfnBuildSoundMsg?3?6?$AA@ 100a0e78     engine.obj
 0002:00006e8c       ??_C@_0BH@DJPPELNB@pfnIsDedicatedServer?3?6?$AA@ 100a0e8c     engine.obj
 0002:00006ea4       ??_C@_0BH@BNDDNACB@pfnCVarGetPointer?3?5?$CFs?6?$AA@ 100a0ea4     engine.obj
 0002:00006ebc       ??_C@_0BH@MKBFOLGP@pfnGetPlayerWONId?3?5?$CFx?6?$AA@ 100a0ebc     engine.obj
 0002:00006ed4       ??_C@_0BE@JCMCAHHC@pfnInfo_RemoveKey?3?6?$AA@ 100a0ed4     engine.obj
 0002:00006ee8       ??_C@_0BI@PHLGLJGB@pfnGetPhysicsKeyValue?3?6?$AA@ 100a0ee8     engine.obj
 0002:00006f00       ??_C@_0BI@KOKLKPDG@pfnSetPhysicsKeyValue?3?6?$AA@ 100a0f00     engine.obj
 0002:00006f18       ??_C@_0BK@LMENNMOE@pfnGetPhysicsInfoString?3?6?$AA@ 100a0f18     engine.obj
 0002:00006f34       ??_C@_0BD@FCDOCJAN@pfnPrecacheEvent?3?6?$AA@ 100a0f34     engine.obj
 0002:00006f48       ??_C@_0BD@HDALKKIE@pfnPlaybackEvent?3?6?$AA@ 100a0f48     engine.obj
 0002:00006f5c       ??_C@_0P@CDCGJHCN@pfnSetFatPVS?3?6?$AA@ 100a0f5c     engine.obj
 0002:00006f6c       ??_C@_0P@PBOGNMLP@pfnSetFatPAS?3?6?$AA@ 100a0f6c     engine.obj
 0002:00006f7c       ??_C@_0BG@BFJLKIFH@pfnGetCurrentPlayer?3?6?$AA@ 100a0f7c     engine.obj
 0002:00006f94       ??_C@_0BD@LKCHADOB@pfnCanSkipPlayer?3?6?$AA@ 100a0f94     engine.obj
 0002:00006fa8       ??_C@_0BK@HMINBBDO@pfnDeltaSetFieldByIndex?3?6?$AA@ 100a0fa8     engine.obj
 0002:00006fc4       ??_C@_0BC@MCEGBBOA@pfnSetGroupMask?3?6?$AA@ 100a0fc4     engine.obj
 0002:00006fd8       ??_C@_0BN@GBEPMELI@pfnCreateInstancedBaseline?3?6?$AA@ 100a0fd8     engine.obj
 0002:00006ff8       ??_C@_0BE@DNDKEAOJ@pfnCvar_DirectSet?3?6?$AA@ 100a0ff8     engine.obj
 0002:0000700c       ??_C@_0BF@JBNELCCP@pfnForceUnmodified?3?6?$AA@ 100a100c     engine.obj
 0002:00007024       ??_C@_0BE@EPBOFPEA@pfnGetPlayerStats?3?6?$AA@ 100a1024     engine.obj
 0002:00007038       ??_C@_04MKJBHFOG@say?5?$AA@ 100a1038     engine.obj
 0002:00007040       ??_C@_09LLOBHEEN@say_team?5?$AA@ 100a1040     engine.obj
 0002:0000704c       ?g_iDefaultMaxPopSize@CGA@@2HB 100a104c     ga.obj
 0002:00007050       ?g_fCrossOverRate@CGA@@2MB 100a1050     ga.obj
 0002:00007054       ?g_fMutateRate@CGA@@2MB    100a1054     ga.obj
 0002:00007058       ?g_fMaxPerturbation@CGA@@2MB 100a1058     ga.obj
 0002:0000705c       ??_C@_09OFDBGEJI@?$CFdp?$CFs?4rce?$AA@ 100a105c     ga.obj
 0002:00007068       ??_C@_09GBHLGKGC@?$CFdt?$CFs?4rce?$AA@ 100a1068     ga.obj
 0002:00007074       __real@3f333333            100a1074     ga.obj
 0002:00007078       ??_C@_09CNJINBGN@classname?$AA@ 100a1078     globals.obj
 0002:00007084       ??_C@_0BD@JCKLIGFF@Reading?5Bot?5Folder?$AA@ 100a1084     globals.obj
 0002:00007098       ??_C@_0BE@DCBJKLHF@?$CFs?1rcbot_folder?4ini?$AA@ 100a1098     globals.obj
 0002:000070ac       ??_C@_0BL@MAKHKEP@Found?5Bot?5Folder?5file?5?3?5?$CFs?$AA@ 100a10ac     globals.obj
 0002:000070c8       ??_C@_0DL@BJOPJKHG@Bot?5Folder?5File?5not?5found?$CB?5using@ 100a10c8     globals.obj
 0002:00007104       ??_C@_08LLHIJDNI@civilian?$AA@ 100a1104     globals.obj
 0002:00007110       ??_C@_05GHDFNNLC@scout?$AA@ 100a1110     globals.obj
 0002:00007118       ??_C@_06CBOFCDAC@sniper?$AA@ 100a1118     globals.obj
 0002:00007120       ??_C@_07MDEDDOHD@soldier?$AA@ 100a1120     globals.obj
 0002:00007128       ??_C@_07MDNNNJGN@demoman?$AA@ 100a1128     globals.obj
 0002:00007130       ??_C@_05OLFOEIAK@hwguy?$AA@ 100a1130     globals.obj
 0002:00007138       ??_C@_04GDCIMMGN@pyro?$AA@ 100a1138     globals.obj
 0002:00007140       ??_C@_03NDNIFHO@spy?$AA@   100a1140     globals.obj
 0002:00007144       ??_C@_08NCGGGNGI@engineer?$AA@ 100a1144     globals.obj
 0002:00007150       ??_C@_0CL@LLACKKMM@pfnMessageBegin?3?5edict?$DN?$CFx?5dest?$DN?$CF@ 100a1150     globals.obj
 0002:0000717c       ??_C@_0CL@HDHFKGNP@?9?9?9?9?9?9?5MESSAGE_BEGIN?$CI?$CC?$CFs?$CC?$CJ?5?3?5?$CC?$CFs@ 100a117c     globals.obj
 0002:000071a8       ??_C@_0DI@NJAOBK@?9?9?9?9?9?9?5MESSAGE_BEGIN?$CI?$CC?$CFs?$CC?$CJ?5?3?5?$CIMS@ 100a11a8     globals.obj
 0002:000071e0       ??_C@_0M@BHMPHHEP@mp_teamplay?$AA@ 100a11e0     globals.obj
 0002:000071ec       ??_C@_0O@KEIPNCFM@mp_theonemode?$AA@ 100a11ec     globals.obj
 0002:000071fc       ??_C@_0BP@FOELFGJP@No?5waypoints?5for?5auto?9build?$CB?$CB?$CB?$AA@ 100a11fc     globals.obj
 0002:0000721c       ??_C@_0P@HPKDFFIA@team_infportal?$AA@ 100a121c     globals.obj
 0002:0000722c       ??_C@_0CI@HJPFCLC@No?5marine?5spawn?5found?5for?5auto?9b@ 100a122c     globals.obj
 0002:00007254       ??_C@_0M@JHDJMJBG@cr_civilian?$AA@ 100a1254     globals.obj
 0002:00007260       ??_C@_08GOPINKGN@cr_scout?$AA@ 100a1260     globals.obj
 0002:0000726c       ??_C@_09DHIACBEA@cr_sniper?$AA@ 100a126c     globals.obj
 0002:00007278       ??_C@_0L@FLIHHLMN@cr_soldier?$AA@ 100a1278     globals.obj
 0002:00007284       ??_C@_0L@FLBJJMND@cr_demoman?$AA@ 100a1284     globals.obj
 0002:00007290       ??_C@_08BPNKBFKF@cr_medic?$AA@ 100a1290     globals.obj
 0002:0000729c       ??_C@_08OCJDEPNF@cr_hwguy?$AA@ 100a129c     globals.obj
 0002:000072a8       ??_C@_07BIGDDIGB@cr_pyro?$AA@ 100a12a8     globals.obj
 0002:000072b0       ??_C@_06PHOCCHLE@cr_spy?$AA@ 100a12b0     globals.obj
 0002:000072b8       ??_C@_0M@POCHDHKG@cr_engineer?$AA@ 100a12b8     globals.obj
 0002:000072c4       ??_C@_06ECGAGODA@master?$AA@ 100a12c4     globals.obj
 0002:000072cc       ??_C@_07PKABDNAL@team_no?$AA@ 100a12cc     globals.obj
 0002:000072d4       ??_C@_07JFEGHGKO@axhitme?$AA@ 100a12d4     globals.obj
 0002:000072dc       ??_C@_0BF@MIANAGKF@Cap?5point?5validated?6?$AA@ 100a12dc     globals.obj
 0002:000072f4       ??_C@_05LJOGIGOI@r_i_g?$AA@ 100a12f4     globals.obj
 0002:000072fc       ??_C@_05HCIEPLPC@i_t_g?$AA@ 100a12fc     globals.obj
 0002:00007304       ??_C@_0M@OONGNINE@info_tfgoal?$AA@ 100a1304     globals.obj
 0002:00007310       ??_C@_0BF@KLOKKINF@Capture?5point?5found?6?$AA@ 100a1310     globals.obj
 0002:00007328       ??_C@_0N@PGABGPCC@ammo_medikit?$AA@ 100a1328     globals.obj
 0002:00007338       ??_C@_0N@CIBIOIEN@ammo_detpack?$AA@ 100a1338     globals.obj
 0002:00007348       ??_C@_0BA@HDGJOFD@maxammo_medikit?$AA@ 100a1348     globals.obj
 0002:00007358       ??_C@_0BA@NJCPBJDM@maxammo_detpack?$AA@ 100a1358     globals.obj
 0002:00007368       ??_C@_0P@DIJBDOLA@maxammo_shells?$AA@ 100a1368     globals.obj
 0002:00007378       ??_C@_0O@LFCEJGDG@maxammo_nails?$AA@ 100a1378     globals.obj
 0002:00007388       ??_C@_0BA@NKHIFAJF@maxammo_rockets?$AA@ 100a1388     globals.obj
 0002:00007398       ??_C@_0O@MLOENDBK@maxammo_cells?$AA@ 100a1398     globals.obj
 0002:000073a8       ??_C@_0N@DICNMOPP@team1_allies?$AA@ 100a13a8     globals.obj
 0002:000073b8       ??_C@_0N@BKAPCDK@team2_allies?$AA@ 100a13b8     globals.obj
 0002:000073c8       ??_C@_0N@BGNLOGHJ@team3_allies?$AA@ 100a13c8     globals.obj
 0002:000073d8       ??_C@_0N@HCLKILLA@team4_allies?$AA@ 100a13d8     globals.obj
 0002:000073e8       ??_C@_0O@CJOFBDCD@info_tfdetect?$AA@ 100a13e8     globals.obj
 0002:000073f8       ??_C@_03JBGBEIGK@mdl?$AA@  100a13f8     globals.obj
 0002:000073fc       ??_C@_07JBCFHNDN@goal_no?$AA@ 100a13fc     globals.obj
 0002:00007404       ??_C@_08CDAAFPNG@group_no?$AA@ 100a1404     globals.obj
 0002:00007410       ??_C@_0BC@NLDMIPJK@info_tfgoal_timer?$AA@ 100a1410     globals.obj
 0002:00007424       ??_C@_0L@GKOHIKGL@armorvalue?$AA@ 100a1424     globals.obj
 0002:00007430       ??_C@_06KJINILIP@health?$AA@ 100a1430     globals.obj
 0002:00007438       ??_C@_0L@MFBMFFLO@ammo_nails?$AA@ 100a1438     globals.obj
 0002:00007444       ??_C@_0N@CLEPKBOE@ammo_rockets?$AA@ 100a1444     globals.obj
 0002:00007454       ??_C@_0M@NLICANGB@ammo_shells?$AA@ 100a1454     globals.obj
 0002:00007460       ??_C@_0L@LLNMBAJC@ammo_cells?$AA@ 100a1460     globals.obj
 0002:0000746c       ??_C@_08KJLLLIGK@dustbowl?$AA@ 100a146c     globals.obj
 0002:00007478       ??_C@_06KEFEHKD@avanti?$AA@ 100a1478     globals.obj
 0002:00007480       ??_C@_06MPHOHPO@hunted?$AA@ 100a1480     globals.obj
 0002:00007488       ??_C@_07NDPHACAO@warpath?$AA@ 100a1488     globals.obj
 0002:00007490       ??_C@_09GHJBAEDB@epicenter?$AA@ 100a1490     globals.obj
 0002:0000749c       ??_C@_07BIEIBJPG@ravelin?$AA@ 100a149c     globals.obj
 0002:000074a4       ??_C@_07EAIHFMBM@flagrun?$AA@ 100a14a4     globals.obj
 0002:000074ac       ??_C@_03EDDOMBPJ@cz2?$AA@  100a14ac     globals.obj
 0002:000074b0       ??_C@_03EHMKAOMA@tm_?$AA@  100a14b0     globals.obj
 0002:000074b4       ??_C@_0BI@OKNOKJPL@sprites?1zerogxplode?4spr?$AA@ 100a14b4     globals.obj
 0002:000074cc       ??_C@_0BE@DOGFHABJ@sprites?1lgtning?4spr?$AA@ 100a14cc     globals.obj
 0002:000074e0       ??_C@_03IJIALFII@co_?$AA@  100a14e0     globals.obj
 0002:000074e4       ??_C@_0BG@DLBLMPMH@map_configs?2?$CFs?2?$CFs?4cfg?$AA@ 100a14e4     globals.obj
 0002:000074fc       ??_C@_0CH@JIGGCBJO@No?5map?5specific?5config?5file?5foun@ 100a14fc     globals.obj
 0002:00007524       ??_C@_0CC@DICGOIG@map?5specific?5config?5file?5found?4?4@ 100a1524     globals.obj
 0002:00007548       ??_C@_01KMDKNFGN@?1?$AA@   100a1548     globals.obj
 0002:0000754c       ??_C@_0CG@LCDJPGOL@Error?5determining?5MOD?5directory?5@ 100a154c     globals.obj
 0002:00007574       ??_C@_0P@IJGBGNOD@?2models?2player?$AA@ 100a1574     globals.obj
 0002:00007584       ??_C@_0BE@NNECLBLA@valve?2models?2player?$AA@ 100a1584     globals.obj
 0002:00007598       ??_C@_02FMMEOLBI@?1?$CK?$AA@ 100a1598     globals.obj
 0002:0000759c       ??_C@_01LFCBOECM@?4?$AA@   100a159c     globals.obj
 0002:000075a0       ??_C@_02DJGKEECL@?4?4?$AA@ 100a15a0     globals.obj
 0002:000075a4       ??_C@_04IPGPBAO@?4mdl?$AA@ 100a15a4     globals.obj
 0002:000075ac       ??_C@_0P@ICPGJFOI@bot_config?4ini?$AA@ 100a15ac     globals.obj
 0002:000075bc       ??_C@_0CI@NMCOLHON@Error?5with?5config?0?5unknown?5comma@ 100a15bc     globals.obj
 0002:000075e4       ??_C@_0CL@JOGNJMOO@Error?3?5could?5not?5find?5bot?5config@ 100a15e4     globals.obj
 0002:00007610       ??_C@_0L@BMMALODJ@team?$CFd?4rld?$AA@ 100a1610     globals.obj
 0002:0000761c       ??_C@_0M@EEMDIHBH@tsweaps?4rld?$AA@ 100a161c     globals.obj
 0002:00007628       ??_C@_0M@LBMBPFFB@combat0?4rld?$AA@ 100a1628     globals.obj
 0002:00007634       ??_C@_0M@HKJNCGPE@combat1?4rld?$AA@ 100a1634     globals.obj
 0002:00007640       ??_C@_0CL@OMBEMMMA@Team?8s?5learned?5data?5for?5?$CFs?5heade@ 100a1640     globals.obj
 0002:0000766c       ??_C@_08DPKAMPGH@18?357?334?$AA@ 100a166c     globals.obj
 0002:00007678       ??_C@_0BC@NBLLILIP@RCBOT?5BUILD?5?$CFs?9?$CFs?$AA@ 100a1678     globals.obj
 0002:0000768c       ??_C@_0BE@OGLCMHPI@things_to_build?4ini?$AA@ 100a168c     globals.obj
 0002:000076a0       ??_C@_04JOEHAHOH@hive?$AA@ 100a16a0     globals.obj
 0002:000076a8       ??_C@_0O@EFHLHJAJ@alienrestower?$AA@ 100a16a8     globals.obj
 0002:000076b8       ??_C@_03BHEEIFFN@def?$AA@  100a16b8     globals.obj
 0002:000076bc       ??_C@_03CNBJFNFA@mov?$AA@  100a16bc     globals.obj
 0002:000076c0       ??_C@_03BCFDGAHD@sen?$AA@  100a16c0     globals.obj
 0002:000076c4       ??_C@_0BE@PBINLCLP@offs?$DN?$CFd?0priority?$DN?$CFd?$AA@ 100a16c4     globals.obj
 0002:000076d8       ??_C@_0BE@GAKJKPGO@defs?$DN?$CFd?0priority?$DN?$CFd?$AA@ 100a16d8     globals.obj
 0002:000076ec       ??_C@_0BE@MLKDAFPG@movs?$DN?$CFd?0priority?$DN?$CFd?$AA@ 100a16ec     globals.obj
 0002:00007700       ??_C@_0BE@HGHKAMNE@sens?$DN?$CFd?0priority?$DN?$CFd?$AA@ 100a1700     globals.obj
 0002:00007714       ??_C@_0DA@HEFHHGFP@Error?3?5could?5not?5find?5NS?5aliens?5@ 100a1714     globals.obj
 0002:00007744       ??_C@_0N@NHDNMIGE@bot_chat?4ini?$AA@ 100a1744     globals.obj
 0002:00007754       ??_C@_0CN@DANHBFAK@Warning?5?3?5Could?5not?5find?5bot?5cha@ 100a1754     globals.obj
 0002:00007784       ??_C@_0BC@IIJJOEDH@?$FLthanks?9friendly?$FN?$AA@ 100a1784     globals.obj
 0002:00007798       ??_C@_0BB@ECBACKCI@?$FLthanks?9neutral?$FN?$AA@ 100a1798     globals.obj
 0002:000077ac       ??_C@_0BE@LEAIAMGO@?$FLthanks?9unfriendly?$FN?$AA@ 100a17ac     globals.obj
 0002:000077c0       ??_C@_0BF@GDFMPHIF@?$FLgreetings?9friendly?$FN?$AA@ 100a17c0     globals.obj
 0002:000077d8       ??_C@_0BE@IJDFKHON@?$FLgreetings?9neutral?$FN?$AA@ 100a17d8     globals.obj
 0002:000077ec       ??_C@_0BH@OGEFGKEP@?$FLgreetings?9unfriendly?$FN?$AA@ 100a17ec     globals.obj
 0002:00007804       ??_C@_0BB@NNOJDOHO@?$FLkills?9friendly?$FN?$AA@ 100a1804     globals.obj
 0002:00007818       ??_C@_0BA@DHOMEMJP@?$FLkills?9neutral?$FN?$AA@ 100a1818     globals.obj
 0002:00007828       ??_C@_0BD@PDLFJGJI@?$FLkills?9unfriendly?$FN?$AA@ 100a1828     globals.obj
 0002:0000783c       ??_C@_0BC@GICEGBGM@?$FLkilled?9friendly?$FN?$AA@ 100a183c     globals.obj
 0002:00007850       ??_C@_0BB@CKHMGPCC@?$FLkilled?9neutral?$FN?$AA@ 100a1850     globals.obj
 0002:00007864       ??_C@_0BE@HAJFBPOD@?$FLkilled?9unfriendly?$FN?$AA@ 100a1864     globals.obj
 0002:00007878       ??_C@_0BB@LNDODPPB@?$FLlaugh?9friendly?$FN?$AA@ 100a1878     globals.obj
 0002:0000788c       ??_C@_0BA@FAGDBGAA@?$FLlaugh?9neutral?$FN?$AA@ 100a188c     globals.obj
 0002:0000789c       ??_C@_0BD@DIKJECFN@?$FLlaugh?9unfriendly?$FN?$AA@ 100a189c     globals.obj
 0002:000078b0       ??_C@_0BB@LPGCJHFE@?$FLleave?9friendly?$FN?$AA@ 100a18b0     globals.obj
 0002:000078c4       ??_C@_0BA@GBFILJMD@?$FLleave?9neutral?$FN?$AA@ 100a18c4     globals.obj
 0002:000078d4       ??_C@_0BD@DDNECDHH@?$FLleave?9unfriendly?$FN?$AA@ 100a18d4     globals.obj
 0002:000078e8       ??_C@_06DAPBHALK@?$FLidle?$FN?$AA@ 100a18e8     globals.obj
 0002:000078f0       ??_C@_06NMCAOLDE@?$FLhelp?$FN?$AA@ 100a18f0     globals.obj
 0002:000078f8       __real@40c00000            100a18f8     globals.obj
 0002:000078fc       ??_C@_0DG@KNGMHPH@Error?5?3?5RemoveNameTags?$CI?$CJ?3?5Input?5@ 100a18fc     megahal.obj
 0002:00007934       ??_C@_0DG@EFOJODLB@HAL?3?5BotHALGenerateReply?$CI?$CJ?5unabl@ 100a1934     megahal.obj
 0002:0000796c       ??_C@_0DD@FLCFLBOB@HAL?3?5HAL_MakeOutput?$CI?$CJ?5unable?5to?5@ 100a196c     megahal.obj
 0002:000079a0       ??_C@_0DO@KENNDLGN@HAL?3?5HAL_AddWord?$CI?$CJ?5unable?5to?5rea@ 100a19a0     megahal.obj
 0002:000079e0       ??_C@_0EH@CKPAEBBG@HAL?3?5HAL_AddWord?$CI?$CJ?5unable?5to?5rea@ 100a19e0     megahal.obj
 0002:00007a28       ??_C@_0DA@DLIPMFAO@HAL?3?5HAL_AddWord?$CI?$CJ?5unable?5to?5all@ 100a1a28     megahal.obj
 0002:00007a58       ??_C@_07LAJDKAOF@?$DMERROR?$DO?$AA@ 100a1a58     megahal.obj
 0002:00007a60       ??_C@_05DHOLJIGD@?$DMFIN?$DO?$AA@ 100a1a60     megahal.obj
 0002:00007a68       ??_C@_0DI@JPNLHOHE@HAL?3?5HAL_NewDictionary?$CI?$CJ?5unable?5@ 100a1a68     megahal.obj
 0002:00007aa0       ??_C@_0DD@EAFOCAN@HAL?3?5HAL_LoadDictionary?$CI?$CJ?5unable@ 100a1aa0     megahal.obj
 0002:00007ad4       ??_C@_0CM@GIHPOMPN@HAL?3?5HAL_NewNode?$CI?$CJ?5unable?5to?5all@ 100a1ad4     megahal.obj
 0002:00007b00       ??_C@_0CO@INIABDCF@HAL?3?5HAL_NewModel?$CI?$CJ?5unable?5to?5al@ 100a1b00     megahal.obj
 0002:00007b30       ??_C@_0DG@OHFDLNPC@HAL?3?5HAL_NewModel?$CI?$CJ?5unable?5to?5al@ 100a1b30     megahal.obj
 0002:00007b68       ??_C@_0DB@KNFPPOIO@HAL?3?5HAL_AddNode?$CI?$CJ?5unable?5to?5rea@ 100a1b68     megahal.obj
 0002:00007b9c       ??_C@_0DA@PLCLGLBM@HAL?3?5HAL_LoadTree?$CI?$CJ?5unable?5to?5al@ 100a1b9c     megahal.obj
 0002:00007bcc       ??_C@_0DB@IDDLPLLH@HAL_MakeWords?$CI?$CJ?5unable?5to?5reallo@ 100a1bcc     megahal.obj
 0002:00007c00       ??_C@_0ED@JCPCFOKB@HAL?3?5BotHALBuildReplyDictionary?$CI@ 100a1c00     megahal.obj
 0002:00007c44       ??_C@_0CM@DCIKGHCP@HAL?3?5HAL_NewSwap?$CI?$CJ?5unable?5to?5all@ 100a1c44     megahal.obj
 0002:00007c70       ??_C@_0DC@JMEJBPIA@HAL?3?5HAL_AddSwap?$CI?$CJ?5unable?5to?5all@ 100a1c70     megahal.obj
 0002:00007ca4       ??_C@_0DA@DEFIPNA@HAL?3?5HAL_AddSwap?$CI?$CJ?5unable?5to?5all@ 100a1ca4     megahal.obj
 0002:00007cd4       ??_C@_0CO@IDHKFDGM@HAL?3?5HAL_AddSwap?$CI?$CJ?5unable?5to?5rea@ 100a1cd4     megahal.obj
 0002:00007d04       ??_C@_0CM@KPGCGJNG@HAL?3?5HAL_AddSwap?$CI?$CJ?5unable?5to?5rea@ 100a1d04     megahal.obj
 0002:00007d30       ??_C@_01GPOEFGEJ@?7?$AA@   100a1d30     megahal.obj
 0002:00007d34       ??_C@_03BAINJNNO@?7?6?$CD?$AA@ 100a1d34     megahal.obj
 0002:00007d38       ??_C@_0L@EHICAKP@?$CFd_hal?4brn?$AA@ 100a1d38     megahal.obj
 0002:00007d44       ??_C@_0L@BKBIDNIG@?$CFd_hal?4ban?$AA@ 100a1d44     megahal.obj
 0002:00007d50       ??_C@_0L@PBKCMBD@?$CFd_hal?4aux?$AA@ 100a1d50     megahal.obj
 0002:00007d5c       ??_C@_0L@DOFHONGB@?$CFd_hal?4swp?$AA@ 100a1d5c     megahal.obj
 0002:00007d68       ??_C@_08HBHNGFGB@RCBOTHAL?$AA@ 100a1d68     megahal.obj
 0002:00007d74       ??_C@_0CE@IGHCHGME@bot?5profile?5?$CI?$CFd?$CJ?5HAL?5brain?5damag@ 100a1d74     megahal.obj
 0002:00007d98       ??_C@_0CK@DKOPANEI@inferring?5a?5new?5HAL?5brain?5to?5pro@ 100a1d98     megahal.obj
 0002:00007dc8       ??_C@_0FM@JOEJAKML@PrepareHALBrainForPersonality?$CI?$CJ?3@ 100a1dc8     megahal.obj
 0002:00007e28       ??_C@_0FH@HCAOPDCM@LoadHALBrainForPersonality?$CI?$CJ?3?5?$CFs@ 100a1e28     megahal.obj
 0002:00007e80       ??_C@_0DG@HHHICAPJ@LoadHALBrainForPersonality?$CI?$CJ?3?5?$CFs@ 100a1e80     megahal.obj
 0002:00007eb8       ??_C@_0CJ@PPBAGOFI@damanged?5bot?5file?0?5delete?5?$CFs?1?$CFd?4@ 100a1eb8     megahal.obj
 0002:00007ee4       ??_C@_0BN@MDGBPBLB@HAL?5?3?5restoring?5brain?5to?5?$CFs?6?$AA@ 100a1ee4     megahal.obj
 0002:00007f04       ??_C@_0L@HBAKCIOM@?$CFd_hal?4trn?$AA@ 100a1f04     megahal.obj
 0002:00007f10       ??_C@_0CN@BOOMBPPG@Unable?5to?5save?5profile?5?$CFd?8s?5HAL?5@ 100a1f10     megahal.obj
 0002:00007f44       ??_7ITransfer@@6B@         100a1f44     perceptron.obj
 0002:00007f4c       ??_7CSigmoidTransfer@@6B@  100a1f4c     perceptron.obj
 0002:00007f50       ??_C@_04BOEIMNEG@5?313?$AA@ 100a1f50     rcbot_meta_api.obj
 0002:00007f58       ??_C@_0BE@MLKFMDCF@RCBot?5For?5Half?9Life?$AA@ 100a1f58     rcbot_meta_api.obj
 0002:00007f6c       ??_C@_0BN@DAAFEMFN@http?3?1?1rcbot?4bots?9united?4com?$AA@ 100a1f6c     rcbot_meta_api.obj
 0002:00007f8c       ??_C@_03NPAMDOEC@ios?$AA@  100a1f8c     rcbot_meta_api.obj
 0002:00007f90       ??_C@_02EGOFOKPC@ns?$AA@   100a1f90     rcbot_meta_api.obj
 0002:00007f94       ??_C@_03HMMKAPCM@nsp?$AA@  100a1f94     rcbot_meta_api.obj
 0002:00007f98       ??_C@_02GPIOAHGI@mp?$AA@   100a1f98     rcbot_meta_api.obj
 0002:00007f9c       ??_C@_02PKJNKOBG@TS?$AA@   100a1f9c     rcbot_meta_api.obj
 0002:00007fa0       ??_C@_02IPDCJINO@hl?$AA@   100a1fa0     rcbot_meta_api.obj
 0002:00007fa4       ??_C@_0L@FLIKLMPO@BumperCars?$AA@ 100a1fa4     rcbot_meta_api.obj
 0002:00007fb0       ??_C@_03GECACAKA@dmc?$AA@  100a1fb0     rcbot_meta_api.obj
 0002:00007fb4       ??_C@_03LIGMGJPM@rc2?$AA@  100a1fb4     rcbot_meta_api.obj
 0002:00007fb8       ??_C@_02BJBLKCLH@rc?$AA@   100a1fb8     rcbot_meta_api.obj
 0002:00007fbc       ??_C@_0M@NICGDPEA@RockCrowbar?$AA@ 100a1fbc     rcbot_meta_api.obj
 0002:00007fc8       ??_C@_06HJHJCKIO@server?$AA@ 100a1fc8     rcbot_meta_api.obj
 0002:00007fd0       ??_C@_08IAPEJOBN@svencoop?$AA@ 100a1fd0     rcbot_meta_api.obj
 0002:00007fdc       ??_C@_05OBCCNMG@valve?$AA@ 100a1fdc     rcbot_meta_api.obj
 0002:00007fe4       ??_C@_07PJLNPHHO@hlrally?$AA@ 100a1fe4     rcbot_meta_api.obj
 0002:00007fec       ??_C@_07BALOLCKK@cstrike?$AA@ 100a1fec     rcbot_meta_api.obj
 0002:00007ff4       ??_C@_03DIGMJINO@tfc?$AA@  100a1ff4     rcbot_meta_api.obj
 0002:00007ff8       ??_C@_08IDJPEOFJ@rspecies?$AA@ 100a1ff8     rcbot_meta_api.obj
 0002:00008004       ??_C@_02GBFBMEMD@bg?$AA@   100a2004     rcbot_meta_api.obj
 0002:00008008       ??_C@_0DK@HLPKPALM@?$CFs?3?5meta?9interface?5version?5misma@ 100a2008     rcbot_meta_api.obj
 0002:00008044       ??_C@_05NFGPCJDJ@?$CFd?3?$CFd?$AA@ 100a2044     rcbot_meta_api.obj
 0002:0000804c       ??_C@_0DL@EEABPDMD@metamod?5version?5is?5too?5old?5for?5t@ 100a204c     rcbot_meta_api.obj
 0002:00008088       ??_C@_0FN@JPGLODLK@metamod?5version?5is?5incompatible?5@ 100a2088     rcbot_meta_api.obj
 0002:000080e8       ??_C@_0DH@DJKEFCHH@?$CFs?3?5plugin?5NOT?5attaching?5?$CIcan?8t?5@ 100a20e8     rcbot_meta_api.obj
 0002:00008120       ??_C@_0FL@DAKILOOG@Err?3?5Received?5NULL?5pFunctionTabl@ 100a2120     rcbot_meta_api.obj
 0002:0000817c       ??_C@_0BF@KGCDJGLD@?$CFs?3?5plugin?5attaching?$AA@ 100a217c     rcbot_meta_api.obj
 0002:00008194       ??_C@_0DJ@JCGBLKJH@?$CFs?3?5plugin?5NOT?5detaching?5?$CIcan?8t?5@ 100a2194     rcbot_meta_api.obj
 0002:000081d0       ??_C@_06IPLPBDLI@?$CF0?44f?0?$AA@ 100a21d0     som.obj
 0002:000081d8       ??_C@_0O@JAFILLLK@?$CFc?$CITEAM?$CJ?5?$CFs?3?5?$AA@ 100a21d8     util.obj
 0002:000081e8       ??_C@_06LNKFKAKM@?$CFc?$CFs?3?5?$AA@ 100a21e8     util.obj
 0002:000081f0       ??_C@_0BB@NOCMLBPF@Num?5clients?5?$DN?5?$CFd?$AA@ 100a21f0     util.obj
 0002:00008204       ??_C@_04ENCCDIHF@merc?$AA@ 100a2204     util.obj
 0002:0000820c       ??_C@_04LAKBAHA@seal?$AA@  100a220c     util.obj
 0002:00008214       ??_C@_0N@LNAOKNPF@func_nobuild?$AA@ 100a2214     util.obj
 0002:00008224       ??_C@_0BF@NBCCBNJB@NULL?5Ent?5in?5Create?$CB?6?$AA@ 100a2224     util.obj
 0002:0000823c       ??_C@_0L@GLNLCFAK@tsweaponid?$AA@ 100a223c     util.obj
 0002:00008248       ??_C@_0L@GIMKOJHC@wextraclip?$AA@ 100a2248     util.obj
 0002:00008254       ??_C@_03HPLEMDKK@200?$AA@  100a2254     util.obj
 0002:00008258       ??_C@_09KHAJGPHL@wduration?$AA@ 100a2258     util.obj
 0002:00008264       ??_C@_02PGHGPEOM@?91?$AA@  100a2264     util.obj
 0002:00008268       ??_C@_0L@HLIKNEFC@spawnflags?$AA@ 100a2268     util.obj
 0002:00008274       ??_C@_0L@JDEJPMGE@1073741824?$AA@ 100a2274     util.obj
 0002:00008280       ??_C@_01KICIPPFI@?2?$AA@   100a2280     util.obj
 0002:00008284       ??_C@_08JFIIMIKD@play?5?$CFs?6?$AA@ 100a2284     util.obj
 0002:00008290       ??_C@_0FO@LDBAODGC@Welcome?5?$CFn?6Use?5the?5command?5?$CCrcbo@ 100a2290     util.obj
 0002:000082f0       ??_C@_0DP@IEAJEFIP@Welcome?5?$CFn?6Server?5running?5RCBot?6@ 100a22f0     util.obj
 0002:00008330       ??_C@_0GD@MJEHGAEP@You?5can?5use?5the?5squad?5menu?6?$CI?$CCrcb@ 100a2330     util.obj
 0002:00008398       ??_C@_0GL@BIKKDPHA@You?5can?5gain?5access?5to?5rcbot?5com@ 100a2398     util.obj
 0002:00008408       ??_C@_0GF@OAEIOCBA@CPU?5Usage?5of?5the?5bot?5can?5be?5decr@ 100a2408     util.obj
 0002:00008470       ??_C@_0HC@FDGPGLMC@There?5are?5no?5waypoints?5on?5this?5m@ 100a2470     util.obj
 0002:000084e8       ??_C@_0HC@BPKHJLBC@You?5can?5create?5a?5squad?5of?5bots?5a@ 100a24e8     util.obj
 0002:00008560       ??_C@_0GN@EJFOPICD@You?5are?5now?5commander?6Select?5mar@ 100a2560     util.obj
 0002:000085d0       ??_C@_0HA@FFDCKJDE@A?5marine?5is?5looking?5for?5orders?6S@ 100a25d0     util.obj
 0002:00008640       ??_C@_0GL@BPFKLNND@As?5commander?5you?5can?5create?5a?5sq@ 100a2640     util.obj
 0002:000086b0       ??_C@_0FK@CCEKIIBP@You?5can?5select?5the?5squad?5of?5mari@ 100a26b0     util.obj
 0002:00008710       ??_C@_0GH@IJBOHBGN@A?5marine?5needs?5health?6Select?5the@ 100a2710     util.obj
 0002:00008778       ??_C@_0FJ@EMDPMNLB@You?5can?5turn?5on?5the?5bot?5cam?6to?5s@ 100a2778     util.obj
 0002:000087d8       ??_C@_0GE@FHCBDKLB@Bot?5cam?5is?5now?5ON?6You?5are?5now?5wa@ 100a27d8     util.obj
 0002:0000883c       ??_C@_0N@OFGIKLBC@mp_footsteps?$AA@ 100a283c     util.obj
 0002:0000884c       ??_C@_05NOJGJHG@func_?$AA@ 100a284c     util.obj
 0002:00008858       __real@400921fb54524550    100a2858     util.obj
 0002:00008860       __real@404ca5dc1a53b118    100a2860     util.obj
 0002:00008868       __real@4076800000000000    100a2868     util.obj
 0002:00008870       __real@42f00000            100a2870     util.obj
 0002:00008874       __real@43100000            100a2874     util.obj
 0002:00008878       __real@443b8000            100a2878     util.obj
 0002:0000887c       __real@c3340000            100a287c     util.obj
 0002:00008880       ??_C@_0BE@EPEJHCGF@waypoints?2?$CFs?2?$CFs?4rcw?$AA@ 100a2880     waypoint.obj
 0002:00008894       ??_C@_0BL@CIELDLML@loading?5waypoint?5file?3?5?$CFs?6?$AA@ 100a2894     waypoint.obj
 0002:000088b0       ??_C@_0EB@HMKMHJND@Incompatible?5RCBot?5waypoint?5file@ 100a28b0     waypoint.obj
 0002:000088f4       ??_C@_0DK@LGFKEGNN@ERROR?$CB?$CB?$CB?5Invalid?5waypoint?5?$CIid?3?5?$CF@ 100a28f4     waypoint.obj
 0002:00008930       ??_C@_0CK@NHOIPPID@?$CFs?5RCBot?5waypoints?5are?5not?5for?5t@ 100a2930     waypoint.obj
 0002:0000895c       ??_C@_0CN@MJHAANIJ@?$CFs?5is?5not?5a?5RCBot?5compatible?5way@ 100a295c     waypoint.obj
 0002:0000898c       ??_C@_0CL@GAMJDABJ@Read?5Waypoint?5Visibility?5File?5Su@ 100a298c     waypoint.obj
 0002:000089b8       ??_C@_0CC@GJMCHOB@No?5Waypoint?5Visibility?5File?5foun@ 100a29b8     waypoint.obj
 0002:000089dc       ??_C@_0CF@NGIFLCOI@Waypoint?5Visibility?5File?5out?5of?5@ 100a29dc     waypoint.obj
 0002:00008a08       ??_C@_0EM@FCJAILBK@Working?5Out?5Waypoint?5Visibility?5@ 100a2a08     waypoint.obj
 0002:00008a54       ??_C@_0BI@IOGBKEMG@Done?$CB?5Saving?5To?5File?4?4?4?$AA@ 100a2a54     waypoint.obj
 0002:00008a6c       ??_C@_0CC@JHADHODB@Waypoint?5file?5?$CFs?5does?5not?5exist?$CB@ 100a2a6c     waypoint.obj
 0002:00008a90       ??_C@_0M@FNPGGNLJ@?$CFs?2?$CFs?2?$CFs?4?$CFs?$AA@ 100a2a90     waypoint.obj
 0002:00008a9c       ??_C@_0CF@BJGKJFFJ@WaypointDebug?3?5LINKED?5LIST?5ERROR@ 100a2a9c     waypoint.obj
 0002:00008ac4       ??_C@_0CM@LHOLAFPO@HPB_bot?5?9?5Error?5allocating?5memor@ 100a2ac4     waypoint.obj
 0002:00008af0       ??_C@_0DA@GPBKGNJH@Can?8t?5add?5waypoint?0?5max?5waypoint@ 100a2af0     waypoint.obj
 0002:00008b20       ??_C@_0M@KCNAKNNL@item_health?$AA@ 100a2b20     waypoint.obj
 0002:00008b2c       ??_C@_0N@HAEOHIKC@item_battery?$AA@ 100a2b2c     waypoint.obj
 0002:00008b3c       ??_C@_0BG@DJDGFCKC@weapons?1xbow_hit1?4wav?$AA@ 100a2b3c     waypoint.obj
 0002:00008b54       ??_C@_0BL@NHALOFBH@weapons?1wpn_denyselect?4wav?$AA@ 100a2b54     waypoint.obj
 0002:00008b70       ??_C@_0BK@NPOOOOAL@weapons?1mine_activate?4wav?$AA@ 100a2b70     waypoint.obj
 0002:00008b8c       ??_C@_0BK@JHOFLAAJ@common?1wpn_moveselect?4wav?$AA@ 100a2b8c     waypoint.obj
 0002:00008ba8       ??_C@_0BG@MNEIFLMJ@common?1wpn_hudoff?4wav?$AA@ 100a2ba8     waypoint.obj
 0002:00008bc0       ??_C@_0CF@FFJDIGJN@Error?3?5Waypoint?5is?5the?5same?5wayp@ 100a2bc0     waypoint.obj
 0002:00008be8       ??_C@_0BI@FNNOOJFC@Error?3?5Waypoint?5invalid?$AA@ 100a2be8     waypoint.obj
 0002:00008c00       ??_C@_0DE@FKGGNPKF@Error?3?5Waypoint?5already?5has?5a?5pa@ 100a2c00     waypoint.obj
 0002:00008c34       ??_C@_0BK@NELGKIDH@common?1wpn_denyselect?4wav?$AA@ 100a2c34     waypoint.obj
 0002:00008c50       ??_C@_0BF@JMGAEGF@common?1wpn_hudon?4wav?$AA@ 100a2c50     waypoint.obj
 0002:00008c68       ??_C@_0BJ@HLAAJOBJ@Waypoint?5?$CFd?5of?5?$CFd?5total?6?$AA@ 100a2c68     waypoint.obj
 0002:00008c84       ??_C@_0BO@LBNDKOLE@This?5is?5a?5team?5only?5waypoint?6?$AA@ 100a2c84     waypoint.obj
 0002:00008ca4       ??_C@_0BE@GPCCKJCE@This?5is?5for?5TEAM?5?$CFd?$AA@ 100a2ca4     waypoint.obj
 0002:00008cb8       ??_C@_0DF@MJNPFFM@Bot?5will?5use?5a?5lift?5button?5here?5@ 100a2cb8     waypoint.obj
 0002:00008cf0       ??_C@_0BO@CFGFHMI@This?5waypoint?5is?5on?5a?5ladder?6?$AA@ 100a2cf0     waypoint.obj
 0002:00008d10       ??_C@_0BJ@FCIEAAH@This?5is?5a?5door?5waypoint?6?$AA@ 100a2d10     waypoint.obj
 0002:00008d2c       ??_C@_0CE@GJNCPHBG@There?5is?5health?5near?5this?5waypoi@ 100a2d2c     waypoint.obj
 0002:00008d50       ??_C@_0CD@JEHLNBDN@There?5is?5armor?5near?5this?5waypoin@ 100a2d50     waypoint.obj
 0002:00008d74       ??_C@_0CC@NCGEHPIF@There?5is?5ammo?5near?5this?5waypoint@ 100a2d74     waypoint.obj
 0002:00008d98       ??_C@_0CA@FPBGCLGF@Bot?5will?5CHECK?5for?5a?5lift?5here?6?$AA@ 100a2d98     waypoint.obj
 0002:00008db8       ??_C@_0BJ@PANBFJAG@Bots?5will?5tower?9up?5here?6?$AA@ 100a2db8     waypoint.obj
 0002:00008dd4       ??_C@_0CG@PPBFDJKB@There?5is?5a?5weapon?5near?5this?5wayp@ 100a2dd4     waypoint.obj
 0002:00008dfc       ??_C@_0CA@CPFJKDEA@There?5is?5an?5important?5waypoint?6?$AA@ 100a2dfc     waypoint.obj
 0002:00008e1c       ??_C@_0BP@HOIENIG@This?5waypoint?5is?5UNREACHABLE?$CB?6?$AA@ 100a2e1c     waypoint.obj
 0002:00008e3c       ??_C@_0CE@HNPFDJKB@This?5waypoint?5is?5at?5a?5DEFEND?5poi@ 100a2e3c     waypoint.obj
 0002:00008e60       ??_C@_0CM@JMPMDAMA@This?5waypoint?5is?5at?5a?5SCIENTIST?5@ 100a2e60     waypoint.obj
 0002:00008e8c       ??_C@_0CC@GOEEGAPO@This?5waypoint?5is?5at?5a?5FLAG?5point@ 100a2e8c     waypoint.obj
 0002:00008eb0       ??_C@_0CF@CKCAHCNO@This?5waypoint?5is?5at?5a?5CAPTURE?5po@ 100a2eb0     waypoint.obj
 0002:00008ed8       ??_C@_0CJ@HFABHMOK@This?5waypoint?5is?5at?5a?5BARNEY?5got@ 100a2ed8     waypoint.obj
 0002:00008f04       ??_C@_0CH@DANCCPLO@This?5waypoint?5is?5near?5the?5RESCUE@ 100a2f04     waypoint.obj
 0002:00008f2c       ??_C@_0CF@LHOCEKDA@Bot?5will?5put?5a?5PUSHABLE?5object?5h@ 100a2f2c     waypoint.obj
 0002:00008f54       ??_C@_0BO@PDFCBICA@Bot?5will?5build?5a?5SENTRY?5here?6?$AA@ 100a2f54     waypoint.obj
 0002:00008f74       ??_C@_0BF@JIAFADPN@Bot?5will?5snipe?5here?6?$AA@ 100a2f74     waypoint.obj
 0002:00008f8c       ??_C@_0BN@LILGKGCF@Bot?5will?5place?5detpack?5here?6?$AA@ 100a2f8c     waypoint.obj
 0002:00008fac       ??_C@_0BP@INKIDPEC@Bot?5will?5throw?5a?5grenade?5here?6?$AA@ 100a2fac     waypoint.obj
 0002:00008fcc       ??_C@_0CK@MEJMJPKA@Bot?5will?5do?5a?5LONG?5JUMP?1CROUCH?5J@ 100a2fcc     waypoint.obj
 0002:00008ff8       ??_C@_0DI@LNIBCBHM@Bot?5will?5WAIT?5for?5a?5lift?5before?5@ 100a2ff8     waypoint.obj
 0002:00009030       ??_C@_0CG@PBBOIKID@There?5is?5a?5pain?1death?5trigger?5ne@ 100a3030     waypoint.obj
 0002:00009058       ??_C@_0BP@BFPMFCHE@This?5is?5a?5wall?5stick?5waypoint?6?$AA@ 100a3058     waypoint.obj
 0002:00009078       ??_C@_0BJ@NALJJFFB@This?5is?5a?5jump?5waypoint?6?$AA@ 100a3078     waypoint.obj
 0002:00009094       ??_C@_0BN@ODCAAMG@This?5is?5a?5teleport?5waypoint?6?$AA@ 100a3094     waypoint.obj
 0002:000090b4       ??_C@_0BJ@MGPGIECA@This?5is?5a?5tank?5waypoint?6?$AA@ 100a30b4     waypoint.obj
 0002:000090d0       ??_C@_0BI@KJFPLPEN@This?5is?5a?5fly?5waypoint?6?$AA@ 100a30d0     waypoint.obj
 0002:000090e8       ??_C@_0CG@LNCHGCNJ@Bot?5will?5stay?5close?5to?5this?5wayp@ 100a30e8     waypoint.obj
 0002:00009110       ??_C@_0CM@BEKMFHJE@There?5is?5a?5map?5objective?1end?5of?5@ 100a3110     waypoint.obj
 0002:0000913c       ??_C@_0DN@JHJMMLJO@This?5waypoint?5is?5at?5an?5area?5whic@ 100a313c     waypoint.obj
 0002:0000917c       ??_C@_0DN@JKLIKAGN@Caution?3?5WaypointDistance?$CI?$CJ?5rece@ 100a317c     waypoint.obj
 0002:000091bc       ??_C@_0DL@EADFHONH@Caution?3?5WaypointOrigin?$CI?$CJ?5receiv@ 100a31bc     waypoint.obj
 0002:000091f8       ??_C@_0CL@CGNJKNLI@Waypoint?5Error?5?3?5Index?5Value?5Doe@ 100a31f8     waypoint.obj
 0002:00009224       ??_C@_0BE@FGFCEDCE@waypoints?2?$CFs?2?$CFs?4rcv?$AA@ 100a3224     waypoint.obj
 0002:00009238       ??_C@_0DC@GMOLJLOO@Can?8t?5open?5Waypoint?5Visibility?5t@ 100a3238     waypoint.obj
 0002:0000926c       ??_C@_0DC@GADLKKGP@Can?8t?5open?5Waypoint?5Visibility?5t@ 100a326c     waypoint.obj
 0002:000092a0       __real@40b0000000000000    100a32a0     waypoint.obj
 0002:000092a8       __real@41600000            100a32a8     waypoint.obj
 0002:000092ac       __real@41880000            100a32ac     waypoint.obj
 0002:000092b0       __real@41c80000            100a32b0     waypoint.obj
 0002:000092b4       __real@42080000            100a32b4     waypoint.obj
 0002:000092b8       __real@42880000            100a32b8     waypoint.obj
 0002:000092bc       __real@42fe0000            100a32bc     waypoint.obj
 0002:000092c0       __real@43550000            100a32c0     waypoint.obj
 0002:000092c4       __real@435c0000            100a32c4     waypoint.obj
 0002:000092c8       __real@436a0000            100a32c8     waypoint.obj
 0002:000092cc       __real@461c3c00            100a32cc     waypoint.obj
 0002:000092d0       __real@c5800000            100a32d0     waypoint.obj
 0002:000092d4       ?value@?$integral_constant@_N$0A@@std@@2_NB 100a32d4     libcpmt:newaop.obj
 0002:000092d5       ?value@?$integral_constant@_N$00@std@@2_NB 100a32d5     libcpmt:newaop.obj
 0002:000092d6       ?has_quiet_NaN@_Num_float_base@std@@2_NB 100a32d6     libcpmt:xthrow.obj
 0002:000092d7       ?has_signaling_NaN@_Num_float_base@std@@2_NB 100a32d7     libcpmt:xthrow.obj
 0002:000092d8       ?is_bounded@_Num_float_base@std@@2_NB 100a32d8     libcpmt:xthrow.obj
 0002:000092dc       ??_C@_1M@KLMEPMCM@?$AAa?$AAl?$AAn?$AAu?$AAm?$AA?$AA@ 100a32dc     libcpmt:xthrow.obj
 0002:000092e8       ??_C@_1M@DHGLHBMI@?$AAa?$AAl?$AAp?$AAh?$AAa?$AA?$AA@ 100a32e8     libcpmt:xthrow.obj
 0002:000092f4       ?is_exact@_Num_float_base@std@@2_NB 100a32f4     libcpmt:xthrow.obj
 0002:000092f8       ??_C@_1M@EJAAJBPE@?$AAb?$AAl?$AAa?$AAn?$AAk?$AA?$AA@ 100a32f8     libcpmt:xthrow.obj
 0002:00009304       ??_C@_1M@LMIMILA@?$AAc?$AAn?$AAt?$AAr?$AAl?$AA?$AA@ 100a3304     libcpmt:xthrow.obj
 0002:00009310       ??_C@_13GKPPEALH@?$AAd?$AA?$AA@ 100a3310     libcpmt:xthrow.obj
 0002:00009314       ?is_iec559@_Num_float_base@std@@2_NB 100a3314     libcpmt:xthrow.obj
 0002:00009318       ??_C@_1M@JDAEIBKG@?$AAd?$AAi?$AAg?$AAi?$AAt?$AA?$AA@ 100a3318     libcpmt:xthrow.obj
 0002:00009324       ??_C@_1M@MDKNJLLK@?$AAg?$AAr?$AAa?$AAp?$AAh?$AA?$AA@ 100a3324     libcpmt:xthrow.obj
 0002:00009330       ??_C@_1M@LGAECJJD@?$AAl?$AAo?$AAw?$AAe?$AAr?$AA?$AA@ 100a3330     libcpmt:xthrow.obj
 0002:0000933c       ?is_integer@_Num_float_base@std@@2_NB 100a333c     libcpmt:xthrow.obj
 0002:00009340       ??_C@_1M@ELNLAPLA@?$AAp?$AAr?$AAi?$AAn?$AAt?$AA?$AA@ 100a3340     libcpmt:xthrow.obj
 0002:0000934c       ??_C@_1M@BPFMAOAO@?$AAp?$AAu?$AAn?$AAc?$AAt?$AA?$AA@ 100a334c     libcpmt:xthrow.obj
 0002:00009358       ??_C@_1M@LPGODFOM@?$AAs?$AAp?$AAa?$AAc?$AAe?$AA?$AA@ 100a3358     libcpmt:xthrow.obj
 0002:00009364       ?is_modulo@_Num_float_base@std@@2_NB 100a3364     libcpmt:xthrow.obj
 0002:00009368       ??_C@_13KHDBCPJB@?$AAs?$AA?$AA@ 100a3368     libcpmt:xthrow.obj
 0002:0000936c       ??_C@_1M@PLNFCNIC@?$AAu?$AAp?$AAp?$AAe?$AAr?$AA?$AA@ 100a336c     libcpmt:xthrow.obj
 0002:00009378       ??_C@_13CIFDLIMG@?$AAw?$AA?$AA@ 100a3378     libcpmt:xthrow.obj
 0002:0000937c       ?is_signed@_Num_float_base@std@@2_NB 100a337c     libcpmt:xthrow.obj
 0002:00009380       ??_C@_1O@OAFMJDHN@?$AAx?$AAd?$AAi?$AAg?$AAi?$AAt?$AA?$AA@ 100a3380     libcpmt:xthrow.obj
 0002:0000938e       ?is_specialized@_Num_float_base@std@@2_NB 100a338e     libcpmt:xthrow.obj
 0002:0000938f       ?tinyness_before@_Num_float_base@std@@2_NB 100a338f     libcpmt:xthrow.obj
 0002:00009390       ?traps@_Num_float_base@std@@2_NB 100a3390     libcpmt:xthrow.obj
 0002:00009394       ?round_style@_Num_float_base@std@@2W4float_round_style@2@B 100a3394     libcpmt:xthrow.obj
 0002:00009398       ?radix@_Num_float_base@std@@2HB 100a3398     libcpmt:xthrow.obj
 0002:0000939c       ?is_signed@?$numeric_limits@D@std@@2_NB 100a339c     libcpmt:xthrow.obj
 0002:000093a0       ?digits@?$numeric_limits@D@std@@2HB 100a33a0     libcpmt:xthrow.obj
 0002:000093a4       ?digits10@?$numeric_limits@D@std@@2HB 100a33a4     libcpmt:xthrow.obj
 0002:000093a8       ?is_signed@?$numeric_limits@_W@std@@2_NB 100a33a8     libcpmt:xthrow.obj
 0002:000093ac       ?digits@?$numeric_limits@_W@std@@2HB 100a33ac     libcpmt:xthrow.obj
 0002:000093b0       ?digits10@?$numeric_limits@_W@std@@2HB 100a33b0     libcpmt:xthrow.obj
 0002:000093b4       ?is_modulo@?$numeric_limits@_N@std@@2_NB 100a33b4     libcpmt:xthrow.obj
 0002:000093b5       ?is_signed@?$numeric_limits@_N@std@@2_NB 100a33b5     libcpmt:xthrow.obj
 0002:000093b8       ?digits@?$numeric_limits@_N@std@@2HB 100a33b8     libcpmt:xthrow.obj
 0002:000093bc       ?digits10@?$numeric_limits@_N@std@@2HB 100a33bc     libcpmt:xthrow.obj
 0002:000093c0       ?_VBITS@?$vector@_NV?$allocator@_N@std@@@std@@2HB 100a33c0     libcpmt:xthrow.obj
 0002:000093c4       ?is_signed@?$numeric_limits@C@std@@2_NB 100a33c4     libcpmt:xthrow.obj
 0002:000093c8       ?digits@?$numeric_limits@C@std@@2HB 100a33c8     libcpmt:xthrow.obj
 0002:000093cc       ?digits10@?$numeric_limits@C@std@@2HB 100a33cc     libcpmt:xthrow.obj
 0002:000093d0       ?is_signed@?$numeric_limits@E@std@@2_NB 100a33d0     libcpmt:xthrow.obj
 0002:000093d4       ?digits@?$numeric_limits@E@std@@2HB 100a33d4     libcpmt:xthrow.obj
 0002:000093d8       ?digits10@?$numeric_limits@E@std@@2HB 100a33d8     libcpmt:xthrow.obj
 0002:000093dc       ?skipws@?$_Iosb@H@std@@2W4_Fmtflags@12@B 100a33dc     libcpmt:xthrow.obj
 0002:000093e0       ?unitbuf@?$_Iosb@H@std@@2W4_Fmtflags@12@B 100a33e0     libcpmt:xthrow.obj
 0002:000093e4       ?uppercase@?$_Iosb@H@std@@2W4_Fmtflags@12@B 100a33e4     libcpmt:xthrow.obj
 0002:000093e8       ?showbase@?$_Iosb@H@std@@2W4_Fmtflags@12@B 100a33e8     libcpmt:xthrow.obj
 0002:000093ec       ?showpoint@?$_Iosb@H@std@@2W4_Fmtflags@12@B 100a33ec     libcpmt:xthrow.obj
 0002:000093f0       ?showpos@?$_Iosb@H@std@@2W4_Fmtflags@12@B 100a33f0     libcpmt:xthrow.obj
 0002:000093f4       ?left@?$_Iosb@H@std@@2W4_Fmtflags@12@B 100a33f4     libcpmt:xthrow.obj
 0002:000093f8       ?right@?$_Iosb@H@std@@2W4_Fmtflags@12@B 100a33f8     libcpmt:xthrow.obj
 0002:000093fc       ?internal@?$_Iosb@H@std@@2W4_Fmtflags@12@B 100a33fc     libcpmt:xthrow.obj
 0002:00009400       ?is_signed@?$numeric_limits@F@std@@2_NB 100a3400     libcpmt:xthrow.obj
 0002:00009404       ?dec@?$_Iosb@H@std@@2W4_Fmtflags@12@B 100a3404     libcpmt:xthrow.obj
 0002:00009408       ?digits@?$numeric_limits@F@std@@2HB 100a3408     libcpmt:xthrow.obj
 0002:0000940c       ?oct@?$_Iosb@H@std@@2W4_Fmtflags@12@B 100a340c     libcpmt:xthrow.obj
 0002:00009410       ?digits10@?$numeric_limits@F@std@@2HB 100a3410     libcpmt:xthrow.obj
 0002:00009414       ?hex@?$_Iosb@H@std@@2W4_Fmtflags@12@B 100a3414     libcpmt:xthrow.obj
 0002:00009418       ?scientific@?$_Iosb@H@std@@2W4_Fmtflags@12@B 100a3418     libcpmt:xthrow.obj
 0002:0000941c       ?fixed@?$_Iosb@H@std@@2W4_Fmtflags@12@B 100a341c     libcpmt:xthrow.obj
 0002:00009420       ?hexfloat@?$_Iosb@H@std@@2W4_Fmtflags@12@B 100a3420     libcpmt:xthrow.obj
 0002:00009424       ?boolalpha@?$_Iosb@H@std@@2W4_Fmtflags@12@B 100a3424     libcpmt:xthrow.obj
 0002:00009428       ?_Stdio@?$_Iosb@H@std@@2W4_Fmtflags@12@B 100a3428     libcpmt:xthrow.obj
 0002:0000942c       ?adjustfield@?$_Iosb@H@std@@2W4_Fmtflags@12@B 100a342c     libcpmt:xthrow.obj
 0002:00009430       ?basefield@?$_Iosb@H@std@@2W4_Fmtflags@12@B 100a3430     libcpmt:xthrow.obj
 0002:00009434       ?floatfield@?$_Iosb@H@std@@2W4_Fmtflags@12@B 100a3434     libcpmt:xthrow.obj
 0002:00009438       ?goodbit@?$_Iosb@H@std@@2W4_Iostate@12@B 100a3438     libcpmt:xthrow.obj
 0002:0000943c       ?is_signed@?$numeric_limits@G@std@@2_NB 100a343c     libcpmt:xthrow.obj
 0002:00009440       ?eofbit@?$_Iosb@H@std@@2W4_Iostate@12@B 100a3440     libcpmt:xthrow.obj
 0002:00009444       ?digits@?$numeric_limits@G@std@@2HB 100a3444     libcpmt:xthrow.obj
 0002:00009448       ?failbit@?$_Iosb@H@std@@2W4_Iostate@12@B 100a3448     libcpmt:xthrow.obj
 0002:0000944c       ?digits10@?$numeric_limits@G@std@@2HB 100a344c     libcpmt:xthrow.obj
 0002:00009450       ?badbit@?$_Iosb@H@std@@2W4_Iostate@12@B 100a3450     libcpmt:xthrow.obj
 0002:00009454       ?_Hardfail@?$_Iosb@H@std@@2W4_Iostate@12@B 100a3454     libcpmt:xthrow.obj
 0002:00009458       ?in@?$_Iosb@H@std@@2W4_Openmode@12@B 100a3458     libcpmt:xthrow.obj
 0002:0000945c       ?out@?$_Iosb@H@std@@2W4_Openmode@12@B 100a345c     libcpmt:xthrow.obj
 0002:00009460       ?ate@?$_Iosb@H@std@@2W4_Openmode@12@B 100a3460     libcpmt:xthrow.obj
 0002:00009464       ?app@?$_Iosb@H@std@@2W4_Openmode@12@B 100a3464     libcpmt:xthrow.obj
 0002:00009468       ?trunc@?$_Iosb@H@std@@2W4_Openmode@12@B 100a3468     libcpmt:xthrow.obj
 0002:0000946c       ?_Nocreate@?$_Iosb@H@std@@2W4_Openmode@12@B 100a346c     libcpmt:xthrow.obj
 0002:00009470       ?_Noreplace@?$_Iosb@H@std@@2W4_Openmode@12@B 100a3470     libcpmt:xthrow.obj
 0002:00009474       ?binary@?$_Iosb@H@std@@2W4_Openmode@12@B 100a3474     libcpmt:xthrow.obj
 0002:00009478       ?is_signed@?$numeric_limits@H@std@@2_NB 100a3478     libcpmt:xthrow.obj
 0002:0000947c       ?beg@?$_Iosb@H@std@@2W4_Seekdir@12@B 100a347c     libcpmt:xthrow.obj
 0002:00009480       ?digits@?$numeric_limits@H@std@@2HB 100a3480     libcpmt:xthrow.obj
 0002:00009484       ?cur@?$_Iosb@H@std@@2W4_Seekdir@12@B 100a3484     libcpmt:xthrow.obj
 0002:00009488       ?digits10@?$numeric_limits@H@std@@2HB 100a3488     libcpmt:xthrow.obj
 0002:0000948c       ?end@?$_Iosb@H@std@@2W4_Seekdir@12@B 100a348c     libcpmt:xthrow.obj
 0002:00009490       ?is_signed@?$numeric_limits@I@std@@2_NB 100a3490     libcpmt:xthrow.obj
 0002:00009494       ?digits@?$numeric_limits@I@std@@2HB 100a3494     libcpmt:xthrow.obj
 0002:00009498       ?digits10@?$numeric_limits@I@std@@2HB 100a3498     libcpmt:xthrow.obj
 0002:0000949c       ?value@?$integral_constant@H$0A@@std@@2HB 100a349c     libcpmt:xthrow.obj
 0002:000094a0       ?is_signed@?$numeric_limits@J@std@@2_NB 100a34a0     libcpmt:xthrow.obj
 0002:000094a4       ?digits@?$numeric_limits@J@std@@2HB 100a34a4     libcpmt:xthrow.obj
 0002:000094a8       ?digits10@?$numeric_limits@J@std@@2HB 100a34a8     libcpmt:xthrow.obj
 0002:000094ac       ?is_signed@?$numeric_limits@K@std@@2_NB 100a34ac     libcpmt:xthrow.obj
 0002:000094b0       ?digits@?$numeric_limits@K@std@@2HB 100a34b0     libcpmt:xthrow.obj
 0002:000094b4       ?digits10@?$numeric_limits@K@std@@2HB 100a34b4     libcpmt:xthrow.obj
 0002:000094b8       ?is_signed@?$numeric_limits@_J@std@@2_NB 100a34b8     libcpmt:xthrow.obj
 0002:000094bc       ?digits@?$numeric_limits@_J@std@@2HB 100a34bc     libcpmt:xthrow.obj
 0002:000094c0       ?digits10@?$numeric_limits@_J@std@@2HB 100a34c0     libcpmt:xthrow.obj
 0002:000094c4       ?is_signed@?$numeric_limits@_K@std@@2_NB 100a34c4     libcpmt:xthrow.obj
 0002:000094c8       ?digits@?$numeric_limits@_K@std@@2HB 100a34c8     libcpmt:xthrow.obj
 0002:000094cc       ?digits10@?$numeric_limits@_K@std@@2HB 100a34cc     libcpmt:xthrow.obj
 0002:000094d0       ?collate@?$_Locbase@H@std@@2HB 100a34d0     libcpmt:xthrow.obj
 0002:000094d4       ?ctype@?$_Locbase@H@std@@2HB 100a34d4     libcpmt:xthrow.obj
 0002:000094d8       ?monetary@?$_Locbase@H@std@@2HB 100a34d8     libcpmt:xthrow.obj
 0002:000094dc       ?numeric@?$_Locbase@H@std@@2HB 100a34dc     libcpmt:xthrow.obj
 0002:000094e0       ?time@?$_Locbase@H@std@@2HB 100a34e0     libcpmt:xthrow.obj
 0002:000094e4       ?messages@?$_Locbase@H@std@@2HB 100a34e4     libcpmt:xthrow.obj
 0002:000094e8       ?all@?$_Locbase@H@std@@2HB 100a34e8     libcpmt:xthrow.obj
 0002:000094ec       ?none@?$_Locbase@H@std@@2HB 100a34ec     libcpmt:xthrow.obj
 0002:000094f0       ?digits@?$numeric_limits@M@std@@2HB 100a34f0     libcpmt:xthrow.obj
 0002:000094f4       ?digits10@?$numeric_limits@M@std@@2HB 100a34f4     libcpmt:xthrow.obj
 0002:000094f8       ?max_digits10@?$numeric_limits@M@std@@2HB 100a34f8     libcpmt:xthrow.obj
 0002:000094fc       ?max_exponent@?$numeric_limits@M@std@@2HB 100a34fc     libcpmt:xthrow.obj
 0002:00009500       ?max_exponent10@?$numeric_limits@M@std@@2HB 100a3500     libcpmt:xthrow.obj
 0002:00009504       ?min_exponent@?$numeric_limits@M@std@@2HB 100a3504     libcpmt:xthrow.obj
 0002:00009508       ?min_exponent10@?$numeric_limits@M@std@@2HB 100a3508     libcpmt:xthrow.obj
 0002:0000950c       ?digits@?$numeric_limits@N@std@@2HB 100a350c     libcpmt:xthrow.obj
 0002:00009510       ?digits10@?$numeric_limits@N@std@@2HB 100a3510     libcpmt:xthrow.obj
 0002:00009514       ?max_digits10@?$numeric_limits@N@std@@2HB 100a3514     libcpmt:xthrow.obj
 0002:00009518       ?max_exponent@?$numeric_limits@N@std@@2HB 100a3518     libcpmt:xthrow.obj
 0002:0000951c       ?max_exponent10@?$numeric_limits@N@std@@2HB 100a351c     libcpmt:xthrow.obj
 0002:00009520       ?min_exponent@?$numeric_limits@N@std@@2HB 100a3520     libcpmt:xthrow.obj
 0002:00009524       ?min_exponent10@?$numeric_limits@N@std@@2HB 100a3524     libcpmt:xthrow.obj
 0002:00009528       ?digits@?$numeric_limits@O@std@@2HB 100a3528     libcpmt:xthrow.obj
 0002:0000952c       ?digits10@?$numeric_limits@O@std@@2HB 100a352c     libcpmt:xthrow.obj
 0002:00009530       ?max_digits10@?$numeric_limits@O@std@@2HB 100a3530     libcpmt:xthrow.obj
 0002:00009534       ?max_exponent@?$numeric_limits@O@std@@2HB 100a3534     libcpmt:xthrow.obj
 0002:00009538       ?max_exponent10@?$numeric_limits@O@std@@2HB 100a3538     libcpmt:xthrow.obj
 0002:0000953c       ?min_exponent@?$numeric_limits@O@std@@2HB 100a353c     libcpmt:xthrow.obj
 0002:00009540       ?min_exponent10@?$numeric_limits@O@std@@2HB 100a3540     libcpmt:xthrow.obj
 0002:00009544       ?table_size@?$ctype@D@std@@2IB 100a3544     libcpmt:xthrow.obj
 0002:00009548       ?value@?$integral_constant@I$07@std@@2IB 100a3548     libcpmt:xthrow.obj
 0002:0000954c       ?value@?$integral_constant@I$03@std@@2IB 100a354c     libcpmt:xthrow.obj
 0002:00009550       ?value@?$integral_constant@I$01@std@@2IB 100a3550     libcpmt:xthrow.obj
 0002:00009554       ?value@?$integral_constant@I$00@std@@2IB 100a3554     libcpmt:xthrow.obj
 0002:00009558       ?value@?$_Maximum@$S@std@@2IB 100a3558     libcpmt:xthrow.obj
 0002:00009560       ?_Names@?$_Regex_traits@D@std@@0QBU?$_Cl_names@D@2@B 100a3560     libcpmt:xthrow.obj
 0002:00009620       ?has_denorm@_Num_base@std@@2W4float_denorm_style@2@B 100a3620     libcpmt:xthrow.obj
 0002:00009624       ?has_denorm_loss@_Num_base@std@@2_NB 100a3624     libcpmt:xthrow.obj
 0002:00009625       ?has_infinity@_Num_base@std@@2_NB 100a3625     libcpmt:xthrow.obj
 0002:00009626       ?has_quiet_NaN@_Num_base@std@@2_NB 100a3626     libcpmt:xthrow.obj
 0002:00009627       ?has_signaling_NaN@_Num_base@std@@2_NB 100a3627     libcpmt:xthrow.obj
 0002:00009628       ?is_bounded@_Num_base@std@@2_NB 100a3628     libcpmt:xthrow.obj
 0002:00009629       ?is_exact@_Num_base@std@@2_NB 100a3629     libcpmt:xthrow.obj
 0002:0000962a       ?is_iec559@_Num_base@std@@2_NB 100a362a     libcpmt:xthrow.obj
 0002:0000962b       ?is_integer@_Num_base@std@@2_NB 100a362b     libcpmt:xthrow.obj
 0002:0000962c       ?is_modulo@_Num_base@std@@2_NB 100a362c     libcpmt:xthrow.obj
 0002:0000962d       ?is_signed@_Num_base@std@@2_NB 100a362d     libcpmt:xthrow.obj
 0002:00009630       ??_C@_05IIMHCHIO@alnum?$AA@ 100a3630     libcpmt:xthrow.obj
 0002:00009638       ??_C@_05IAEKHIAN@alpha?$AA@ 100a3638     libcpmt:xthrow.obj
 0002:00009640       ??_C@_05BABJKOGB@blank?$AA@ 100a3640     libcpmt:xthrow.obj
 0002:00009648       ?value@?$integral_constant@I$0A@@std@@2IB 100a3648     libcpmt:xthrow.obj
 0002:0000964c       ?is_specialized@_Num_base@std@@2_NB 100a364c     libcpmt:xthrow.obj
 0002:00009650       ??_C@_05JMDPEFNK@cntrl?$AA@ 100a3650     libcpmt:xthrow.obj
 0002:00009658       ??_C@_01LPLHEDKD@d?$AA@    100a3658     libcpmt:xthrow.obj
 0002:0000965c       ??_C@_05ODNOIFML@digit?$AA@ 100a365c     libcpmt:xthrow.obj
 0002:00009662       ?tinyness_before@_Num_base@std@@2_NB 100a3662     libcpmt:xthrow.obj
 0002:00009664       ??_C@_05KCJBMLII@graph?$AA@ 100a3664     libcpmt:xthrow.obj
 0002:0000966c       ??_C@_05IPJEPLHL@lower?$AA@ 100a366c     libcpmt:xthrow.obj
 0002:00009674       ??_C@_05IJDJACGD@print?$AA@ 100a3674     libcpmt:xthrow.obj
 0002:0000967a       ?traps@_Num_base@std@@2_NB 100a367a     libcpmt:xthrow.obj
 0002:0000967c       ??_C@_05KOBGHFJJ@punct?$AA@ 100a367c     libcpmt:xthrow.obj
 0002:00009684       ??_C@_05OLNILLAB@space?$AA@ 100a3684     libcpmt:xthrow.obj
 0002:0000968c       ??_C@_01LKDEMHDF@s?$AA@    100a368c     libcpmt:xthrow.obj
 0002:00009690       ?round_style@_Num_base@std@@2W4float_round_style@2@B 100a3690     libcpmt:xthrow.obj
 0002:00009694       ??_C@_05NECKJAMC@upper?$AA@ 100a3694     libcpmt:xthrow.obj
 0002:0000969c       ??_C@_06BAPHGFFK@xdigit?$AA@ 100a369c     libcpmt:xthrow.obj
 0002:000096a4       ?digits@_Num_base@std@@2HB 100a36a4     libcpmt:xthrow.obj
 0002:000096a8       ?digits10@_Num_base@std@@2HB 100a36a8     libcpmt:xthrow.obj
 0002:000096ac       ?max_digits10@_Num_base@std@@2HB 100a36ac     libcpmt:xthrow.obj
 0002:000096b0       ?max_exponent@_Num_base@std@@2HB 100a36b0     libcpmt:xthrow.obj
 0002:000096b4       ?max_exponent10@_Num_base@std@@2HB 100a36b4     libcpmt:xthrow.obj
 0002:000096b8       ?min_exponent@_Num_base@std@@2HB 100a36b8     libcpmt:xthrow.obj
 0002:000096bc       ?min_exponent10@_Num_base@std@@2HB 100a36bc     libcpmt:xthrow.obj
 0002:000096c0       ?radix@_Num_base@std@@2HB  100a36c0     libcpmt:xthrow.obj
 0002:000096c4       ?is_bounded@_Num_int_base@std@@2_NB 100a36c4     libcpmt:xthrow.obj
 0002:000096c5       ?is_exact@_Num_int_base@std@@2_NB 100a36c5     libcpmt:xthrow.obj
 0002:000096c6       ?is_integer@_Num_int_base@std@@2_NB 100a36c6     libcpmt:xthrow.obj
 0002:000096c7       ?is_modulo@_Num_int_base@std@@2_NB 100a36c7     libcpmt:xthrow.obj
 0002:000096c8       ?_Names@?$_Regex_traits@_W@std@@0QBU?$_Cl_names@_W@2@B 100a36c8     libcpmt:xthrow.obj
 0002:00009788       ?is_specialized@_Num_int_base@std@@2_NB 100a3788     libcpmt:xthrow.obj
 0002:0000978c       ?radix@_Num_int_base@std@@2HB 100a378c     libcpmt:xthrow.obj
 0002:00009790       ?has_denorm@_Num_float_base@std@@2W4float_denorm_style@2@B 100a3790     libcpmt:xthrow.obj
 0002:00009794       ?has_denorm_loss@_Num_float_base@std@@2_NB 100a3794     libcpmt:xthrow.obj
 0002:00009795       ?has_infinity@_Num_float_base@std@@2_NB 100a3795     libcpmt:xthrow.obj
 0002:0000979c       ??_7bad_alloc@std@@6B@     100a379c     libcpmt:xthrow.obj
 0002:000097a4       ??_C@_0P@GHFPNOJB@bad?5allocation?$AA@ 100a37a4     libcpmt:xthrow.obj
 0002:000097b8       ??_7logic_error@std@@6B@   100a37b8     libcpmt:xthrow.obj
 0002:000097c4       ??_7invalid_argument@std@@6B@ 100a37c4     libcpmt:xthrow.obj
 0002:000097d0       ??_7length_error@std@@6B@  100a37d0     libcpmt:xthrow.obj
 0002:000097dc       ??_7out_of_range@std@@6B@  100a37dc     libcpmt:xthrow.obj
 0002:000097e8       ??_7runtime_error@std@@6B@ 100a37e8     libcpmt:xthrow.obj
 0002:000097f4       ??_7overflow_error@std@@6B@ 100a37f4     libcpmt:xthrow.obj
 0002:00009800       ??_7bad_function_call@std@@6B@ 100a3800     libcpmt:xthrow.obj
 0002:00009808       ??_C@_0BC@DPJNKNAF@bad?5function?5call?$AA@ 100a3808     libcpmt:xthrow.obj
 0002:00009820       ??_7error_category@std@@6B@ 100a3820     libcpmt:xthrow.obj
 0002:0000983c       ??_7_Generic_error_category@std@@6B@ 100a383c     libcpmt:xthrow.obj
 0002:00009854       ??_C@_07DCLBNMLN@generic?$AA@ 100a3854     libcpmt:xthrow.obj
 0002:0000985c       ??_C@_0O@BFJCFAAK@unknown?5error?$AA@ 100a385c     libcpmt:xthrow.obj
 0002:00009870       ??_7_Iostream_error_category@std@@6B@ 100a3870     libcpmt:xthrow.obj
 0002:00009888       ??_C@_08LLGCOLLL@iostream?$AA@ 100a3888     libcpmt:xthrow.obj
 0002:00009894       ??_C@_0BG@PADBLCHM@iostream?5stream?5error?$AA@ 100a3894     libcpmt:xthrow.obj
 0002:000098b0       ??_7_System_error_category@std@@6B@ 100a38b0     libcpmt:xthrow.obj
 0002:000098c8       ??_C@_06FHFOAHML@system?$AA@ 100a38c8     libcpmt:xthrow.obj
 0002:000098d4       ??_7regex_error@std@@6B@   100a38d4     libcpmt:xthrow.obj
 0002:000098e0       ??_C@_0FI@CMNGHIFF@regex_error?$CIerror_collate?$CJ?3?5The?5@ 100a38e0     libcpmt:xthrow.obj
 0002:00009938       ??_C@_0FE@LJMHKIOC@regex_error?$CIerror_ctype?$CJ?3?5The?5ex@ 100a3938     libcpmt:xthrow.obj
 0002:00009990       ??_C@_0GI@HEGGMMDL@regex_error?$CIerror_escape?$CJ?3?5The?5e@ 100a3990     libcpmt:xthrow.obj
 0002:000099f8       ??_C@_0FA@HFMLPGNN@regex_error?$CIerror_backref?$CJ?3?5The?5@ 100a39f8     libcpmt:xthrow.obj
 0002:00009a48       ??_C@_0EH@LGEANNAL@regex_error?$CIerror_brack?$CJ?3?5The?5ex@ 100a3a48     libcpmt:xthrow.obj
 0002:00009a90       ??_C@_0EH@CAGOJGLE@regex_error?$CIerror_paren?$CJ?3?5The?5ex@ 100a3a90     libcpmt:xthrow.obj
 0002:00009ad8       ??_C@_0EH@DICJJKLO@regex_error?$CIerror_brace?$CJ?3?5The?5ex@ 100a3ad8     libcpmt:xthrow.obj
 0002:00009b20       ??_C@_0FM@BLDIHIBB@regex_error?$CIerror_badbrace?$CJ?3?5The@ 100a3b20     libcpmt:xthrow.obj
 0002:00009b80       ??_C@_0HA@ICNJLCMC@regex_error?$CIerror_range?$CJ?3?5The?5ex@ 100a3b80     libcpmt:xthrow.obj
 0002:00009bf0       ??_C@_0GP@PICOBCHA@regex_error?$CIerror_space?$CJ?3?5There?5@ 100a3bf0     libcpmt:xthrow.obj
 0002:00009c60       ??_C@_0FK@LCHHHEOA@regex_error?$CIerror_badrepeat?$CJ?3?5On@ 100a3c60     libcpmt:xthrow.obj
 0002:00009cc0       ??_C@_0HL@NEKOFBJA@regex_error?$CIerror_complexity?$CJ?3?5T@ 100a3cc0     libcpmt:xthrow.obj
 0002:00009d40       ??_C@_0JC@HCDLJLGO@regex_error?$CIerror_stack?$CJ?3?5There?5@ 100a3d40     libcpmt:xthrow.obj
 0002:00009dd4       ??_C@_0BJ@CHBLKGNM@regex_error?$CIerror_parse?$CJ?$AA@ 100a3dd4     libcpmt:xthrow.obj
 0002:00009df0       ??_C@_0BK@DFJCACNI@regex_error?$CIerror_syntax?$CJ?$AA@ 100a3df0     libcpmt:xthrow.obj
 0002:00009e0c       ??_C@_0M@KGKAAGCA@regex_error?$AA@ 100a3e0c     libcpmt:xthrow.obj
 0002:00009e18       ??_C@_0BA@JFNIOLAK@string?5too?5long?$AA@ 100a3e18     libcpmt:xthrow.obj
 0002:00009e28       ??_C@_0BI@CFPLBAOH@invalid?5string?5position?$AA@ 100a3e28     libcpmt:xthrow.obj
 0002:0000a310       ??_C@_0BC@CIJDGCDI@permission?5denied?$AA@ 100a4310     libcpmt:syserror.obj
 0002:0000a324       ??_C@_0M@MIDIAGJP@file?5exists?$AA@ 100a4324     libcpmt:syserror.obj
 0002:0000a330       ??_C@_0P@FDINDDOK@no?5such?5device?$AA@ 100a4330     libcpmt:syserror.obj
 0002:0000a340       ??_C@_0BC@EJHOMAAK@filename?5too?5long?$AA@ 100a4340     libcpmt:syserror.obj
 0002:0000a354       ??_C@_0BI@NGCEHDD@device?5or?5resource?5busy?$AA@ 100a4354     libcpmt:syserror.obj
 0002:0000a36c       ??_C@_08GLNPIFBN@io?5error?$AA@ 100a436c     libcpmt:syserror.obj
 0002:0000a378       ??_C@_0BE@JIDOCPHM@directory?5not?5empty?$AA@ 100a4378     libcpmt:syserror.obj
 0002:0000a38c       ??_C@_0BB@FCMFBGOM@invalid?5argument?$AA@ 100a438c     libcpmt:syserror.obj
 0002:0000a3a0       ??_C@_0BD@IJDJKDEA@no?5space?5on?5device?$AA@ 100a43a0     libcpmt:syserror.obj
 0002:0000a3b4       ??_C@_0BK@NDOCBPGE@no?5such?5file?5or?5directory?$AA@ 100a43b4     libcpmt:syserror.obj
 0002:0000a3d0       ??_C@_0BH@KEFGLDAF@function?5not?5supported?$AA@ 100a43d0     libcpmt:syserror.obj
 0002:0000a3e8       ??_C@_0BC@NJECKMKE@no?5lock?5available?$AA@ 100a43e8     libcpmt:syserror.obj
 0002:0000a3fc       ??_C@_0BC@ENOOLCNF@not?5enough?5memory?$AA@ 100a43fc     libcpmt:syserror.obj
 0002:0000a410       ??_C@_0BP@LKNGHENJ@resource?5unavailable?5try?5again?$AA@ 100a4410     libcpmt:syserror.obj
 0002:0000a430       ??_C@_0BC@PPHBOELF@cross?5device?5link?$AA@ 100a4430     libcpmt:syserror.obj
 0002:0000a444       ??_C@_0BD@MOLBPMEA@operation?5canceled?$AA@ 100a4444     libcpmt:syserror.obj
 0002:0000a458       ??_C@_0BE@GHAFMPAH@too?5many?5files?5open?$AA@ 100a4458     libcpmt:syserror.obj
 0002:0000a46c       ??_C@_0BC@FNODOBAE@permission_denied?$AA@ 100a446c     libcpmt:syserror.obj
 0002:0000a480       ??_C@_0P@LNDJPBFK@address_in_use?$AA@ 100a4480     libcpmt:syserror.obj
 0002:0000a490       ??_C@_0BG@IPMGOJF@address_not_available?$AA@ 100a4490     libcpmt:syserror.obj
 0002:0000a4a8       ??_C@_0BN@LCBDHODA@address_family_not_supported?$AA@ 100a44a8     libcpmt:syserror.obj
 0002:0000a4c8       ??_C@_0BP@FOJJHMCC@connection_already_in_progress?$AA@ 100a44c8     libcpmt:syserror.obj
 0002:0000a4e8       ??_C@_0BE@DLHHIBGN@bad_file_descriptor?$AA@ 100a44e8     libcpmt:syserror.obj
 0002:0000a4fc       ??_C@_0BD@OJMJDIGI@connection_aborted?$AA@ 100a44fc     libcpmt:syserror.obj
 0002:0000a510       ??_C@_0BD@NGKCIFEP@connection_refused?$AA@ 100a4510     libcpmt:syserror.obj
 0002:0000a524       ??_C@_0BB@JOANDNCK@connection_reset?$AA@ 100a4524     libcpmt:syserror.obj
 0002:0000a538       ??_C@_0BN@JLJNLKLK@destination_address_required?$AA@ 100a4538     libcpmt:syserror.obj
 0002:0000a558       ??_C@_0M@IJGMGFGP@bad_address?$AA@ 100a4558     libcpmt:syserror.obj
 0002:0000a564       ??_C@_0BB@KKNHPPIN@host_unreachable?$AA@ 100a4564     libcpmt:syserror.obj
 0002:0000a578       ??_C@_0BG@DJGBJIIK@operation_in_progress?$AA@ 100a4578     libcpmt:syserror.obj
 0002:0000a590       ??_C@_0M@EGEKIIMP@interrupted?$AA@ 100a4590     libcpmt:syserror.obj
 0002:0000a59c       ??_C@_0BB@FFIHMIPJ@invalid_argument?$AA@ 100a459c     libcpmt:syserror.obj
 0002:0000a5b0       ??_C@_0BC@FIFLCHLO@already_connected?$AA@ 100a45b0     libcpmt:syserror.obj
 0002:0000a5c4       ??_C@_0BE@GJJJJDDA@too_many_files_open?$AA@ 100a45c4     libcpmt:syserror.obj
 0002:0000a5d8       ??_C@_0N@HPMLKHPL@message_size?$AA@ 100a45d8     libcpmt:syserror.obj
 0002:0000a5e8       ??_C@_0BC@LEEIKBAL@filename_too_long?$AA@ 100a45e8     libcpmt:syserror.obj
 0002:0000a5fc       ??_C@_0N@FCPALPJK@network_down?$AA@ 100a45fc     libcpmt:syserror.obj
 0002:0000a60c       ??_C@_0O@EHNDLHIG@network_reset?$AA@ 100a460c     libcpmt:syserror.obj
 0002:0000a61c       ??_C@_0BE@JFNJIDNF@network_unreachable?$AA@ 100a461c     libcpmt:syserror.obj
 0002:0000a630       ??_C@_0BA@FDIJKJCL@no_buffer_space?$AA@ 100a4630     libcpmt:syserror.obj
 0002:0000a640       ??_C@_0BD@JHIHCGKP@no_protocol_option?$AA@ 100a4640     libcpmt:syserror.obj
 0002:0000a654       ??_C@_0O@GBCLHHD@not_connected?$AA@ 100a4654     libcpmt:syserror.obj
 0002:0000a664       ??_C@_0N@IMHKKLEM@not_a_socket?$AA@ 100a4664     libcpmt:syserror.obj
 0002:0000a674       ??_C@_0BI@ICEIDKLJ@operation_not_supported?$AA@ 100a4674     libcpmt:syserror.obj
 0002:0000a68c       ??_C@_0BH@KAPBAIJF@protocol_not_supported?$AA@ 100a468c     libcpmt:syserror.obj
 0002:0000a6a4       ??_C@_0BE@GAOJJFPC@wrong_protocol_type?$AA@ 100a46a4     libcpmt:syserror.obj
 0002:0000a6b8       ??_C@_09NCHNLHPG@timed_out?$AA@ 100a46b8     libcpmt:syserror.obj
 0002:0000a6c4       ??_C@_0BG@GDGHKFDH@operation_would_block?$AA@ 100a46c4     libcpmt:syserror.obj
 0002:0000a6dc       ??_C@_0BN@LKKBCCDB@address?5family?5not?5supported?$AA@ 100a46dc     libcpmt:syserror.obj
 0002:0000a6fc       ??_C@_0P@LDMLAFHI@address?5in?5use?$AA@ 100a46fc     libcpmt:syserror.obj
 0002:0000a70c       ??_C@_0BG@DHPCNBJB@address?5not?5available?$AA@ 100a470c     libcpmt:syserror.obj
 0002:0000a724       ??_C@_0BC@DFIBIBIL@already?5connected?$AA@ 100a4724     libcpmt:syserror.obj
 0002:0000a738       ??_C@_0BH@CAKOHOMI@argument?5list?5too?5long?$AA@ 100a4738     libcpmt:syserror.obj
 0002:0000a750       ??_C@_0BH@CGIMPKIM@argument?5out?5of?5domain?$AA@ 100a4750     libcpmt:syserror.obj
 0002:0000a768       ??_C@_0M@KGHGGJGL@bad?5address?$AA@ 100a4768     libcpmt:syserror.obj
 0002:0000a774       ??_C@_0BE@MPJPGCEO@bad?5file?5descriptor?$AA@ 100a4774     libcpmt:syserror.obj
 0002:0000a788       ??_C@_0M@PMMIEFCP@bad?5message?$AA@ 100a4788     libcpmt:syserror.obj
 0002:0000a794       ??_C@_0M@KPHOFDBE@broken?5pipe?$AA@ 100a4794     libcpmt:syserror.obj
 0002:0000a7a0       ??_C@_0BD@MGNDDEGM@connection?5aborted?$AA@ 100a47a0     libcpmt:syserror.obj
 0002:0000a7b4       ??_C@_0BP@KAIHPOGN@connection?5already?5in?5progress?$AA@ 100a47b4     libcpmt:syserror.obj
 0002:0000a7d4       ??_C@_0BD@PJLIIJEL@connection?5refused?$AA@ 100a47d4     libcpmt:syserror.obj
 0002:0000a7e8       ??_C@_0BB@IECNJNOI@connection?5reset?$AA@ 100a47e8     libcpmt:syserror.obj
 0002:0000a7fc       ??_C@_0BN@KDMIFEIP@destination?5address?5required?$AA@ 100a47fc     libcpmt:syserror.obj
 0002:0000a81c       ??_C@_0BI@BNCLIGPB@executable?5format?5error?$AA@ 100a481c     libcpmt:syserror.obj
 0002:0000a834       ??_C@_0P@DNAJLBJK@file?5too?5large?$AA@ 100a4834     libcpmt:syserror.obj
 0002:0000a844       ??_C@_0BB@DHFDFGDM@host?5unreachable?$AA@ 100a4844     libcpmt:syserror.obj
 0002:0000a858       ??_C@_0BD@JPHBMONG@identifier?5removed?$AA@ 100a4858     libcpmt:syserror.obj
 0002:0000a86c       ??_C@_0BG@CDNPAGJK@illegal?5byte?5sequence?$AA@ 100a486c     libcpmt:syserror.obj
 0002:0000a884       ??_C@_0CD@BNPLBMNA@inappropriate?5io?5control?5operati@ 100a4884     libcpmt:syserror.obj
 0002:0000a8a8       ??_C@_0N@OHAFKDEK@invalid?5seek?$AA@ 100a48a8     libcpmt:syserror.obj
 0002:0000a8b8       ??_C@_0P@FLLDBIDK@is?5a?5directory?$AA@ 100a48b8     libcpmt:syserror.obj
 0002:0000a8c8       ??_C@_0N@IFLPBIOP@message?5size?$AA@ 100a48c8     libcpmt:syserror.obj
 0002:0000a8d8       ??_C@_0N@KIIEAAIO@network?5down?$AA@ 100a48d8     libcpmt:syserror.obj
 0002:0000a8e8       ??_C@_0O@FNPDBHEE@network?5reset?$AA@ 100a48e8     libcpmt:syserror.obj
 0002:0000a8f8       ??_C@_0BE@IFNCKGE@network?5unreachable?$AA@ 100a48f8     libcpmt:syserror.obj
 0002:0000a90c       ??_C@_0BA@PFFCAOFK@no?5buffer?5space?$AA@ 100a490c     libcpmt:syserror.obj
 0002:0000a91c       ??_C@_0BB@IEPBLJHK@no?5child?5process?$AA@ 100a491c     libcpmt:syserror.obj
 0002:0000a930       ??_C@_07PLECNNKG@no?5link?$AA@ 100a4930     libcpmt:syserror.obj
 0002:0000a938       ??_C@_0BF@PBGGPKKE@no?5message?5available?$AA@ 100a4938     libcpmt:syserror.obj
 0002:0000a950       ??_C@_0L@EDOLMPAK@no?5message?$AA@ 100a4950     libcpmt:syserror.obj
 0002:0000a95c       ??_C@_0BD@EAMBFIDF@no?5protocol?5option?$AA@ 100a495c     libcpmt:syserror.obj
 0002:0000a970       ??_C@_0BE@MKFDAFMP@no?5stream?5resources?$AA@ 100a4970     libcpmt:syserror.obj
 0002:0000a984       ??_C@_0BK@IMCPHCBI@no?5such?5device?5or?5address?$AA@ 100a4984     libcpmt:syserror.obj
 0002:0000a9a0       ??_C@_0BA@ENLPPKBN@no?5such?5process?$AA@ 100a49a0     libcpmt:syserror.obj
 0002:0000a9b0       ??_C@_0BA@DOCPFFJG@not?5a?5directory?$AA@ 100a49b0     libcpmt:syserror.obj
 0002:0000a9c0       ??_C@_0N@POEIPGGF@not?5a?5socket?$AA@ 100a49c0     libcpmt:syserror.obj
 0002:0000a9d0       ??_C@_0N@LGAPMMPI@not?5a?5stream?$AA@ 100a49d0     libcpmt:syserror.obj
 0002:0000a9e0       ??_C@_0O@GLMIBBEG@not?5connected?$AA@ 100a49e0     libcpmt:syserror.obj
 0002:0000a9f0       ??_C@_0O@NHEDABJP@not?5supported?$AA@ 100a49f0     libcpmt:syserror.obj
 0002:0000aa00       ??_C@_0BG@KDKHOPCO@operation?5in?5progress?$AA@ 100a4a00     libcpmt:syserror.obj
 0002:0000aa18       ??_C@_0BI@OHIEJAAB@operation?5not?5permitted?$AA@ 100a4a18     libcpmt:syserror.obj
 0002:0000aa30       ??_C@_0BI@LNEGIFLN@operation?5not?5supported?$AA@ 100a4a30     libcpmt:syserror.obj
 0002:0000aa48       ??_C@_0BG@OEMDKMEE@operation?5would?5block?$AA@ 100a4a48     libcpmt:syserror.obj
 0002:0000aa60       ??_C@_0L@BLPOFLNJ@owner?5dead?$AA@ 100a4a60     libcpmt:syserror.obj
 0002:0000aa6c       ??_C@_0P@FNPOCJBE@protocol?5error?$AA@ 100a4a6c     libcpmt:syserror.obj
 0002:0000aa7c       ??_C@_0BH@JPPPLHJB@protocol?5not?5supported?$AA@ 100a4a7c     libcpmt:syserror.obj
 0002:0000aa94       ??_C@_0BG@EICBIHDP@read?5only?5file?5system?$AA@ 100a4a94     libcpmt:syserror.obj
 0002:0000aaac       ??_C@_0BO@BJBOMOEJ@resource?5deadlock?5would?5occur?$AA@ 100a4aac     libcpmt:syserror.obj
 0002:0000aacc       ??_C@_0BE@GOIPJJHG@result?5out?5of?5range?$AA@ 100a4acc     libcpmt:syserror.obj
 0002:0000aae0       ??_C@_0BG@MPLKFPAE@state?5not?5recoverable?$AA@ 100a4ae0     libcpmt:syserror.obj
 0002:0000aaf8       ??_C@_0P@DIIFGFCG@stream?5timeout?$AA@ 100a4af8     libcpmt:syserror.obj
 0002:0000ab08       ??_C@_0P@IPFDMIFL@text?5file?5busy?$AA@ 100a4b08     libcpmt:syserror.obj
 0002:0000ab18       ??_C@_09KJPPMAOI@timed?5out?$AA@ 100a4b18     libcpmt:syserror.obj
 0002:0000ab24       ??_C@_0BO@HACHBEKI@too?5many?5files?5open?5in?5system?$AA@ 100a4b24     libcpmt:syserror.obj
 0002:0000ab44       ??_C@_0P@HCOMKFCC@too?5many?5links?$AA@ 100a4b44     libcpmt:syserror.obj
 0002:0000ab54       ??_C@_0BO@EFGOJEF@too?5many?5symbolic?5link?5levels?$AA@ 100a4b54     libcpmt:syserror.obj
 0002:0000ab74       ??_C@_0BA@KGKGOOJA@value?5too?5large?$AA@ 100a4b74     libcpmt:syserror.obj
 0002:0000ab84       ??_C@_0BE@MIEJDDNH@wrong?5protocol?5type?$AA@ 100a4b84     libcpmt:syserror.obj
 0002:0000ab98       __real@0000000000000000    100a4b98     LIBCMT:hypot.obj
 0002:0000aba0       __FPinit                   100a4ba0     LIBCMT:fpinit.obj
 0002:0000aba4       ??_C@_1BI@BGOHAHKC@?$AAm?$AAs?$AAc?$AAo?$AAr?$AAe?$AAe?$AA?4?$AAd?$AAl?$AAl?$AA?$AA@ 100a4ba4     LIBCMT:crt0dat.obj
 0002:0000abbc       ??_C@_0P@MIGLKIOC@CorExitProcess?$AA@ 100a4bbc     LIBCMT:crt0dat.obj
 0002:0000abcc       ?ProcessDetach@NativeDll@<CrtImplementationDetails>@@0IB 100a4bcc     LIBCMT:strftime.obj
 0002:0000abd0       ?ProcessAttach@NativeDll@<CrtImplementationDetails>@@0IB 100a4bd0     LIBCMT:strftime.obj
 0002:0000abd4       ?ThreadAttach@NativeDll@<CrtImplementationDetails>@@0IB 100a4bd4     LIBCMT:strftime.obj
 0002:0000abd8       ?ThreadDetach@NativeDll@<CrtImplementationDetails>@@0IB 100a4bd8     LIBCMT:strftime.obj
 0002:0000abdc       ?ProcessVerifier@NativeDll@<CrtImplementationDetails>@@0IB 100a4bdc     LIBCMT:strftime.obj
 0002:0000f694       ??_7type_info@@6B@         100a9694     LIBCMT:typinfo.obj
 0002:000113c0       __pRawDllMain              100ab3c0     LIBCMT:dllcrt0.obj
 0002:000113c0       __pDefaultRawDllMain       100ab3c0     LIBCMT:dllcrt0.obj
 0002:000113c8       ??_7exception@std@@6B@     100ab3c8     LIBCMT:stdexcpt.obj
 0002:000113d0       ??_C@_0BC@EOODALEL@Unknown?5exception?$AA@ 100ab3d0     LIBCMT:stdexcpt.obj
 0002:000113e8       ??_7bad_cast@std@@6B@      100ab3e8     LIBCMT:stdexcpt.obj
 0002:000113f4       ??_7bad_typeid@std@@6B@    100ab3f4     LIBCMT:stdexcpt.obj
 0002:00011400       ??_7__non_rtti_object@std@@6B@ 100ab400     LIBCMT:stdexcpt.obj
 0002:00011408       ??_C@_06OJHGLDPL@?$CInull?$CJ?$AA@ 100ab408     LIBCMT:output.obj
 0002:00011410       ??_C@_1O@CEDCILHN@?$AA?$CI?$AAn?$AAu?$AAl?$AAl?$AA?$CJ?$AA?$AA@ 100ab410     LIBCMT:output.obj
 0002:00011420       ___lookuptable             100ab420     LIBCMT:output.obj
 0002:0001147c       ??_C@_03KHJOGHMM@exp?$AA@  100ab47c     LIBCMT:fpexcept.obj
 0002:00011480       ??_C@_03JGHBODFD@pow?$AA@  100ab480     LIBCMT:fpexcept.obj
 0002:00011484       ??_C@_03MGHMBJCF@log?$AA@  100ab484     LIBCMT:fpexcept.obj
 0002:00011488       ??_C@_05HGHHAHAP@log10?$AA@ 100ab488     LIBCMT:fpexcept.obj
 0002:00011490       ??_C@_04COOMCNPB@sinh?$AA@ 100ab490     LIBCMT:fpexcept.obj
 0002:00011498       ??_C@_04HPJJNFIM@cosh?$AA@ 100ab498     LIBCMT:fpexcept.obj
 0002:000114a0       ??_C@_04FJHINJAO@tanh?$AA@ 100ab4a0     LIBCMT:fpexcept.obj
 0002:000114a8       ??_C@_04FIHNOPOL@asin?$AA@ 100ab4a8     LIBCMT:fpexcept.obj
 0002:000114b0       ??_C@_04PDIFKINK@acos?$AA@ 100ab4b0     LIBCMT:fpexcept.obj
 0002:000114b8       ??_C@_04MLLJIGOK@atan?$AA@ 100ab4b8     LIBCMT:fpexcept.obj
 0002:000114c0       ??_C@_05KNGEOGJB@atan2?$AA@ 100ab4c0     LIBCMT:fpexcept.obj
 0002:000114c8       ??_C@_04EIAKFFMI@sqrt?$AA@ 100ab4c8     LIBCMT:fpexcept.obj
 0002:000114d0       ??_C@_03BLEJJJBH@sin?$AA@  100ab4d0     LIBCMT:fpexcept.obj
 0002:000114d4       ??_C@_03LALBNOCG@cos?$AA@  100ab4d4     LIBCMT:fpexcept.obj
 0002:000114d8       ??_C@_03IIINPABG@tan?$AA@  100ab4d8     LIBCMT:fpexcept.obj
 0002:000114dc       ??_C@_04GFPJNGEK@ceil?$AA@ 100ab4dc     LIBCMT:fpexcept.obj
 0002:000114e4       ??_C@_05PBJFFIGL@floor?$AA@ 100ab4e4     LIBCMT:fpexcept.obj
 0002:000114ec       ??_C@_04ODHECPBC@fabs?$AA@ 100ab4ec     LIBCMT:fpexcept.obj
 0002:000114f4       ??_C@_04EHEDPDJG@modf?$AA@ 100ab4f4     LIBCMT:fpexcept.obj
 0002:000114fc       ??_C@_05CEJMAHNP@ldexp?$AA@ 100ab4fc     LIBCMT:fpexcept.obj
 0002:00011504       ??_C@_05KBKMEMPO@_cabs?$AA@ 100ab504     LIBCMT:fpexcept.obj
 0002:0001150c       ??_C@_06MEIMCGCF@_hypot?$AA@ 100ab50c     LIBCMT:fpexcept.obj
 0002:00011514       ??_C@_04KEPJIHGP@fmod?$AA@ 100ab514     LIBCMT:fpexcept.obj
 0002:0001151c       ??_C@_05GKKHEGJL@frexp?$AA@ 100ab51c     LIBCMT:fpexcept.obj
 0002:00011524       ??_C@_03MJLDFKDL@_y0?$AA@  100ab524     LIBCMT:fpexcept.obj
 0002:00011528       ??_C@_03NAKIGLHK@_y1?$AA@  100ab528     LIBCMT:fpexcept.obj
 0002:0001152c       ??_C@_03ONILCKOB@_yn?$AA@  100ab52c     LIBCMT:fpexcept.obj
 0002:00011530       ??_C@_05JGDBENOH@_logb?$AA@ 100ab530     LIBCMT:fpexcept.obj
 0002:00011538       ??_C@_0L@KDOEJCKC@_nextafter?$AA@ 100ab538     LIBCMT:fpexcept.obj
 0002:00011544       ??_C@_05KLBDPFGC@e?$CL000?$AA@ 100ab544     LIBCMT:cvt.obj
 0002:0001156c       ??_C@_1BK@MGMFAEKH@?$AAk?$AAe?$AAr?$AAn?$AAe?$AAl?$AA3?$AA2?$AA?4?$AAd?$AAl?$AAl?$AA?$AA@ 100ab56c     LIBCMT:winapisupp.obj
 0002:00011588       ??_C@_08KNHFBNJ@FlsAlloc?$AA@ 100ab588     LIBCMT:winapisupp.obj
 0002:00011594       ??_C@_07PEJMOBNF@FlsFree?$AA@ 100ab594     LIBCMT:winapisupp.obj
 0002:0001159c       ??_C@_0M@GDNOONDI@FlsGetValue?$AA@ 100ab59c     LIBCMT:winapisupp.obj
 0002:000115a8       ??_C@_0M@JCPCPOEF@FlsSetValue?$AA@ 100ab5a8     LIBCMT:winapisupp.obj
 0002:000115b4       ??_C@_0BM@HCFOFFN@InitializeCriticalSectionEx?$AA@ 100ab5b4     LIBCMT:winapisupp.obj
 0002:000115d0       ??_C@_0P@DLHPPCNH@CreateEventExW?$AA@ 100ab5d0     LIBCMT:winapisupp.obj
 0002:000115e0       ??_C@_0BD@KIEEOEEH@CreateSemaphoreExW?$AA@ 100ab5e0     LIBCMT:winapisupp.obj
 0002:000115f4       ??_C@_0BI@BKLFFAPO@SetThreadStackGuarantee?$AA@ 100ab5f4     LIBCMT:winapisupp.obj
 0002:0001160c       ??_C@_0BG@OGFAJCKC@CreateThreadpoolTimer?$AA@ 100ab60c     LIBCMT:winapisupp.obj
 0002:00011624       ??_C@_0BD@LPLEMMDI@SetThreadpoolTimer?$AA@ 100ab624     LIBCMT:winapisupp.obj
 0002:00011638       ??_C@_0CA@FMNJENH@WaitForThreadpoolTimerCallbacks?$AA@ 100ab638     LIBCMT:winapisupp.obj
 0002:00011658       ??_C@_0BF@DCFCCNOC@CloseThreadpoolTimer?$AA@ 100ab658     LIBCMT:winapisupp.obj
 0002:00011670       ??_C@_0BF@FLABGKKM@CreateThreadpoolWait?$AA@ 100ab670     LIBCMT:winapisupp.obj
 0002:00011688       ??_C@_0BC@MGCOHNA@SetThreadpoolWait?$AA@ 100ab688     LIBCMT:winapisupp.obj
 0002:0001169c       ??_C@_0BE@OCIOMIMP@CloseThreadpoolWait?$AA@ 100ab69c     LIBCMT:winapisupp.obj
 0002:000116b0       ??_C@_0BJ@LKGHFHBO@FlushProcessWriteBuffers?$AA@ 100ab6b0     LIBCMT:winapisupp.obj
 0002:000116cc       ??_C@_0BP@KALKKPMO@FreeLibraryWhenCallbackReturns?$AA@ 100ab6cc     LIBCMT:winapisupp.obj
 0002:000116ec       ??_C@_0BK@DFNBACLA@GetCurrentProcessorNumber?$AA@ 100ab6ec     LIBCMT:winapisupp.obj
 0002:00011708       ??_C@_0BP@KHGALBC@GetLogicalProcessorInformation?$AA@ 100ab708     LIBCMT:winapisupp.obj
 0002:00011728       ??_C@_0BE@FKKLLFLM@CreateSymbolicLinkW?$AA@ 100ab728     LIBCMT:winapisupp.obj
 0002:0001173c       ??_C@_0BJ@OHNKDLIJ@SetDefaultDllDirectories?$AA@ 100ab73c     LIBCMT:winapisupp.obj
 0002:00011758       ??_C@_0BE@LJANKFHF@EnumSystemLocalesEx?$AA@ 100ab758     LIBCMT:winapisupp.obj
 0002:0001176c       ??_C@_0BA@IHGNDAEB@CompareStringEx?$AA@ 100ab76c     LIBCMT:winapisupp.obj
 0002:0001177c       ??_C@_0BA@EPCJIIPD@GetDateFormatEx?$AA@ 100ab77c     LIBCMT:winapisupp.obj
 0002:0001178c       ??_C@_0BA@ONOKGCMP@GetLocaleInfoEx?$AA@ 100ab78c     LIBCMT:winapisupp.obj
 0002:0001179c       ??_C@_0BA@CIJJKCJJ@GetTimeFormatEx?$AA@ 100ab79c     LIBCMT:winapisupp.obj
 0002:000117ac       ??_C@_0BJ@PBCCBIPI@GetUserDefaultLocaleName?$AA@ 100ab7ac     LIBCMT:winapisupp.obj
 0002:000117c8       ??_C@_0BC@CELBKLLA@IsValidLocaleName?$AA@ 100ab7c8     LIBCMT:winapisupp.obj
 0002:000117dc       ??_C@_0O@KKBNKAPF@LCMapStringEx?$AA@ 100ab7dc     LIBCMT:winapisupp.obj
 0002:000117ec       ??_C@_0BE@JOGNEJCI@GetCurrentPackageId?$AA@ 100ab7ec     LIBCMT:winapisupp.obj
 0002:00011800       ??_C@_0P@CDHHOHKP@GetTickCount64?$AA@ 100ab800     LIBCMT:winapisupp.obj
 0002:00011810       ??_C@_0BO@KPCLFDJJ@GetFileInformationByHandleExW?$AA@ 100ab810     LIBCMT:winapisupp.obj
 0002:00011830       ??_C@_0BM@MHIDLABK@SetFileInformationByHandleW?$AA@ 100ab830     LIBCMT:winapisupp.obj
 0002:00011908       ??_C@_1FK@PGACCAFB@?$AAR?$AA6?$AA0?$AA0?$AA2?$AA?$AN?$AA?6?$AA?9?$AA?5?$AAf?$AAl?$AAo?$AAa?$AAt?$AAi?$AAn?$AAg?$AA?5?$AAp?$AAo?$AAi?$AAn?$AAt?$AA?5?$AAs?$AAu?$AAp?$AAp?$AAo?$AAr?$AAt?$AA?5@ 100ab908     LIBCMT:crt0msg.obj
 0002:00011968       ??_C@_1FE@LLNEDJMD@?$AAR?$AA6?$AA0?$AA0?$AA8?$AA?$AN?$AA?6?$AA?9?$AA?5?$AAn?$AAo?$AAt?$AA?5?$AAe?$AAn?$AAo?$AAu?$AAg?$AAh?$AA?5?$AAs?$AAp?$AAa?$AAc?$AAe?$AA?5?$AAf?$AAo?$AAr?$AA?5?$AAa?$AAr@ 100ab968     LIBCMT:crt0msg.obj
 0002:000119c0       ??_C@_1FI@HONFMGBI@?$AAR?$AA6?$AA0?$AA0?$AA9?$AA?$AN?$AA?6?$AA?9?$AA?5?$AAn?$AAo?$AAt?$AA?5?$AAe?$AAn?$AAo?$AAu?$AAg?$AAh?$AA?5?$AAs?$AAp?$AAa?$AAc?$AAe?$AA?5?$AAf?$AAo?$AAr?$AA?5?$AAe?$AAn@ 100ab9c0     LIBCMT:crt0msg.obj
 0002:00011a18       ??_C@_1EG@BEHAGFJD@?$AAR?$AA6?$AA0?$AA1?$AA0?$AA?$AN?$AA?6?$AA?9?$AA?5?$AAa?$AAb?$AAo?$AAr?$AAt?$AA?$CI?$AA?$CJ?$AA?5?$AAh?$AAa?$AAs?$AA?5?$AAb?$AAe?$AAe?$AAn?$AA?5?$AAc?$AAa?$AAl?$AAl?$AAe?$AAd@ 100aba18     LIBCMT:crt0msg.obj
 0002:00011a60       ??_C@_1FI@LOGNIKDM@?$AAR?$AA6?$AA0?$AA1?$AA6?$AA?$AN?$AA?6?$AA?9?$AA?5?$AAn?$AAo?$AAt?$AA?5?$AAe?$AAn?$AAo?$AAu?$AAg?$AAh?$AA?5?$AAs?$AAp?$AAa?$AAc?$AAe?$AA?5?$AAf?$AAo?$AAr?$AA?5?$AAt?$AAh@ 100aba60     LIBCMT:crt0msg.obj
 0002:00011ab8       ??_C@_1FK@BEOGODMC@?$AAR?$AA6?$AA0?$AA1?$AA7?$AA?$AN?$AA?6?$AA?9?$AA?5?$AAu?$AAn?$AAe?$AAx?$AAp?$AAe?$AAc?$AAt?$AAe?$AAd?$AA?5?$AAm?$AAu?$AAl?$AAt?$AAi?$AAt?$AAh?$AAr?$AAe?$AAa?$AAd?$AA?5@ 100abab8     LIBCMT:crt0msg.obj
 0002:00011b18       ??_C@_1EC@JIBHAOPH@?$AAR?$AA6?$AA0?$AA1?$AA8?$AA?$AN?$AA?6?$AA?9?$AA?5?$AAu?$AAn?$AAe?$AAx?$AAp?$AAe?$AAc?$AAt?$AAe?$AAd?$AA?5?$AAh?$AAe?$AAa?$AAp?$AA?5?$AAe?$AAr?$AAr?$AAo?$AAr?$AA?$AN?$AA?6@ 100abb18     LIBCMT:crt0msg.obj
 0002:00011b60       ??_C@_1FC@ECHBIFBC@?$AAR?$AA6?$AA0?$AA1?$AA9?$AA?$AN?$AA?6?$AA?9?$AA?5?$AAu?$AAn?$AAa?$AAb?$AAl?$AAe?$AA?5?$AAt?$AAo?$AA?5?$AAo?$AAp?$AAe?$AAn?$AA?5?$AAc?$AAo?$AAn?$AAs?$AAo?$AAl?$AAe?$AA?5@ 100abb60     LIBCMT:crt0msg.obj
 0002:00011bb8       ??_C@_1GK@FHCKBEFA@?$AAR?$AA6?$AA0?$AA2?$AA4?$AA?$AN?$AA?6?$AA?9?$AA?5?$AAn?$AAo?$AAt?$AA?5?$AAe?$AAn?$AAo?$AAu?$AAg?$AAh?$AA?5?$AAs?$AAp?$AAa?$AAc?$AAe?$AA?5?$AAf?$AAo?$AAr?$AA?5?$AA_?$AAo@ 100abbb8     LIBCMT:crt0msg.obj
 0002:00011c28       ??_C@_1EM@MAADIHMB@?$AAR?$AA6?$AA0?$AA2?$AA5?$AA?$AN?$AA?6?$AA?9?$AA?5?$AAp?$AAu?$AAr?$AAe?$AA?5?$AAv?$AAi?$AAr?$AAt?$AAu?$AAa?$AAl?$AA?5?$AAf?$AAu?$AAn?$AAc?$AAt?$AAi?$AAo?$AAn?$AA?5?$AAc@ 100abc28     LIBCMT:crt0msg.obj
 0002:00011c78       ??_C@_1GK@MCAAGJMO@?$AAR?$AA6?$AA0?$AA2?$AA6?$AA?$AN?$AA?6?$AA?9?$AA?5?$AAn?$AAo?$AAt?$AA?5?$AAe?$AAn?$AAo?$AAu?$AAg?$AAh?$AA?5?$AAs?$AAp?$AAa?$AAc?$AAe?$AA?5?$AAf?$AAo?$AAr?$AA?5?$AAs?$AAt@ 100abc78     LIBCMT:crt0msg.obj
 0002:00011ce8       ??_C@_1GK@MFGOKLAG@?$AAR?$AA6?$AA0?$AA2?$AA7?$AA?$AN?$AA?6?$AA?9?$AA?5?$AAn?$AAo?$AAt?$AA?5?$AAe?$AAn?$AAo?$AAu?$AAg?$AAh?$AA?5?$AAs?$AAp?$AAa?$AAc?$AAe?$AA?5?$AAf?$AAo?$AAr?$AA?5?$AAl?$AAo@ 100abce8     LIBCMT:crt0msg.obj
 0002:00011d58       ??_C@_1EK@HHFLMAOL@?$AAR?$AA6?$AA0?$AA2?$AA8?$AA?$AN?$AA?6?$AA?9?$AA?5?$AAu?$AAn?$AAa?$AAb?$AAl?$AAe?$AA?5?$AAt?$AAo?$AA?5?$AAi?$AAn?$AAi?$AAt?$AAi?$AAa?$AAl?$AAi?$AAz?$AAe?$AA?5?$AAh?$AAe@ 100abd58     LIBCMT:crt0msg.obj
 0002:00011da4       ??_C@_1DO@BMFCDCD@?$AAR?$AA6?$AA0?$AA3?$AA0?$AA?$AN?$AA?6?$AA?9?$AA?5?$AAC?$AAR?$AAT?$AA?5?$AAn?$AAo?$AAt?$AA?5?$AAi?$AAn?$AAi?$AAt?$AAi?$AAa?$AAl?$AAi?$AAz?$AAe?$AAd?$AA?$AN?$AA?6?$AA?$AA@ 100abda4     LIBCMT:crt0msg.obj
 0002:00011de8       ??_C@_1MG@ENCOOIDF@?$AAR?$AA6?$AA0?$AA3?$AA1?$AA?$AN?$AA?6?$AA?9?$AA?5?$AAA?$AAt?$AAt?$AAe?$AAm?$AAp?$AAt?$AA?5?$AAt?$AAo?$AA?5?$AAi?$AAn?$AAi?$AAt?$AAi?$AAa?$AAl?$AAi?$AAz?$AAe?$AA?5?$AAt@ 100abde8     LIBCMT:crt0msg.obj
 0002:00011eb0       ??_C@_1GG@GOPILAJP@?$AAR?$AA6?$AA0?$AA3?$AA2?$AA?$AN?$AA?6?$AA?9?$AA?5?$AAn?$AAo?$AAt?$AA?5?$AAe?$AAn?$AAo?$AAu?$AAg?$AAh?$AA?5?$AAs?$AAp?$AAa?$AAc?$AAe?$AA?5?$AAf?$AAo?$AAr?$AA?5?$AAl?$AAo@ 100abeb0     LIBCMT:crt0msg.obj
 0002:00011f18       ??_C@_1BOO@KGEDBGAJ@?$AAR?$AA6?$AA0?$AA3?$AA3?$AA?$AN?$AA?6?$AA?9?$AA?5?$AAA?$AAt?$AAt?$AAe?$AAm?$AAp?$AAt?$AA?5?$AAt?$AAo?$AA?5?$AAu?$AAs?$AAe?$AA?5?$AAM?$AAS?$AAI?$AAL?$AA?5?$AAc?$AAo?$AAd@ 100abf18     LIBCMT:crt0msg.obj
 0002:00012108       ??_C@_1GG@MKFPEKFO@?$AAR?$AA6?$AA0?$AA3?$AA4?$AA?$AN?$AA?6?$AA?9?$AA?5?$AAi?$AAn?$AAc?$AAo?$AAn?$AAs?$AAi?$AAs?$AAt?$AAe?$AAn?$AAt?$AA?5?$AAo?$AAn?$AAe?$AAx?$AAi?$AAt?$AA?5?$AAb?$AAe?$AAg@ 100ac108     LIBCMT:crt0msg.obj
 0002:00012170       ??_C@_1BO@BFCDCGC@?$AAD?$AAO?$AAM?$AAA?$AAI?$AAN?$AA?5?$AAe?$AAr?$AAr?$AAo?$AAr?$AA?$AN?$AA?6?$AA?$AA@ 100ac170     LIBCMT:crt0msg.obj
 0002:00012190       ??_C@_1BK@KMOMNAAI@?$AAS?$AAI?$AAN?$AAG?$AA?5?$AAe?$AAr?$AAr?$AAo?$AAr?$AA?$AN?$AA?6?$AA?$AA@ 100ac190     LIBCMT:crt0msg.obj
 0002:000121ac       ??_C@_1BM@JBBEPPHI@?$AAT?$AAL?$AAO?$AAS?$AAS?$AA?5?$AAe?$AAr?$AAr?$AAo?$AAr?$AA?$AN?$AA?6?$AA?$AA@ 100ac1ac     LIBCMT:crt0msg.obj
 0002:000121c8       ??_C@_15JNBOKNOG@?$AA?$AN?$AA?6?$AA?$AA@ 100ac1c8     LIBCMT:crt0msg.obj
 0002:000121d0       ??_C@_1BO@BKOMIGKJ@?$AAr?$AAu?$AAn?$AAt?$AAi?$AAm?$AAe?$AA?5?$AAe?$AAr?$AAr?$AAo?$AAr?$AA?5?$AA?$AA@ 100ac1d0     LIBCMT:crt0msg.obj
 0002:000121f0       ??_C@_1DE@JNGNBFGO@?$AAR?$AAu?$AAn?$AAt?$AAi?$AAm?$AAe?$AA?5?$AAE?$AAr?$AAr?$AAo?$AAr?$AA?$CB?$AA?6?$AA?6?$AAP?$AAr?$AAo?$AAg?$AAr?$AAa?$AAm?$AA?3?$AA?5?$AA?$AA@ 100ac1f0     LIBCMT:crt0msg.obj
 0002:00012224       ??_C@_1CO@EAEJAADC@?$AA?$DM?$AAp?$AAr?$AAo?$AAg?$AAr?$AAa?$AAm?$AA?5?$AAn?$AAa?$AAm?$AAe?$AA?5?$AAu?$AAn?$AAk?$AAn?$AAo?$AAw?$AAn?$AA?$DO?$AA?$AA@ 100ac224     LIBCMT:crt0msg.obj
 0002:00012254       ??_C@_17LGKOMLJ@?$AA?4?$AA?4?$AA?4?$AA?$AA@ 100ac254     LIBCMT:crt0msg.obj
 0002:0001225c       ??_C@_15IABLJNFO@?$AA?6?$AA?6?$AA?$AA@ 100ac25c     LIBCMT:crt0msg.obj
 0002:00012268       ??_C@_1EK@MBDPDCGA@?$AAM?$AAi?$AAc?$AAr?$AAo?$AAs?$AAo?$AAf?$AAt?$AA?5?$AAV?$AAi?$AAs?$AAu?$AAa?$AAl?$AA?5?$AAC?$AA?$CL?$AA?$CL?$AA?5?$AAR?$AAu?$AAn?$AAt?$AAi?$AAm?$AAe?$AA?5?$AAL?$AAi?$AAb@ 100ac268     LIBCMT:crt0msg.obj
 0002:000122b4       ??_C@_1BK@GAEMIDIL@?$AAA?$AAD?$AAV?$AAA?$AAP?$AAI?$AA3?$AA2?$AA?4?$AAD?$AAL?$AAL?$AA?$AA@ 100ac2b4     LIBCMT:rand_s.obj
 0002:000122d0       ??_C@_0BC@JEAENNKH@SystemFunction036?$AA@ 100ac2d0     LIBCMT:rand_s.obj
 0002:000122f4       ??_C@_1M@HPNHIDJI@?$AAj?$AAa?$AA?9?$AAJ?$AAP?$AA?$AA@ 100ac2f4     LIBCMT:mbctype.obj
 0002:00012300       ??_C@_1M@BIBDDEMK@?$AAz?$AAh?$AA?9?$AAC?$AAN?$AA?$AA@ 100ac300     LIBCMT:mbctype.obj
 0002:0001230c       ??_C@_1M@JLOOOEGK@?$AAk?$AAo?$AA?9?$AAK?$AAR?$AA?$AA@ 100ac30c     LIBCMT:mbctype.obj
 0002:00012318       ??_C@_1M@CLNBBOPM@?$AAz?$AAh?$AA?9?$AAT?$AAW?$AA?$AA@ 100ac318     LIBCMT:mbctype.obj
 0002:00012324       ??_C@_1M@PBPMMENC@?$AAa?$AAm?$AA?1?$AAp?$AAm?$AA?$AA@ 100ac324     LIBCMT:wcsftime.obj
 0002:00012330       ??_C@_17BLFJJHMM@?$AAa?$AA?1?$AAp?$AA?$AA@ 100ac330     LIBCMT:wcsftime.obj
 0002:00012338       ??_C@_03KOEHGMDN@Sun?$AA@  100ac338     LIBCMT:nlsdata.obj
 0002:0001233c       ??_C@_03PDAGKDH@Mon?$AA@   100ac33c     LIBCMT:nlsdata.obj
 0002:00012340       ??_C@_03NAGEINEP@Tue?$AA@  100ac340     LIBCMT:nlsdata.obj
 0002:00012344       ??_C@_03MHOMLAJA@Wed?$AA@  100ac344     LIBCMT:nlsdata.obj
 0002:00012348       ??_C@_03IOFIKPDN@Thu?$AA@  100ac348     LIBCMT:nlsdata.obj
 0002:0001234c       ??_C@_03IDIOELNC@Fri?$AA@  100ac34c     LIBCMT:nlsdata.obj
 0002:00012350       ??_C@_03FEFJNEK@Sat?$AA@   100ac350     LIBCMT:nlsdata.obj
 0002:00012354       ??_C@_06OOPIFAJ@Sunday?$AA@ 100ac354     LIBCMT:nlsdata.obj
 0002:0001235c       ??_C@_06JLEDEDGH@Monday?$AA@ 100ac35c     LIBCMT:nlsdata.obj
 0002:00012364       ??_C@_07BAAGCFCM@Tuesday?$AA@ 100ac364     LIBCMT:nlsdata.obj
 0002:0001236c       ??_C@_09DLIGFAKA@Wednesday?$AA@ 100ac36c     LIBCMT:nlsdata.obj
 0002:00012378       ??_C@_08HACCIKIA@Thursday?$AA@ 100ac378     LIBCMT:nlsdata.obj
 0002:00012384       ??_C@_06JECMNKMI@Friday?$AA@ 100ac384     LIBCMT:nlsdata.obj
 0002:0001238c       ??_C@_08INBOOONO@Saturday?$AA@ 100ac38c     LIBCMT:nlsdata.obj
 0002:00012398       ??_C@_03JIHJHPIE@Jan?$AA@  100ac398     LIBCMT:nlsdata.obj
 0002:0001239c       ??_C@_03HJBDCHOM@Feb?$AA@  100ac39c     LIBCMT:nlsdata.obj
 0002:000123a0       ??_C@_03ODNJBKGA@Mar?$AA@  100ac3a0     LIBCMT:nlsdata.obj
 0002:000123a4       ??_C@_03LEOLGMJP@Apr?$AA@  100ac3a4     LIBCMT:nlsdata.obj
 0002:000123a8       ??_C@_03CNMDKL@May?$AA@    100ac3a8     LIBCMT:nlsdata.obj
 0002:000123ac       ??_C@_03IDFGHECI@Jun?$AA@  100ac3ac     LIBCMT:nlsdata.obj
 0002:000123b0       ??_C@_03LBGABGKK@Jul?$AA@  100ac3b0     LIBCMT:nlsdata.obj
 0002:000123b4       ??_C@_03IFJFEIGA@Aug?$AA@  100ac3b4     LIBCMT:nlsdata.obj
 0002:000123b8       ??_C@_03GGCAPAJC@Sep?$AA@  100ac3b8     LIBCMT:nlsdata.obj
 0002:000123bc       ??_C@_03BMAOKBAD@Oct?$AA@  100ac3bc     LIBCMT:nlsdata.obj
 0002:000123c0       ??_C@_03JPJOFNIA@Nov?$AA@  100ac3c0     LIBCMT:nlsdata.obj
 0002:000123c4       ??_C@_03MKABNOCG@Dec?$AA@  100ac3c4     LIBCMT:nlsdata.obj
 0002:000123c8       ??_C@_07CGJPFGJA@January?$AA@ 100ac3c8     LIBCMT:nlsdata.obj
 0002:000123d0       ??_C@_08GNJGEPFN@February?$AA@ 100ac3d0     LIBCMT:nlsdata.obj
 0002:000123dc       ??_C@_05HPCKOFNC@March?$AA@ 100ac3dc     LIBCMT:nlsdata.obj
 0002:000123e4       ??_C@_05DMJDNLEJ@April?$AA@ 100ac3e4     LIBCMT:nlsdata.obj
 0002:000123ec       ??_C@_04CNLMGBGM@June?$AA@ 100ac3ec     LIBCMT:nlsdata.obj
 0002:000123f4       ??_C@_04MIEPOIFP@July?$AA@ 100ac3f4     LIBCMT:nlsdata.obj
 0002:000123fc       ??_C@_06LBBHFDDG@August?$AA@ 100ac3fc     LIBCMT:nlsdata.obj
 0002:00012404       ??_C@_09BHHEALKD@September?$AA@ 100ac404     LIBCMT:nlsdata.obj
 0002:00012410       ??_C@_07JJNFCEND@October?$AA@ 100ac410     LIBCMT:nlsdata.obj
 0002:00012418       ??_C@_08HCHEGEOA@November?$AA@ 100ac418     LIBCMT:nlsdata.obj
 0002:00012424       ??_C@_08EDHMEBNP@December?$AA@ 100ac424     LIBCMT:nlsdata.obj
 0002:00012430       ??_C@_02DEDBPAFC@AM?$AA@   100ac430     LIBCMT:nlsdata.obj
 0002:00012434       ??_C@_02CJNFDJBF@PM?$AA@   100ac434     LIBCMT:nlsdata.obj
 0002:00012438       ??_C@_08BPBNCDIB@MM?1dd?1yy?$AA@ 100ac438     LIBCMT:nlsdata.obj
 0002:00012444       ??_C@_0BE@CKGJFCPC@dddd?0?5MMMM?5dd?0?5yyyy?$AA@ 100ac444     LIBCMT:nlsdata.obj
 0002:00012458       ??_C@_08JCCMCCIL@HH?3mm?3ss?$AA@ 100ac458     LIBCMT:nlsdata.obj
 0002:00012464       ??_C@_17MBGCMIPB@?$AAS?$AAu?$AAn?$AA?$AA@ 100ac464     LIBCMT:nlsdata.obj
 0002:0001246c       ??_C@_17KBOMKBF@?$AAM?$AAo?$AAn?$AA?$AA@ 100ac46c     LIBCMT:nlsdata.obj
 0002:00012474       ??_C@_17BMKGEGOJ@?$AAT?$AAu?$AAe?$AA?$AA@ 100ac474     LIBCMT:nlsdata.obj
 0002:0001247c       ??_C@_17CJEDCEPE@?$AAW?$AAe?$AAd?$AA?$AA@ 100ac47c     LIBCMT:nlsdata.obj
 0002:00012484       ??_C@_17PDPHAADD@?$AAT?$AAh?$AAu?$AA?$AA@ 100ac484     LIBCMT:nlsdata.obj
 0002:0001248c       ??_C@_17HFOLPPLP@?$AAF?$AAr?$AAi?$AA?$AA@ 100ac48c     LIBCMT:nlsdata.obj
 0002:00012494       ??_C@_17GGIBDPIH@?$AAS?$AAa?$AAt?$AA?$AA@ 100ac494     LIBCMT:nlsdata.obj
 0002:0001249c       ??_C@_1O@IHNHDHPB@?$AAS?$AAu?$AAn?$AAd?$AAa?$AAy?$AA?$AA@ 100ac49c     LIBCMT:nlsdata.obj
 0002:000124ac       ??_C@_1O@MMNBFLIA@?$AAM?$AAo?$AAn?$AAd?$AAa?$AAy?$AA?$AA@ 100ac4ac     LIBCMT:nlsdata.obj
 0002:000124bc       ??_C@_1BA@ENFBFFEK@?$AAT?$AAu?$AAe?$AAs?$AAd?$AAa?$AAy?$AA?$AA@ 100ac4bc     LIBCMT:nlsdata.obj
 0002:000124cc       ??_C@_1BE@EBOGMDOH@?$AAW?$AAe?$AAd?$AAn?$AAe?$AAs?$AAd?$AAa?$AAy?$AA?$AA@ 100ac4cc     LIBCMT:nlsdata.obj
 0002:000124e0       ??_C@_1BC@HHMNLIHE@?$AAT?$AAh?$AAu?$AAr?$AAs?$AAd?$AAa?$AAy?$AA?$AA@ 100ac4e0     LIBCMT:nlsdata.obj
 0002:000124f4       ??_C@_1O@PDICJHAG@?$AAF?$AAr?$AAi?$AAd?$AAa?$AAy?$AA?$AA@ 100ac4f4     LIBCMT:nlsdata.obj
 0002:00012504       ??_C@_1BC@ENMNNPAJ@?$AAS?$AAa?$AAt?$AAu?$AAr?$AAd?$AAa?$AAy?$AA?$AA@ 100ac504     LIBCMT:nlsdata.obj
 0002:00012518       ??_C@_17DKNBKCHM@?$AAJ?$AAa?$AAn?$AA?$AA@ 100ac518     LIBCMT:nlsdata.obj
 0002:00012520       ??_C@_17LMDJEKJN@?$AAF?$AAe?$AAb?$AA?$AA@ 100ac520     LIBCMT:nlsdata.obj
 0002:00012528       ??_C@_17CKNLEDEC@?$AAM?$AAa?$AAr?$AA?$AA@ 100ac528     LIBCMT:nlsdata.obj
 0002:00012530       ??_C@_17LFPOIHDD@?$AAA?$AAp?$AAr?$AA?$AA@ 100ac530     LIBCMT:nlsdata.obj
 0002:00012538       ??_C@_17PNNKMEED@?$AAM?$AAa?$AAy?$AA?$AA@ 100ac538     LIBCMT:nlsdata.obj
 0002:00012540       ??_C@_17KCJGOCPB@?$AAJ?$AAu?$AAn?$AA?$AA@ 100ac540     LIBCMT:nlsdata.obj
 0002:00012548       ??_C@_17IJPCKHK@?$AAJ?$AAu?$AAl?$AA?$AA@ 100ac548     LIBCMT:nlsdata.obj
 0002:00012550       ??_C@_17ICPELBCN@?$AAA?$AAu?$AAg?$AA?$AA@ 100ac550     LIBCMT:nlsdata.obj
 0002:00012558       ??_C@_17HCHCOKMG@?$AAS?$AAe?$AAp?$AA?$AA@ 100ac558     LIBCMT:nlsdata.obj
 0002:00012560       ??_C@_17FNLKOI@?$AAO?$AAc?$AAt?$AA?$AA@ 100ac560     LIBCMT:nlsdata.obj
 0002:00012568       ??_C@_17BBDMLCIG@?$AAN?$AAo?$AAv?$AA?$AA@ 100ac568     LIBCMT:nlsdata.obj
 0002:00012570       ??_C@_17EGKACKIF@?$AAD?$AAe?$AAc?$AA?$AA@ 100ac570     LIBCMT:nlsdata.obj
 0002:00012578       ??_C@_1BA@EFMEIEBA@?$AAJ?$AAa?$AAn?$AAu?$AAa?$AAr?$AAy?$AA?$AA@ 100ac578     LIBCMT:nlsdata.obj
 0002:00012588       ??_C@_1BC@JGDDFFAM@?$AAF?$AAe?$AAb?$AAr?$AAu?$AAa?$AAr?$AAy?$AA?$AA@ 100ac588     LIBCMT:nlsdata.obj
 0002:0001259c       ??_C@_1M@IKEENEDF@?$AAM?$AAa?$AAr?$AAc?$AAh?$AA?$AA@ 100ac59c     LIBCMT:nlsdata.obj
 0002:000125a8       ??_C@_1M@GJNLMHFD@?$AAA?$AAp?$AAr?$AAi?$AAl?$AA?$AA@ 100ac5a8     LIBCMT:nlsdata.obj
 0002:000125b4       ??_C@_19EPFLPGAP@?$AAJ?$AAu?$AAn?$AAe?$AA?$AA@ 100ac5b4     LIBCMT:nlsdata.obj
 0002:000125c0       ??_C@_19BIFMLPCD@?$AAJ?$AAu?$AAl?$AAy?$AA?$AA@ 100ac5c0     LIBCMT:nlsdata.obj
 0002:000125cc       ??_C@_1O@PAHLKOAC@?$AAA?$AAu?$AAg?$AAu?$AAs?$AAt?$AA?$AA@ 100ac5cc     LIBCMT:nlsdata.obj
 0002:000125dc       ??_C@_1BE@DKAAMBJL@?$AAS?$AAe?$AAp?$AAt?$AAe?$AAm?$AAb?$AAe?$AAr?$AA?$AA@ 100ac5dc     LIBCMT:nlsdata.obj
 0002:000125f0       ??_C@_1BA@EPANDLNG@?$AAO?$AAc?$AAt?$AAo?$AAb?$AAe?$AAr?$AA?$AA@ 100ac5f0     LIBCMT:nlsdata.obj
 0002:00012600       ??_C@_1BC@BGLIFPF@?$AAN?$AAo?$AAv?$AAe?$AAm?$AAb?$AAe?$AAr?$AA?$AA@ 100ac600     LIBCMT:nlsdata.obj
 0002:00012614       ??_C@_1BC@FEMKIFH@?$AAD?$AAe?$AAc?$AAe?$AAm?$AAb?$AAe?$AAr?$AA?$AA@ 100ac614     LIBCMT:nlsdata.obj
 0002:00012628       ??_C@_15ODEHAHHF@?$AAA?$AAM?$AA?$AA@ 100ac628     LIBCMT:nlsdata.obj
 0002:00012630       ??_C@_15CLMNNGEL@?$AAP?$AAM?$AA?$AA@ 100ac630     LIBCMT:nlsdata.obj
 0002:00012638       ??_C@_1BC@IEBCMHCM@?$AAM?$AAM?$AA?1?$AAd?$AAd?$AA?1?$AAy?$AAy?$AA?$AA@ 100ac638     LIBCMT:nlsdata.obj
 0002:0001264c       ??_C@_1CI@KNAKOEBC@?$AAd?$AAd?$AAd?$AAd?$AA?0?$AA?5?$AAM?$AAM?$AAM?$AAM?$AA?5?$AAd?$AAd?$AA?0?$AA?5?$AAy?$AAy?$AAy?$AAy?$AA?$AA@ 100ac64c     LIBCMT:nlsdata.obj
 0002:00012674       ??_C@_1BC@GDGBMEMK@?$AAH?$AAH?$AA?3?$AAm?$AAm?$AA?3?$AAs?$AAs?$AA?$AA@ 100ac674     LIBCMT:nlsdata.obj
 0002:00012688       ??_C@_1M@BMHNFIME@?$AAe?$AAn?$AA?9?$AAU?$AAS?$AA?$AA@ 100ac688     LIBCMT:nlsdata.obj
 0002:00012694       ___dnames                  100ac694     LIBCMT:timeset.obj
 0002:000126ac       ___mnames                  100ac6ac     LIBCMT:timeset.obj
 0002:000126d4       ??_C@_02CLFPBFFP@TZ?$AA@   100ac6d4     LIBCMT:tzset.obj
 0002:000126d8       __pDestructExceptionObject 100ac6d8     LIBCMT:frame.obj
 0002:000126e0       ??_7bad_exception@std@@6B@ 100ac6e0     LIBCMT:frame.obj
 0002:000126e8       ??_C@_0O@DPKOEFFH@bad?5exception?$AA@ 100ac6e8     LIBCMT:frame.obj
 0002:00012760       ??_C@_05EOHGHCHD@exp10?$AA@ 100ac760     LIBCMT:libm_error.obj
 0002:00012768       ??_C@_15HEJOKEHO@?$AA?$DP?$AA?$CK?$AA?$AA@ 100ac768     LIBCMT:wstati32.obj
 0002:00012770       ??_C@_17BAAFHAL@?$AA?4?$AA?1?$AA?2?$AA?$AA@ 100ac770     LIBCMT:wstati32.obj
 0002:00012778       ___lc_category             100ac778     LIBCMT:wsetloca.obj
 0002:000127c0       ??_C@_1O@GIFLHMA@?$AAL?$AAC?$AA_?$AAA?$AAL?$AAL?$AA?$AA@ 100ac7c0     LIBCMT:wsetloca.obj
 0002:000127d0       ??_C@_1BG@PPOMIBNJ@?$AAL?$AAC?$AA_?$AAC?$AAO?$AAL?$AAL?$AAA?$AAT?$AAE?$AA?$AA@ 100ac7d0     LIBCMT:wsetloca.obj
 0002:000127e8       ??_C@_1BC@FFJGAPJM@?$AAL?$AAC?$AA_?$AAC?$AAT?$AAY?$AAP?$AAE?$AA?$AA@ 100ac7e8     LIBCMT:wsetloca.obj
 0002:000127fc       ??_C@_1BI@PCKFNJFB@?$AAL?$AAC?$AA_?$AAM?$AAO?$AAN?$AAE?$AAT?$AAA?$AAR?$AAY?$AA?$AA@ 100ac7fc     LIBCMT:wsetloca.obj
 0002:00012814       ??_C@_1BG@ENIEDKID@?$AAL?$AAC?$AA_?$AAN?$AAU?$AAM?$AAE?$AAR?$AAI?$AAC?$AA?$AA@ 100ac814     LIBCMT:wsetloca.obj
 0002:0001282c       ??_C@_1BA@HAAOMIIG@?$AAL?$AAC?$AA_?$AAT?$AAI?$AAM?$AAE?$AA?$AA@ 100ac82c     LIBCMT:wsetloca.obj
 0002:000128c0       ??_C@_15NBPDDFIP@?$AA?$DN?$AA?$DL?$AA?$AA@ 100ac8c0     LIBCMT:wsetloca.obj
 0002:000128c8       ??_C@_13PJJBFPED@?$AA?$DL?$AA?$AA@ 100ac8c8     LIBCMT:wsetloca.obj
 0002:000128cc       ??_C@_13NMPKAAJP@?$AA?$DN?$AA?$AA@ 100ac8cc     LIBCMT:wsetloca.obj
 0002:000128d0       ??_C@_13FHBKNHDA@?$AAC?$AA?$AA@ 100ac8d0     LIBCMT:wsetloca.obj
 0002:000128d4       ??_C@_17MBJJLFDM@?$AA_?$AA?4?$AA?0?$AA?$AA@ 100ac8d4     LIBCMT:wsetloca.obj
 0002:000128dc       ??_C@_13ENNFDPBH@?$AA_?$AA?$AA@ 100ac8dc     LIBCMT:wsetloca.obj
 0002:000128e0       ??_C@_13JOFGPIOO@?$AA?4?$AA?$AA@ 100ac8e0     LIBCMT:wsetloca.obj
 0002:000128e8       __XcptActTab               100ac8e8     LIBCMT:winxfltr.obj
 0002:00012978       __XcptActTabCount          100ac978     LIBCMT:winxfltr.obj
 0002:0001297c       __XcptActTabSize           100ac97c     LIBCMT:winxfltr.obj
 0002:00012980       __First_FPE_Indx           100ac980     LIBCMT:winxfltr.obj
 0002:00012984       __Num_FPE                  100ac984     LIBCMT:winxfltr.obj
 0002:00012988       ___lookuptable_s           100ac988     LIBCMT:outputs.obj
 0002:000129f0       __indefinite               100ac9f0     LIBCMT:87disp.obj
 0002:000129fa       __piby2                    100ac9fa     LIBCMT:87disp.obj
 0002:00012a28       __DEFAULT_CW_in_mem        100aca28     LIBCMT:common.obj
 0002:00012a2a       __pi_by_2_to_61            100aca2a     LIBCMT:common.obj
 0002:00012a68       _LcidToLocaleNameTable     100aca68     LIBCMT:winapinls.obj
 0002:00013188       _LocaleNameToIndexTable    100ad188     LIBCMT:winapinls.obj
 0002:000138a8       ??_C@_15EMKDOKLE@?$AAa?$AAr?$AA?$AA@ 100ad8a8     LIBCMT:winapinls.obj
 0002:000138b0       ??_C@_15KNPADPLH@?$AAb?$AAg?$AA?$AA@ 100ad8b0     LIBCMT:winapinls.obj
 0002:000138b8       ??_C@_15EDMHLDMO@?$AAc?$AAa?$AA?$AA@ 100ad8b8     LIBCMT:winapinls.obj
 0002:000138c0       ??_C@_1O@BPEAJADD@?$AAz?$AAh?$AA?9?$AAC?$AAH?$AAS?$AA?$AA@ 100ad8c0     LIBCMT:winapinls.obj
 0002:000138d0       ??_C@_15LJNHCMNK@?$AAc?$AAs?$AA?$AA@ 100ad8d0     LIBCMT:winapinls.obj
 0002:000138d8       ??_C@_15FOMCIDHG@?$AAd?$AAa?$AA?$AA@ 100ad8d8     LIBCMT:winapinls.obj
 0002:000138e0       ??_C@_15NBKABECB@?$AAd?$AAe?$AA?$AA@ 100ad8e0     LIBCMT:winapinls.obj
 0002:000138e8       ??_C@_15GHPEIIAO@?$AAe?$AAl?$AA?$AA@ 100ad8e8     LIBCMT:winapinls.obj
 0002:000138f0       ??_C@_15MNPNEAIF@?$AAe?$AAn?$AA?$AA@ 100ad8f0     LIBCMT:winapinls.obj
 0002:000138f8       ??_C@_15GPIOMPMH@?$AAe?$AAs?$AA?$AA@ 100ad8f8     LIBCMT:winapinls.obj
 0002:00013900       ??_C@_15NGLOAKJC@?$AAf?$AAi?$AA?$AA@ 100ad900     LIBCMT:winapinls.obj
 0002:00013908       ??_C@_15FBKGNKAM@?$AAf?$AAr?$AA?$AA@ 100ad908     LIBCMT:winapinls.obj
 0002:00013910       ??_C@_15KGGCNEFK@?$AAh?$AAe?$AA?$AA@ 100ad910     LIBCMT:winapinls.obj
 0002:00013918       ??_C@_15PGHLIDMF@?$AAh?$AAu?$AA?$AA@ 100ad918     LIBCMT:winapinls.obj
 0002:00013920       ??_C@_15BIEMAPLM@?$AAi?$AAs?$AA?$AA@ 100ad920     LIBCMT:winapinls.obj
 0002:00013928       ??_C@_15IFJLDHAF@?$AAi?$AAt?$AA?$AA@ 100ad928     LIBCMT:winapinls.obj
 0002:00013930       ??_C@_15GEMIOCAG@?$AAj?$AAa?$AA?$AA@ 100ad930     LIBCMT:winapinls.obj
 0002:00013938       ??_C@_15EPELEGJA@?$AAk?$AAo?$AA?$AA@ 100ad938     LIBCMT:winapinls.obj
 0002:00013940       ??_C@_15NDDHIMN@?$AAn?$AAl?$AA?$AA@ 100ad940     LIBCMT:winapinls.obj
 0002:00013948       ??_C@_15BPIGNHCD@?$AAn?$AAo?$AA?$AA@ 100ad948     LIBCMT:winapinls.obj
 0002:00013950       ??_C@_15DEOPBLCG@?$AAp?$AAl?$AA?$AA@ 100ad950     LIBCMT:winapinls.obj
 0002:00013958       ??_C@_15KBECGEFG@?$AAp?$AAt?$AA?$AA@ 100ad958     LIBCMT:winapinls.obj
 0002:00013960       ??_C@_15GLJCBFMD@?$AAr?$AAo?$AA?$AA@ 100ad960     LIBCMT:winapinls.obj
 0002:00013968       ??_C@_15FEDGKCDI@?$AAr?$AAu?$AA?$AA@ 100ad968     LIBCMT:winapinls.obj
 0002:00013970       ??_C@_15GLKMLLHM@?$AAh?$AAr?$AA?$AA@ 100ad970     LIBCMT:winapinls.obj
 0002:00013978       ??_C@_15CPKMFBDB@?$AAs?$AAk?$AA?$AA@ 100ad978     LIBCMT:winapinls.obj
 0002:00013980       ??_C@_15BAAIOGMK@?$AAs?$AAq?$AA?$AA@ 100ad980     LIBCMT:winapinls.obj
 0002:00013988       ??_C@_15INNPNOHD@?$AAs?$AAv?$AA?$AA@ 100ad988     LIBCMT:winapinls.obj
 0002:00013990       ??_C@_15CABMMOGH@?$AAt?$AAh?$AA?$AA@ 100ad990     LIBCMT:winapinls.obj
 0002:00013998       ??_C@_15BPLIHJJM@?$AAt?$AAr?$AA?$AA@ 100ad998     LIBCMT:winapinls.obj
 0002:000139a0       ??_C@_15NEOEKKDJ@?$AAu?$AAr?$AA?$AA@ 100ad9a0     LIBCMT:winapinls.obj
 0002:000139a8       ??_C@_15NFICGAJK@?$AAi?$AAd?$AA?$AA@ 100ad9a8     LIBCMT:winapinls.obj
 0002:000139b0       ??_C@_15PJPFLCCM@?$AAu?$AAk?$AA?$AA@ 100ad9b0     LIBCMT:winapinls.obj
 0002:000139b8       ??_C@_15HPJPHDM@?$AAb?$AAe?$AA?$AA@ 100ad9b8     LIBCMT:winapinls.obj
 0002:000139c0       ??_C@_15LCHLGJII@?$AAs?$AAl?$AA?$AA@ 100ad9c0     LIBCMT:winapinls.obj
 0002:000139c8       ??_C@_15PCFJPHHO@?$AAe?$AAt?$AA?$AA@ 100ad9c8     LIBCMT:winapinls.obj
 0002:000139d0       ??_C@_15HPFPGODN@?$AAl?$AAv?$AA?$AA@ 100ad9d0     LIBCMT:winapinls.obj
 0002:000139d8       ??_C@_15NFFGKGLG@?$AAl?$AAt?$AA?$AA@ 100ad9d8     LIBCMT:winapinls.obj
 0002:000139e0       ??_C@_15BDAKCCHN@?$AAf?$AAa?$AA?$AA@ 100ad9e0     LIBCMT:winapinls.obj
 0002:000139e8       ??_C@_15NFGIAIAJ@?$AAv?$AAi?$AA?$AA@ 100ad9e8     LIBCMT:winapinls.obj
 0002:000139f0       ??_C@_15LMKNDMHN@?$AAh?$AAy?$AA?$AA@ 100ad9f0     LIBCMT:winapinls.obj
 0002:000139f8       ??_C@_15IJBHMCFL@?$AAa?$AAz?$AA?$AA@ 100ad9f8     LIBCMT:winapinls.obj
 0002:00013a00       ??_C@_15EKOFJABL@?$AAe?$AAu?$AA?$AA@ 100ada00     LIBCMT:winapinls.obj
 0002:00013a08       ??_C@_15BGHADCNK@?$AAm?$AAk?$AA?$AA@ 100ada08     LIBCMT:winapinls.obj
 0002:00013a10       ??_C@_15JDNICKHM@?$AAa?$AAf?$AA?$AA@ 100ada10     LIBCMT:winapinls.obj
 0002:00013a18       ??_C@_15KPJEDBKD@?$AAk?$AAa?$AA?$AA@ 100ada18     LIBCMT:winapinls.obj
 0002:00013a20       ??_C@_15PDNFFFEO@?$AAf?$AAo?$AA?$AA@ 100ada20     LIBCMT:winapinls.obj
 0002:00013a28       ??_C@_15OMLEGLOC@?$AAh?$AAi?$AA?$AA@ 100ada28     LIBCMT:winapinls.obj
 0002:00013a30       ??_C@_15IDNNENKK@?$AAm?$AAs?$AA?$AA@ 100ada30     LIBCMT:winapinls.obj
 0002:00013a38       ??_C@_15MACJNBMH@?$AAk?$AAk?$AA?$AA@ 100ada38     LIBCMT:winapinls.obj
 0002:00013a40       ??_C@_15DKDJEOND@?$AAk?$AAy?$AA?$AA@ 100ada40     LIBCMT:winapinls.obj
 0002:00013a48       ??_C@_15DFGDLJBG@?$AAs?$AAw?$AA?$AA@ 100ada48     LIBCMT:winapinls.obj
 0002:00013a50       ??_C@_15BBFAICNG@?$AAu?$AAz?$AA?$AA@ 100ada50     LIBCMT:winapinls.obj
 0002:00013a58       ??_C@_15DKNDCGEA@?$AAt?$AAt?$AA?$AA@ 100ada58     LIBCMT:winapinls.obj
 0002:00013a60       ??_C@_15MGIFMDPL@?$AAp?$AAa?$AA?$AA@ 100ada60     LIBCMT:winapinls.obj
 0002:00013a68       ??_C@_15HCNDBBA@?$AAg?$AAu?$AA?$AA@ 100ada68     LIBCMT:winapinls.obj
 0002:00013a70       ??_C@_15FNBEIBON@?$AAt?$AAa?$AA?$AA@ 100ada70     LIBCMT:winapinls.obj
 0002:00013a78       ??_C@_15NCHGBGLK@?$AAt?$AAe?$AA?$AA@ 100ada78     LIBCMT:winapinls.obj
 0002:00013a80       ??_C@_15PHPHCBPF@?$AAk?$AAn?$AA?$AA@ 100ada80     LIBCMT:winapinls.obj
 0002:00013a88       ??_C@_15DLGBCKMP@?$AAm?$AAr?$AA?$AA@ 100ada88     LIBCMT:winapinls.obj
 0002:00013a90       ??_C@_15EABBLBFF@?$AAs?$AAa?$AA?$AA@ 100ada90     LIBCMT:winapinls.obj
 0002:00013a98       ??_C@_15CBKOMCOI@?$AAm?$AAn?$AA?$AA@ 100ada98     LIBCMT:winapinls.obj
 0002:00013aa0       ??_C@_15CKDMCJAF@?$AAg?$AAl?$AA?$AA@ 100adaa0     LIBCMT:winapinls.obj
 0002:00013aa8       ??_C@_17CNJFBPG@?$AAk?$AAo?$AAk?$AA?$AA@ 100adaa8     LIBCMT:winapinls.obj
 0002:00013ab0       ??_C@_17FFBJICPL@?$AAs?$AAy?$AAr?$AA?$AA@ 100adab0     LIBCMT:winapinls.obj
 0002:00013ab8       ??_C@_17KPNDCPAF@?$AAd?$AAi?$AAv?$AA?$AA@ 100adab8     LIBCMT:winapinls.obj
 0002:00013ac0       ??_C@_11LOCGONAA@?$AA?$AA@ 100adac0     LIBCMT:winapinls.obj
 0002:00013ac4       ??_C@_1M@OKAHONE@?$AAa?$AAr?$AA?9?$AAS?$AAA?$AA?$AA@ 100adac4     LIBCMT:winapinls.obj
 0002:00013ad0       ??_C@_1M@FFFIGIGK@?$AAb?$AAg?$AA?9?$AAB?$AAG?$AA?$AA@ 100adad0     LIBCMT:winapinls.obj
 0002:00013adc       ??_C@_1M@BJNKEDC@?$AAc?$AAa?$AA?9?$AAE?$AAS?$AA?$AA@ 100adadc     LIBCMT:winapinls.obj
 0002:00013ae8       ??_C@_1M@IJJHFJHA@?$AAc?$AAs?$AA?9?$AAC?$AAZ?$AA?$AA@ 100adae8     LIBCMT:winapinls.obj
 0002:00013af4       ??_C@_1M@CLPEOBGI@?$AAd?$AAa?$AA?9?$AAD?$AAK?$AA?$AA@ 100adaf4     LIBCMT:winapinls.obj
 0002:00013b00       ??_C@_1M@MCMADGCB@?$AAd?$AAe?$AA?9?$AAD?$AAE?$AA?$AA@ 100adb00     LIBCMT:winapinls.obj
 0002:00013b0c       ??_C@_1M@OOCKEMAM@?$AAe?$AAl?$AA?9?$AAG?$AAR?$AA?$AA@ 100adb0c     LIBCMT:winapinls.obj
 0002:00013b18       ??_C@_1M@DDNJFGID@?$AAf?$AAi?$AA?9?$AAF?$AAI?$AA?$AA@ 100adb18     LIBCMT:winapinls.obj
 0002:00013b24       ??_C@_1M@GLIPPMAC@?$AAf?$AAr?$AA?9?$AAF?$AAR?$AA?$AA@ 100adb24     LIBCMT:winapinls.obj
 0002:00013b30       ??_C@_1M@GFMCHPE@?$AAh?$AAe?$AA?9?$AAI?$AAL?$AA?$AA@ 100adb30     LIBCMT:winapinls.obj
 0002:00013b3c       ??_C@_1M@MHLPGNKM@?$AAh?$AAu?$AA?9?$AAH?$AAU?$AA?$AA@ 100adb3c     LIBCMT:winapinls.obj
 0002:00013b48       ??_C@_1M@LPDDNNPN@?$AAi?$AAs?$AA?9?$AAI?$AAS?$AA?$AA@ 100adb48     LIBCMT:winapinls.obj
 0002:00013b54       ??_C@_1M@MADIPODN@?$AAi?$AAt?$AA?9?$AAI?$AAT?$AA?$AA@ 100adb54     LIBCMT:winapinls.obj
 0002:00013b60       ??_C@_1M@IHBJJGG@?$AAn?$AAl?$AA?9?$AAN?$AAL?$AA?$AA@ 100adb60     LIBCMT:winapinls.obj
 0002:00013b6c       ??_C@_1M@EANAGDL@?$AAn?$AAb?$AA?9?$AAN?$AAO?$AA?$AA@ 100adb6c     LIBCMT:winapinls.obj
 0002:00013b78       ??_C@_1M@NEIEMEGP@?$AAp?$AAl?$AA?9?$AAP?$AAL?$AA?$AA@ 100adb78     LIBCMT:winapinls.obj
 0002:00013b84       ??_C@_1M@BOCFIGEP@?$AAp?$AAt?$AA?9?$AAB?$AAR?$AA?$AA@ 100adb84     LIBCMT:winapinls.obj
 0002:00013b90       ??_C@_1M@IMPFOPBG@?$AAr?$AAo?$AA?9?$AAR?$AAO?$AA?$AA@ 100adb90     LIBCMT:winapinls.obj
 0002:00013b9c       ??_C@_1M@IDNNEJMM@?$AAr?$AAu?$AA?9?$AAR?$AAU?$AA?$AA@ 100adb9c     LIBCMT:winapinls.obj
 0002:00013ba8       ??_C@_1M@LILEEOGM@?$AAh?$AAr?$AA?9?$AAH?$AAR?$AA?$AA@ 100adba8     LIBCMT:winapinls.obj
 0002:00013bb4       ??_C@_1M@FKIFEHPB@?$AAs?$AAk?$AA?9?$AAS?$AAK?$AA?$AA@ 100adbb4     LIBCMT:winapinls.obj
 0002:00013bc0       ??_C@_1M@LJMAMNPJ@?$AAs?$AAq?$AA?9?$AAA?$AAL?$AA?$AA@ 100adbc0     LIBCMT:winapinls.obj
 0002:00013bcc       ??_C@_1M@GIAKDKJK@?$AAs?$AAv?$AA?9?$AAS?$AAE?$AA?$AA@ 100adbcc     LIBCMT:winapinls.obj
 0002:00013bd8       ??_C@_1M@MKJKIKCL@?$AAt?$AAh?$AA?9?$AAT?$AAH?$AA?$AA@ 100adbd8     LIBCMT:winapinls.obj
 0002:00013be4       ??_C@_1M@MFLCCMPB@?$AAt?$AAr?$AA?9?$AAT?$AAR?$AA?$AA@ 100adbe4     LIBCMT:winapinls.obj
 0002:00013bf0       ??_C@_1M@OIJHDKJN@?$AAu?$AAr?$AA?9?$AAP?$AAK?$AA?$AA@ 100adbf0     LIBCMT:winapinls.obj
 0002:00013bfc       ??_C@_1M@LHIPCIEK@?$AAi?$AAd?$AA?9?$AAI?$AAD?$AA?$AA@ 100adbfc     LIBCMT:winapinls.obj
 0002:00013c08       ??_C@_1M@MFMOBGI@?$AAu?$AAk?$AA?9?$AAU?$AAA?$AA?$AA@ 100adc08     LIBCMT:winapinls.obj
 0002:00013c14       ??_C@_1M@OBGLJIPL@?$AAb?$AAe?$AA?9?$AAB?$AAY?$AA?$AA@ 100adc14     LIBCMT:winapinls.obj
 0002:00013c20       ??_C@_1M@BCFAJEAD@?$AAs?$AAl?$AA?9?$AAS?$AAI?$AA?$AA@ 100adc20     LIBCMT:winapinls.obj
 0002:00013c2c       ??_C@_1M@FKFFEDDN@?$AAe?$AAt?$AA?9?$AAE?$AAE?$AA?$AA@ 100adc2c     LIBCMT:winapinls.obj
 0002:00013c38       ??_C@_1M@KGKKAACI@?$AAl?$AAv?$AA?9?$AAL?$AAV?$AA?$AA@ 100adc38     LIBCMT:winapinls.obj
 0002:00013c44       ??_C@_1M@IFGBIJO@?$AAl?$AAt?$AA?9?$AAL?$AAT?$AA?$AA@ 100adc44     LIBCMT:winapinls.obj
 0002:00013c50       ??_C@_1M@FGEAHEDM@?$AAf?$AAa?$AA?9?$AAI?$AAR?$AA?$AA@ 100adc50     LIBCMT:winapinls.obj
 0002:00013c5c       ??_C@_1M@KBMAIBFN@?$AAv?$AAi?$AA?9?$AAV?$AAN?$AA?$AA@ 100adc5c     LIBCMT:winapinls.obj
 0002:00013c68       ??_C@_1M@GPCBKDJK@?$AAh?$AAy?$AA?9?$AAA?$AAM?$AA?$AA@ 100adc68     LIBCMT:winapinls.obj
 0002:00013c74       ??_C@_1BG@BECMDDJB@?$AAa?$AAz?$AA?9?$AAA?$AAZ?$AA?9?$AAL?$AAa?$AAt?$AAn?$AA?$AA@ 100adc74     LIBCMT:winapinls.obj
 0002:00013c8c       ??_C@_1M@MAOFCAEA@?$AAe?$AAu?$AA?9?$AAE?$AAS?$AA?$AA@ 100adc8c     LIBCMT:winapinls.obj
 0002:00013c98       ??_C@_1M@IGHABKPI@?$AAm?$AAk?$AA?9?$AAM?$AAK?$AA?$AA@ 100adc98     LIBCMT:winapinls.obj
 0002:00013ca4       ??_C@_1M@IAIGNEJG@?$AAt?$AAn?$AA?9?$AAZ?$AAA?$AA?$AA@ 100adca4     LIBCMT:winapinls.obj
 0002:00013cb0       ??_C@_1M@IIJCOJFA@?$AAx?$AAh?$AA?9?$AAZ?$AAA?$AA?$AA@ 100adcb0     LIBCMT:winapinls.obj
 0002:00013cbc       ??_C@_1M@LGPJHNJH@?$AAz?$AAu?$AA?9?$AAZ?$AAA?$AA?$AA@ 100adcbc     LIBCMT:winapinls.obj
 0002:00013cc8       ??_C@_1M@HOKAOIO@?$AAa?$AAf?$AA?9?$AAZ?$AAA?$AA?$AA@ 100adcc8     LIBCMT:winapinls.obj
 0002:00013cd4       ??_C@_1M@DPCLHLIE@?$AAk?$AAa?$AA?9?$AAG?$AAE?$AA?$AA@ 100adcd4     LIBCMT:winapinls.obj
 0002:00013ce0       ??_C@_1M@BLKMHJBI@?$AAf?$AAo?$AA?9?$AAF?$AAO?$AA?$AA@ 100adce0     LIBCMT:winapinls.obj
 0002:00013cec       ??_C@_1M@LGGJAPPB@?$AAh?$AAi?$AA?9?$AAI?$AAN?$AA?$AA@ 100adcec     LIBCMT:winapinls.obj
 0002:00013cf8       ??_C@_1M@FIKPIHFE@?$AAm?$AAt?$AA?9?$AAM?$AAT?$AA?$AA@ 100adcf8     LIBCMT:winapinls.obj
 0002:00013d04       ??_C@_1M@HEGGPBFA@?$AAs?$AAe?$AA?9?$AAN?$AAO?$AA?$AA@ 100add04     LIBCMT:winapinls.obj
 0002:00013d10       ??_C@_1M@EIBJEEPA@?$AAm?$AAs?$AA?9?$AAM?$AAY?$AA?$AA@ 100add10     LIBCMT:winapinls.obj
 0002:00013d1c       ??_C@_1M@FHLBGMPP@?$AAk?$AAk?$AA?9?$AAK?$AAZ?$AA?$AA@ 100add1c     LIBCMT:winapinls.obj
 0002:00013d28       ??_C@_1M@NGJJLCGI@?$AAk?$AAy?$AA?9?$AAK?$AAG?$AA?$AA@ 100add28     LIBCMT:winapinls.obj
 0002:00013d34       ??_C@_1M@GIENNBFC@?$AAs?$AAw?$AA?9?$AAK?$AAE?$AA?$AA@ 100add34     LIBCMT:winapinls.obj
 0002:00013d40       ??_C@_1BG@NDGMJIMJ@?$AAu?$AAz?$AA?9?$AAU?$AAZ?$AA?9?$AAL?$AAa?$AAt?$AAn?$AA?$AA@ 100add40     LIBCMT:winapinls.obj
 0002:00013d58       ??_C@_1M@IDCCIHBC@?$AAt?$AAt?$AA?9?$AAR?$AAU?$AA?$AA@ 100add58     LIBCMT:winapinls.obj
 0002:00013d64       ??_C@_1M@LOICPMOJ@?$AAb?$AAn?$AA?9?$AAI?$AAN?$AA?$AA@ 100add64     LIBCMT:winapinls.obj
 0002:00013d70       ??_C@_1M@KPKKNEAH@?$AAp?$AAa?$AA?9?$AAI?$AAN?$AA?$AA@ 100add70     LIBCMT:winapinls.obj
 0002:00013d7c       ??_C@_1M@PJGPPBOG@?$AAg?$AAu?$AA?9?$AAI?$AAN?$AA?$AA@ 100add7c     LIBCMT:winapinls.obj
 0002:00013d88       ??_C@_1M@KMKMOPHI@?$AAt?$AAa?$AA?9?$AAI?$AAN?$AA?$AA@ 100add88     LIBCMT:winapinls.obj
 0002:00013d94       ??_C@_1M@KFEHEPAC@?$AAt?$AAe?$AA?9?$AAI?$AAN?$AA?$AA@ 100add94     LIBCMT:winapinls.obj
 0002:00013da0       ??_C@_1M@CDCLMGHI@?$AAk?$AAn?$AA?9?$AAI?$AAN?$AA?$AA@ 100adda0     LIBCMT:winapinls.obj
 0002:00013dac       ??_C@_1M@MIODLDKF@?$AAm?$AAl?$AA?9?$AAI?$AAN?$AA?$AA@ 100addac     LIBCMT:winapinls.obj
 0002:00013db8       ??_C@_1M@PBIEACPO@?$AAm?$AAr?$AA?9?$AAI?$AAN?$AA?$AA@ 100addb8     LIBCMT:winapinls.obj
 0002:00013dc4       ??_C@_1M@NIDEAGPH@?$AAs?$AAa?$AA?9?$AAI?$AAN?$AA?$AA@ 100addc4     LIBCMT:winapinls.obj
 0002:00013dd0       ??_C@_1M@FHIHCBIO@?$AAm?$AAn?$AA?9?$AAM?$AAN?$AA?$AA@ 100addd0     LIBCMT:winapinls.obj
 0002:00013ddc       ??_C@_1M@JAIJPENP@?$AAc?$AAy?$AA?9?$AAG?$AAB?$AA?$AA@ 100adddc     LIBCMT:winapinls.obj
 0002:00013de8       ??_C@_1M@PHGFBEPN@?$AAg?$AAl?$AA?9?$AAE?$AAS?$AA?$AA@ 100adde8     LIBCMT:winapinls.obj
 0002:00013df4       ??_C@_1O@KPIPDNCP@?$AAk?$AAo?$AAk?$AA?9?$AAI?$AAN?$AA?$AA@ 100addf4     LIBCMT:winapinls.obj
 0002:00013e04       ??_C@_1O@KNHJLDJA@?$AAs?$AAy?$AAr?$AA?9?$AAS?$AAY?$AA?$AA@ 100ade04     LIBCMT:winapinls.obj
 0002:00013e14       ??_C@_1O@MKEKBLAH@?$AAd?$AAi?$AAv?$AA?9?$AAM?$AAV?$AA?$AA@ 100ade14     LIBCMT:winapinls.obj
 0002:00013e24       ??_C@_1O@OHDCKDDF@?$AAq?$AAu?$AAz?$AA?9?$AAB?$AAO?$AA?$AA@ 100ade24     LIBCMT:winapinls.obj
 0002:00013e34       ??_C@_1M@LEPJNLFD@?$AAn?$AAs?$AA?9?$AAZ?$AAA?$AA?$AA@ 100ade34     LIBCMT:winapinls.obj
 0002:00013e40       ??_C@_1M@OMLEIIJB@?$AAm?$AAi?$AA?9?$AAN?$AAZ?$AA?$AA@ 100ade40     LIBCMT:winapinls.obj
 0002:00013e4c       ??_C@_1M@PMPEAILG@?$AAa?$AAr?$AA?9?$AAI?$AAQ?$AA?$AA@ 100ade4c     LIBCMT:winapinls.obj
 0002:00013e58       ??_C@_1M@CNKPNOEE@?$AAd?$AAe?$AA?9?$AAC?$AAH?$AA?$AA@ 100ade58     LIBCMT:winapinls.obj
 0002:00013e64       ??_C@_1M@LKMGMLKO@?$AAe?$AAn?$AA?9?$AAG?$AAB?$AA?$AA@ 100ade64     LIBCMT:winapinls.obj
 0002:00013e70       ??_C@_1M@PGKJFFGL@?$AAe?$AAs?$AA?9?$AAM?$AAX?$AA?$AA@ 100ade70     LIBCMT:winapinls.obj
 0002:00013e7c       ??_C@_1M@DNNANBDC@?$AAf?$AAr?$AA?9?$AAB?$AAE?$AA?$AA@ 100ade7c     LIBCMT:winapinls.obj
 0002:00013e88       ??_C@_1M@HLGMDFHM@?$AAi?$AAt?$AA?9?$AAC?$AAH?$AA?$AA@ 100ade88     LIBCMT:winapinls.obj
 0002:00013e94       ??_C@_1M@CLLBGJH@?$AAn?$AAl?$AA?9?$AAB?$AAE?$AA?$AA@ 100ade94     LIBCMT:winapinls.obj
 0002:00013ea0       ??_C@_1M@BODBOGLF@?$AAn?$AAn?$AA?9?$AAN?$AAO?$AA?$AA@ 100adea0     LIBCMT:winapinls.obj
 0002:00013eac       ??_C@_1M@HFFAHKAD@?$AAp?$AAt?$AA?9?$AAP?$AAT?$AA?$AA@ 100adeac     LIBCMT:winapinls.obj
 0002:00013eb8       ??_C@_1BG@LNOAKHIE@?$AAs?$AAr?$AA?9?$AAS?$AAP?$AA?9?$AAL?$AAa?$AAt?$AAn?$AA?$AA@ 100adeb8     LIBCMT:winapinls.obj
 0002:00013ed0       ??_C@_1M@HBMHBGAK@?$AAs?$AAv?$AA?9?$AAF?$AAI?$AA?$AA@ 100aded0     LIBCMT:winapinls.obj
 0002:00013edc       ??_C@_1BG@DGCJGJBE@?$AAa?$AAz?$AA?9?$AAA?$AAZ?$AA?9?$AAC?$AAy?$AAr?$AAl?$AA?$AA@ 100adedc     LIBCMT:winapinls.obj
 0002:00013ef4       ??_C@_1M@KEJDAAHB@?$AAs?$AAe?$AA?9?$AAS?$AAE?$AA?$AA@ 100adef4     LIBCMT:winapinls.obj
 0002:00013f00       ??_C@_1M@HEIBJJAD@?$AAm?$AAs?$AA?9?$AAB?$AAN?$AA?$AA@ 100adf00     LIBCMT:winapinls.obj
 0002:00013f0c       ??_C@_1BG@PBGJMCEM@?$AAu?$AAz?$AA?9?$AAU?$AAZ?$AA?9?$AAC?$AAy?$AAr?$AAl?$AA?$AA@ 100adf0c     LIBCMT:winapinls.obj
 0002:00013f24       ??_C@_1O@LAOBCMDF@?$AAq?$AAu?$AAz?$AA?9?$AAE?$AAC?$AA?$AA@ 100adf24     LIBCMT:winapinls.obj
 0002:00013f34       ??_C@_1M@POEEMAIO@?$AAa?$AAr?$AA?9?$AAE?$AAG?$AA?$AA@ 100adf34     LIBCMT:winapinls.obj
 0002:00013f40       ??_C@_1M@EFAKDEDL@?$AAz?$AAh?$AA?9?$AAH?$AAK?$AA?$AA@ 100adf40     LIBCMT:winapinls.obj
 0002:00013f4c       ??_C@_1M@HKKIJHGI@?$AAd?$AAe?$AA?9?$AAA?$AAT?$AA?$AA@ 100adf4c     LIBCMT:winapinls.obj
 0002:00013f58       ??_C@_1M@KBFBEHJF@?$AAe?$AAn?$AA?9?$AAA?$AAU?$AA?$AA@ 100adf58     LIBCMT:winapinls.obj
 0002:00013f64       ??_C@_1M@MNPLFAAH@?$AAe?$AAs?$AA?9?$AAE?$AAS?$AA?$AA@ 100adf64     LIBCMT:winapinls.obj
 0002:00013f70       ??_C@_1M@HJOOJFMA@?$AAf?$AAr?$AA?9?$AAC?$AAA?$AA?$AA@ 100adf70     LIBCMT:winapinls.obj
 0002:00013f7c       ??_C@_1BG@JPOFPNAB@?$AAs?$AAr?$AA?9?$AAS?$AAP?$AA?9?$AAC?$AAy?$AAr?$AAl?$AA?$AA@ 100adf7c     LIBCMT:winapinls.obj
 0002:00013f94       ??_C@_1M@LNFOCMOB@?$AAs?$AAe?$AA?9?$AAF?$AAI?$AA?$AA@ 100adf94     LIBCMT:winapinls.obj
 0002:00013fa0       ??_C@_1O@MGJBOAMB@?$AAq?$AAu?$AAz?$AA?9?$AAP?$AAE?$AA?$AA@ 100adfa0     LIBCMT:winapinls.obj
 0002:00013fb0       ??_C@_1M@GJINLBOK@?$AAa?$AAr?$AA?9?$AAL?$AAY?$AA?$AA@ 100adfb0     LIBCMT:winapinls.obj
 0002:00013fbc       ??_C@_1M@GGMNHJNL@?$AAz?$AAh?$AA?9?$AAS?$AAG?$AA?$AA@ 100adfbc     LIBCMT:winapinls.obj
 0002:00013fc8       ??_C@_1M@HOIKODND@?$AAd?$AAe?$AA?9?$AAL?$AAU?$AA?$AA@ 100adfc8     LIBCMT:winapinls.obj
 0002:00013fd4       ??_C@_1M@DDOCCGFG@?$AAe?$AAn?$AA?9?$AAC?$AAA?$AA?$AA@ 100adfd4     LIBCMT:winapinls.obj
 0002:00013fe0       ??_C@_1M@BNOEMJLF@?$AAe?$AAs?$AA?9?$AAG?$AAT?$AA?$AA@ 100adfe0     LIBCMT:winapinls.obj
 0002:00013fec       ??_C@_1M@EOGNKEK@?$AAf?$AAr?$AA?9?$AAC?$AAH?$AA?$AA@ 100adfec     LIBCMT:winapinls.obj
 0002:00013ff8       ??_C@_1M@FLIDJFHL@?$AAh?$AAr?$AA?9?$AAB?$AAA?$AA?$AA@ 100adff8     LIBCMT:winapinls.obj
 0002:00014004       ??_C@_1O@FMCELNAJ@?$AAs?$AAm?$AAj?$AA?9?$AAN?$AAO?$AA?$AA@ 100ae004     LIBCMT:winapinls.obj
 0002:00014014       ??_C@_1M@JHGLJMGJ@?$AAa?$AAr?$AA?9?$AAD?$AAZ?$AA?$AA@ 100ae014     LIBCMT:winapinls.obj
 0002:00014020       ??_C@_1M@JKKFDCNP@?$AAz?$AAh?$AA?9?$AAM?$AAO?$AA?$AA@ 100ae020     LIBCMT:winapinls.obj
 0002:0001402c       ??_C@_1M@GEEFALPE@?$AAd?$AAe?$AA?9?$AAL?$AAI?$AA?$AA@ 100ae02c     LIBCMT:winapinls.obj
 0002:00014038       ??_C@_1M@IGEOFBG@?$AAe?$AAn?$AA?9?$AAN?$AAZ?$AA?$AA@ 100ae038     LIBCMT:winapinls.obj
 0002:00014044       ??_C@_1M@KDBONEHP@?$AAe?$AAs?$AA?9?$AAC?$AAR?$AA?$AA@ 100ae044     LIBCMT:winapinls.obj
 0002:00014050       ??_C@_1M@FHMDOHNN@?$AAf?$AAr?$AA?9?$AAL?$AAU?$AA?$AA@ 100ae050     LIBCMT:winapinls.obj
 0002:0001405c       ??_C@_1BG@NFKKMAFG@?$AAb?$AAs?$AA?9?$AAB?$AAA?$AA?9?$AAL?$AAa?$AAt?$AAn?$AA?$AA@ 100ae05c     LIBCMT:winapinls.obj
 0002:00014074       ??_C@_1O@IMNBEMCI@?$AAs?$AAm?$AAj?$AA?9?$AAS?$AAE?$AA?$AA@ 100ae074     LIBCMT:winapinls.obj
 0002:00014084       ??_C@_1M@DHHMBNDP@?$AAa?$AAr?$AA?9?$AAM?$AAA?$AA?$AA@ 100ae084     LIBCMT:winapinls.obj
 0002:00014090       ??_C@_1M@BNBLJCGH@?$AAe?$AAn?$AA?9?$AAI?$AAE?$AA?$AA@ 100ae090     LIBCMT:winapinls.obj
 0002:0001409c       ??_C@_1M@GEPAFMDL@?$AAe?$AAs?$AA?9?$AAP?$AAA?$AA?$AA@ 100ae09c     LIBCMT:winapinls.obj
 0002:000140a8       ??_C@_1M@OJONDMDL@?$AAf?$AAr?$AA?9?$AAM?$AAC?$AA?$AA@ 100ae0a8     LIBCMT:winapinls.obj
 0002:000140b4       ??_C@_1BG@OBCNFJB@?$AAs?$AAr?$AA?9?$AAB?$AAA?$AA?9?$AAL?$AAa?$AAt?$AAn?$AA?$AA@ 100ae0b4     LIBCMT:winapinls.obj
 0002:000140cc       ??_C@_1O@KEMEEGPO@?$AAs?$AAm?$AAa?$AA?9?$AAN?$AAO?$AA?$AA@ 100ae0cc     LIBCMT:winapinls.obj
 0002:000140dc       ??_C@_1M@ELMGFODK@?$AAa?$AAr?$AA?9?$AAT?$AAN?$AA?$AA@ 100ae0dc     LIBCMT:winapinls.obj
 0002:000140e8       ??_C@_1M@BHDLHFAF@?$AAe?$AAn?$AA?9?$AAZ?$AAA?$AA?$AA@ 100ae0e8     LIBCMT:winapinls.obj
 0002:000140f4       ??_C@_1M@BMGIGLIF@?$AAe?$AAs?$AA?9?$AAD?$AAO?$AA?$AA@ 100ae0f4     LIBCMT:winapinls.obj
 0002:00014100       ??_C@_1BG@CMBHIPBE@?$AAs?$AAr?$AA?9?$AAB?$AAA?$AA?9?$AAC?$AAy?$AAr?$AAl?$AA?$AA@ 100ae100     LIBCMT:winapinls.obj
 0002:00014118       ??_C@_1O@HEDBLHNP@?$AAs?$AAm?$AAa?$AA?9?$AAS?$AAE?$AA?$AA@ 100ae118     LIBCMT:winapinls.obj
 0002:00014128       ??_C@_1M@DAGCADIM@?$AAa?$AAr?$AA?9?$AAO?$AAM?$AA?$AA@ 100ae128     LIBCMT:winapinls.obj
 0002:00014134       ??_C@_1M@FODLMICG@?$AAe?$AAn?$AA?9?$AAJ?$AAM?$AA?$AA@ 100ae134     LIBCMT:winapinls.obj
 0002:00014140       ??_C@_1M@DNMLCIHB@?$AAe?$AAs?$AA?9?$AAV?$AAE?$AA?$AA@ 100ae140     LIBCMT:winapinls.obj
 0002:0001414c       ??_C@_1O@EOKHMKJK@?$AAs?$AAm?$AAs?$AA?9?$AAF?$AAI?$AA?$AA@ 100ae14c     LIBCMT:winapinls.obj
 0002:0001415c       ??_C@_1M@CAFJMKOF@?$AAa?$AAr?$AA?9?$AAY?$AAE?$AA?$AA@ 100ae15c     LIBCMT:winapinls.obj
 0002:00014168       ??_C@_1M@CBFHIJLI@?$AAe?$AAn?$AA?9?$AAC?$AAB?$AA?$AA@ 100ae168     LIBCMT:winapinls.obj
 0002:00014174       ??_C@_1M@BGNFLDN@?$AAe?$AAs?$AA?9?$AAC?$AAO?$AA?$AA@ 100ae174     LIBCMT:winapinls.obj
 0002:00014180       ??_C@_1O@JMPHMAMC@?$AAs?$AAm?$AAn?$AA?9?$AAF?$AAI?$AA?$AA@ 100ae180     LIBCMT:winapinls.obj
 0002:00014190       ??_C@_1M@JLANABKE@?$AAa?$AAr?$AA?9?$AAS?$AAY?$AA?$AA@ 100ae190     LIBCMT:winapinls.obj
 0002:0001419c       ??_C@_1M@HPKGCFGN@?$AAe?$AAn?$AA?9?$AAB?$AAZ?$AA?$AA@ 100ae19c     LIBCMT:winapinls.obj
 0002:000141a8       ??_C@_1M@OLJCMLGM@?$AAe?$AAs?$AA?9?$AAP?$AAE?$AA?$AA@ 100ae1a8     LIBCMT:winapinls.obj
 0002:000141b4       ??_C@_1M@MKKGFKLE@?$AAa?$AAr?$AA?9?$AAJ?$AAO?$AA?$AA@ 100ae1b4     LIBCMT:winapinls.obj
 0002:000141c0       ??_C@_1M@EKPGLDNI@?$AAe?$AAn?$AA?9?$AAT?$AAT?$AA?$AA@ 100ae1c0     LIBCMT:winapinls.obj
 0002:000141cc       ??_C@_1M@OONGHFHE@?$AAe?$AAs?$AA?9?$AAA?$AAR?$AA?$AA@ 100ae1cc     LIBCMT:winapinls.obj
 0002:000141d8       ??_C@_1M@OOJFGBHE@?$AAa?$AAr?$AA?9?$AAL?$AAB?$AA?$AA@ 100ae1d8     LIBCMT:winapinls.obj
 0002:000141e4       ??_C@_1M@GCEJHNEG@?$AAe?$AAn?$AA?9?$AAZ?$AAW?$AA?$AA@ 100ae1e4     LIBCMT:winapinls.obj
 0002:000141f0       ??_C@_1M@JNOCAHJI@?$AAe?$AAs?$AA?9?$AAE?$AAC?$AA?$AA@ 100ae1f0     LIBCMT:winapinls.obj
 0002:000141fc       ??_C@_1M@JEFHPGGB@?$AAa?$AAr?$AA?9?$AAK?$AAW?$AA?$AA@ 100ae1fc     LIBCMT:winapinls.obj
 0002:00014208       ??_C@_1M@MLKIBJOJ@?$AAe?$AAn?$AA?9?$AAP?$AAH?$AA?$AA@ 100ae208     LIBCMT:winapinls.obj
 0002:00014214       ??_C@_1M@BDNIPEND@?$AAe?$AAs?$AA?9?$AAC?$AAL?$AA?$AA@ 100ae214     LIBCMT:winapinls.obj
 0002:00014220       ??_C@_1M@MPNMEKBD@?$AAa?$AAr?$AA?9?$AAA?$AAE?$AA?$AA@ 100ae220     LIBCMT:winapinls.obj
 0002:0001422c       ??_C@_1M@KBJALCPI@?$AAe?$AAs?$AA?9?$AAU?$AAY?$AA?$AA@ 100ae22c     LIBCMT:winapinls.obj
 0002:00014238       ??_C@_1M@LLCCOAGA@?$AAa?$AAr?$AA?9?$AAB?$AAH?$AA?$AA@ 100ae238     LIBCMT:winapinls.obj
 0002:00014244       ??_C@_1M@PBFNCDEL@?$AAe?$AAs?$AA?9?$AAP?$AAY?$AA?$AA@ 100ae244     LIBCMT:winapinls.obj
 0002:00014250       ??_C@_1M@EDGINPNP@?$AAa?$AAr?$AA?9?$AAQ?$AAA?$AA?$AA@ 100ae250     LIBCMT:winapinls.obj
 0002:0001425c       ??_C@_1M@MKDBIIJI@?$AAe?$AAs?$AA?9?$AAB?$AAO?$AA?$AA@ 100ae25c     LIBCMT:winapinls.obj
 0002:00014268       ??_C@_1M@CPKKEBLD@?$AAe?$AAs?$AA?9?$AAS?$AAV?$AA?$AA@ 100ae268     LIBCMT:winapinls.obj
 0002:00014274       ??_C@_1M@NDBGMMJL@?$AAe?$AAs?$AA?9?$AAH?$AAN?$AA?$AA@ 100ae274     LIBCMT:winapinls.obj
 0002:00014280       ??_C@_1M@JIJIBHDP@?$AAe?$AAs?$AA?9?$AAN?$AAI?$AA?$AA@ 100ae280     LIBCMT:winapinls.obj
 0002:0001428c       ??_C@_1M@CGFMKEEK@?$AAe?$AAs?$AA?9?$AAP?$AAR?$AA?$AA@ 100ae28c     LIBCMT:winapinls.obj
 0002:00014298       ??_C@_1O@ICJHKIIK@?$AAz?$AAh?$AA?9?$AAC?$AAH?$AAT?$AA?$AA@ 100ae298     LIBCMT:winapinls.obj
 0002:000142a8       ??_C@_15CLNEJCE@?$AAs?$AAr?$AA?$AA@ 100ae2a8     LIBCMT:winapinls.obj
 0002:000142b0       ??_C@_1M@KAHEKEIG@?$AAa?$AAf?$AA?9?$AAz?$AAa?$AA?$AA@ 100ae2b0     LIBCMT:winapinls.obj
 0002:000142bc       ??_C@_1M@GIECOABL@?$AAa?$AAr?$AA?9?$AAa?$AAe?$AA?$AA@ 100ae2bc     LIBCMT:winapinls.obj
 0002:000142c8       ??_C@_1M@BMLMEKGI@?$AAa?$AAr?$AA?9?$AAb?$AAh?$AA?$AA@ 100ae2c8     LIBCMT:winapinls.obj
 0002:000142d4       ??_C@_1M@DAPFDGGB@?$AAa?$AAr?$AA?9?$AAd?$AAz?$AA?$AA@ 100ae2d4     LIBCMT:winapinls.obj
 0002:000142e0       ??_C@_1M@FJNKGKIG@?$AAa?$AAr?$AA?9?$AAe?$AAg?$AA?$AA@ 100ae2e0     LIBCMT:winapinls.obj
 0002:000142ec       ??_C@_1M@FLGKKCLO@?$AAa?$AAr?$AA?9?$AAi?$AAq?$AA?$AA@ 100ae2ec     LIBCMT:winapinls.obj
 0002:000142f8       ??_C@_1M@GNDIPALM@?$AAa?$AAr?$AA?9?$AAj?$AAo?$AA?$AA@ 100ae2f8     LIBCMT:winapinls.obj
 0002:00014304       ??_C@_1M@DDMJFMGJ@?$AAa?$AAr?$AA?9?$AAk?$AAw?$AA?$AA@ 100ae304     LIBCMT:winapinls.obj
 0002:00014310       ??_C@_1M@EJALMLHM@?$AAa?$AAr?$AA?9?$AAl?$AAb?$AA?$AA@ 100ae310     LIBCMT:winapinls.obj
 0002:0001431c       ??_C@_1M@MOBDBLOC@?$AAa?$AAr?$AA?9?$AAl?$AAy?$AA?$AA@ 100ae31c     LIBCMT:winapinls.obj
 0002:00014328       ??_C@_1M@JAOCLHDH@?$AAa?$AAr?$AA?9?$AAm?$AAa?$AA?$AA@ 100ae328     LIBCMT:winapinls.obj
 0002:00014334       ??_C@_1M@JHPMKJIE@?$AAa?$AAr?$AA?9?$AAo?$AAm?$AA?$AA@ 100ae334     LIBCMT:winapinls.obj
 0002:00014340       ??_C@_1M@OEPGHFNH@?$AAa?$AAr?$AA?9?$AAq?$AAa?$AA?$AA@ 100ae340     LIBCMT:winapinls.obj
 0002:0001434c       ??_C@_1M@KJDONENM@?$AAa?$AAr?$AA?9?$AAs?$AAa?$AA?$AA@ 100ae34c     LIBCMT:winapinls.obj
 0002:00014358       ??_C@_1M@DMJDKLKM@?$AAa?$AAr?$AA?9?$AAs?$AAy?$AA?$AA@ 100ae358     LIBCMT:winapinls.obj
 0002:00014364       ??_C@_1M@OMFIPEDC@?$AAa?$AAr?$AA?9?$AAt?$AAn?$AA?$AA@ 100ae364     LIBCMT:winapinls.obj
 0002:00014370       ??_C@_1M@IHMHGAON@?$AAa?$AAr?$AA?9?$AAy?$AAe?$AA?$AA@ 100ae370     LIBCMT:winapinls.obj
 0002:0001437c       ??_C@_1BG@KDCPGJGB@?$AAa?$AAz?$AA?9?$AAa?$AAz?$AA?9?$AAc?$AAy?$AAr?$AAl?$AA?$AA@ 100ae37c     LIBCMT:winapinls.obj
 0002:00014394       ??_C@_1BG@IBCKDDOE@?$AAa?$AAz?$AA?9?$AAa?$AAz?$AA?9?$AAl?$AAa?$AAt?$AAn?$AA?$AA@ 100ae394     LIBCMT:winapinls.obj
 0002:000143ac       ??_C@_1M@EGPFDCPD@?$AAb?$AAe?$AA?9?$AAb?$AAy?$AA?$AA@ 100ae3ac     LIBCMT:winapinls.obj
 0002:000143b8       ??_C@_1M@PCMGMCGC@?$AAb?$AAg?$AA?9?$AAb?$AAg?$AA?$AA@ 100ae3b8     LIBCMT:winapinls.obj
 0002:000143c4       ??_C@_1M@BJBMFGOB@?$AAb?$AAn?$AA?9?$AAi?$AAn?$AA?$AA@ 100ae3c4     LIBCMT:winapinls.obj
 0002:000143d0       ??_C@_1BG@EAKMMACD@?$AAb?$AAs?$AA?9?$AAb?$AAa?$AA?9?$AAl?$AAa?$AAt?$AAn?$AA?$AA@ 100ae3d0     LIBCMT:winapinls.obj
 0002:000143e8       ??_C@_1M@KGADAODK@?$AAc?$AAa?$AA?9?$AAe?$AAs?$AA?$AA@ 100ae3e8     LIBCMT:winapinls.obj
 0002:000143f4       ??_C@_1M@COAJPDHI@?$AAc?$AAs?$AA?9?$AAc?$AAz?$AA?$AA@ 100ae3f4     LIBCMT:winapinls.obj
 0002:00014400       ??_C@_1M@DHBHFONH@?$AAc?$AAy?$AA?9?$AAg?$AAb?$AA?$AA@ 100ae400     LIBCMT:winapinls.obj
 0002:0001440c       ??_C@_1M@IMGKELGA@?$AAd?$AAa?$AA?9?$AAd?$AAk?$AA?$AA@ 100ae40c     LIBCMT:winapinls.obj
 0002:00014418       ??_C@_1M@NNDGDNGA@?$AAd?$AAe?$AA?9?$AAa?$AAt?$AA?$AA@ 100ae418     LIBCMT:winapinls.obj
 0002:00014424       ??_C@_1M@IKDBHEEM@?$AAd?$AAe?$AA?9?$AAc?$AAh?$AA?$AA@ 100ae424     LIBCMT:winapinls.obj
 0002:00014430       ??_C@_1M@GFFOJMCJ@?$AAd?$AAe?$AA?9?$AAd?$AAe?$AA?$AA@ 100ae430     LIBCMT:winapinls.obj
 0002:0001443c       ??_C@_1M@MDNLKBPM@?$AAd?$AAe?$AA?9?$AAl?$AAi?$AA?$AA@ 100ae43c     LIBCMT:winapinls.obj
 0002:00014448       ??_C@_1M@NJBEEJNL@?$AAd?$AAe?$AA?9?$AAl?$AAu?$AA?$AA@ 100ae448     LIBCMT:winapinls.obj
 0002:00014454       ??_C@_1O@GNNELBAP@?$AAd?$AAi?$AAv?$AA?9?$AAm?$AAv?$AA?$AA@ 100ae454     LIBCMT:winapinls.obj
 0002:00014464       ??_C@_1M@EJLEOGAE@?$AAe?$AAl?$AA?9?$AAg?$AAr?$AA?$AA@ 100ae464     LIBCMT:winapinls.obj
 0002:00014470       ??_C@_1M@GMPONJN@?$AAe?$AAn?$AA?9?$AAa?$AAu?$AA?$AA@ 100ae470     LIBCMT:winapinls.obj
 0002:0001447c       ??_C@_1M@NIDIIPGF@?$AAe?$AAn?$AA?9?$AAb?$AAz?$AA?$AA@ 100ae47c     LIBCMT:winapinls.obj
 0002:00014488       ??_C@_1M@JEHMIMFO@?$AAe?$AAn?$AA?9?$AAc?$AAa?$AA?$AA@ 100ae488     LIBCMT:winapinls.obj
 0002:00014494       ??_C@_1M@IGMJCDLA@?$AAe?$AAn?$AA?9?$AAc?$AAb?$AA?$AA@ 100ae494     LIBCMT:winapinls.obj
 0002:000144a0       ??_C@_1M@BNFIGBKG@?$AAe?$AAn?$AA?9?$AAg?$AAb?$AA?$AA@ 100ae4a0     LIBCMT:winapinls.obj
 0002:000144ac       ??_C@_1M@LKIFDIGP@?$AAe?$AAn?$AA?9?$AAi?$AAe?$AA?$AA@ 100ae4ac     LIBCMT:winapinls.obj
 0002:000144b8       ??_C@_1M@PJKFGCCO@?$AAe?$AAn?$AA?9?$AAj?$AAm?$AA?$AA@ 100ae4b8     LIBCMT:winapinls.obj
 0002:000144c4       ??_C@_1M@KPPKEPBO@?$AAe?$AAn?$AA?9?$AAn?$AAz?$AA?$AA@ 100ae4c4     LIBCMT:winapinls.obj
 0002:000144d0       ??_C@_1M@GMDGLDOB@?$AAe?$AAn?$AA?9?$AAp?$AAh?$AA?$AA@ 100ae4d0     LIBCMT:winapinls.obj
 0002:000144dc       ??_C@_1M@ONGIBJNA@?$AAe?$AAn?$AA?9?$AAt?$AAt?$AA?$AA@ 100ae4dc     LIBCMT:winapinls.obj
 0002:000144e8       ??_C@_1M@LLODPCMM@?$AAe?$AAn?$AA?9?$AAu?$AAs?$AA?$AA@ 100ae4e8     LIBCMT:winapinls.obj
 0002:000144f4       ??_C@_1M@LAKFNPAN@?$AAe?$AAn?$AA?9?$AAz?$AAa?$AA?$AA@ 100ae4f4     LIBCMT:winapinls.obj
 0002:00014500       ??_C@_1M@MFNHNHEO@?$AAe?$AAn?$AA?9?$AAz?$AAw?$AA?$AA@ 100ae500     LIBCMT:winapinls.obj
 0002:0001450c       ??_C@_1M@EJEINPHM@?$AAe?$AAs?$AA?9?$AAa?$AAr?$AA?$AA@ 100ae50c     LIBCMT:winapinls.obj
 0002:00014518       ??_C@_1M@GNKPCCJA@?$AAe?$AAs?$AA?9?$AAb?$AAo?$AA?$AA@ 100ae518     LIBCMT:winapinls.obj
 0002:00014524       ??_C@_1M@LEEGFONL@?$AAe?$AAs?$AA?9?$AAc?$AAl?$AA?$AA@ 100ae524     LIBCMT:winapinls.obj
 0002:00014530       ??_C@_1M@KGPDPBDF@?$AAe?$AAs?$AA?9?$AAc?$AAo?$AA?$AA@ 100ae530     LIBCMT:winapinls.obj
 0002:0001453c       ??_C@_1M@EIAHOHH@?$AAe?$AAs?$AA?9?$AAc?$AAr?$AA?$AA@ 100ae53c     LIBCMT:winapinls.obj
 0002:00014548       ??_C@_1M@LLPGMBIN@?$AAe?$AAs?$AA?9?$AAd?$AAo?$AA?$AA@ 100ae548     LIBCMT:winapinls.obj
 0002:00014554       ??_C@_1M@DKHMKNJA@?$AAe?$AAs?$AA?9?$AAe?$AAc?$AA?$AA@ 100ae554     LIBCMT:winapinls.obj
 0002:00014560       ??_C@_1M@GKGFPKAP@?$AAe?$AAs?$AA?9?$AAe?$AAs?$AA?$AA@ 100ae560     LIBCMT:winapinls.obj
 0002:0001456c       ??_C@_1M@LKHKGDLN@?$AAe?$AAs?$AA?9?$AAg?$AAt?$AA?$AA@ 100ae56c     LIBCMT:winapinls.obj
 0002:00014578       ??_C@_1M@HEIIGGJD@?$AAe?$AAs?$AA?9?$AAh?$AAn?$AA?$AA@ 100ae578     LIBCMT:winapinls.obj
 0002:00014584       ??_C@_1M@FBDHPPGD@?$AAe?$AAs?$AA?9?$AAm?$AAx?$AA?$AA@ 100ae584     LIBCMT:winapinls.obj
 0002:00014590       ??_C@_1M@DPAGLNDH@?$AAe?$AAs?$AA?9?$AAn?$AAi?$AA?$AA@ 100ae590     LIBCMT:winapinls.obj
 0002:0001459c       ??_C@_1M@MDGOPGDD@?$AAe?$AAs?$AA?9?$AAp?$AAa?$AA?$AA@ 100ae59c     LIBCMT:winapinls.obj
 0002:000145a8       ??_C@_1M@EMAMGBGE@?$AAe?$AAs?$AA?9?$AAp?$AAe?$AA?$AA@ 100ae5a8     LIBCMT:winapinls.obj
 0002:000145b4       ??_C@_1M@IBMCAOEC@?$AAe?$AAs?$AA?9?$AAp?$AAr?$AA?$AA@ 100ae5b4     LIBCMT:winapinls.obj
 0002:000145c0       ??_C@_1M@FGMDIJED@?$AAe?$AAs?$AA?9?$AAp?$AAy?$AA?$AA@ 100ae5c0     LIBCMT:winapinls.obj
 0002:000145cc       ??_C@_1M@IIDEOLLL@?$AAe?$AAs?$AA?9?$AAs?$AAv?$AA?$AA@ 100ae5cc     LIBCMT:winapinls.obj
 0002:000145d8       ??_C@_1M@GAOBIPA@?$AAe?$AAs?$AA?9?$AAu?$AAy?$AA?$AA@ 100ae5d8     LIBCMT:winapinls.obj
 0002:000145e4       ??_C@_1M@JKFFICHJ@?$AAe?$AAs?$AA?9?$AAv?$AAe?$AA?$AA@ 100ae5e4     LIBCMT:winapinls.obj
 0002:000145f0       ??_C@_1M@PNMLOJDF@?$AAe?$AAt?$AA?9?$AAe?$AAe?$AA?$AA@ 100ae5f0     LIBCMT:winapinls.obj
 0002:000145fc       ??_C@_1M@GHHLIKEI@?$AAe?$AAu?$AA?9?$AAe?$AAs?$AA?$AA@ 100ae5fc     LIBCMT:winapinls.obj
 0002:00014608       ??_C@_1M@PBNONODE@?$AAf?$AAa?$AA?9?$AAi?$AAr?$AA?$AA@ 100ae608     LIBCMT:winapinls.obj
 0002:00014614       ??_C@_1M@JEEHPMIL@?$AAf?$AAi?$AA?9?$AAf?$AAi?$AA?$AA@ 100ae614     LIBCMT:winapinls.obj
 0002:00014620       ??_C@_1M@LMDCNDBA@?$AAf?$AAo?$AA?9?$AAf?$AAo?$AA?$AA@ 100ae620     LIBCMT:winapinls.obj
 0002:0001462c       ??_C@_1M@JKEOHLDK@?$AAf?$AAr?$AA?9?$AAb?$AAe?$AA?$AA@ 100ae62c     LIBCMT:winapinls.obj
 0002:00014638       ??_C@_1M@NOHADPMI@?$AAf?$AAr?$AA?9?$AAc?$AAa?$AA?$AA@ 100ae638     LIBCMT:winapinls.obj
 0002:00014644       ??_C@_1M@KDHIHAEC@?$AAf?$AAr?$AA?9?$AAc?$AAh?$AA?$AA@ 100ae644     LIBCMT:winapinls.obj
 0002:00014650       ??_C@_1M@MMBBFGAK@?$AAf?$AAr?$AA?9?$AAf?$AAr?$AA?$AA@ 100ae650     LIBCMT:winapinls.obj
 0002:0001465c       ??_C@_1M@PAFNENNF@?$AAf?$AAr?$AA?9?$AAl?$AAu?$AA?$AA@ 100ae65c     LIBCMT:winapinls.obj
 0002:00014668       ??_C@_1M@EOHDJGDD@?$AAf?$AAr?$AA?9?$AAm?$AAc?$AA?$AA@ 100ae668     LIBCMT:winapinls.obj
 0002:00014674       ??_C@_1M@FAPLLOPF@?$AAg?$AAl?$AA?9?$AAe?$AAs?$AA?$AA@ 100ae674     LIBCMT:winapinls.obj
 0002:00014680       ??_C@_1M@FOPBFLOO@?$AAg?$AAu?$AA?9?$AAi?$AAn?$AA?$AA@ 100ae680     LIBCMT:winapinls.obj
 0002:0001468c       ??_C@_1M@KBMCINPM@?$AAh?$AAe?$AA?9?$AAi?$AAl?$AA?$AA@ 100ae68c     LIBCMT:winapinls.obj
 0002:00014698       ??_C@_1M@BBPHKFPJ@?$AAh?$AAi?$AA?9?$AAi?$AAn?$AA?$AA@ 100ae698     LIBCMT:winapinls.obj
 0002:000146a4       ??_C@_1M@PMBNDPHD@?$AAh?$AAr?$AA?9?$AAb?$AAa?$AA?$AA@ 100ae6a4     LIBCMT:winapinls.obj
 0002:000146b0       ??_C@_1M@BPCKOEGE@?$AAh?$AAr?$AA?9?$AAh?$AAr?$AA?$AA@ 100ae6b0     LIBCMT:winapinls.obj
 0002:000146bc       ??_C@_1M@GACBMHKE@?$AAh?$AAu?$AA?9?$AAh?$AAu?$AA?$AA@ 100ae6bc     LIBCMT:winapinls.obj
 0002:000146c8       ??_C@_1M@MILPAJJC@?$AAh?$AAy?$AA?9?$AAa?$AAm?$AA?$AA@ 100ae6c8     LIBCMT:winapinls.obj
 0002:000146d4       ??_C@_1M@BABBICEC@?$AAi?$AAd?$AA?9?$AAi?$AAd?$AA?$AA@ 100ae6d4     LIBCMT:winapinls.obj
 0002:000146e0       ??_C@_1M@BIKNHHPF@?$AAi?$AAs?$AA?9?$AAi?$AAs?$AA?$AA@ 100ae6e0     LIBCMT:winapinls.obj
 0002:000146ec       ??_C@_1M@NMPCJPHE@?$AAi?$AAt?$AA?9?$AAc?$AAh?$AA?$AA@ 100ae6ec     LIBCMT:winapinls.obj
 0002:000146f8       ??_C@_1M@GHKGFEDF@?$AAi?$AAt?$AA?9?$AAi?$AAt?$AA?$AA@ 100ae6f8     LIBCMT:winapinls.obj
 0002:00014704       ??_C@_1M@NIEJCJJA@?$AAj?$AAa?$AA?9?$AAj?$AAp?$AA?$AA@ 100ae704     LIBCMT:winapinls.obj
 0002:00014710       ??_C@_1M@JILFNBIM@?$AAk?$AAa?$AA?9?$AAg?$AAe?$AA?$AA@ 100ae710     LIBCMT:winapinls.obj
 0002:0001471c       ??_C@_1M@PACPMGPH@?$AAk?$AAk?$AA?9?$AAk?$AAz?$AA?$AA@ 100ae71c     LIBCMT:winapinls.obj
 0002:00014728       ??_C@_1M@IELFGMHA@?$AAk?$AAn?$AA?9?$AAi?$AAn?$AA?$AA@ 100ae728     LIBCMT:winapinls.obj
 0002:00014734       ??_C@_1O@IBBJHCH@?$AAk?$AAo?$AAk?$AA?9?$AAi?$AAn?$AA?$AA@ 100ae734     LIBCMT:winapinls.obj
 0002:00014744       ??_C@_1M@DMHAEOGC@?$AAk?$AAo?$AA?9?$AAk?$AAr?$AA?$AA@ 100ae744     LIBCMT:winapinls.obj
 0002:00014750       ??_C@_1M@HBAHBIGA@?$AAk?$AAy?$AA?9?$AAk?$AAg?$AA?$AA@ 100ae750     LIBCMT:winapinls.obj
 0002:0001475c       ??_C@_1M@KPMILCJG@?$AAl?$AAt?$AA?9?$AAl?$AAt?$AA?$AA@ 100ae75c     LIBCMT:winapinls.obj
 0002:00014768       ??_C@_1M@BDEKKCA@?$AAl?$AAv?$AA?9?$AAl?$AAv?$AA?$AA@ 100ae768     LIBCMT:winapinls.obj
 0002:00014774       ??_C@_1M@ELCKCCJJ@?$AAm?$AAi?$AA?9?$AAn?$AAz?$AA?$AA@ 100ae774     LIBCMT:winapinls.obj
 0002:00014780       ??_C@_1M@CBOOLAPA@?$AAm?$AAk?$AA?9?$AAm?$AAk?$AA?$AA@ 100ae780     LIBCMT:winapinls.obj
 0002:0001478c       ??_C@_1M@GPHNBJKN@?$AAm?$AAl?$AA?9?$AAi?$AAn?$AA?$AA@ 100ae78c     LIBCMT:winapinls.obj
 0002:00014798       ??_C@_1M@PABJILIG@?$AAm?$AAn?$AA?9?$AAm?$AAn?$AA?$AA@ 100ae798     LIBCMT:winapinls.obj
 0002:000147a4       ??_C@_1M@FGBKKIPG@?$AAm?$AAr?$AA?9?$AAi?$AAn?$AA?$AA@ 100ae7a4     LIBCMT:winapinls.obj
 0002:000147b0       ??_C@_1M@NDBPDDAL@?$AAm?$AAs?$AA?9?$AAb?$AAn?$AA?$AA@ 100ae7b0     LIBCMT:winapinls.obj
 0002:000147bc       ??_C@_1M@OPIHOOPI@?$AAm?$AAs?$AA?9?$AAm?$AAy?$AA?$AA@ 100ae7bc     LIBCMT:winapinls.obj
 0002:000147c8       ??_C@_1M@PPDBCNFM@?$AAm?$AAt?$AA?9?$AAm?$AAt?$AA?$AA@ 100ae7c8     LIBCMT:winapinls.obj
 0002:000147d4       ??_C@_1M@KDJDKMDD@?$AAn?$AAb?$AA?9?$AAn?$AAo?$AA?$AA@ 100ae7d4     LIBCMT:winapinls.obj
 0002:000147e0       ??_C@_1M@KFCFLMJP@?$AAn?$AAl?$AA?9?$AAb?$AAe?$AA?$AA@ 100ae7e0     LIBCMT:winapinls.obj
 0002:000147ec       ??_C@_1M@KPOPDDGO@?$AAn?$AAl?$AA?9?$AAn?$AAl?$AA?$AA@ 100ae7ec     LIBCMT:winapinls.obj
 0002:000147f8       ??_C@_1M@LJKPEMLN@?$AAn?$AAn?$AA?9?$AAn?$AAo?$AA?$AA@ 100ae7f8     LIBCMT:winapinls.obj
 0002:00014804       ??_C@_1M@BDGHHBFL@?$AAn?$AAs?$AA?9?$AAz?$AAa?$AA?$AA@ 100ae804     LIBCMT:winapinls.obj
 0002:00014810       ??_C@_1M@IDEHOAP@?$AAp?$AAa?$AA?9?$AAi?$AAn?$AA?$AA@ 100ae810     LIBCMT:winapinls.obj
 0002:0001481c       ??_C@_1M@HDBKGOGH@?$AAp?$AAl?$AA?9?$AAp?$AAl?$AA?$AA@ 100ae81c     LIBCMT:winapinls.obj
 0002:00014828       ??_C@_1M@LJLLCMEH@?$AAp?$AAt?$AA?9?$AAb?$AAr?$AA?$AA@ 100ae828     LIBCMT:winapinls.obj
 0002:00014834       ??_C@_1M@NCMONAAL@?$AAp?$AAt?$AA?9?$AAp?$AAt?$AA?$AA@ 100ae834     LIBCMT:winapinls.obj
 0002:00014840       ??_C@_1O@EAKMAJDN@?$AAq?$AAu?$AAz?$AA?9?$AAb?$AAo?$AA?$AA@ 100ae840     LIBCMT:winapinls.obj
 0002:00014850       ??_C@_1O@BHHPIGDN@?$AAq?$AAu?$AAz?$AA?9?$AAe?$AAc?$AA?$AA@ 100ae850     LIBCMT:winapinls.obj
 0002:00014860       ??_C@_1O@GBAPEKMJ@?$AAq?$AAu?$AAz?$AA?9?$AAp?$AAe?$AA?$AA@ 100ae860     LIBCMT:winapinls.obj
 0002:00014870       ??_C@_1M@CLGLEFBO@?$AAr?$AAo?$AA?9?$AAr?$AAo?$AA?$AA@ 100ae870     LIBCMT:winapinls.obj
 0002:0001487c       ??_C@_1M@CEEDODME@?$AAr?$AAu?$AA?9?$AAr?$AAu?$AA?$AA@ 100ae87c     LIBCMT:winapinls.obj
 0002:00014888       ??_C@_1M@HPKKKMPP@?$AAs?$AAa?$AA?9?$AAi?$AAn?$AA?$AA@ 100ae888     LIBCMT:winapinls.obj
 0002:00014894       ??_C@_1M@BKMAIGOJ@?$AAs?$AAe?$AA?9?$AAf?$AAi?$AA?$AA@ 100ae894     LIBCMT:winapinls.obj
 0002:000148a0       ??_C@_1M@NDPIFLFI@?$AAs?$AAe?$AA?9?$AAn?$AAo?$AA?$AA@ 100ae8a0     LIBCMT:winapinls.obj
 0002:000148ac       ??_C@_1M@DANKKHJ@?$AAs?$AAe?$AA?9?$AAs?$AAe?$AA?$AA@ 100ae8ac     LIBCMT:winapinls.obj
 0002:000148b8       ??_C@_1M@PNBLONPJ@?$AAs?$AAk?$AA?9?$AAs?$AAk?$AA?$AA@ 100ae8b8     LIBCMT:winapinls.obj
 0002:000148c4       ??_C@_1M@LFMODOAL@?$AAs?$AAl?$AA?9?$AAs?$AAi?$AA?$AA@ 100ae8c4     LIBCMT:winapinls.obj
 0002:000148d0       ??_C@_1O@DFKOMPG@?$AAs?$AAm?$AAa?$AA?9?$AAn?$AAo?$AA?$AA@ 100ae8d0     LIBCMT:winapinls.obj
 0002:000148e0       ??_C@_1O@NDKPBNNH@?$AAs?$AAm?$AAa?$AA?9?$AAs?$AAe?$AA?$AA@ 100ae8e0     LIBCMT:winapinls.obj
 0002:000148f0       ??_C@_1O@PLLKBHAB@?$AAs?$AAm?$AAj?$AA?9?$AAn?$AAo?$AA?$AA@ 100ae8f0     LIBCMT:winapinls.obj
 0002:00014900       ??_C@_1O@CLEPOGCA@?$AAs?$AAm?$AAj?$AA?9?$AAs?$AAe?$AA?$AA@ 100ae900     LIBCMT:winapinls.obj
 0002:00014910       ??_C@_1O@DLGJGKMK@?$AAs?$AAm?$AAn?$AA?9?$AAf?$AAi?$AA?$AA@ 100ae910     LIBCMT:winapinls.obj
 0002:00014920       ??_C@_1O@OJDJGAJC@?$AAs?$AAm?$AAs?$AA?9?$AAf?$AAi?$AA?$AA@ 100ae920     LIBCMT:winapinls.obj
 0002:00014930       ??_C@_1M@BOFOGHPB@?$AAs?$AAq?$AA?9?$AAa?$AAl?$AA?$AA@ 100ae930     LIBCMT:winapinls.obj
 0002:0001493c       ??_C@_1BG@LJBBIPGB@?$AAs?$AAr?$AA?9?$AAb?$AAa?$AA?9?$AAc?$AAy?$AAr?$AAl?$AA?$AA@ 100ae93c     LIBCMT:winapinls.obj
 0002:00014954       ??_C@_1BG@JLBENFOE@?$AAs?$AAr?$AA?9?$AAb?$AAa?$AA?9?$AAl?$AAa?$AAt?$AAn?$AA?$AA@ 100ae954     LIBCMT:winapinls.obj
 0002:0001496c       ??_C@_1BG@KODPNHE@?$AAs?$AAr?$AA?9?$AAs?$AAp?$AA?9?$AAc?$AAy?$AAr?$AAl?$AA?$AA@ 100ae96c     LIBCMT:winapinls.obj
 0002:00014984       ??_C@_1BG@CIOGKHPB@?$AAs?$AAr?$AA?9?$AAs?$AAp?$AA?9?$AAl?$AAa?$AAt?$AAn?$AA?$AA@ 100ae984     LIBCMT:winapinls.obj
 0002:0001499c       ??_C@_1M@NGFJLMAC@?$AAs?$AAv?$AA?9?$AAf?$AAi?$AA?$AA@ 100ae99c     LIBCMT:winapinls.obj
 0002:000149a8       ??_C@_1M@MPJEJAJC@?$AAs?$AAv?$AA?9?$AAs?$AAe?$AA?$AA@ 100ae9a8     LIBCMT:winapinls.obj
 0002:000149b4       ??_C@_1M@MPNDHLFK@?$AAs?$AAw?$AA?9?$AAk?$AAe?$AA?$AA@ 100ae9b4     LIBCMT:winapinls.obj
 0002:000149c0       ??_C@_1O@KOHBJJI@?$AAs?$AAy?$AAr?$AA?9?$AAs?$AAy?$AA?$AA@ 100ae9c0     LIBCMT:winapinls.obj
 0002:000149d0       ??_C@_1M@LDCEFHA@?$AAt?$AAa?$AA?9?$AAi?$AAn?$AA?$AA@ 100ae9d0     LIBCMT:winapinls.obj
 0002:000149dc       ??_C@_1M@CNJOFAK@?$AAt?$AAe?$AA?9?$AAi?$AAn?$AA?$AA@ 100ae9dc     LIBCMT:winapinls.obj
 0002:000149e8       ??_C@_1M@GNAECACD@?$AAt?$AAh?$AA?9?$AAt?$AAh?$AA?$AA@ 100ae9e8     LIBCMT:winapinls.obj
 0002:000149f4       ??_C@_1M@CHBIHOJO@?$AAt?$AAn?$AA?9?$AAz?$AAa?$AA?$AA@ 100ae9f4     LIBCMT:winapinls.obj
 0002:00014a00       ??_C@_1M@GCCMIGPJ@?$AAt?$AAr?$AA?9?$AAt?$AAr?$AA?$AA@ 100aea00     LIBCMT:winapinls.obj
 0002:00014a0c       ??_C@_1M@CELMCNBK@?$AAt?$AAt?$AA?9?$AAr?$AAu?$AA?$AA@ 100aea0c     LIBCMT:winapinls.obj
 0002:00014a18       ??_C@_1M@KLMCELGA@?$AAu?$AAk?$AA?9?$AAu?$AAa?$AA?$AA@ 100aea18     LIBCMT:winapinls.obj
 0002:00014a24       ??_C@_1M@EPAJJAJF@?$AAu?$AAr?$AA?9?$AAp?$AAk?$AA?$AA@ 100aea24     LIBCMT:winapinls.obj
 0002:00014a30       ??_C@_1BG@GEGPMCDJ@?$AAu?$AAz?$AA?9?$AAu?$AAz?$AA?9?$AAc?$AAy?$AAr?$AAl?$AA?$AA@ 100aea30     LIBCMT:winapinls.obj
 0002:00014a48       ??_C@_1BG@EGGKJILM@?$AAu?$AAz?$AA?9?$AAu?$AAz?$AA?9?$AAl?$AAa?$AAt?$AAn?$AA?$AA@ 100aea48     LIBCMT:winapinls.obj
 0002:00014a60       ??_C@_1M@GFOCLFF@?$AAv?$AAi?$AA?9?$AAv?$AAn?$AA?$AA@ 100aea60     LIBCMT:winapinls.obj
 0002:00014a6c       ??_C@_1M@CPAMEDFI@?$AAx?$AAh?$AA?9?$AAz?$AAa?$AA?$AA@ 100aea6c     LIBCMT:winapinls.obj
 0002:00014a78       ??_C@_1O@EBKIFIGN@?$AAz?$AAh?$AA?9?$AAc?$AAh?$AAs?$AA?$AA@ 100aea78     LIBCMT:winapinls.obj
 0002:00014a88       ??_C@_1O@NMHPGANE@?$AAz?$AAh?$AA?9?$AAc?$AAh?$AAt?$AA?$AA@ 100aea88     LIBCMT:winapinls.obj
 0002:00014a98       ??_C@_1M@LPINJOMC@?$AAz?$AAh?$AA?9?$AAc?$AAn?$AA?$AA@ 100aea98     LIBCMT:winapinls.obj
 0002:00014aa4       ??_C@_1M@OCJEJODD@?$AAz?$AAh?$AA?9?$AAh?$AAk?$AA?$AA@ 100aeaa4     LIBCMT:winapinls.obj
 0002:00014ab0       ??_C@_1M@DNDLJINH@?$AAz?$AAh?$AA?9?$AAm?$AAo?$AA?$AA@ 100aeab0     LIBCMT:winapinls.obj
 0002:00014abc       ??_C@_1M@MBFDNDND@?$AAz?$AAh?$AA?9?$AAs?$AAg?$AA?$AA@ 100aeabc     LIBCMT:winapinls.obj
 0002:00014ac8       ??_C@_1M@IMEPLEPE@?$AAz?$AAh?$AA?9?$AAt?$AAw?$AA?$AA@ 100aeac8     LIBCMT:winapinls.obj
 0002:00014ad4       ??_C@_1M@BBGHNHJP@?$AAz?$AAu?$AA?9?$AAz?$AAa?$AA?$AA@ 100aead4     LIBCMT:winapinls.obj
 0002:00014ae0       ??_C@_1BG@GOEBHBDC@?$AAU?$AAS?$AAE?$AAR?$AA3?$AA2?$AA?4?$AAD?$AAL?$AAL?$AA?$AA@ 100aeae0     LIBCMT:crtmboxw.obj
 0002:00014af8       ??_C@_0M@DLDCCGNP@MessageBoxW?$AA@ 100aeaf8     LIBCMT:crtmboxw.obj
 0002:00014b04       ??_C@_0BA@HNOPNCHB@GetActiveWindow?$AA@ 100aeb04     LIBCMT:crtmboxw.obj
 0002:00014b14       ??_C@_0BD@HHGDFDBJ@GetLastActivePopup?$AA@ 100aeb14     LIBCMT:crtmboxw.obj
 0002:00014b28       ??_C@_0BK@DEKFELLI@GetUserObjectInformationW?$AA@ 100aeb28     LIBCMT:crtmboxw.obj
 0002:00014b44       ??_C@_0BI@DFKBFLJE@GetProcessWindowStation?$AA@ 100aeb44     LIBCMT:crtmboxw.obj
 0002:00014b60       ___newctype                100aeb60     LIBCMT:ctype.obj
 0002:00014e60       __wctype                   100aee60     LIBCMT:ctype.obj
 0002:00015068       ___newclmap                100af068     LIBCMT:ctype.obj
 0002:000151e8       ___newcumap                100af1e8     LIBCMT:ctype.obj
 0002:00019560       __infinity                 100b3560     LIBCMT:87tran.obj
 0002:0001956a       __minfinity                100b356a     LIBCMT:87tran.obj
 0002:00019574       __logemax                  100b3574     LIBCMT:87tran.obj
 0002:0001959a       __OP_EXPjmptab             100b359a     LIBCMT:87tran.obj
 0002:00019fec       ??_C@_08EHJDFFNH@__based?$CI?$AA@ 100b3fec     LIBCMT:undname.obj
 0002:00019ff8       ??_C@_07KOLFKCDI@__cdecl?$AA@ 100b3ff8     LIBCMT:undname.obj
 0002:0001a000       ??_C@_08GHMPAG@__pascal?$AA@ 100b4000     LIBCMT:undname.obj
 0002:0001a00c       ??_C@_09IFJBGAPI@__stdcall?$AA@ 100b400c     LIBCMT:undname.obj
 0002:0001a018       ??_C@_0L@NPHFGOKO@__thiscall?$AA@ 100b4018     LIBCMT:undname.obj
 0002:0001a024       ??_C@_0L@JMKHOMEK@__fastcall?$AA@ 100b4024     LIBCMT:undname.obj
 0002:0001a030       ??_C@_0N@BCKKPABJ@__vectorcall?$AA@ 100b4030     LIBCMT:undname.obj
 0002:0001a040       ??_C@_09HIJEGCPM@__clrcall?$AA@ 100b4040     LIBCMT:undname.obj
 0002:0001a04c       ??_C@_06GHPCKEAG@__eabi?$AA@ 100b404c     LIBCMT:undname.obj
 0002:0001a054       ??_C@_07JOMMBBKO@__ptr64?$AA@ 100b4054     LIBCMT:undname.obj
 0002:0001a05c       ??_C@_0L@PILCLIHE@__restrict?$AA@ 100b405c     LIBCMT:undname.obj
 0002:0001a068       ??_C@_0M@GFIIJFMG@__unaligned?$AA@ 100b4068     LIBCMT:undname.obj
 0002:0001a074       ??_C@_09DHDLOLLB@restrict?$CI?$AA@ 100b4074     LIBCMT:undname.obj
 0002:0001a07e       ??_C@_00CNPNBAHC@?$AA@     100b407e     LIBCMT:undname.obj
 0002:0001a080       ??_C@_04NIHEBCM@?5new?$AA@ 100b4080     LIBCMT:undname.obj
 0002:0001a088       ??_C@_07FPCDHGMM@?5delete?$AA@ 100b4088     LIBCMT:undname.obj
 0002:0001a090       ??_C@_01NEMOKFLO@?$DN?$AA@ 100b4090     LIBCMT:undname.obj
 0002:0001a094       ??_C@_02GPIOPFAK@?$DO?$DO?$AA@ 100b4094     LIBCMT:undname.obj
 0002:0001a098       ??_C@_02FODMEDOG@?$DM?$DM?$AA@ 100b4098     LIBCMT:undname.obj
 0002:0001a09c       ??_C@_01DCLJPIOD@?$CB?$AA@ 100b409c     LIBCMT:undname.obj
 0002:0001a0a0       ??_C@_02EGOFBIJA@?$DN?$DN?$AA@ 100b40a0     LIBCMT:undname.obj
 0002:0001a0a4       ??_C@_02FDNJECIE@?$CB?$DN?$AA@ 100b40a4     LIBCMT:undname.obj
 0002:0001a0a8       ??_C@_02GPECMEKF@?$FL?$FN?$AA@ 100b40a8     LIBCMT:undname.obj
 0002:0001a0ac       ??_C@_08LHJFAFGD@operator?$AA@ 100b40ac     LIBCMT:undname.obj
 0002:0001a0b8       ??_C@_02HBOOOICD@?9?$DO?$AA@ 100b40b8     LIBCMT:undname.obj
 0002:0001a0bc       ??_C@_01NBENCBCI@?$CK?$AA@ 100b40bc     LIBCMT:undname.obj
 0002:0001a0c0       ??_C@_02ECNGHCIF@?$CL?$CL?$AA@ 100b40c0     LIBCMT:undname.obj
 0002:0001a0c4       ??_C@_02BAABKJLB@?9?9?$AA@ 100b40c4     LIBCMT:undname.obj
 0002:0001a0c8       ??_C@_01JOAMLHOP@?9?$AA@   100b40c8     LIBCMT:undname.obj
 0002:0001a0cc       ??_C@_01MIFGBAGJ@?$CL?$AA@ 100b40cc     LIBCMT:undname.obj
 0002:0001a0d0       ??_C@_01HNPIGOCE@?$CG?$AA@ 100b40d0     LIBCMT:undname.obj
 0002:0001a0d4       ??_C@_03MNHNFDLC@?9?$DO?$CK?$AA@ 100b40d4     LIBCMT:undname.obj
 0002:0001a0d8       ??_C@_01FGNFDNOH@?$CF?$AA@ 100b40d8     LIBCMT:undname.obj
 0002:0001a0dc       ??_C@_01MNNFJEPP@?$DM?$AA@ 100b40dc     LIBCMT:undname.obj
 0002:0001a0e0       ??_C@_02EHCHHCKH@?$DM?$DN?$AA@ 100b40e0     LIBCMT:undname.obj
 0002:0001a0e4       ??_C@_01PPODPGHN@?$DO?$AA@ 100b40e4     LIBCMT:undname.obj
 0002:0001a0e8       ??_C@_02EEKDKGMJ@?$DO?$DN?$AA@ 100b40e8     LIBCMT:undname.obj
 0002:0001a0ec       ??_C@_01IHBHIGKO@?0?$AA@   100b40ec     LIBCMT:undname.obj
 0002:0001a0f0       ??_C@_02HCKGKOFO@?$CI?$CJ?$AA@ 100b40f0     LIBCMT:undname.obj
 0002:0001a0f4       ??_C@_01PJKLJHI@?$HO?$AA@  100b40f4     LIBCMT:undname.obj
 0002:0001a0f8       ??_C@_01DNKMNLPK@?$HM?$AA@ 100b40f8     LIBCMT:undname.obj
 0002:0001a0fc       ??_C@_02PPKAJPJL@?$CG?$CG?$AA@ 100b40fc     LIBCMT:undname.obj
 0002:0001a100       ??_C@_02NONPIBCD@?$HM?$HM?$AA@ 100b4100     LIBCMT:undname.obj
 0002:0001a104       ??_C@_02FPIMKNGF@?$CK?$DN?$AA@ 100b4104     LIBCMT:undname.obj
 0002:0001a108       ??_C@_02FOEOMHFC@?$CL?$DN?$AA@ 100b4108     LIBCMT:undname.obj
 0002:0001a10c       ??_C@_02FKMDLLOA@?9?$DN?$AA@ 100b410c     LIBCMT:undname.obj
 0002:0001a110       ??_C@_02FJEHGPIO@?1?$DN?$AA@ 100b4110     LIBCMT:undname.obj
 0002:0001a114       ??_C@_02FENAOKFI@?$CF?$DN?$AA@ 100b4114     LIBCMT:undname.obj
 0002:0001a118       ??_C@_03IKFCCPFF@?$DO?$DO?$DN?$AA@ 100b4118     LIBCMT:undname.obj
 0002:0001a11c       ??_C@_03CDNPDDLA@?$DM?$DM?$DN?$AA@ 100b411c     LIBCMT:undname.obj
 0002:0001a120       ??_C@_02FGJGFEAB@?$CG?$DN?$AA@ 100b4120     LIBCMT:undname.obj
 0002:0001a124       ??_C@_02DHLNPPGH@?$HM?$DN?$AA@ 100b4124     LIBCMT:undname.obj
 0002:0001a128       ??_C@_02MHEGNOJ@?$FO?$DN?$AA@ 100b4128     LIBCMT:undname.obj
 0002:0001a12c       ??_C@_09IFPLHPGF@?$GAvftable?8?$AA@ 100b412c     LIBCMT:undname.obj
 0002:0001a138       ??_C@_09BLBHBJP@?$GAvbtable?8?$AA@ 100b4138     LIBCMT:undname.obj
 0002:0001a144       ??_C@_07FEEIOKP@?$GAvcall?8?$AA@ 100b4144     LIBCMT:undname.obj
 0002:0001a14c       ??_C@_08LLFFHHDJ@?$GAtypeof?8?$AA@ 100b414c     LIBCMT:undname.obj
 0002:0001a158       ??_C@_0BF@KDPPACIK@?$GAlocal?5static?5guard?8?$AA@ 100b4158     LIBCMT:undname.obj
 0002:0001a170       ??_C@_08OBABFOLI@?$GAstring?8?$AA@ 100b4170     LIBCMT:undname.obj
 0002:0001a17c       ??_C@_0BD@JDLKDPAB@?$GAvbase?5destructor?8?$AA@ 100b417c     LIBCMT:undname.obj
 0002:0001a190       ??_C@_0BN@DEGPLNFK@?$GAvector?5deleting?5destructor?8?$AA@ 100b4190     LIBCMT:undname.obj
 0002:0001a1b0       ??_C@_0BO@OBMKPJIG@?$GAdefault?5constructor?5closure?8?$AA@ 100b41b0     LIBCMT:undname.obj
 0002:0001a1d0       ??_C@_0BN@IMDCHIKM@?$GAscalar?5deleting?5destructor?8?$AA@ 100b41d0     LIBCMT:undname.obj
 0002:0001a1f0       ??_C@_0BO@PFGOCPJJ@?$GAvector?5constructor?5iterator?8?$AA@ 100b41f0     LIBCMT:undname.obj
 0002:0001a210       ??_C@_0BN@LFPFMEDL@?$GAvector?5destructor?5iterator?8?$AA@ 100b4210     LIBCMT:undname.obj
 0002:0001a230       ??_C@_0CE@IKBNEHA@?$GAvector?5vbase?5constructor?5iterat@ 100b4230     LIBCMT:undname.obj
 0002:0001a254       ??_C@_0BL@NILFHHPC@?$GAvirtual?5displacement?5map?8?$AA@ 100b4254     LIBCMT:undname.obj
 0002:0001a270       ??_C@_0CB@JONCMFFK@?$GAeh?5vector?5constructor?5iterator?8@ 100b4270     LIBCMT:undname.obj
 0002:0001a294       ??_C@_0CA@GCEOPDGL@?$GAeh?5vector?5destructor?5iterator?8?$AA@ 100b4294     LIBCMT:undname.obj
 0002:0001a2b4       ??_C@_0CH@OOJPLCPH@?$GAeh?5vector?5vbase?5constructor?5ite@ 100b42b4     LIBCMT:undname.obj
 0002:0001a2dc       ??_C@_0BL@LLKPOHJI@?$GAcopy?5constructor?5closure?8?$AA@ 100b42dc     LIBCMT:undname.obj
 0002:0001a2f8       ??_C@_0BA@KBCDOMBN@?$GAudt?5returning?8?$AA@ 100b42f8     LIBCMT:undname.obj
 0002:0001a308       ??_C@_03KLGMFNMG@?$GAEH?$AA@ 100b4308     LIBCMT:undname.obj
 0002:0001a30c       ??_C@_05KHLCHHI@?$GARTTI?$AA@ 100b430c     LIBCMT:undname.obj
 0002:0001a314       ??_C@_0BA@KKLDJDLB@?$GAlocal?5vftable?8?$AA@ 100b4314     LIBCMT:undname.obj
 0002:0001a324       ??_C@_0CE@IIHCMGGL@?$GAlocal?5vftable?5constructor?5closu@ 100b4324     LIBCMT:undname.obj
 0002:0001a348       ??_C@_06FHBGPFGH@?5new?$FL?$FN?$AA@ 100b4348     LIBCMT:undname.obj
 0002:0001a350       ??_C@_09LBNFPBCA@?5delete?$FL?$FN?$AA@ 100b4350     LIBCMT:undname.obj
 0002:0001a35c       ??_C@_0P@HJKNJFNN@?$GAomni?5callsig?8?$AA@ 100b435c     LIBCMT:undname.obj
 0002:0001a36c       ??_C@_0BL@CNOONJFP@?$GAplacement?5delete?5closure?8?$AA@ 100b436c     LIBCMT:undname.obj
 0002:0001a388       ??_C@_0BN@CKNJLHMB@?$GAplacement?5delete?$FL?$FN?5closure?8?$AA@ 100b4388     LIBCMT:undname.obj
 0002:0001a3a8       ??_C@_0CG@CFDHKGGD@?$GAmanaged?5vector?5constructor?5iter@ 100b43a8     LIBCMT:undname.obj
 0002:0001a3d0       ??_C@_0CF@IMGKMJNO@?$GAmanaged?5vector?5destructor?5itera@ 100b43d0     LIBCMT:undname.obj
 0002:0001a3f8       ??_C@_0CG@HLDDJMAG@?$GAeh?5vector?5copy?5constructor?5iter@ 100b43f8     LIBCMT:undname.obj
 0002:0001a420       ??_C@_0CM@FCBBDIGB@?$GAeh?5vector?5vbase?5copy?5constructo@ 100b4420     LIBCMT:undname.obj
 0002:0001a44c       ??_C@_0BL@CLIPGLGB@?$GAdynamic?5initializer?5for?5?8?$AA@ 100b444c     LIBCMT:undname.obj
 0002:0001a468       ??_C@_0CB@PDBIFEP@?$GAdynamic?5atexit?5destructor?5for?5?8@ 100b4468     LIBCMT:undname.obj
 0002:0001a48c       ??_C@_0CD@CGAJBKEJ@?$GAvector?5copy?5constructor?5iterato@ 100b448c     LIBCMT:undname.obj
 0002:0001a4b0       ??_C@_0CJ@GJELGAMM@?$GAvector?5vbase?5copy?5constructor?5i@ 100b44b0     LIBCMT:undname.obj
 0002:0001a4dc       ??_C@_0CL@FGIJHLCE@?$GAmanaged?5vector?5copy?5constructor@ 100b44dc     LIBCMT:undname.obj
 0002:0001a508       ??_C@_0BM@PMGGMLDN@?$GAlocal?5static?5thread?5guard?8?$AA@ 100b4508     LIBCMT:undname.obj
 0002:0001a524       ??_C@_0BC@DAFEJGAK@?5Type?5Descriptor?8?$AA@ 100b4524     LIBCMT:undname.obj
 0002:0001a538       ??_C@_0BM@LDKODKLH@?5Base?5Class?5Descriptor?5at?5?$CI?$AA@ 100b4538     LIBCMT:undname.obj
 0002:0001a554       ??_C@_0BD@LGICGFMM@?5Base?5Class?5Array?8?$AA@ 100b4554     LIBCMT:undname.obj
 0002:0001a568       ??_C@_0BN@MECKDCOJ@?5Class?5Hierarchy?5Descriptor?8?$AA@ 100b4568     LIBCMT:undname.obj
 0002:0001a588       ??_C@_0BK@CFCOFLF@?5Complete?5Object?5Locator?8?$AA@ 100b4588     LIBCMT:undname.obj
 0002:0001a5a4       ??_C@_04HEJADOOB@CV?3?5?$AA@ 100b45a4     LIBCMT:undname.obj
 0002:0001a5ac       ??_C@_02MOLJINC@?3?3?$AA@  100b45ac     LIBCMT:undname.obj
 0002:0001a5b0       ??_C@_0BE@JAEOCHPE@template?9parameter?9?$AA@ 100b45b0     LIBCMT:undname.obj
 0002:0001a5c4       ??_C@_0O@KHGCOMHP@generic?9type?9?$AA@ 100b45c4     LIBCMT:undname.obj
 0002:0001a5d4       ??_C@_01NLNLIGKH@?$GA?$AA@ 100b45d4     LIBCMT:undname.obj
 0002:0001a5d8       ??_C@_01GEODFPGF@?8?$AA@   100b45d8     LIBCMT:undname.obj
 0002:0001a5dc       ??_C@_0BG@JNJLAMPM@?$GAanonymous?5namespace?8?$AA@ 100b45dc     LIBCMT:undname.obj
 0002:0001a5f4       ??_C@_02OHHJMEON@?8?8?$AA@ 100b45f4     LIBCMT:undname.obj
 0002:0001a5f8       ??_C@_0BN@IBLMMFAP@?$GAnon?9type?9template?9parameter?$AA@ 100b45f8     LIBCMT:undname.obj
 0002:0001a618       ??_C@_04GKJNKENE@void?$AA@ 100b4618     LIBCMT:undname.obj
 0002:0001a620       ??_C@_0BE@EODMJLIF@?$GAtemplate?9parameter?$AA@ 100b4620     LIBCMT:undname.obj
 0002:0001a634       ??_C@_03KHICJKCI@?4?4?4?$AA@ 100b4634     LIBCMT:undname.obj
 0002:0001a638       ??_C@_04HIBGFPH@NULL?$AA@  100b4638     LIBCMT:undname.obj
 0002:0001a640       ??_C@_03OPGICMGF@?$HN?8?5?$AA@ 100b4640     LIBCMT:undname.obj
 0002:0001a644       ??_C@_02IGFCGPIL@?$HN?8?$AA@ 100b4644     LIBCMT:undname.obj
 0002:0001a648       ??_C@_0N@CBHHHENL@?$GAvtordispex?$HL?$AA@ 100b4648     LIBCMT:undname.obj
 0002:0001a658       ??_C@_0L@GHPFDFH@?$GAvtordisp?$HL?$AA@ 100b4658     LIBCMT:undname.obj
 0002:0001a664       ??_C@_0L@HNGCOGAE@?$GAadjustor?$HL?$AA@ 100b4664     LIBCMT:undname.obj
 0002:0001a670       ??_C@_0CB@KJDOOODE@?$GAlocal?5static?5destructor?5helper?8@ 100b4670     LIBCMT:undname.obj
 0002:0001a694       ??_C@_0DB@ILEFOCIJ@?$GAtemplate?5static?5data?5member?5con@ 100b4694     LIBCMT:undname.obj
 0002:0001a6c8       ??_C@_0DA@HGFJFBBE@?$GAtemplate?5static?5data?5member?5des@ 100b46c8     LIBCMT:undname.obj
 0002:0001a6f8       ??_C@_07PGOEDBHP@static?5?$AA@ 100b46f8     LIBCMT:undname.obj
 0002:0001a700       ??_C@_08NIEOINHE@virtual?5?$AA@ 100b4700     LIBCMT:undname.obj
 0002:0001a70c       ??_C@_09LAPHOOG@private?3?5?$AA@ 100b470c     LIBCMT:undname.obj
 0002:0001a718       ??_C@_0M@GAIFPFIP@protected?3?5?$AA@ 100b4718     LIBCMT:undname.obj
 0002:0001a724       ??_C@_08GPDDCMKI@public?3?5?$AA@ 100b4724     LIBCMT:undname.obj
 0002:0001a730       ??_C@_08KJLFOPNE@?$FLthunk?$FN?3?$AA@ 100b4730     LIBCMT:undname.obj
 0002:0001a73c       ??_C@_0M@DHNBOJMP@extern?5?$CCC?$CC?5?$AA@ 100b473c     LIBCMT:undname.obj
 0002:0001a748       ??_C@_02KCKGHPCA@?$CJ?5?$AA@ 100b4748     LIBCMT:undname.obj
 0002:0001a74c       ??_C@_05CIHEBHNO@char?5?$AA@ 100b474c     LIBCMT:undname.obj
 0002:0001a754       ??_C@_06EHJMALKF@short?5?$AA@ 100b4754     LIBCMT:undname.obj
 0002:0001a75c       ??_C@_04LAHKHJMA@int?5?$AA@ 100b475c     LIBCMT:undname.obj
 0002:0001a764       ??_C@_05CJIMAING@long?5?$AA@ 100b4764     LIBCMT:undname.obj
 0002:0001a76c       ??_C@_09EBBEKKIH@unsigned?5?$AA@ 100b476c     LIBCMT:undname.obj
 0002:0001a778       ??_C@_05BEFAKPML@void?5?$AA@ 100b4778     LIBCMT:undname.obj
 0002:0001a780       ??_C@_08PABEKFH@volatile?$AA@ 100b4780     LIBCMT:undname.obj
 0002:0001a78c       ??_C@_0P@GCOCNKDM@std?3?3nullptr_t?$AA@ 100b478c     LIBCMT:undname.obj
 0002:0001a79c       ??_C@_0L@EGPHHEKN@?$DMellipsis?$DO?$AA@ 100b479c     LIBCMT:undname.obj
 0002:0001a7a8       ??_C@_04EENFHACM@?0?4?4?4?$AA@ 100b47a8     LIBCMT:undname.obj
 0002:0001a7b0       ??_C@_0M@ELJOJFFH@?0?$DMellipsis?$DO?$AA@ 100b47b0     LIBCMT:undname.obj
 0002:0001a7bc       ??_C@_07HDJPLPEK@?5throw?$CI?$AA@ 100b47bc     LIBCMT:undname.obj
 0002:0001a7c4       ??_C@_03PBJBJNON@cpu?$AA@  100b47c4     LIBCMT:undname.obj
 0002:0001a7c8       ??_C@_03DCBBJBAA@amp?$AA@  100b47c8     LIBCMT:undname.obj
 0002:0001a7cc       ??_C@_02KEGNLNML@?0?5?$AA@ 100b47cc     LIBCMT:undname.obj
 0002:0001a7d0       ??_C@_04ENMBGAPA@char?$AA@ 100b47d0     LIBCMT:undname.obj
 0002:0001a7d8       ??_C@_05BFKKPKCG@short?$AA@ 100b47d8     LIBCMT:undname.obj
 0002:0001a7e0       ??_C@_03JBIPMCLC@int?$AA@  100b47e0     LIBCMT:undname.obj
 0002:0001a7e4       ??_C@_04GOKPGOLB@long?$AA@ 100b47e4     LIBCMT:undname.obj
 0002:0001a7ec       ??_C@_05KNFBNCOH@float?$AA@ 100b47ec     LIBCMT:undname.obj
 0002:0001a7f4       ??_C@_06BNJCAIGJ@double?$AA@ 100b47f4     LIBCMT:undname.obj
 0002:0001a7fc       ??_C@_04DDKJGDCM@bool?$AA@ 100b47fc     LIBCMT:undname.obj
 0002:0001a804       ??_C@_06EBGKOKIG@__int8?$AA@ 100b4804     LIBCMT:undname.obj
 0002:0001a80c       ??_C@_07ICFHOGAF@__int16?$AA@ 100b480c     LIBCMT:undname.obj
 0002:0001a814       ??_C@_07OFLPPHGP@__int32?$AA@ 100b4814     LIBCMT:undname.obj
 0002:0001a81c       ??_C@_07LFCOJCAC@__int64?$AA@ 100b481c     LIBCMT:undname.obj
 0002:0001a824       ??_C@_08GAHOLHEO@__int128?$AA@ 100b4824     LIBCMT:undname.obj
 0002:0001a830       ??_C@_09EEKGDCPH@?$DMunknown?$DO?$AA@ 100b4830     LIBCMT:undname.obj
 0002:0001a83c       ??_C@_07CLGGIAMF@wchar_t?$AA@ 100b483c     LIBCMT:undname.obj
 0002:0001a844       ??_C@_06GCICPBLB@__w64?5?$AA@ 100b4844     LIBCMT:undname.obj
 0002:0001a84c       ??_C@_07NFANNNEC@UNKNOWN?$AA@ 100b484c     LIBCMT:undname.obj
 0002:0001a854       ??_C@_07EDHNAJHC@signed?5?$AA@ 100b4854     LIBCMT:undname.obj
 0002:0001a85c       ??_C@_05BNCCCJPP@const?$AA@ 100b485c     LIBCMT:undname.obj
 0002:0001a864       ??_C@_09EFNPDFFP@?5volatile?$AA@ 100b4864     LIBCMT:undname.obj
 0002:0001a870       ??_C@_0P@GCIFDJCJ@?$GAunknown?5ecsu?8?$AA@ 100b4870     LIBCMT:undname.obj
 0002:0001a880       ??_C@_06MOJHIBMG@union?5?$AA@ 100b4880     LIBCMT:undname.obj
 0002:0001a888       ??_C@_07DIBCDNGL@struct?5?$AA@ 100b4888     LIBCMT:undname.obj
 0002:0001a890       ??_C@_06LJBABKPM@class?5?$AA@ 100b4890     LIBCMT:undname.obj
 0002:0001a898       ??_C@_08KOFANOFK@coclass?5?$AA@ 100b4898     LIBCMT:undname.obj
 0002:0001a8a4       ??_C@_0N@DLIEFKNA@cointerface?5?$AA@ 100b48a4     LIBCMT:undname.obj
 0002:0001a8b4       ??_C@_05LJGMCFOG@enum?5?$AA@ 100b48b4     LIBCMT:undname.obj
 0002:0001a8bc       ??_C@_09GAIEOBLP@volatile?5?$AA@ 100b48bc     LIBCMT:undname.obj
 0002:0001a8c8       ??_C@_06LIJLOJAG@const?5?$AA@ 100b48c8     LIBCMT:undname.obj
 0002:0001a8d0       ??_C@_0M@EALIELKG@cli?3?3array?$DM?$AA@ 100b48d0     LIBCMT:undname.obj
 0002:0001a8dc       ??_C@_0O@GKABPPIF@cli?3?3pin_ptr?$DM?$AA@ 100b48dc     LIBCMT:undname.obj
 0002:0001a8ec       ??_C@_02GOGNNPBN@?$CJ?$FL?$AA@ 100b48ec     LIBCMT:undname.obj
 0002:0001a8f0       ??_C@_06EEGAIFAK@?$HLflat?$HN?$AA@ 100b48f0     LIBCMT:undname.obj
 0002:0001a8f8       ??_C@_05JIBOFOHK@?$HLfor?5?$AA@ 100b48f8     LIBCMT:undname.obj
 0002:0001a900       ??_C@_02MDINNEEG@s?5?$AA@  100b4900     LIBCMT:undname.obj
 0002:0001a908       ??_7DNameNode@@6B@         100b4908     LIBCMT:undname.obj
 0002:0001a918       ??_7charNode@@6B@          100b4918     LIBCMT:undname.obj
 0002:0001a928       ??_7pcharNode@@6B@         100b4928     LIBCMT:undname.obj
 0002:0001a938       ??_7pDNameNode@@6B@        100b4938     LIBCMT:undname.obj
 0002:0001a948       ??_7DNameStatusNode@@6B@   100b4948     LIBCMT:undname.obj
 0002:0001a958       ??_7pairNode@@6B@          100b4958     LIBCMT:undname.obj
 0002:0001a964       ??_C@_04OKOHEJBO@?5?$DP?$DP?5?$AA@ 100b4964     LIBCMT:undname.obj
 0002:0001a96c       ??_C@_0M@HHGEPIBF@CreateFile2?$AA@ 100b496c     LIBCMT:wopen.obj
 0002:0001a978       ??_C@_19DOGDICKI@?$AA?4?$AAe?$AAx?$AAe?$AA?$AA@ 100b4978     LIBCMT:wstat.obj
 0002:0001a984       ??_C@_19BDKLHPGC@?$AA?4?$AAc?$AAm?$AAd?$AA?$AA@ 100b4984     LIBCMT:wstat.obj
 0002:0001a990       ??_C@_19PINKOIBI@?$AA?4?$AAb?$AAa?$AAt?$AA?$AA@ 100b4990     LIBCMT:wstat.obj
 0002:0001a99c       ??_C@_19CDGLJBOD@?$AA?4?$AAc?$AAo?$AAm?$AA?$AA@ 100b499c     LIBCMT:wstat.obj
 0002:0001a9a8       ___rg_language             100b49a8     LIBCMT:getqloc.obj
 0002:0001acb4       ??_C@_1BC@LLOKLNP@?$AAa?$AAm?$AAe?$AAr?$AAi?$AAc?$AAa?$AAn?$AA?$AA@ 100b4cb4     LIBCMT:getqloc.obj
 0002:0001acc8       ??_C@_1CC@HEIGCDGG@?$AAa?$AAm?$AAe?$AAr?$AAi?$AAc?$AAa?$AAn?$AA?5?$AAe?$AAn?$AAg?$AAl?$AAi?$AAs?$AAh?$AA?$AA@ 100b4cc8     LIBCMT:getqloc.obj
 0002:0001acec       ??_C@_1CC@IHCNOMIN@?$AAa?$AAm?$AAe?$AAr?$AAi?$AAc?$AAa?$AAn?$AA?9?$AAe?$AAn?$AAg?$AAl?$AAi?$AAs?$AAh?$AA?$AA@ 100b4cec     LIBCMT:getqloc.obj
 0002:0001ad10       ??_C@_1BG@GKAGPCGG@?$AAa?$AAu?$AAs?$AAt?$AAr?$AAa?$AAl?$AAi?$AAa?$AAn?$AA?$AA@ 100b4d10     LIBCMT:getqloc.obj
 0002:0001ad28       ??_C@_1BA@GMENCENF@?$AAb?$AAe?$AAl?$AAg?$AAi?$AAa?$AAn?$AA?$AA@ 100b4d28     LIBCMT:getqloc.obj
 0002:0001ad38       ??_C@_1BC@PJMIIAAN@?$AAc?$AAa?$AAn?$AAa?$AAd?$AAi?$AAa?$AAn?$AA?$AA@ 100b4d38     LIBCMT:getqloc.obj
 0002:0001ad4c       ??_C@_17NOIMNFBF@?$AAc?$AAh?$AAh?$AA?$AA@ 100b4d4c     LIBCMT:getqloc.obj
 0002:0001ad54       ??_C@_17GGDALCHA@?$AAc?$AAh?$AAi?$AA?$AA@ 100b4d54     LIBCMT:getqloc.obj
 0002:0001ad5c       ??_C@_1BA@NPNJKIBL@?$AAc?$AAh?$AAi?$AAn?$AAe?$AAs?$AAe?$AA?$AA@ 100b4d5c     LIBCMT:getqloc.obj
 0002:0001ad6c       ??_C@_1CC@DINBAMMJ@?$AAc?$AAh?$AAi?$AAn?$AAe?$AAs?$AAe?$AA?9?$AAh?$AAo?$AAn?$AAg?$AAk?$AAo?$AAn?$AAg?$AA?$AA@ 100b4d6c     LIBCMT:getqloc.obj
 0002:0001ad90       ??_C@_1CG@IOBJPACO@?$AAc?$AAh?$AAi?$AAn?$AAe?$AAs?$AAe?$AA?9?$AAs?$AAi?$AAm?$AAp?$AAl?$AAi?$AAf?$AAi?$AAe?$AAd?$AA?$AA@ 100b4d90     LIBCMT:getqloc.obj
 0002:0001adb8       ??_C@_1CE@GAJNDCKG@?$AAc?$AAh?$AAi?$AAn?$AAe?$AAs?$AAe?$AA?9?$AAs?$AAi?$AAn?$AAg?$AAa?$AAp?$AAo?$AAr?$AAe?$AA?$AA@ 100b4db8     LIBCMT:getqloc.obj
 0002:0001addc       ??_C@_1CI@PAJPIOOD@?$AAc?$AAh?$AAi?$AAn?$AAe?$AAs?$AAe?$AA?9?$AAt?$AAr?$AAa?$AAd?$AAi?$AAt?$AAi?$AAo?$AAn?$AAa?$AAl?$AA?$AA@ 100b4ddc     LIBCMT:getqloc.obj
 0002:0001ae04       ??_C@_1BM@NILJBMMD@?$AAd?$AAu?$AAt?$AAc?$AAh?$AA?9?$AAb?$AAe?$AAl?$AAg?$AAi?$AAa?$AAn?$AA?$AA@ 100b4e04     LIBCMT:getqloc.obj
 0002:0001ae20       ??_C@_1CC@OOJPJNEJ@?$AAe?$AAn?$AAg?$AAl?$AAi?$AAs?$AAh?$AA?9?$AAa?$AAm?$AAe?$AAr?$AAi?$AAc?$AAa?$AAn?$AA?$AA@ 100b4e20     LIBCMT:getqloc.obj
 0002:0001ae44       ??_C@_1BI@IOLFEEM@?$AAe?$AAn?$AAg?$AAl?$AAi?$AAs?$AAh?$AA?9?$AAa?$AAu?$AAs?$AA?$AA@ 100b4e44     LIBCMT:getqloc.obj
 0002:0001ae5c       ??_C@_1BO@HFFNLENJ@?$AAe?$AAn?$AAg?$AAl?$AAi?$AAs?$AAh?$AA?9?$AAb?$AAe?$AAl?$AAi?$AAz?$AAe?$AA?$AA@ 100b4e5c     LIBCMT:getqloc.obj
 0002:0001ae7c       ??_C@_1BI@HAPKJMPO@?$AAe?$AAn?$AAg?$AAl?$AAi?$AAs?$AAh?$AA?9?$AAc?$AAa?$AAn?$AA?$AA@ 100b4e7c     LIBCMT:getqloc.obj
 0002:0001ae94       ??_C@_1CE@HLNDMIOJ@?$AAe?$AAn?$AAg?$AAl?$AAi?$AAs?$AAh?$AA?9?$AAc?$AAa?$AAr?$AAi?$AAb?$AAb?$AAe?$AAa?$AAn?$AA?$AA@ 100b4e94     LIBCMT:getqloc.obj
 0002:0001aeb8       ??_C@_1BI@LDHJHHAC@?$AAe?$AAn?$AAg?$AAl?$AAi?$AAs?$AAh?$AA?9?$AAi?$AAr?$AAe?$AA?$AA@ 100b4eb8     LIBCMT:getqloc.obj
 0002:0001aed0       ??_C@_1CA@NJMMCFOC@?$AAe?$AAn?$AAg?$AAl?$AAi?$AAs?$AAh?$AA?9?$AAj?$AAa?$AAm?$AAa?$AAi?$AAc?$AAa?$AA?$AA@ 100b4ed0     LIBCMT:getqloc.obj
 0002:0001aef0       ??_C@_1BG@BHJEBBGG@?$AAe?$AAn?$AAg?$AAl?$AAi?$AAs?$AAh?$AA?9?$AAn?$AAz?$AA?$AA@ 100b4ef0     LIBCMT:getqloc.obj
 0002:0001af08       ??_C@_1CK@FGOEJJCO@?$AAe?$AAn?$AAg?$AAl?$AAi?$AAs?$AAh?$AA?9?$AAs?$AAo?$AAu?$AAt?$AAh?$AA?5?$AAa?$AAf?$AAr?$AAi?$AAc?$AAa?$AA?$AA@ 100b4f08     LIBCMT:getqloc.obj
 0002:0001af34       ??_C@_1DE@PDBJPCJ@?$AAe?$AAn?$AAg?$AAl?$AAi?$AAs?$AAh?$AA?9?$AAt?$AAr?$AAi?$AAn?$AAi?$AAd?$AAa?$AAd?$AA?5?$AAy?$AA?5?$AAt?$AAo?$AAb?$AAa?$AAg?$AAo?$AA?$AA@ 100b4f34     LIBCMT:getqloc.obj
 0002:0001af68       ??_C@_1BG@JGCANDME@?$AAe?$AAn?$AAg?$AAl?$AAi?$AAs?$AAh?$AA?9?$AAu?$AAk?$AA?$AA@ 100b4f68     LIBCMT:getqloc.obj
 0002:0001af80       ??_C@_1BG@DINKMLE@?$AAe?$AAn?$AAg?$AAl?$AAi?$AAs?$AAh?$AA?9?$AAu?$AAs?$AA?$AA@ 100b4f80     LIBCMT:getqloc.obj
 0002:0001af98       ??_C@_1BI@NMFDBHJE@?$AAe?$AAn?$AAg?$AAl?$AAi?$AAs?$AAh?$AA?9?$AAu?$AAs?$AAa?$AA?$AA@ 100b4f98     LIBCMT:getqloc.obj
 0002:0001afb0       ??_C@_1BO@OIHKJKII@?$AAf?$AAr?$AAe?$AAn?$AAc?$AAh?$AA?9?$AAb?$AAe?$AAl?$AAg?$AAi?$AAa?$AAn?$AA?$AA@ 100b4fb0     LIBCMT:getqloc.obj
 0002:0001afd0       ??_C@_1CA@NKAELJKI@?$AAf?$AAr?$AAe?$AAn?$AAc?$AAh?$AA?9?$AAc?$AAa?$AAn?$AAa?$AAd?$AAi?$AAa?$AAn?$AA?$AA@ 100b4fd0     LIBCMT:getqloc.obj
 0002:0001aff0       ??_C@_1CE@MGKCNLGN@?$AAf?$AAr?$AAe?$AAn?$AAc?$AAh?$AA?9?$AAl?$AAu?$AAx?$AAe?$AAm?$AAb?$AAo?$AAu?$AAr?$AAg?$AA?$AA@ 100b4ff0     LIBCMT:getqloc.obj
 0002:0001b014       ??_C@_1BK@CEGEAILM@?$AAf?$AAr?$AAe?$AAn?$AAc?$AAh?$AA?9?$AAs?$AAw?$AAi?$AAs?$AAs?$AA?$AA@ 100b5014     LIBCMT:getqloc.obj
 0002:0001b030       ??_C@_1CA@PAFKEOCC@?$AAg?$AAe?$AAr?$AAm?$AAa?$AAn?$AA?9?$AAa?$AAu?$AAs?$AAt?$AAr?$AAi?$AAa?$AAn?$AA?$AA@ 100b5030     LIBCMT:getqloc.obj
 0002:0001b050       ??_C@_1CI@HCFHGOFD@?$AAg?$AAe?$AAr?$AAm?$AAa?$AAn?$AA?9?$AAl?$AAi?$AAc?$AAh?$AAt?$AAe?$AAn?$AAs?$AAt?$AAe?$AAi?$AAn?$AA?$AA@ 100b5050     LIBCMT:getqloc.obj
 0002:0001b078       ??_C@_1CE@FEDDNPDG@?$AAg?$AAe?$AAr?$AAm?$AAa?$AAn?$AA?9?$AAl?$AAu?$AAx?$AAe?$AAm?$AAb?$AAo?$AAu?$AAr?$AAg?$AA?$AA@ 100b5078     LIBCMT:getqloc.obj
 0002:0001b09c       ??_C@_1BK@LIMINNMN@?$AAg?$AAe?$AAr?$AAm?$AAa?$AAn?$AA?9?$AAs?$AAw?$AAi?$AAs?$AAs?$AA?$AA@ 100b509c     LIBCMT:getqloc.obj
 0002:0001b0b8       ??_C@_1BM@LGMDBEPD@?$AAi?$AAr?$AAi?$AAs?$AAh?$AA?9?$AAe?$AAn?$AAg?$AAl?$AAi?$AAs?$AAh?$AA?$AA@ 100b50b8     LIBCMT:getqloc.obj
 0002:0001b0d4       ??_C@_1BM@NNCFBAEE@?$AAi?$AAt?$AAa?$AAl?$AAi?$AAa?$AAn?$AA?9?$AAs?$AAw?$AAi?$AAs?$AAs?$AA?$AA@ 100b50d4     LIBCMT:getqloc.obj
 0002:0001b0f0       ??_C@_1BE@FEDJNPIB@?$AAn?$AAo?$AAr?$AAw?$AAe?$AAg?$AAi?$AAa?$AAn?$AA?$AA@ 100b50f0     LIBCMT:getqloc.obj
 0002:0001b104       ??_C@_1CC@CILKDEIE@?$AAn?$AAo?$AAr?$AAw?$AAe?$AAg?$AAi?$AAa?$AAn?$AA?9?$AAb?$AAo?$AAk?$AAm?$AAa?$AAl?$AA?$AA@ 100b5104     LIBCMT:getqloc.obj
 0002:0001b128       ??_C@_1CE@DHMMHEPL@?$AAn?$AAo?$AAr?$AAw?$AAe?$AAg?$AAi?$AAa?$AAn?$AA?9?$AAn?$AAy?$AAn?$AAo?$AAr?$AAs?$AAk?$AA?$AA@ 100b5128     LIBCMT:getqloc.obj
 0002:0001b14c       ??_C@_1CK@OPNMHECD@?$AAp?$AAo?$AAr?$AAt?$AAu?$AAg?$AAu?$AAe?$AAs?$AAe?$AA?9?$AAb?$AAr?$AAa?$AAz?$AAi?$AAl?$AAi?$AAa?$AAn?$AA?$AA@ 100b514c     LIBCMT:getqloc.obj
 0002:0001b178       ??_C@_1CE@KEEHCDB@?$AAs?$AAp?$AAa?$AAn?$AAi?$AAs?$AAh?$AA?9?$AAa?$AAr?$AAg?$AAe?$AAn?$AAt?$AAi?$AAn?$AAa?$AA?$AA@ 100b5178     LIBCMT:getqloc.obj
 0002:0001b19c       ??_C@_1CA@GIAOLHJD@?$AAs?$AAp?$AAa?$AAn?$AAi?$AAs?$AAh?$AA?9?$AAb?$AAo?$AAl?$AAi?$AAv?$AAi?$AAa?$AA?$AA@ 100b519c     LIBCMT:getqloc.obj
 0002:0001b1bc       ??_C@_1BM@OJNDFNPD@?$AAs?$AAp?$AAa?$AAn?$AAi?$AAs?$AAh?$AA?9?$AAc?$AAh?$AAi?$AAl?$AAe?$AA?$AA@ 100b51bc     LIBCMT:getqloc.obj
 0002:0001b1d8       ??_C@_1CC@OCOLPALL@?$AAs?$AAp?$AAa?$AAn?$AAi?$AAs?$AAh?$AA?9?$AAc?$AAo?$AAl?$AAo?$AAm?$AAb?$AAi?$AAa?$AA?$AA@ 100b51d8     LIBCMT:getqloc.obj
 0002:0001b1fc       ??_C@_1CG@BPOFMKBB@?$AAs?$AAp?$AAa?$AAn?$AAi?$AAs?$AAh?$AA?9?$AAc?$AAo?$AAs?$AAt?$AAa?$AA?5?$AAr?$AAi?$AAc?$AAa?$AA?$AA@ 100b51fc     LIBCMT:getqloc.obj
 0002:0001b224       ??_C@_1DG@IGOBAPBB@?$AAs?$AAp?$AAa?$AAn?$AAi?$AAs?$AAh?$AA?9?$AAd?$AAo?$AAm?$AAi?$AAn?$AAi?$AAc?$AAa?$AAn?$AA?5?$AAr?$AAe?$AAp?$AAu?$AAb?$AAl?$AAi?$AAc?$AA?$AA@ 100b5224     LIBCMT:getqloc.obj
 0002:0001b25c       ??_C@_1CA@JHAPGEGI@?$AAs?$AAp?$AAa?$AAn?$AAi?$AAs?$AAh?$AA?9?$AAe?$AAc?$AAu?$AAa?$AAd?$AAo?$AAr?$AA?$AA@ 100b525c     LIBCMT:getqloc.obj
 0002:0001b27c       ??_C@_1CI@LAPALJPP@?$AAs?$AAp?$AAa?$AAn?$AAi?$AAs?$AAh?$AA?9?$AAe?$AAl?$AA?5?$AAs?$AAa?$AAl?$AAv?$AAa?$AAd?$AAo?$AAr?$AA?$AA@ 100b527c     LIBCMT:getqloc.obj
 0002:0001b2a4       ??_C@_1CE@PDGBOFOM@?$AAs?$AAp?$AAa?$AAn?$AAi?$AAs?$AAh?$AA?9?$AAg?$AAu?$AAa?$AAt?$AAe?$AAm?$AAa?$AAl?$AAa?$AA?$AA@ 100b52a4     LIBCMT:getqloc.obj
 0002:0001b2c8       ??_C@_1CC@NBEBAODI@?$AAs?$AAp?$AAa?$AAn?$AAi?$AAs?$AAh?$AA?9?$AAh?$AAo?$AAn?$AAd?$AAu?$AAr?$AAa?$AAs?$AA?$AA@ 100b52c8     LIBCMT:getqloc.obj
 0002:0001b2ec       ??_C@_1CA@LLKGHBMF@?$AAs?$AAp?$AAa?$AAn?$AAi?$AAs?$AAh?$AA?9?$AAm?$AAe?$AAx?$AAi?$AAc?$AAa?$AAn?$AA?$AA@ 100b52ec     LIBCMT:getqloc.obj
 0002:0001b30c       ??_C@_1BO@LKNDOIGD@?$AAs?$AAp?$AAa?$AAn?$AAi?$AAs?$AAh?$AA?9?$AAm?$AAo?$AAd?$AAe?$AAr?$AAn?$AA?$AA@ 100b530c     LIBCMT:getqloc.obj
 0002:0001b32c       ??_C@_1CE@NMDMOEEB@?$AAs?$AAp?$AAa?$AAn?$AAi?$AAs?$AAh?$AA?9?$AAn?$AAi?$AAc?$AAa?$AAr?$AAa?$AAg?$AAu?$AAa?$AA?$AA@ 100b532c     LIBCMT:getqloc.obj
 0002:0001b350       ??_C@_1BO@LLCBEJGB@?$AAs?$AAp?$AAa?$AAn?$AAi?$AAs?$AAh?$AA?9?$AAp?$AAa?$AAn?$AAa?$AAm?$AAa?$AA?$AA@ 100b5350     LIBCMT:getqloc.obj
 0002:0001b370       ??_C@_1CC@FKPGGIHO@?$AAs?$AAp?$AAa?$AAn?$AAi?$AAs?$AAh?$AA?9?$AAp?$AAa?$AAr?$AAa?$AAg?$AAu?$AAa?$AAy?$AA?$AA@ 100b5370     LIBCMT:getqloc.obj
 0002:0001b394       ??_C@_1BK@CDEIHOOP@?$AAs?$AAp?$AAa?$AAn?$AAi?$AAs?$AAh?$AA?9?$AAp?$AAe?$AAr?$AAu?$AA?$AA@ 100b5394     LIBCMT:getqloc.obj
 0002:0001b3b0       ??_C@_1CI@GAHAKKGP@?$AAs?$AAp?$AAa?$AAn?$AAi?$AAs?$AAh?$AA?9?$AAp?$AAu?$AAe?$AAr?$AAt?$AAo?$AA?5?$AAr?$AAi?$AAc?$AAo?$AA?$AA@ 100b53b0     LIBCMT:getqloc.obj
 0002:0001b3d8       ??_C@_1CA@NKJBCAGP@?$AAs?$AAp?$AAa?$AAn?$AAi?$AAs?$AAh?$AA?9?$AAu?$AAr?$AAu?$AAg?$AAu?$AAa?$AAy?$AA?$AA@ 100b53d8     LIBCMT:getqloc.obj
 0002:0001b3f8       ??_C@_1CE@ODILCONM@?$AAs?$AAp?$AAa?$AAn?$AAi?$AAs?$AAh?$AA?9?$AAv?$AAe?$AAn?$AAe?$AAz?$AAu?$AAe?$AAl?$AAa?$AA?$AA@ 100b53f8     LIBCMT:getqloc.obj
 0002:0001b41c       ??_C@_1CA@OBNMCGFO@?$AAs?$AAw?$AAe?$AAd?$AAi?$AAs?$AAh?$AA?9?$AAf?$AAi?$AAn?$AAl?$AAa?$AAn?$AAd?$AA?$AA@ 100b541c     LIBCMT:getqloc.obj
 0002:0001b43c       ??_C@_1M@PIPDDPPI@?$AAs?$AAw?$AAi?$AAs?$AAs?$AA?$AA@ 100b543c     LIBCMT:getqloc.obj
 0002:0001b448       ??_C@_15GMFIMNFM@?$AAu?$AAs?$AA?$AA@ 100b5448     LIBCMT:getqloc.obj
 0002:0001b450       ??_C@_17HAEBFAGL@?$AAu?$AAs?$AAa?$AA?$AA@ 100b5450     LIBCMT:getqloc.obj
 0002:0001b458       ___rg_country              100b5458     LIBCMT:getqloc.obj
 0002:0001b56c       ??_C@_1BA@DPFJEPHB@?$AAa?$AAm?$AAe?$AAr?$AAi?$AAc?$AAa?$AA?$AA@ 100b556c     LIBCMT:getqloc.obj
 0002:0001b57c       ??_C@_1BA@ELOGGFK@?$AAb?$AAr?$AAi?$AAt?$AAa?$AAi?$AAn?$AA?$AA@ 100b557c     LIBCMT:getqloc.obj
 0002:0001b58c       ??_C@_1M@GHBGIGDA@?$AAc?$AAh?$AAi?$AAn?$AAa?$AA?$AA@ 100b558c     LIBCMT:getqloc.obj
 0002:0001b598       ??_C@_1M@NCHEJOPO@?$AAc?$AAz?$AAe?$AAc?$AAh?$AA?$AA@ 100b5598     LIBCMT:getqloc.obj
 0002:0001b5a4       ??_C@_1BA@BKPAPBLA@?$AAe?$AAn?$AAg?$AAl?$AAa?$AAn?$AAd?$AA?$AA@ 100b55a4     LIBCMT:getqloc.obj
 0002:0001b5b4       ??_C@_1BM@HKBCKIPC@?$AAg?$AAr?$AAe?$AAa?$AAt?$AA?5?$AAb?$AAr?$AAi?$AAt?$AAa?$AAi?$AAn?$AA?$AA@ 100b55b4     LIBCMT:getqloc.obj
 0002:0001b5d0       ??_C@_1BA@PPCHPGJB@?$AAh?$AAo?$AAl?$AAl?$AAa?$AAn?$AAd?$AA?$AA@ 100b55d0     LIBCMT:getqloc.obj
 0002:0001b5e0       ??_C@_1BE@JBMPEGDG@?$AAh?$AAo?$AAn?$AAg?$AA?9?$AAk?$AAo?$AAn?$AAg?$AA?$AA@ 100b55e0     LIBCMT:getqloc.obj
 0002:0001b5f4       ??_C@_1BI@KOELBBPJ@?$AAn?$AAe?$AAw?$AA?9?$AAz?$AAe?$AAa?$AAl?$AAa?$AAn?$AAd?$AA?$AA@ 100b55f4     LIBCMT:getqloc.obj
 0002:0001b60c       ??_C@_15HIEBHAIO@?$AAn?$AAz?$AA?$AA@ 100b560c     LIBCMT:getqloc.obj
 0002:0001b614       ??_C@_1BC@CHBCPFPI@?$AAp?$AAr?$AA?5?$AAc?$AAh?$AAi?$AAn?$AAa?$AA?$AA@ 100b5614     LIBCMT:getqloc.obj
 0002:0001b628       ??_C@_1BC@JAOIIFKD@?$AAp?$AAr?$AA?9?$AAc?$AAh?$AAi?$AAn?$AAa?$AA?$AA@ 100b5628     LIBCMT:getqloc.obj
 0002:0001b63c       ??_C@_1BI@BEHPPHKC@?$AAp?$AAu?$AAe?$AAr?$AAt?$AAo?$AA?9?$AAr?$AAi?$AAc?$AAo?$AA?$AA@ 100b563c     LIBCMT:getqloc.obj
 0002:0001b654       ??_C@_1O@PAEOFKDI@?$AAs?$AAl?$AAo?$AAv?$AAa?$AAk?$AA?$AA@ 100b5654     LIBCMT:getqloc.obj
 0002:0001b664       ??_C@_1BK@FIHMCKAM@?$AAs?$AAo?$AAu?$AAt?$AAh?$AA?5?$AAa?$AAf?$AAr?$AAi?$AAc?$AAa?$AA?$AA@ 100b5664     LIBCMT:getqloc.obj
 0002:0001b680       ??_C@_1BI@NAEOODKB@?$AAs?$AAo?$AAu?$AAt?$AAh?$AA?5?$AAk?$AAo?$AAr?$AAe?$AAa?$AA?$AA@ 100b5680     LIBCMT:getqloc.obj
 0002:0001b698       ??_C@_1BK@FBDGGIFF@?$AAs?$AAo?$AAu?$AAt?$AAh?$AA?9?$AAa?$AAf?$AAr?$AAi?$AAc?$AAa?$AA?$AA@ 100b5698     LIBCMT:getqloc.obj
 0002:0001b6b4       ??_C@_1BI@GHLEJDPK@?$AAs?$AAo?$AAu?$AAt?$AAh?$AA?9?$AAk?$AAo?$AAr?$AAe?$AAa?$AA?$AA@ 100b56b4     LIBCMT:getqloc.obj
 0002:0001b6cc       ??_C@_1CE@PLHLOMJF@?$AAt?$AAr?$AAi?$AAn?$AAi?$AAd?$AAa?$AAd?$AA?5?$AA?$CG?$AA?5?$AAt?$AAo?$AAb?$AAa?$AAg?$AAo?$AA?$AA@ 100b56cc     LIBCMT:getqloc.obj
 0002:0001b6f0       ??_C@_1BO@MODIMHHI@?$AAu?$AAn?$AAi?$AAt?$AAe?$AAd?$AA?9?$AAk?$AAi?$AAn?$AAg?$AAd?$AAo?$AAm?$AA?$AA@ 100b56f0     LIBCMT:getqloc.obj
 0002:0001b710       ??_C@_1BM@FFHJONBJ@?$AAu?$AAn?$AAi?$AAt?$AAe?$AAd?$AA?9?$AAs?$AAt?$AAa?$AAt?$AAe?$AAs?$AA?$AA@ 100b5710     LIBCMT:getqloc.obj
 0002:0001b72c       ___rg_language_count       100b572c     LIBCMT:getqloc.obj
 0002:0001b730       ___rg_country_count        100b5730     LIBCMT:getqloc.obj
 0002:0001b734       ??_C@_17DNCLJFIF@?$AAA?$AAC?$AAP?$AA?$AA@ 100b5734     LIBCMT:getqloc.obj
 0002:0001b73c       ??_C@_17CIKBIHLH@?$AAO?$AAC?$AAP?$AA?$AA@ 100b573c     LIBCMT:getqloc.obj
 0002:0001b744       ___rglangidNotDefault      100b5744     LIBCMT:getqloc_downlevel.obj
 0002:0001d4b0       ??_C@_1BA@BALFACEM@?$AAC?$AAO?$AAN?$AAO?$AAU?$AAT?$AA$?$AA?$AA@ 100b74b0     LIBCMT:initcon.obj
 0002:0001d4c0       ??_C@_06PGGFOGJG@1?$CDSNAN?$AA@ 100b74c0     LIBCMT:x10fout.obj
 0002:0001d4c8       ??_C@_05PHHOCPM@1?$CDIND?$AA@ 100b74c8     LIBCMT:x10fout.obj
 0002:0001d4d0       ??_C@_05DNEBIAHO@1?$CDINF?$AA@ 100b74d0     LIBCMT:x10fout.obj
 0002:0001d4d8       ??_C@_06IMKFLFPG@1?$CDQNAN?$AA@ 100b74d8     LIBCMT:x10fout.obj
 0002:0001d4e0       __load_config_used         100b74e0     LIBCMT:loadcfg.obj
 0002:0001d59c       ??_R4IIndividual@@6B@      100b759c     bot.obj
 0002:0001d5b0       ??_R3IIndividual@@8        100b75b0     bot.obj
 0002:0001d5c0       ??_R2IIndividual@@8        100b75c0     bot.obj
 0002:0001d5c8       ??_R1A@?0A@EA@IIndividual@@8 100b75c8     bot.obj
 0002:0001d5e4       ??_R4ISelection@@6B@       100b75e4     bot.obj
 0002:0001d5f8       ??_R3ISelection@@8         100b75f8     bot.obj
 0002:0001d608       ??_R2ISelection@@8         100b7608     bot.obj
 0002:0001d610       ??_R1A@?0A@EA@ISelection@@8 100b7610     bot.obj
 0002:0001d62c       ??_R4CRouletteSelection@@6B@ 100b762c     bot.obj
 0002:0001d640       ??_R3CRouletteSelection@@8 100b7640     bot.obj
 0002:0001d650       ??_R2CRouletteSelection@@8 100b7650     bot.obj
 0002:0001d65c       ??_R1A@?0A@EA@CRouletteSelection@@8 100b765c     bot.obj
 0002:0001d678       ??_R4CIntGAValues@@6B@     100b7678     bot.obj
 0002:0001d68c       ??_R3CIntGAValues@@8       100b768c     bot.obj
 0002:0001d69c       ??_R2CIntGAValues@@8       100b769c     bot.obj
 0002:0001d6a8       ??_R1A@?0A@EA@CIntGAValues@@8 100b76a8     bot.obj
 0002:0001d6c4       ??_R4CBotNetMessage@@6B@   100b76c4     bot_client.obj
 0002:0001d6d8       ??_R3CBotNetMessage@@8     100b76d8     bot_client.obj
 0002:0001d6e8       ??_R2CBotNetMessage@@8     100b76e8     bot_client.obj
 0002:0001d6f0       ??_R1A@?0A@EA@CBotNetMessage@@8 100b76f0     bot_client.obj
 0002:0001d70c       ??_R4BotClient_TS_ClipInfo@@6B@ 100b770c     bot_client.obj
 0002:0001d720       ??_R3BotClient_TS_ClipInfo@@8 100b7720     bot_client.obj
 0002:0001d730       ??_R2BotClient_TS_ClipInfo@@8 100b7730     bot_client.obj
 0002:0001d73c       ??_R1A@?0A@EA@BotClient_TS_ClipInfo@@8 100b773c     bot_client.obj
 0002:0001d758       ??_R4BotClient_TS_DelObj@@6B@ 100b7758     bot_client.obj
 0002:0001d76c       ??_R3BotClient_TS_DelObj@@8 100b776c     bot_client.obj
 0002:0001d77c       ??_R2BotClient_TS_DelObj@@8 100b777c     bot_client.obj
 0002:0001d788       ??_R1A@?0A@EA@BotClient_TS_DelObj@@8 100b7788     bot_client.obj
 0002:0001d7a4       ??_R4BotClient_TS_WStatus@@6B@ 100b77a4     bot_client.obj
 0002:0001d7b8       ??_R3BotClient_TS_WStatus@@8 100b77b8     bot_client.obj
 0002:0001d7c8       ??_R2BotClient_TS_WStatus@@8 100b77c8     bot_client.obj
 0002:0001d7d4       ??_R1A@?0A@EA@BotClient_TS_WStatus@@8 100b77d4     bot_client.obj
 0002:0001d7f0       ??_R4BotClient_TS_WeaponInfo@@6B@ 100b77f0     bot_client.obj
 0002:0001d804       ??_R3BotClient_TS_WeaponInfo@@8 100b7804     bot_client.obj
 0002:0001d814       ??_R2BotClient_TS_WeaponInfo@@8 100b7814     bot_client.obj
 0002:0001d820       ??_R1A@?0A@EA@BotClient_TS_WeaponInfo@@8 100b7820     bot_client.obj
 0002:0001d83c       ??_R4BotClient_Generic_WeaponList@@6B@ 100b783c     bot_client.obj
 0002:0001d850       ??_R3BotClient_Generic_WeaponList@@8 100b7850     bot_client.obj
 0002:0001d860       ??_R2BotClient_Generic_WeaponList@@8 100b7860     bot_client.obj
 0002:0001d86c       ??_R1A@?0A@EA@BotClient_Generic_WeaponList@@8 100b786c     bot_client.obj
 0002:0001d888       ??_R4BotClient_Generic_CurrentWeapon@@6B@ 100b7888     bot_client.obj
 0002:0001d89c       ??_R3BotClient_Generic_CurrentWeapon@@8 100b789c     bot_client.obj
 0002:0001d8ac       ??_R2BotClient_Generic_CurrentWeapon@@8 100b78ac     bot_client.obj
 0002:0001d8b8       ??_R1A@?0A@EA@BotClient_Generic_CurrentWeapon@@8 100b78b8     bot_client.obj
 0002:0001d8d4       ??_R4BotClient_Generic_AmmoX@@6B@ 100b78d4     bot_client.obj
 0002:0001d8e8       ??_R3BotClient_Generic_AmmoX@@8 100b78e8     bot_client.obj
 0002:0001d8f8       ??_R2BotClient_Generic_AmmoX@@8 100b78f8     bot_client.obj
 0002:0001d904       ??_R1A@?0A@EA@BotClient_Generic_AmmoX@@8 100b7904     bot_client.obj
 0002:0001d920       ??_R4BotClient_Generic_AmmoPickup@@6B@ 100b7920     bot_client.obj
 0002:0001d934       ??_R3BotClient_Generic_AmmoPickup@@8 100b7934     bot_client.obj
 0002:0001d944       ??_R2BotClient_Generic_AmmoPickup@@8 100b7944     bot_client.obj
 0002:0001d950       ??_R1A@?0A@EA@BotClient_Generic_AmmoPickup@@8 100b7950     bot_client.obj
 0002:0001d96c       ??_R4BotClient_Generic_WeaponPickup@@6B@ 100b796c     bot_client.obj
 0002:0001d980       ??_R3BotClient_Generic_WeaponPickup@@8 100b7980     bot_client.obj
 0002:0001d990       ??_R2BotClient_Generic_WeaponPickup@@8 100b7990     bot_client.obj
 0002:0001d99c       ??_R1A@?0A@EA@BotClient_Generic_WeaponPickup@@8 100b799c     bot_client.obj
 0002:0001d9b8       ??_R4BotClient_Generic_ItemPickup@@6B@ 100b79b8     bot_client.obj
 0002:0001d9cc       ??_R3BotClient_Generic_ItemPickup@@8 100b79cc     bot_client.obj
 0002:0001d9dc       ??_R2BotClient_Generic_ItemPickup@@8 100b79dc     bot_client.obj
 0002:0001d9e8       ??_R1A@?0A@EA@BotClient_Generic_ItemPickup@@8 100b79e8     bot_client.obj
 0002:0001da04       ??_R4BotClient_Generic_Health@@6B@ 100b7a04     bot_client.obj
 0002:0001da18       ??_R3BotClient_Generic_Health@@8 100b7a18     bot_client.obj
 0002:0001da28       ??_R2BotClient_Generic_Health@@8 100b7a28     bot_client.obj
 0002:0001da34       ??_R1A@?0A@EA@BotClient_Generic_Health@@8 100b7a34     bot_client.obj
 0002:0001da50       ??_R4BotClient_Generic_Battery@@6B@ 100b7a50     bot_client.obj
 0002:0001da64       ??_R3BotClient_Generic_Battery@@8 100b7a64     bot_client.obj
 0002:0001da74       ??_R2BotClient_Generic_Battery@@8 100b7a74     bot_client.obj
 0002:0001da80       ??_R1A@?0A@EA@BotClient_Generic_Battery@@8 100b7a80     bot_client.obj
 0002:0001da9c       ??_R4BotClient_Generic_Damage@@6B@ 100b7a9c     bot_client.obj
 0002:0001dab0       ??_R3BotClient_Generic_Damage@@8 100b7ab0     bot_client.obj
 0002:0001dac0       ??_R2BotClient_Generic_Damage@@8 100b7ac0     bot_client.obj
 0002:0001dacc       ??_R1A@?0A@EA@BotClient_Generic_Damage@@8 100b7acc     bot_client.obj
 0002:0001dae8       ??_R4BotClient_Generic_ScreenFade@@6B@ 100b7ae8     bot_client.obj
 0002:0001dafc       ??_R3BotClient_Generic_ScreenFade@@8 100b7afc     bot_client.obj
 0002:0001db0c       ??_R2BotClient_Generic_ScreenFade@@8 100b7b0c     bot_client.obj
 0002:0001db18       ??_R1A@?0A@EA@BotClient_Generic_ScreenFade@@8 100b7b18     bot_client.obj
 0002:0001db34       ??_R4BotClient_DMC_QuakeItem@@6B@ 100b7b34     bot_client.obj
 0002:0001db48       ??_R3BotClient_DMC_QuakeItem@@8 100b7b48     bot_client.obj
 0002:0001db58       ??_R2BotClient_DMC_QuakeItem@@8 100b7b58     bot_client.obj
 0002:0001db64       ??_R1A@?0A@EA@BotClient_DMC_QuakeItem@@8 100b7b64     bot_client.obj
 0002:0001db80       ??_R4BotClient_Generic_VGUIMenu@@6B@ 100b7b80     bot_client.obj
 0002:0001db94       ??_R3BotClient_Generic_VGUIMenu@@8 100b7b94     bot_client.obj
 0002:0001dba4       ??_R2BotClient_Generic_VGUIMenu@@8 100b7ba4     bot_client.obj
 0002:0001dbb0       ??_R1A@?0A@EA@BotClient_Generic_VGUIMenu@@8 100b7bb0     bot_client.obj
 0002:0001dbcc       ??_R4BotClient_NS_TechSlots@@6B@ 100b7bcc     bot_client.obj
 0002:0001dbe0       ??_R3BotClient_NS_TechSlots@@8 100b7be0     bot_client.obj
 0002:0001dbf0       ??_R2BotClient_NS_TechSlots@@8 100b7bf0     bot_client.obj
 0002:0001dbfc       ??_R1A@?0A@EA@BotClient_NS_TechSlots@@8 100b7bfc     bot_client.obj
 0002:0001dc18       ??_R4BotClient_Generic_ShowMenu@@6B@ 100b7c18     bot_client.obj
 0002:0001dc2c       ??_R3BotClient_Generic_ShowMenu@@8 100b7c2c     bot_client.obj
 0002:0001dc3c       ??_R2BotClient_Generic_ShowMenu@@8 100b7c3c     bot_client.obj
 0002:0001dc48       ??_R1A@?0A@EA@BotClient_Generic_ShowMenu@@8 100b7c48     bot_client.obj
 0002:0001dc64       ??_R4BotClient_TS_State@@6B@ 100b7c64     bot_client.obj
 0002:0001dc78       ??_R3BotClient_TS_State@@8 100b7c78     bot_client.obj
 0002:0001dc88       ??_R2BotClient_TS_State@@8 100b7c88     bot_client.obj
 0002:0001dc94       ??_R1A@?0A@EA@BotClient_TS_State@@8 100b7c94     bot_client.obj
 0002:0001dcb0       ??_R4BotClient_TS_Objective@@6B@ 100b7cb0     bot_client.obj
 0002:0001dcc4       ??_R3BotClient_TS_Objective@@8 100b7cc4     bot_client.obj
 0002:0001dcd4       ??_R2BotClient_TS_Objective@@8 100b7cd4     bot_client.obj
 0002:0001dce0       ??_R1A@?0A@EA@BotClient_TS_Objective@@8 100b7ce0     bot_client.obj
 0002:0001dcfc       ??_R4BotClient_Generic_TeamScore@@6B@ 100b7cfc     bot_client.obj
 0002:0001dd10       ??_R3BotClient_Generic_TeamScore@@8 100b7d10     bot_client.obj
 0002:0001dd20       ??_R2BotClient_Generic_TeamScore@@8 100b7d20     bot_client.obj
 0002:0001dd2c       ??_R1A@?0A@EA@BotClient_Generic_TeamScore@@8 100b7d2c     bot_client.obj
 0002:0001dd48       ??_R4BotClient_NS_Commndr@@6B@ 100b7d48     bot_client.obj
 0002:0001dd5c       ??_R3BotClient_NS_Commndr@@8 100b7d5c     bot_client.obj
 0002:0001dd6c       ??_R2BotClient_NS_Commndr@@8 100b7d6c     bot_client.obj
 0002:0001dd78       ??_R1A@?0A@EA@BotClient_NS_Commndr@@8 100b7d78     bot_client.obj
 0002:0001dd94       ??_R4BotClient_NS_HudText@@6B@ 100b7d94     bot_client.obj
 0002:0001dda8       ??_R3BotClient_NS_HudText@@8 100b7da8     bot_client.obj
 0002:0001ddb8       ??_R2BotClient_NS_HudText@@8 100b7db8     bot_client.obj
 0002:0001ddc4       ??_R1A@?0A@EA@BotClient_NS_HudText@@8 100b7dc4     bot_client.obj
 0002:0001dde0       ??_R4BotClient_NS_SetOrder@@6B@ 100b7de0     bot_client.obj
 0002:0001ddf4       ??_R3BotClient_NS_SetOrder@@8 100b7df4     bot_client.obj
 0002:0001de04       ??_R2BotClient_NS_SetOrder@@8 100b7e04     bot_client.obj
 0002:0001de10       ??_R1A@?0A@EA@BotClient_NS_SetOrder@@8 100b7e10     bot_client.obj
 0002:0001de2c       ??_R4BotClient_NS_SetTech@@6B@ 100b7e2c     bot_client.obj
 0002:0001de40       ??_R3BotClient_NS_SetTech@@8 100b7e40     bot_client.obj
 0002:0001de50       ??_R2BotClient_NS_SetTech@@8 100b7e50     bot_client.obj
 0002:0001de5c       ??_R1A@?0A@EA@BotClient_NS_SetTech@@8 100b7e5c     bot_client.obj
 0002:0001de78       ??_R4BotClient_NS_AlienInfo@@6B@ 100b7e78     bot_client.obj
 0002:0001de8c       ??_R3BotClient_NS_AlienInfo@@8 100b7e8c     bot_client.obj
 0002:0001de9c       ??_R2BotClient_NS_AlienInfo@@8 100b7e9c     bot_client.obj
 0002:0001dea8       ??_R1A@?0A@EA@BotClient_NS_AlienInfo@@8 100b7ea8     bot_client.obj
 0002:0001dec4       ??_R4BotClient_BG_MakeMessage@@6B@ 100b7ec4     bot_client.obj
 0002:0001ded8       ??_R3BotClient_BG_MakeMessage@@8 100b7ed8     bot_client.obj
 0002:0001dee8       ??_R2BotClient_BG_MakeMessage@@8 100b7ee8     bot_client.obj
 0002:0001def4       ??_R1A@?0A@EA@BotClient_BG_MakeMessage@@8 100b7ef4     bot_client.obj
 0002:0001df10       ??_R4BotClient_Generic_ScreenShake@@6B@ 100b7f10     bot_client.obj
 0002:0001df24       ??_R3BotClient_Generic_ScreenShake@@8 100b7f24     bot_client.obj
 0002:0001df34       ??_R2BotClient_Generic_ScreenShake@@8 100b7f34     bot_client.obj
 0002:0001df40       ??_R1A@?0A@EA@BotClient_Generic_ScreenShake@@8 100b7f40     bot_client.obj
 0002:0001df5c       ??_R4BotClient_Generic_TextMessage@@6B@ 100b7f5c     bot_client.obj
 0002:0001df70       ??_R3BotClient_Generic_TextMessage@@8 100b7f70     bot_client.obj
 0002:0001df80       ??_R2BotClient_Generic_TextMessage@@8 100b7f80     bot_client.obj
 0002:0001df8c       ??_R1A@?0A@EA@BotClient_Generic_TextMessage@@8 100b7f8c     bot_client.obj
 0002:0001dfa8       ??_R4BotClient_Generic_SayText@@6B@ 100b7fa8     bot_client.obj
 0002:0001dfbc       ??_R3BotClient_Generic_SayText@@8 100b7fbc     bot_client.obj
 0002:0001dfcc       ??_R2BotClient_Generic_SayText@@8 100b7fcc     bot_client.obj
 0002:0001dfd8       ??_R1A@?0A@EA@BotClient_Generic_SayText@@8 100b7fd8     bot_client.obj
 0002:0001dff4       ??_R4BotClient_All_Generic_SayText@@6B@ 100b7ff4     bot_client.obj
 0002:0001e008       ??_R3BotClient_All_Generic_SayText@@8 100b8008     bot_client.obj
 0002:0001e018       ??_R2BotClient_All_Generic_SayText@@8 100b8018     bot_client.obj
 0002:0001e024       ??_R1A@?0A@EA@BotClient_All_Generic_SayText@@8 100b8024     bot_client.obj
 0002:0001e040       ??_R4BotClient_Generic_DeathMessage@@6B@ 100b8040     bot_client.obj
 0002:0001e054       ??_R3BotClient_Generic_DeathMessage@@8 100b8054     bot_client.obj
 0002:0001e064       ??_R2BotClient_Generic_DeathMessage@@8 100b8064     bot_client.obj
 0002:0001e070       ??_R1A@?0A@EA@BotClient_Generic_DeathMessage@@8 100b8070     bot_client.obj
 0002:0001e08c       ??_R4CBotCvar@@6B@         100b808c     bot_commands.obj
 0002:0001e0a0       ??_R3CBotCvar@@8           100b80a0     bot_commands.obj
 0002:0001e0b0       ??_R2CBotCvar@@8           100b80b0     bot_commands.obj
 0002:0001e0b8       ??_R1A@?0A@EA@CBotCvar@@8  100b80b8     bot_commands.obj
 0002:0001e0d4       ??_R4CRemoveBotCommand@@6B@ 100b80d4     bot_commands.obj
 0002:0001e0e8       ??_R3CRemoveBotCommand@@8  100b80e8     bot_commands.obj
 0002:0001e0f8       ??_R2CRemoveBotCommand@@8  100b80f8     bot_commands.obj
 0002:0001e104       ??_R1A@?0A@EA@CRemoveBotCommand@@8 100b8104     bot_commands.obj
 0002:0001e120       ??_R4CDebugBotCommand@@6B@ 100b8120     bot_commands.obj
 0002:0001e134       ??_R3CDebugBotCommand@@8   100b8134     bot_commands.obj
 0002:0001e144       ??_R2CDebugBotCommand@@8   100b8144     bot_commands.obj
 0002:0001e150       ??_R1A@?0A@EA@CDebugBotCommand@@8 100b8150     bot_commands.obj
 0002:0001e16c       ??_R4CDebugEntCommand@@6B@ 100b816c     bot_commands.obj
 0002:0001e180       ??_R3CDebugEntCommand@@8   100b8180     bot_commands.obj
 0002:0001e190       ??_R2CDebugEntCommand@@8   100b8190     bot_commands.obj
 0002:0001e19c       ??_R1A@?0A@EA@CDebugEntCommand@@8 100b819c     bot_commands.obj
 0002:0001e1b8       ??_R4CUsersCommand@@6B@    100b81b8     bot_commands.obj
 0002:0001e1cc       ??_R3CUsersCommand@@8      100b81cc     bot_commands.obj
 0002:0001e1dc       ??_R2CUsersCommand@@8      100b81dc     bot_commands.obj
 0002:0001e1e8       ??_R1A@?0A@EA@CUsersCommand@@8 100b81e8     bot_commands.obj
 0002:0001e204       ??_R4CHelpCommand@@6B@     100b8204     bot_commands.obj
 0002:0001e218       ??_R3CHelpCommand@@8       100b8218     bot_commands.obj
 0002:0001e228       ??_R2CHelpCommand@@8       100b8228     bot_commands.obj
 0002:0001e234       ??_R1A@?0A@EA@CHelpCommand@@8 100b8234     bot_commands.obj
 0002:0001e250       ??_R4CAutoWaypointCommand@@6B@ 100b8250     bot_commands.obj
 0002:0001e264       ??_R3CAutoWaypointCommand@@8 100b8264     bot_commands.obj
 0002:0001e274       ??_R2CAutoWaypointCommand@@8 100b8274     bot_commands.obj
 0002:0001e280       ??_R1A@?0A@EA@CAutoWaypointCommand@@8 100b8280     bot_commands.obj
 0002:0001e29c       ??_R4CMenuSelectCommand@@6B@ 100b829c     bot_commands.obj
 0002:0001e2b0       ??_R3CMenuSelectCommand@@8 100b82b0     bot_commands.obj
 0002:0001e2c0       ??_R2CMenuSelectCommand@@8 100b82c0     bot_commands.obj
 0002:0001e2cc       ??_R1A@?0A@EA@CMenuSelectCommand@@8 100b82cc     bot_commands.obj
 0002:0001e2e8       ??_R4CSetPassCommand@@6B@  100b82e8     bot_commands.obj
 0002:0001e2fc       ??_R3CSetPassCommand@@8    100b82fc     bot_commands.obj
 0002:0001e30c       ??_R2CSetPassCommand@@8    100b830c     bot_commands.obj
 0002:0001e318       ??_R1A@?0A@EA@CSetPassCommand@@8 100b8318     bot_commands.obj
 0002:0001e334       ??_R4CWaypointMenuCommand@@6B@ 100b8334     bot_commands.obj
 0002:0001e348       ??_R3CWaypointMenuCommand@@8 100b8348     bot_commands.obj
 0002:0001e358       ??_R2CWaypointMenuCommand@@8 100b8358     bot_commands.obj
 0002:0001e364       ??_R1A@?0A@EA@CWaypointMenuCommand@@8 100b8364     bot_commands.obj
 0002:0001e380       ??_R4CBotMenuCommand@@6B@  100b8380     bot_commands.obj
 0002:0001e394       ??_R3CBotMenuCommand@@8    100b8394     bot_commands.obj
 0002:0001e3a4       ??_R2CBotMenuCommand@@8    100b83a4     bot_commands.obj
 0002:0001e3b0       ??_R1A@?0A@EA@CBotMenuCommand@@8 100b83b0     bot_commands.obj
 0002:0001e3cc       ??_R4CUtilCommand@@6B@     100b83cc     bot_commands.obj
 0002:0001e3e0       ??_R3CUtilCommand@@8       100b83e0     bot_commands.obj
 0002:0001e3f0       ??_R2CUtilCommand@@8       100b83f0     bot_commands.obj
 0002:0001e3fc       ??_R1A@?0A@EA@CUtilCommand@@8 100b83fc     bot_commands.obj
 0002:0001e418       ??_R4CAddBotCommand@@6B@   100b8418     bot_commands.obj
 0002:0001e42c       ??_R3CAddBotCommand@@8     100b842c     bot_commands.obj
 0002:0001e43c       ??_R2CAddBotCommand@@8     100b843c     bot_commands.obj
 0002:0001e448       ??_R1A@?0A@EA@CAddBotCommand@@8 100b8448     bot_commands.obj
 0002:0001e464       ??_R4CWaypointCommand@@6B@ 100b8464     bot_commands.obj
 0002:0001e478       ??_R3CWaypointCommand@@8   100b8478     bot_commands.obj
 0002:0001e488       ??_R2CWaypointCommand@@8   100b8488     bot_commands.obj
 0002:0001e494       ??_R1A@?0A@EA@CWaypointCommand@@8 100b8494     bot_commands.obj
 0002:0001e4b0       ??_R4CBotCamCommand@@6B@   100b84b0     bot_commands.obj
 0002:0001e4c4       ??_R3CBotCamCommand@@8     100b84c4     bot_commands.obj
 0002:0001e4d4       ??_R2CBotCamCommand@@8     100b84d4     bot_commands.obj
 0002:0001e4e0       ??_R1A@?0A@EA@CBotCamCommand@@8 100b84e0     bot_commands.obj
 0002:0001e4fc       ??_R4CBotSquadCommand@@6B@ 100b84fc     bot_commands.obj
 0002:0001e510       ??_R3CBotSquadCommand@@8   100b8510     bot_commands.obj
 0002:0001e520       ??_R2CBotSquadCommand@@8   100b8520     bot_commands.obj
 0002:0001e52c       ??_R1A@?0A@EA@CBotSquadCommand@@8 100b852c     bot_commands.obj
 0002:0001e548       ??_R4CDebugCommand@@6B@    100b8548     bot_commands.obj
 0002:0001e55c       ??_R3CDebugCommand@@8      100b855c     bot_commands.obj
 0002:0001e56c       ??_R2CDebugCommand@@8      100b856c     bot_commands.obj
 0002:0001e578       ??_R1A@?0A@EA@CDebugCommand@@8 100b8578     bot_commands.obj
 0002:0001e594       ??_R4CSquadMenuCommand@@6B@ 100b8594     bot_commands.obj
 0002:0001e5a8       ??_R3CSquadMenuCommand@@8  100b85a8     bot_commands.obj
 0002:0001e5b8       ??_R2CSquadMenuCommand@@8  100b85b8     bot_commands.obj
 0002:0001e5c4       ??_R1A@?0A@EA@CSquadMenuCommand@@8 100b85c4     bot_commands.obj
 0002:0001e5e0       ??_R4CConfigCommand@@6B@   100b85e0     bot_commands.obj
 0002:0001e5f4       ??_R3CConfigCommand@@8     100b85f4     bot_commands.obj
 0002:0001e604       ??_R2CConfigCommand@@8     100b8604     bot_commands.obj
 0002:0001e610       ??_R1A@?0A@EA@CConfigCommand@@8 100b8610     bot_commands.obj
 0002:0001e62c       ??_R4CPathWaypointCommand@@6B@ 100b862c     bot_commands.obj
 0002:0001e640       ??_R3CPathWaypointCommand@@8 100b8640     bot_commands.obj
 0002:0001e650       ??_R2CPathWaypointCommand@@8 100b8650     bot_commands.obj
 0002:0001e65c       ??_R1A@?0A@EA@CPathWaypointCommand@@8 100b865c     bot_commands.obj
 0002:0001e678       ??_R4CBotGAValues@@6B@     100b8678     bot_ga.obj
 0002:0001e68c       ??_R3CBotGAValues@@8       100b868c     bot_ga.obj
 0002:0001e69c       ??_R2CBotGAValues@@8       100b869c     bot_ga.obj
 0002:0001e6a8       ??_R1A@?0A@EA@CBotGAValues@@8 100b86a8     bot_ga.obj
 0002:0001e6c4       ??_R4CBitsGAValues@@6B@    100b86c4     bot_ga.obj
 0002:0001e6d8       ??_R3CBitsGAValues@@8      100b86d8     bot_ga.obj
 0002:0001e6e8       ??_R2CBitsGAValues@@8      100b86e8     bot_ga.obj
 0002:0001e6f4       ??_R1A@?0A@EA@CBitsGAValues@@8 100b86f4     bot_ga.obj
 0002:0001e710       ??_R4NN@@6B@               100b8710     bot_nn.obj
 0002:0001e724       ??_R3NN@@8                 100b8724     bot_nn.obj
 0002:0001e734       ??_R2NN@@8                 100b8734     bot_nn.obj
 0002:0001e73c       ??_R1A@?0A@EA@NN@@8        100b873c     bot_nn.obj
 0002:0001e758       ??_R4NNGATrained@@6B@      100b8758     bot_nn.obj
 0002:0001e76c       ??_R3NNGATrained@@8        100b876c     bot_nn.obj
 0002:0001e77c       ??_R2NNGATrained@@8        100b877c     bot_nn.obj
 0002:0001e788       ??_R1A@?0A@EA@NNGATrained@@8 100b8788     bot_nn.obj
 0002:0001e7a4       ??_R4CWeapon@@6B@          100b87a4     bot_weapons.obj
 0002:0001e7b8       ??_R3CWeapon@@8            100b87b8     bot_weapons.obj
 0002:0001e7c8       ??_R2CWeapon@@8            100b87c8     bot_weapons.obj
 0002:0001e7d0       ??_R1A@?0A@EA@CWeapon@@8   100b87d0     bot_weapons.obj
 0002:0001e7ec       ??_R4CWeaponPreset@@6B@    100b87ec     bot_weapons.obj
 0002:0001e800       ??_R3CWeaponPreset@@8      100b8800     bot_weapons.obj
 0002:0001e810       ??_R2CWeaponPreset@@8      100b8810     bot_weapons.obj
 0002:0001e81c       ??_R1A@?0A@EA@CWeaponPreset@@8 100b881c     bot_weapons.obj
 0002:0001e838       ??_R4ITransfer@@6B@        100b8838     perceptron.obj
 0002:0001e84c       ??_R3ITransfer@@8          100b884c     perceptron.obj
 0002:0001e85c       ??_R2ITransfer@@8          100b885c     perceptron.obj
 0002:0001e864       ??_R1A@?0A@EA@ITransfer@@8 100b8864     perceptron.obj
 0002:0001e880       ??_R4CSigmoidTransfer@@6B@ 100b8880     perceptron.obj
 0002:0001e894       ??_R3CSigmoidTransfer@@8   100b8894     perceptron.obj
 0002:0001e8a4       ??_R2CSigmoidTransfer@@8   100b88a4     perceptron.obj
 0002:0001e8b0       ??_R1A@?0A@EA@CSigmoidTransfer@@8 100b88b0     perceptron.obj
 0002:0001e8cc       ??_R1A@?0A@EA@exception@std@@8 100b88cc     libcpmt:xthrow.obj
 0002:0001e8e8       ??_R3exception@std@@8      100b88e8     libcpmt:xthrow.obj
 0002:0001e8f8       ??_R2exception@std@@8      100b88f8     libcpmt:xthrow.obj
 0002:0001e900       ??_R4bad_alloc@std@@6B@    100b8900     libcpmt:xthrow.obj
 0002:0001e914       ??_R3bad_alloc@std@@8      100b8914     libcpmt:xthrow.obj
 0002:0001e924       ??_R2bad_alloc@std@@8      100b8924     libcpmt:xthrow.obj
 0002:0001e930       ??_R1A@?0A@EA@bad_alloc@std@@8 100b8930     libcpmt:xthrow.obj
 0002:0001e94c       ??_R4logic_error@std@@6B@  100b894c     libcpmt:xthrow.obj
 0002:0001e960       ??_R3logic_error@std@@8    100b8960     libcpmt:xthrow.obj
 0002:0001e970       ??_R2logic_error@std@@8    100b8970     libcpmt:xthrow.obj
 0002:0001e97c       ??_R1A@?0A@EA@logic_error@std@@8 100b897c     libcpmt:xthrow.obj
 0002:0001e998       ??_R4invalid_argument@std@@6B@ 100b8998     libcpmt:xthrow.obj
 0002:0001e9ac       ??_R3invalid_argument@std@@8 100b89ac     libcpmt:xthrow.obj
 0002:0001e9bc       ??_R2invalid_argument@std@@8 100b89bc     libcpmt:xthrow.obj
 0002:0001e9cc       ??_R1A@?0A@EA@invalid_argument@std@@8 100b89cc     libcpmt:xthrow.obj
 0002:0001e9e8       ??_R4length_error@std@@6B@ 100b89e8     libcpmt:xthrow.obj
 0002:0001e9fc       ??_R3length_error@std@@8   100b89fc     libcpmt:xthrow.obj
 0002:0001ea0c       ??_R2length_error@std@@8   100b8a0c     libcpmt:xthrow.obj
 0002:0001ea1c       ??_R1A@?0A@EA@length_error@std@@8 100b8a1c     libcpmt:xthrow.obj
 0002:0001ea38       ??_R4out_of_range@std@@6B@ 100b8a38     libcpmt:xthrow.obj
 0002:0001ea4c       ??_R3out_of_range@std@@8   100b8a4c     libcpmt:xthrow.obj
 0002:0001ea5c       ??_R2out_of_range@std@@8   100b8a5c     libcpmt:xthrow.obj
 0002:0001ea6c       ??_R1A@?0A@EA@out_of_range@std@@8 100b8a6c     libcpmt:xthrow.obj
 0002:0001ea88       ??_R4runtime_error@std@@6B@ 100b8a88     libcpmt:xthrow.obj
 0002:0001ea9c       ??_R3runtime_error@std@@8  100b8a9c     libcpmt:xthrow.obj
 0002:0001eaac       ??_R2runtime_error@std@@8  100b8aac     libcpmt:xthrow.obj
 0002:0001eab8       ??_R1A@?0A@EA@runtime_error@std@@8 100b8ab8     libcpmt:xthrow.obj
 0002:0001ead4       ??_R4overflow_error@std@@6B@ 100b8ad4     libcpmt:xthrow.obj
 0002:0001eae8       ??_R3overflow_error@std@@8 100b8ae8     libcpmt:xthrow.obj
 0002:0001eaf8       ??_R2overflow_error@std@@8 100b8af8     libcpmt:xthrow.obj
 0002:0001eb08       ??_R1A@?0A@EA@overflow_error@std@@8 100b8b08     libcpmt:xthrow.obj
 0002:0001eb24       ??_R4bad_function_call@std@@6B@ 100b8b24     libcpmt:xthrow.obj
 0002:0001eb38       ??_R3bad_function_call@std@@8 100b8b38     libcpmt:xthrow.obj
 0002:0001eb48       ??_R2bad_function_call@std@@8 100b8b48     libcpmt:xthrow.obj
 0002:0001eb54       ??_R1A@?0A@EA@bad_function_call@std@@8 100b8b54     libcpmt:xthrow.obj
 0002:0001eb70       ??_R4error_category@std@@6B@ 100b8b70     libcpmt:xthrow.obj
 0002:0001eb84       ??_R3error_category@std@@8 100b8b84     libcpmt:xthrow.obj
 0002:0001eb94       ??_R2error_category@std@@8 100b8b94     libcpmt:xthrow.obj
 0002:0001eb9c       ??_R1A@?0A@EA@error_category@std@@8 100b8b9c     libcpmt:xthrow.obj
 0002:0001ebb8       ??_R4_Generic_error_category@std@@6B@ 100b8bb8     libcpmt:xthrow.obj
 0002:0001ebcc       ??_R3_Generic_error_category@std@@8 100b8bcc     libcpmt:xthrow.obj
 0002:0001ebdc       ??_R2_Generic_error_category@std@@8 100b8bdc     libcpmt:xthrow.obj
 0002:0001ebe8       ??_R1A@?0A@EA@_Generic_error_category@std@@8 100b8be8     libcpmt:xthrow.obj
 0002:0001ec04       ??_R4_Iostream_error_category@std@@6B@ 100b8c04     libcpmt:xthrow.obj
 0002:0001ec18       ??_R3_Iostream_error_category@std@@8 100b8c18     libcpmt:xthrow.obj
 0002:0001ec28       ??_R2_Iostream_error_category@std@@8 100b8c28     libcpmt:xthrow.obj
 0002:0001ec38       ??_R1A@?0A@EA@_Iostream_error_category@std@@8 100b8c38     libcpmt:xthrow.obj
 0002:0001ec54       ??_R4_System_error_category@std@@6B@ 100b8c54     libcpmt:xthrow.obj
 0002:0001ec68       ??_R3_System_error_category@std@@8 100b8c68     libcpmt:xthrow.obj
 0002:0001ec78       ??_R2_System_error_category@std@@8 100b8c78     libcpmt:xthrow.obj
 0002:0001ec88       ??_R1A@?0A@EA@_System_error_category@std@@8 100b8c88     libcpmt:xthrow.obj
 0002:0001eca4       ??_R4regex_error@std@@6B@  100b8ca4     libcpmt:xthrow.obj
 0002:0001ecb8       ??_R3regex_error@std@@8    100b8cb8     libcpmt:xthrow.obj
 0002:0001ecc8       ??_R2regex_error@std@@8    100b8cc8     libcpmt:xthrow.obj
 0002:0001ecd8       ??_R1A@?0A@EA@regex_error@std@@8 100b8cd8     libcpmt:xthrow.obj
 0002:0001ecf4       ??_R4type_info@@6B@        100b8cf4     LIBCMT:typinfo.obj
 0002:0001ed08       ??_R3type_info@@8          100b8d08     LIBCMT:typinfo.obj
 0002:0001ed18       ??_R2type_info@@8          100b8d18     LIBCMT:typinfo.obj
 0002:0001ed20       ??_R1A@?0A@EA@type_info@@8 100b8d20     LIBCMT:typinfo.obj
 0002:0001ed3c       ??_R4exception@std@@6B@    100b8d3c     LIBCMT:stdexcpt.obj
 0002:0001ed50       ??_R4bad_cast@std@@6B@     100b8d50     LIBCMT:stdexcpt.obj
 0002:0001ed64       ??_R3bad_cast@std@@8       100b8d64     LIBCMT:stdexcpt.obj
 0002:0001ed74       ??_R2bad_cast@std@@8       100b8d74     LIBCMT:stdexcpt.obj
 0002:0001ed80       ??_R1A@?0A@EA@bad_cast@std@@8 100b8d80     LIBCMT:stdexcpt.obj
 0002:0001ed9c       ??_R4bad_typeid@std@@6B@   100b8d9c     LIBCMT:stdexcpt.obj
 0002:0001edb0       ??_R3bad_typeid@std@@8     100b8db0     LIBCMT:stdexcpt.obj
 0002:0001edc0       ??_R2bad_typeid@std@@8     100b8dc0     LIBCMT:stdexcpt.obj
 0002:0001edcc       ??_R1A@?0A@EA@bad_typeid@std@@8 100b8dcc     LIBCMT:stdexcpt.obj
 0002:0001ede8       ??_R4__non_rtti_object@std@@6B@ 100b8de8     LIBCMT:stdexcpt.obj
 0002:0001edfc       ??_R3__non_rtti_object@std@@8 100b8dfc     LIBCMT:stdexcpt.obj
 0002:0001ee0c       ??_R2__non_rtti_object@std@@8 100b8e0c     LIBCMT:stdexcpt.obj
 0002:0001ee1c       ??_R1A@?0A@EA@__non_rtti_object@std@@8 100b8e1c     LIBCMT:stdexcpt.obj
 0002:0001ee38       ??_R4bad_exception@std@@6B@ 100b8e38     LIBCMT:frame.obj
 0002:0001ee4c       ??_R3bad_exception@std@@8  100b8e4c     LIBCMT:frame.obj
 0002:0001ee5c       ??_R2bad_exception@std@@8  100b8e5c     LIBCMT:frame.obj
 0002:0001ee68       ??_R1A@?0A@EA@bad_exception@std@@8 100b8e68     LIBCMT:frame.obj
 0002:0001ee84       ??_R4DNameNode@@6B@        100b8e84     LIBCMT:undname.obj
 0002:0001ee98       ??_R3DNameNode@@8          100b8e98     LIBCMT:undname.obj
 0002:0001eea8       ??_R2DNameNode@@8          100b8ea8     LIBCMT:undname.obj
 0002:0001eeb0       ??_R1A@?0A@EA@DNameNode@@8 100b8eb0     LIBCMT:undname.obj
 0002:0001eecc       ??_R4charNode@@6B@         100b8ecc     LIBCMT:undname.obj
 0002:0001eee0       ??_R3charNode@@8           100b8ee0     LIBCMT:undname.obj
 0002:0001eef0       ??_R2charNode@@8           100b8ef0     LIBCMT:undname.obj
 0002:0001eefc       ??_R1A@?0A@EA@charNode@@8  100b8efc     LIBCMT:undname.obj
 0002:0001ef18       ??_R4pcharNode@@6B@        100b8f18     LIBCMT:undname.obj
 0002:0001ef2c       ??_R3pcharNode@@8          100b8f2c     LIBCMT:undname.obj
 0002:0001ef3c       ??_R2pcharNode@@8          100b8f3c     LIBCMT:undname.obj
 0002:0001ef48       ??_R1A@?0A@EA@pcharNode@@8 100b8f48     LIBCMT:undname.obj
 0002:0001ef64       ??_R4pDNameNode@@6B@       100b8f64     LIBCMT:undname.obj
 0002:0001ef78       ??_R3pDNameNode@@8         100b8f78     LIBCMT:undname.obj
 0002:0001ef88       ??_R2pDNameNode@@8         100b8f88     LIBCMT:undname.obj
 0002:0001ef94       ??_R1A@?0A@EA@pDNameNode@@8 100b8f94     LIBCMT:undname.obj
 0002:0001efb0       ??_R4DNameStatusNode@@6B@  100b8fb0     LIBCMT:undname.obj
 0002:0001efc4       ??_R3DNameStatusNode@@8    100b8fc4     LIBCMT:undname.obj
 0002:0001efd4       ??_R2DNameStatusNode@@8    100b8fd4     LIBCMT:undname.obj
 0002:0001efe0       ??_R1A@?0A@EA@DNameStatusNode@@8 100b8fe0     LIBCMT:undname.obj
 0002:0001effc       ??_R4pairNode@@6B@         100b8ffc     LIBCMT:undname.obj
 0002:0001f010       ??_R3pairNode@@8           100b9010     LIBCMT:undname.obj
 0002:0001f020       ??_R2pairNode@@8           100b9020     LIBCMT:undname.obj
 0002:0001f02c       ??_R1A@?0A@EA@pairNode@@8  100b902c     LIBCMT:undname.obj
 0002:0001f050       ___safe_se_handler_table   100b9050     <linker-defined>
 0002:0001f188       ___rtc_iaa                 100b9188     LIBCMT:initsect.obj
 0002:0001f18c       ___rtc_izz                 100b918c     LIBCMT:initsect.obj
 0002:0001f190       ___rtc_taa                 100b9190     LIBCMT:initsect.obj
 0002:0001f194       ___rtc_tzz                 100b9194     LIBCMT:initsect.obj
 0002:0001f58c       __TI2PAD                   100b958c     bot.obj
 0002:0001f59c       __CTA2PAD                  100b959c     bot.obj
 0002:0001f5a8       __CT??_R0PAD@84            100b95a8     bot.obj
 0002:0001f5c4       __CT??_R0PAX@84            100b95c4     bot.obj
 0002:0002071c       __TI2?AVbad_alloc@std@@    100ba71c     libcpmt:xthrow.obj
 0002:0002072c       __CTA2?AVbad_alloc@std@@   100ba72c     libcpmt:xthrow.obj
 0002:00020738       __CT??_R0?AVbad_alloc@std@@@8??0bad_alloc@std@@QAE@ABV01@@Z12 100ba738     libcpmt:xthrow.obj
 0002:00020754       __CT??_R0?AVexception@std@@@8??0exception@std@@QAE@ABV01@@Z12 100ba754     libcpmt:xthrow.obj
 0002:00020770       __TI3?AVinvalid_argument@std@@ 100ba770     libcpmt:xthrow.obj
 0002:00020780       __CTA3?AVinvalid_argument@std@@ 100ba780     libcpmt:xthrow.obj
 0002:00020790       __CT??_R0?AVinvalid_argument@std@@@8??0invalid_argument@std@@QAE@ABV01@@Z12 100ba790     libcpmt:xthrow.obj
 0002:000207ac       __CT??_R0?AVlogic_error@std@@@8??0logic_error@std@@QAE@ABV01@@Z12 100ba7ac     libcpmt:xthrow.obj
 0002:000207c8       __TI3?AVlength_error@std@@ 100ba7c8     libcpmt:xthrow.obj
 0002:000207d8       __CTA3?AVlength_error@std@@ 100ba7d8     libcpmt:xthrow.obj
 0002:000207e8       __CT??_R0?AVlength_error@std@@@8??0length_error@std@@QAE@ABV01@@Z12 100ba7e8     libcpmt:xthrow.obj
 0002:00020804       __TI3?AVout_of_range@std@@ 100ba804     libcpmt:xthrow.obj
 0002:00020814       __CTA3?AVout_of_range@std@@ 100ba814     libcpmt:xthrow.obj
 0002:00020824       __CT??_R0?AVout_of_range@std@@@8??0out_of_range@std@@QAE@ABV01@@Z12 100ba824     libcpmt:xthrow.obj
 0002:00020840       __TI3?AVoverflow_error@std@@ 100ba840     libcpmt:xthrow.obj
 0002:00020850       __CTA3?AVoverflow_error@std@@ 100ba850     libcpmt:xthrow.obj
 0002:00020860       __CT??_R0?AVoverflow_error@std@@@8??0overflow_error@std@@QAE@ABV01@@Z12 100ba860     libcpmt:xthrow.obj
 0002:0002087c       __CT??_R0?AVruntime_error@std@@@8??0runtime_error@std@@QAE@ABV01@@Z12 100ba87c     libcpmt:xthrow.obj
 0002:00020898       __TI2?AVruntime_error@std@@ 100ba898     libcpmt:xthrow.obj
 0002:000208a8       __CTA2?AVruntime_error@std@@ 100ba8a8     libcpmt:xthrow.obj
 0002:000208b4       __TI2?AVbad_function_call@std@@ 100ba8b4     libcpmt:xthrow.obj
 0002:000208c4       __CTA2?AVbad_function_call@std@@ 100ba8c4     libcpmt:xthrow.obj
 0002:000208d0       __CT??_R0?AVbad_function_call@std@@@8??0bad_function_call@std@@QAE@ABV01@@Z12 100ba8d0     libcpmt:xthrow.obj
 0002:000208ec       __TI3?AVregex_error@std@@  100ba8ec     libcpmt:xthrow.obj
 0002:000208fc       __CTA3?AVregex_error@std@@ 100ba8fc     libcpmt:xthrow.obj
 0002:0002090c       __CT??_R0?AVregex_error@std@@@8??0regex_error@std@@QAE@ABV01@@Z16 100ba90c     libcpmt:xthrow.obj
 0002:00020fa4       __TI2?AVbad_exception@std@@ 100bafa4     LIBCMT:frame.obj
 0002:00020fb4       __CTA2?AVbad_exception@std@@ 100bafb4     LIBCMT:frame.obj
 0002:00020fc0       __CT??_R0?AVbad_exception@std@@@8??0bad_exception@std@@QAE@ABV01@@Z12 100bafc0     LIBCMT:frame.obj
 0002:000214e8       __IMPORT_DESCRIPTOR_KERNEL32 100bb4e8     kernel32:KERNEL32.dll
 0002:000214fc       __IMPORT_DESCRIPTOR_USER32 100bb4fc     user32:USER32.dll
 0002:00021510       __NULL_IMPORT_DESCRIPTOR   100bb510     kernel32:KERNEL32.dll
 0003:00000004       ?g_learnRate@NN@@2MA       100bc004     bot_nn.obj
 0003:00000008       ?pszTSWeaponModels@@3PAPBDA 100bc008     bot_weapons.obj
 0003:00000098       ?gFunctionTable@@3UDLL_FUNCTIONS@@A 100bc098     dll.obj
 0003:00000160       ?bot_ver_cvar@@3Ucvar_s@@A 100bc160     dll.obj
 0003:000001a4       ?name_in_msg@@3PADA        100bc1a4     megahal.obj
 0003:000001a8       ?m_fDefaultLearnRate@CPerceptron@@2MA 100bc1a8     perceptron.obj
 0003:000001ac       ?m_fDefaultBias@CPerceptron@@2MA 100bc1ac     perceptron.obj
 0003:000001b0       ?Plugin_info@@3Uplugin_info_t@@A 100bc1b0     rcbot_meta_api.obj
 0003:000001d4       ?gMetaFunctionTable@@3UMETA_FUNCTIONS@@A 100bc1d4     rcbot_meta_api.obj
 0003:000001f4       ?m_fLearnRate@CSom@@2MA    100bc1f4     som.obj
 0003:00000230       ?_Generic_object@?$_Error_objects@H@std@@2V_Generic_error_category@2@A 100bc230     libcpmt:xthrow.obj
 0003:00000234       ?_Iostream_object@?$_Error_objects@H@std@@2V_Iostream_error_category@2@A 100bc234     libcpmt:xthrow.obj
 0003:00000238       ?_System_object@?$_Error_objects@H@std@@2V_System_error_category@2@A 100bc238     libcpmt:xthrow.obj
 0003:00000240       ___security_cookie         100bc240     LIBCMT:gs_cookie.obj
 0003:00000244       ___security_cookie_complement 100bc244     LIBCMT:gs_cookie.obj
 0003:00000248       __fltused                  100bc248     LIBCMT:fpinit.obj
 0003:0000024c       __ldused                   100bc24c     LIBCMT:fpinit.obj
 0003:00000250       __iob                      100bc250     LIBCMT:_file.obj
 0003:000004d0       __lookuptrailbytes         100bc4d0     LIBCMT:read.obj
 0003:00000740       ___nullstring              100bc740     LIBCMT:output.obj
 0003:00000744       ___wnullstring             100bc744     LIBCMT:output.obj
 0003:00000758       __d_inf                    100bc758     LIBCMT:util.obj
 0003:00000760       __d_ind                    100bc760     LIBCMT:util.obj
 0003:00000768       __d_max                    100bc768     LIBCMT:util.obj
 0003:00000770       __d_min                    100bc770     LIBCMT:util.obj
 0003:00000778       __d_mzero                  100bc778     LIBCMT:util.obj
 0003:00000884       ___isa_enabled             100bc884     LIBCMT:cpu_disp.obj
 0003:00000888       __cfltcvt_tab              100bc888     LIBCMT:cmiscdat.obj
 0003:000008b0       ___abort_behavior          100bc8b0     LIBCMT:abort.obj
 0003:000008c0       ___badioinfo               100bc8c0     LIBCMT:ioinit.obj
 0003:00000a28       __mbctype                  100bca28     LIBCMT:mbctype.obj
 0003:00000b30       __mbcasemap                100bcb30     LIBCMT:mbctype.obj
 0003:00000c30       ___initialmbcinfo          100bcc30     LIBCMT:mbctype.obj
 0003:00000e54       ___ptmbcinfo               100bce54     LIBCMT:mbctype.obj
 0003:00000f48       ___flsindex                100bcf48     LIBCMT:tidtable.obj
 0003:00000f4c       ___mb_cur_max              100bcf4c     LIBCMT:nlsdata.obj
 0003:00000f50       ___wclocalestr             100bcf50     LIBCMT:nlsdata.obj
 0003:00000f58       ___lc_time_c               100bcf58     LIBCMT:nlsdata.obj
 0003:000010bc       ___ptlocinfo               100bd0bc     LIBCMT:nlsdata.obj
 0003:000010c0       ___initiallocinfo          100bd0c0     LIBCMT:nlsdata.obj
 0003:00001178       ___initiallocalestructinfo 100bd178     LIBCMT:nlsdata.obj
 0003:00001180       ___globallocalestatus      100bd180     LIBCMT:glstatus.obj
 0003:00001188       __timezone                 100bd188     LIBCMT:timeset.obj
 0003:0000118c       __daylight                 100bd18c     LIBCMT:timeset.obj
 0003:00001190       __dstbias                  100bd190     LIBCMT:timeset.obj
 0003:00001218       __tzname                   100bd218     LIBCMT:timeset.obj
 0003:00001250       __half                     100bd250     LIBCMT:pow.obj
 0003:00001290       __matherr_flag             100bd290     LIBCMT:matherr.obj
 0003:000012a0       __NLG_Destination          100bd2a0     LIBCMT:exsup.obj
 0003:000012b0       ___lconv                   100bd2b0     LIBCMT:lconv.obj
 0003:000012b4       ___lconv_static_decimal    100bd2b4     LIBCMT:lconv.obj
 0003:000012b8       ___lconv_c                 100bd2b8     LIBCMT:lconv.obj
 0003:00001308       ___lconv_static_W_decimal  100bd308     LIBCMT:lconv.obj
 0003:00001310       __pctype                   100bd310     LIBCMT:ctype.obj
 0003:00001314       __pwctype                  100bd314     LIBCMT:ctype.obj
 0003:00001318       __days                     100bd318     LIBCMT:days.obj
 0003:0000134c       __lpdays                   100bd34c     LIBCMT:days.obj
 0003:000013b0       __pow10pos                 100bd3b0     LIBCMT:constpow.obj
 0003:00001510       __pow10neg                 100bd510     LIBCMT:constpow.obj
 0003:00001670       __confh                    100bd670     LIBCMT:initcon.obj
 0003:00001680       __HUGE                     100bd680     LIBCMT:huge.obj
 0003:00001690       ??_R0PAD@8                 100bd690     bot.obj
 0003:000016a0       ??_R0PAX@8                 100bd6a0     bot.obj
 0003:000016b0       ??_R0?AVIIndividual@@@8    100bd6b0     bot.obj
 0003:000016cc       ??_R0?AVISelection@@@8     100bd6cc     bot.obj
 0003:000016e8       ??_R0?AVCRouletteSelection@@@8 100bd6e8     bot.obj
 0003:0000170c       ??_R0?AVCIntGAValues@@@8   100bd70c     bot.obj
 0003:00001728       ??_R0?AVCBotNetMessage@@@8 100bd728     bot_client.obj
 0003:00001748       ??_R0?AVBotClient_TS_ClipInfo@@@8 100bd748     bot_client.obj
 0003:0000176c       ??_R0?AVBotClient_TS_DelObj@@@8 100bd76c     bot_client.obj
 0003:00001790       ??_R0?AVBotClient_TS_WStatus@@@8 100bd790     bot_client.obj
 0003:000017b4       ??_R0?AVBotClient_TS_WeaponInfo@@@8 100bd7b4     bot_client.obj
 0003:000017dc       ??_R0?AVBotClient_Generic_WeaponList@@@8 100bd7dc     bot_client.obj
 0003:00001808       ??_R0?AVBotClient_Generic_CurrentWeapon@@@8 100bd808     bot_client.obj
 0003:00001838       ??_R0?AVBotClient_Generic_AmmoX@@@8 100bd838     bot_client.obj
 0003:00001860       ??_R0?AVBotClient_Generic_AmmoPickup@@@8 100bd860     bot_client.obj
 0003:0000188c       ??_R0?AVBotClient_Generic_WeaponPickup@@@8 100bd88c     bot_client.obj
 0003:000018bc       ??_R0?AVBotClient_Generic_ItemPickup@@@8 100bd8bc     bot_client.obj
 0003:000018e8       ??_R0?AVBotClient_Generic_Health@@@8 100bd8e8     bot_client.obj
 0003:00001910       ??_R0?AVBotClient_Generic_Battery@@@8 100bd910     bot_client.obj
 0003:00001938       ??_R0?AVBotClient_Generic_Damage@@@8 100bd938     bot_client.obj
 0003:00001960       ??_R0?AVBotClient_Generic_ScreenFade@@@8 100bd960     bot_client.obj
 0003:0000198c       ??_R0?AVBotClient_DMC_QuakeItem@@@8 100bd98c     bot_client.obj
 0003:000019b4       ??_R0?AVBotClient_Generic_VGUIMenu@@@8 100bd9b4     bot_client.obj
 0003:000019e0       ??_R0?AVBotClient_NS_TechSlots@@@8 100bd9e0     bot_client.obj
 0003:00001a08       ??_R0?AVBotClient_Generic_ShowMenu@@@8 100bda08     bot_client.obj
 0003:00001a34       ??_R0?AVBotClient_TS_State@@@8 100bda34     bot_client.obj
 0003:00001a58       ??_R0?AVBotClient_TS_Objective@@@8 100bda58     bot_client.obj
 0003:00001a80       ??_R0?AVBotClient_Generic_TeamScore@@@8 100bda80     bot_client.obj
 0003:00001aac       ??_R0?AVBotClient_NS_Commndr@@@8 100bdaac     bot_client.obj
 0003:00001ad0       ??_R0?AVBotClient_NS_HudText@@@8 100bdad0     bot_client.obj
 0003:00001af4       ??_R0?AVBotClient_NS_SetOrder@@@8 100bdaf4     bot_client.obj
 0003:00001b18       ??_R0?AVBotClient_NS_SetTech@@@8 100bdb18     bot_client.obj
 0003:00001b3c       ??_R0?AVBotClient_NS_AlienInfo@@@8 100bdb3c     bot_client.obj
 0003:00001b64       ??_R0?AVBotClient_BG_MakeMessage@@@8 100bdb64     bot_client.obj
 0003:00001b8c       ??_R0?AVBotClient_Generic_ScreenShake@@@8 100bdb8c     bot_client.obj
 0003:00001bb8       ??_R0?AVBotClient_Generic_TextMessage@@@8 100bdbb8     bot_client.obj
 0003:00001be4       ??_R0?AVBotClient_Generic_SayText@@@8 100bdbe4     bot_client.obj
 0003:00001c0c       ??_R0?AVBotClient_All_Generic_SayText@@@8 100bdc0c     bot_client.obj
 0003:00001c38       ??_R0?AVBotClient_Generic_DeathMessage@@@8 100bdc38     bot_client.obj
 0003:00001c68       ??_R0?AVCBotCvar@@@8       100bdc68     bot_commands.obj
 0003:00001c80       ??_R0?AVCRemoveBotCommand@@@8 100bdc80     bot_commands.obj
 0003:00001ca0       ??_R0?AVCDebugBotCommand@@@8 100bdca0     bot_commands.obj
 0003:00001cc0       ??_R0?AVCDebugEntCommand@@@8 100bdcc0     bot_commands.obj
 0003:00001ce0       ??_R0?AVCUsersCommand@@@8  100bdce0     bot_commands.obj
 0003:00001cfc       ??_R0?AVCHelpCommand@@@8   100bdcfc     bot_commands.obj
 0003:00001d18       ??_R0?AVCAutoWaypointCommand@@@8 100bdd18     bot_commands.obj
 0003:00001d3c       ??_R0?AVCMenuSelectCommand@@@8 100bdd3c     bot_commands.obj
 0003:00001d60       ??_R0?AVCSetPassCommand@@@8 100bdd60     bot_commands.obj
 0003:00001d80       ??_R0?AVCWaypointMenuCommand@@@8 100bdd80     bot_commands.obj
 0003:00001da4       ??_R0?AVCBotMenuCommand@@@8 100bdda4     bot_commands.obj
 0003:00001dc4       ??_R0?AVCUtilCommand@@@8   100bddc4     bot_commands.obj
 0003:00001de0       ??_R0?AVCAddBotCommand@@@8 100bdde0     bot_commands.obj
 0003:00001e00       ??_R0?AVCWaypointCommand@@@8 100bde00     bot_commands.obj
 0003:00001e20       ??_R0?AVCBotCamCommand@@@8 100bde20     bot_commands.obj
 0003:00001e40       ??_R0?AVCBotSquadCommand@@@8 100bde40     bot_commands.obj
 0003:00001e60       ??_R0?AVCDebugCommand@@@8  100bde60     bot_commands.obj
 0003:00001e7c       ??_R0?AVCSquadMenuCommand@@@8 100bde7c     bot_commands.obj
 0003:00001e9c       ??_R0?AVCConfigCommand@@@8 100bde9c     bot_commands.obj
 0003:00001ebc       ??_R0?AVCPathWaypointCommand@@@8 100bdebc     bot_commands.obj
 0003:00001ee0       ??_R0?AVCBotGAValues@@@8   100bdee0     bot_ga.obj
 0003:00001efc       ??_R0?AVCBitsGAValues@@@8  100bdefc     bot_ga.obj
 0003:00001f18       ??_R0?AVNN@@@8             100bdf18     bot_nn.obj
 0003:00001f2c       ??_R0?AVNNGATrained@@@8    100bdf2c     bot_nn.obj
 0003:00001f48       ??_R0?AVCWeapon@@@8        100bdf48     bot_weapons.obj
 0003:00001f60       ??_R0?AVCWeaponPreset@@@8  100bdf60     bot_weapons.obj
 0003:00001f7c       ??_R0?AVITransfer@@@8      100bdf7c     perceptron.obj
 0003:00001f94       ??_R0?AVCSigmoidTransfer@@@8 100bdf94     perceptron.obj
 0003:00001fb4       ??_R0?AVbad_alloc@std@@@8  100bdfb4     libcpmt:xthrow.obj
 0003:00001fd0       ??_R0?AVexception@std@@@8  100bdfd0     libcpmt:xthrow.obj
 0003:00001fec       ??_R0?AVinvalid_argument@std@@@8 100bdfec     libcpmt:xthrow.obj
 0003:00002010       ??_R0?AVlogic_error@std@@@8 100be010     libcpmt:xthrow.obj
 0003:00002030       ??_R0?AVlength_error@std@@@8 100be030     libcpmt:xthrow.obj
 0003:00002050       ??_R0?AVout_of_range@std@@@8 100be050     libcpmt:xthrow.obj
 0003:00002070       ??_R0?AVoverflow_error@std@@@8 100be070     libcpmt:xthrow.obj
 0003:00002094       ??_R0?AVruntime_error@std@@@8 100be094     libcpmt:xthrow.obj
 0003:000020b4       ??_R0?AVbad_function_call@std@@@8 100be0b4     libcpmt:xthrow.obj
 0003:000020d8       ??_R0?AVregex_error@std@@@8 100be0d8     libcpmt:xthrow.obj
 0003:000020f8       ??_R0?AVerror_category@std@@@8 100be0f8     libcpmt:xthrow.obj
 0003:0000211c       ??_R0?AV_Generic_error_category@std@@@8 100be11c     libcpmt:xthrow.obj
 0003:00002148       ??_R0?AV_Iostream_error_category@std@@@8 100be148     libcpmt:xthrow.obj
 0003:00002174       ??_R0?AV_System_error_category@std@@@8 100be174     libcpmt:xthrow.obj
 0003:000021a0       ??_R0?AVtype_info@@@8      100be1a0     LIBCMT:typinfo.obj
 0003:000021b8       ??_R0?AVbad_cast@std@@@8   100be1b8     LIBCMT:stdexcpt.obj
 0003:000021d4       ??_R0?AVbad_typeid@std@@@8 100be1d4     LIBCMT:stdexcpt.obj
 0003:000021f4       ??_R0?AV__non_rtti_object@std@@@8 100be1f4     LIBCMT:stdexcpt.obj
 0003:00002218       ??_R0?AVbad_exception@std@@@8 100be218     LIBCMT:frame.obj
 0003:00002238       ??_R0?AVDNameNode@@@8      100be238     LIBCMT:undname.obj
 0003:00002250       ??_R0?AVcharNode@@@8       100be250     LIBCMT:undname.obj
 0003:00002268       ??_R0?AVpcharNode@@@8      100be268     LIBCMT:undname.obj
 0003:00002280       ??_R0?AVpDNameNode@@@8     100be280     LIBCMT:undname.obj
 0003:0000229c       ??_R0?AVDNameStatusNode@@@8 100be29c     LIBCMT:undname.obj
 0003:000022bc       ??_R0?AVpairNode@@@8       100be2bc     LIBCMT:undname.obj
 0003:000040d8       ?other_gFunctionTable@@3UDLL_FUNCTIONS@@A 100c00d8     dll.obj
 0003:000041a0       ?fpMapConfig@@3PAU_iobuf@@A 100c01a0     dll.obj
 0003:000041a8       ?gBotGlobals@@3VCBotGlobals@@A 100c01a8     dll.obj
 0003:0009e4f0       ?g_vecZero@@3VVector@@B    1015a4f0     dll.obj
 0003:0009ea50       ?meta_engfuncs@@3Uenginefuncs_s@@A 1015aa50     rcbot_meta_api.obj
 0003:0009ecbc       ?gpMetaGlobals@@3PAUmeta_globals_s@@A 1015acbc     rcbot_meta_api.obj
 0003:0009ecc0       ?debug_engine@@3HA         1015acc0     rcbot_meta_api.obj
 0003:0009ecc4       ?g_argv@@3PADA             1015acc4     rcbot_meta_api.obj
 0003:0009ecc8       ?gpGamedllFuncs@@3PAUgamedll_funcs_t@@A 1015acc8     rcbot_meta_api.obj
 0003:0009eccc       ?gpMetaUtilFuncs@@3PAUmeta_util_funcs_s@@A 1015accc     rcbot_meta_api.obj
 0003:0009ecd0       ?g_engfuncs@@3Uenginefuncs_s@@A 1015acd0     rcbot_meta_api.obj
 0003:0009ef3c       ?gpGlobals@@3PAUglobalvars_t@@A 1015af3c     rcbot_meta_api.obj
 0003:0009f478       ?num_waypoints@@3HA        1015b478     waypoint.obj
 0003:0009f480       ?paths@@3PAPAUpath@@A      1015b480     waypoint.obj
 0003:000a0488       ?waypoints@@3VWAYPOINTS@@A 1015c488     waypoint.obj
 0003:000a4488       ?WaypointLocations@@3VCWaypointLocations@@A 10160488     waypoint.obj
 0003:000c4488       ?WaypointVisibility@@3VCWaypointVisibilityTable@@A 10180488     waypoint.obj
 0003:000c4894       ?id@?$num_put@DV?$back_insert_iterator@V?$basic_string@DU?$char_traits@D@std@@V?$allocator@D@2@@std@@@std@@@std@@2V0locale@2@A 10180894     libcpmt:xthrow.obj
 0003:000c4898       ?id@?$num_put@_WV?$back_insert_iterator@V?$basic_string@_WU?$char_traits@_W@std@@V?$allocator@_W@2@@std@@@std@@@std@@2V0locale@2@A 10180898     libcpmt:xthrow.obj
 0003:000c489c       ?id@?$numpunct@D@std@@2V0locale@2@A 1018089c     libcpmt:xthrow.obj
 0003:000c48a0       ?id@?$numpunct@_W@std@@2V0locale@2@A 101808a0     libcpmt:xthrow.obj
 0003:000c48a8       ___fastflag                101808a8     LIBCMT:fpinit.obj
 0003:000c48b0       __C_Exit_Done              101808b0     LIBCMT:crt0dat.obj
 0003:000c48b4       ___argc                    101808b4     LIBCMT:crt0dat.obj
 0003:000c48b8       ___argv                    101808b8     LIBCMT:crt0dat.obj
 0003:000c48bc       ___wargv                   101808bc     LIBCMT:crt0dat.obj
 0003:000c48c0       __environ                  101808c0     LIBCMT:crt0dat.obj
 0003:000c48c4       __wenviron                 101808c4     LIBCMT:crt0dat.obj
 0003:000c48c8       __pgmptr                   101808c8     LIBCMT:crt0dat.obj
 0003:000c48cc       __wpgmptr                  101808cc     LIBCMT:crt0dat.obj
 0003:000c48d0       __umaskval                 101808d0     LIBCMT:crt0dat.obj
 0003:000c48d4       __exitflag                 101808d4     LIBCMT:crt0dat.obj
 0003:000c48d8       __C_Termination_Done       101808d8     LIBCMT:crt0dat.obj
 0003:000c48dc       ___winitenv                101808dc     LIBCMT:crt0dat.obj
 0003:000c48e0       ___initenv                 101808e0     LIBCMT:crt0dat.obj
 0003:000c4c0c       __aenvptr                  10180c0c     LIBCMT:dllcrt0.obj
 0003:000c4c10       __wenvptr                  10180c10     LIBCMT:dllcrt0.obj
 0003:000c4c14       ___pInvalidArgHandler      10180c14     LIBCMT:invarg.obj
 0003:000c4c18       __cflush                   10180c18     LIBCMT:_file.obj
 0003:000c4c1c       ___isa_available           10180c1c     LIBCMT:cpu_disp.obj
 0003:000c4c20       ___favor                   10180c20     LIBCMT:cpu_disp.obj
 0003:000c4c24       ___pPurecall               10180c24     LIBCMT:inithelp.obj
 0003:000c4c28       ?_pnhHeap@@3P6AHI@ZA       10180c28     LIBCMT:handler.obj
 0003:000c4c2c       __stdbuf                   10180c2c     LIBCMT:_sftbuf.obj
 0003:000c4c38       ___pioinfo                 10180c38     LIBCMT:ioinit.obj
 0003:000c4e88       ___app_type                10180e88     LIBCMT:crt0msg.obj
 0003:000c54b8       __maxwait                  101814b8     LIBCMT:crtheap.obj
 0003:000c54bc       ?__pInconsistency@@3P6AXXZA 101814bc     LIBCMT:hooks.obj
 0003:000c54d8       ___mbcodepage              101814d8     LIBCMT:mbctype.obj
 0003:000c54dc       ___ismbcodepage            101814dc     LIBCMT:mbctype.obj
 0003:000c54e0       ___mbulinfo                101814e0     LIBCMT:mbctype.obj
 0003:000c54ec       ___mblocalename            101814ec     LIBCMT:mbctype.obj
 0003:000c54f4       __crtheap                  101814f4     LIBCMT:heapinit.obj
 0003:000c54f8       __newmode                  101814f8     LIBCMT:_newmode.obj
 0003:000c55bc       ?g_OutOfMemoryExceptionCallback@@3P6GPAXXZA 101815bc     LIBCMT:frame.obj
 0003:000c55cc       ___locale_changed          101815cc     LIBCMT:wsetloca.obj
 0003:000c56d8       __outputformat             101816d8     LIBCMT:outputformat.obj
 0003:000c56e0       __commode                  101816e0     LIBCMT:ncommode.obj
 0003:000c56e4       ___error_mode              101816e4     LIBCMT:errmode.obj
 0003:000c56fc       ___lconv_static_null       101816fc     LIBCMT:lconv.obj
 0003:000c5700       ___lconv_static_W_null     10181700     LIBCMT:lconv.obj
 0003:000c5704       ?pArgList@UnDecorator@@0PAVReplicator@@A 10181704     LIBCMT:undname.obj
 0003:000c5708       ?pZNameList@UnDecorator@@0PAVReplicator@@A 10181708     LIBCMT:undname.obj
 0003:000c570c       ?pTemplateArgList@UnDecorator@@0PAVReplicator@@A 1018170c     LIBCMT:undname.obj
 0003:000c5710       ?gName@UnDecorator@@0PBDB  10181710     LIBCMT:undname.obj
 0003:000c5714       ?name@UnDecorator@@0PBDB   10181714     LIBCMT:undname.obj
 0003:000c5718       ?outputString@UnDecorator@@0PADA 10181718     LIBCMT:undname.obj
 0003:000c571c       ?maxStringLength@UnDecorator@@0HA 1018171c     LIBCMT:undname.obj
 0003:000c5720       ?disableFlags@UnDecorator@@0KA 10181720     LIBCMT:undname.obj
 0003:000c5724       ?fExplicitTemplateParams@UnDecorator@@0_NA 10181724     LIBCMT:undname.obj
 0003:000c5725       ?fGetTemplateArgumentList@UnDecorator@@0_NA 10181725     LIBCMT:undname.obj
 0003:000c5728       ?m_pGetParameter@UnDecorator@@0P6APADJ@ZA 10181728     LIBCMT:undname.obj
 0003:000c5740       ?nodes@?1??make@DNameStatusNode@@SAPAV2@W4DNameStatus@@@Z@4PAV2@A 10181740     LIBCMT:undname.obj
 0003:000c5770       ??_B?1??make@DNameStatusNode@@SAPAV1@W4DNameStatus@@@Z@51 10181770     LIBCMT:undname.obj
 0003:000c5774       __fmode                    10181774     LIBCMT:txtmode.obj
 0003:000c5778       ___use_sse2_mathfcns       10181778     <common>
 0003:000c577c       ___unguarded_readlc_active 1018177c     <common>
 0003:000c5780       ___setlc_active            10181780     <common>
 0003:000c5784       __debugger_hook_dummy      10181784     <common>
 0003:000c5788       __pmatherr                 10181788     <common>
 0003:000c57a0       _encodedKERNEL32Functions  101817a0     <common>
 0003:000c5824       __nhandle                  10181824     <common>
 0003:000c5840       __bufin                    10181840     <common>
 0003:000c6840       ___piob                    10182840     <common>
 0003:000c6844       __nstream                  10182844     <common>
 0003:000c6848       __acmdln                   10182848     <common>
 0003:000c684c       ___dyn_tls_init_callback   1018284c     <common>
 0003:000c6850       ___onexitend               10182850     <common>
 0003:000c6854       ___onexitbegin             10182854     <common>
 0003:000c6858       ___mbctype_initialized     10182858     <common>
 0003:000c685c       ___env_initialized         1018285c     <common>

 entry point at        0001:000691b2

 Static symbols

 0000:ffe74000       .debug$S                   10000000     kernel32:KERNEL32.dll
 0001:fffff000       __ehhandler$?RemoveSameTask@CBotTasks@@QAEXABVCBotTask@@@Z 10000000 f   bot_client.obj
 0000:ffe74000       .debug$S                   10000000     kernel32:KERNEL32.dll
 0001:fffff000       __unwindfunclet$??0CGA@@QAE@H@Z$0 10000000 f   bot_nn.obj
 0000:ffe74000       .debug$S                   10000000     kernel32:KERNEL32.dll
 0000:ffe74000       .debug$S                   10000000     kernel32:KERNEL32.dll
 0000:ffe74000       .debug$S                   10000000     kernel32:KERNEL32.dll
 0000:ffe74000       .debug$S                   10000000     kernel32:KERNEL32.dll
 0000:ffe74000       .debug$S                   10000000     kernel32:KERNEL32.dll
 0000:ffe74000       .debug$S                   10000000     kernel32:KERNEL32.dll
 0000:ffe74000       .debug$S                   10000000     kernel32:KERNEL32.dll
 0000:ffe74000       .debug$S                   10000000     kernel32:KERNEL32.dll
 0002:fff66000       __unwindtable$??0CGA@@QAE@H@Z 10000000     bot_nn.obj
 0000:ffe74000       .debug$S                   10000000     kernel32:KERNEL32.dll
 0000:ffe74000       .debug$S                   10000000     kernel32:KERNEL32.dll
 0000:ffe74000       .debug$S                   10000000     kernel32:KERNEL32.dll
 0000:ffe74000       .debug$S                   10000000     kernel32:KERNEL32.dll
 0000:ffe74000       .debug$S                   10000000     kernel32:KERNEL32.dll
 0000:ffe74000       .debug$S                   10000000     kernel32:KERNEL32.dll
 0002:fff66000       __catchsym$?RemoveSameTask@CBotTasks@@QAEXABVCBotTask@@@Z$2 10000000     bot_client.obj
 0000:ffe74000       .debug$S                   10000000     kernel32:KERNEL32.dll
 0000:ffe74000       .debug$S                   10000000     kernel32:KERNEL32.dll
 0000:ffe74000       .debug$S                   10000000     kernel32:KERNEL32.dll
 0000:ffe74000       .debug$S                   10000000     kernel32:KERNEL32.dll
 0000:ffe74000       .debug$S                   10000000     kernel32:KERNEL32.dll
 0000:ffe74000       .debug$S                   10000000     kernel32:KERNEL32.dll
 0000:ffe74000       .debug$S                   10000000     kernel32:KERNEL32.dll
 0000:ffe74000       .debug$S                   10000000     kernel32:KERNEL32.dll
 0000:ffe74000       .debug$S                   10000000     kernel32:KERNEL32.dll
 0000:ffe74000       .debug$S                   10000000     kernel32:KERNEL32.dll
 0000:ffe74000       .debug$S                   10000000     kernel32:KERNEL32.dll
 0000:ffe74000       .debug$S                   10000000     kernel32:KERNEL32.dll
 0000:ffe74000       .debug$S                   10000000     kernel32:KERNEL32.dll
 0000:ffe74000       .debug$S                   10000000     kernel32:KERNEL32.dll
 0000:ffe74000       .debug$S                   10000000     kernel32:KERNEL32.dll
 0000:ffe74000       .debug$S                   10000000     kernel32:KERNEL32.dll
 0001:fffff000       __ehhandler$?_Reallocate@?$vector@VVector@@V?$allocator@VVector@@@std@@@std@@IAEXI@Z 10000000 f   util.obj
 0000:ffe74000       .debug$S                   10000000     kernel32:KERNEL32.dll
 0000:ffe74000       .debug$S                   10000000     kernel32:KERNEL32.dll
 0000:ffe74000       .debug$S                   10000000     kernel32:KERNEL32.dll
 0000:ffe74000       .debug$S                   10000000     kernel32:KERNEL32.dll
 0000:ffe74000       .debug$S                   10000000     kernel32:KERNEL32.dll
 0000:ffe74000       .debug$S                   10000000     kernel32:KERNEL32.dll
 0000:ffe74000       .debug$S                   10000000     kernel32:KERNEL32.dll
 0000:ffe74000       .debug$S                   10000000     kernel32:KERNEL32.dll
 0000:ffe74000       .debug$S                   10000000     kernel32:KERNEL32.dll
 0002:fff66000       ?_System_object$initializer$@?$_Error_objects@H@std@@2P6AXXZA 10000000     libcpmt:syserror.obj
 0002:fff66000       ?_Iostream_object$initializer$@?$_Error_objects@H@std@@2P6AXXZA 10000000     libcpmt:syserror.obj
 0000:ffe74000       .debug$S                   10000000     kernel32:KERNEL32.dll
 0000:ffe74000       .debug$S                   10000000     kernel32:KERNEL32.dll
 0001:fffff000       __unwindfunclet$??0CGA@@QAE@H@Z$0 10000000 f   dll.obj
 0002:fff66000       __catchsym$?_Reallocate@?$vector@VVector@@V?$allocator@VVector@@@std@@@std@@IAEXI@Z$2 10000000     util.obj
 0000:ffe74000       .debug$S                   10000000     kernel32:KERNEL32.dll
 0000:ffe74000       .debug$S                   10000000     kernel32:KERNEL32.dll
 0002:fff66000       ?_Generic_object$initializer$@?$_Error_objects@H@std@@2P6AXXZA 10000000     libcpmt:syserror.obj
 0000:ffe74000       .debug$S                   10000000     kernel32:KERNEL32.dll
 0000:ffe74000       .debug$S                   10000000     kernel32:KERNEL32.dll
 0000:ffe74000       .debug$S                   10000000     kernel32:KERNEL32.dll
 0000:ffe74000       .debug$S                   10000000     kernel32:KERNEL32.dll
 0000:ffe74000       .debug$S                   10000000     kernel32:KERNEL32.dll
 0000:ffe74000       .debug$S                   10000000     kernel32:KERNEL32.dll
 0000:ffe74000       .debug$S                   10000000     kernel32:KERNEL32.dll
 0000:ffe74000       .debug$S                   10000000     kernel32:KERNEL32.dll
 0002:fff66000       __catchsym$?_Copy@?$basic_string@DU?$char_traits@D@std@@V?$allocator@D@2@@std@@QAEXII@Z$5 10000000     libcpmt:syserror.obj
 0000:ffe74000       .debug$S                   10000000     kernel32:KERNEL32.dll
 0000:ffe74000       .debug$S                   10000000     kernel32:KERNEL32.dll
 0000:ffe74000       .debug$S                   10000000     kernel32:KERNEL32.dll
 0000:ffe74000       .debug$S                   10000000     kernel32:KERNEL32.dll
 0000:ffe74000       .debug$S                   10000000     kernel32:KERNEL32.dll
 0000:ffe74000       .debug$S                   10000000     kernel32:KERNEL32.dll
 0000:ffe74000       .debug$S                   10000000     kernel32:KERNEL32.dll
 0000:ffe74000       .debug$S                   10000000     kernel32:KERNEL32.dll
 0000:ffe74000       .debug$S                   10000000     kernel32:KERNEL32.dll
 0000:ffe74000       .debug$S                   10000000     kernel32:KERNEL32.dll
 0000:ffe74000       .debug$S                   10000000     kernel32:KERNEL32.dll
 0000:ffe74000       .debug$S                   10000000     kernel32:KERNEL32.dll
 0000:ffe74000       .debug$S                   10000000     kernel32:KERNEL32.dll
 0000:ffe74000       .debug$S                   10000000     kernel32:KERNEL32.dll
 0000:ffe74000       .debug$S                   10000000     kernel32:KERNEL32.dll
 0000:ffe74000       .debug$S                   10000000     kernel32:KERNEL32.dll
 0000:ffe74000       .debug$S                   10000000     kernel32:KERNEL32.dll
 0001:fffff000       __ehhandler$?_Copy@?$basic_string@DU?$char_traits@D@std@@V?$allocator@D@2@@std@@QAEXII@Z 10000000 f   libcpmt:syserror.obj
 0000:ffe74000       .debug$S                   10000000     kernel32:KERNEL32.dll
 0002:fff66000       __catchsym$?RemoveSameTask@CBotTasks@@QAEXABVCBotTask@@@Z$2 10000000     globals.obj
 0000:ffe74000       .debug$S                   10000000     kernel32:KERNEL32.dll
 0000:ffe74000       .debug$S                   10000000     kernel32:KERNEL32.dll
 0000:ffe74000       .debug$S                   10000000     kernel32:KERNEL32.dll
 0000:ffe74000       .debug$S                   10000000     kernel32:KERNEL32.dll
 0000:ffe74000       .debug$S                   10000000     kernel32:KERNEL32.dll
 0000:ffe74000       .debug$S                   10000000     kernel32:KERNEL32.dll
 0000:ffe74000       .debug$S                   10000000     kernel32:KERNEL32.dll
 0000:ffe74000       .debug$S                   10000000     user32:USER32.dll
 0000:ffe74000       .debug$S                   10000000     kernel32:KERNEL32.dll
 0000:ffe74000       .debug$S                   10000000     kernel32:KERNEL32.dll
 0000:ffe74000       .debug$S                   10000000     kernel32:KERNEL32.dll
 0001:fffff000       __ehhandler$?RemoveSameTask@CBotTasks@@QAEXABVCBotTask@@@Z 10000000 f   globals.obj
 0002:fff66000       __unwindtable$??0CGA@@QAE@H@Z 10000000     dll.obj
 0000:ffe74000       .debug$S                   10000000     kernel32:KERNEL32.dll
 0000:ffe74000       .debug$S                   10000000     kernel32:KERNEL32.dll
 0000:ffe74000       .debug$S                   10000000     kernel32:KERNEL32.dll
 0000:ffe74000       .debug$S                   10000000     kernel32:KERNEL32.dll
 0000:ffe74000       .debug$S                   10000000     kernel32:KERNEL32.dll
 0000:ffe74000       .debug$S                   10000000     kernel32:KERNEL32.dll
 0000:ffe74000       .debug$S                   10000000     kernel32:KERNEL32.dll
 0000:ffe74000       .debug$S                   10000000     kernel32:KERNEL32.dll
 0000:ffe74000       .debug$S                   10000000     kernel32:KERNEL32.dll
 0000:ffe74000       .debug$S                   10000000     kernel32:KERNEL32.dll
 0000:ffe74000       .debug$S                   10000000     kernel32:KERNEL32.dll
 0000:ffe74000       .debug$S                   10000000     kernel32:KERNEL32.dll
 0000:ffe74000       .debug$S                   10000000     kernel32:KERNEL32.dll
 0000:ffe74000       .debug$S                   10000000     kernel32:KERNEL32.dll
 0001:fffff00b       __unwindfunclet$??0CGA@@QAE@H@Z$1 1000000b f   bot_nn.obj
 0001:fffff00b       __unwindfunclet$??0CGA@@QAE@H@Z$1 1000000b f   dll.obj
 0002:fff66010       __unwindtable$?RemoveSameTask@CBotTasks@@QAEXABVCBotTask@@@Z 10000010     bot_client.obj
 0002:fff66010       __catchsym$?_Copy@?$basic_string@DU?$char_traits@D@std@@V?$allocator@D@2@@std@@QAEXII@Z$4 10000010     libcpmt:syserror.obj
 0002:fff66010       __unwindtable$?_Reallocate@?$vector@VVector@@V?$allocator@VVector@@@std@@@std@@IAEXI@Z 10000010     util.obj
 0002:fff66010       __ehfuncinfo$??0CGA@@QAE@H@Z 10000010     bot_nn.obj
 0002:fff66010       __ehfuncinfo$??0CGA@@QAE@H@Z 10000010     dll.obj
 0002:fff66010       __unwindtable$?RemoveSameTask@CBotTasks@@QAEXABVCBotTask@@@Z 10000010     globals.obj
 0001:fffff016       __ehhandler$??0CGA@@QAE@H@Z 10000016 f   bot_nn.obj
 0001:fffff016       __ehhandler$??0CGA@@QAE@H@Z 10000016 f   dll.obj
 0002:fff66020       __unwindtable$?_Copy@?$basic_string@DU?$char_traits@D@std@@V?$allocator@D@2@@std@@QAEXII@Z 10000020     libcpmt:syserror.obj
 0002:fff66020       __tryblocktable$?_Reallocate@?$vector@VVector@@V?$allocator@VVector@@@std@@@std@@IAEXI@Z 10000020     util.obj
 0002:fff66020       __tryblocktable$?RemoveSameTask@CBotTasks@@QAEXABVCBotTask@@@Z 10000020     bot_client.obj
 0002:fff66020       __tryblocktable$?RemoveSameTask@CBotTasks@@QAEXABVCBotTask@@@Z 10000020     globals.obj
 0002:fff66034       __ehfuncinfo$?_Reallocate@?$vector@VVector@@V?$allocator@VVector@@@std@@@std@@IAEXI@Z 10000034     util.obj
 0002:fff66034       __ehfuncinfo$?RemoveSameTask@CBotTasks@@QAEXABVCBotTask@@@Z 10000034     globals.obj
 0002:fff66034       __ehfuncinfo$?RemoveSameTask@CBotTasks@@QAEXABVCBotTask@@@Z 10000034     bot_client.obj
 0002:fff66040       __ehfuncinfo$?_Copy@?$basic_string@DU?$char_traits@D@std@@V?$allocator@D@2@@std@@QAEXII@Z 10000040     libcpmt:syserror.obj
 0001:fffff063       __catch$?_Copy@?$basic_string@DU?$char_traits@D@std@@V?$allocator@D@2@@std@@QAEXII@Z$0 10000063 f   libcpmt:syserror.obj
 0001:fffff064       $LN19                      10000064     client.obj
 0002:fff66064       __tryblocktable$?_Copy@?$basic_string@DU?$char_traits@D@std@@V?$allocator@D@2@@std@@QAEXII@Z 10000064     libcpmt:syserror.obj
 0001:fffff096       __catch$?RemoveSameTask@CBotTasks@@QAEXABVCBotTask@@@Z$0 10000096 f   bot_client.obj
 0001:fffff096       __catch$?RemoveSameTask@CBotTasks@@QAEXABVCBotTask@@@Z$0 10000096 f   globals.obj
 0001:fffff0b0       $LN16                      100000b0     bot_menu.obj
 0001:fffff0ce       __catch$?_Reallocate@?$vector@VVector@@V?$allocator@VVector@@@std@@@std@@IAEXI@Z$0 100000ce f   util.obj
 0001:fffff0e2       __catch$?_Copy@?$basic_string@DU?$char_traits@D@std@@V?$allocator@D@2@@std@@QAEXII@Z$1 100000e2 f   libcpmt:syserror.obj
 0001:fffff1c4       $LN91                      100001c4     globals.obj
 0001:fffff1ec       $LN84                      100001ec     globals.obj
 0001:fffff264       $LN89                      10000264     client.obj
 0001:00000000       ??__EgBotGlobals@@YAXXZ    10001000 f   dll.obj
 0001:00000020       ??__EWaypointVisibility@@YAXXZ 10001020 f   waypoint.obj
 0001:00000040       ??__Ewaypoints@@YAXXZ      10001040 f   waypoint.obj
 0001:0000005d       ??__E?_Generic_object@?$_Error_objects@H@std@@2V_Generic_error_category@2@A@@YAXXZ 1000105d f   libcpmt:xthrow.obj
 0001:00000069       ??__E?_Iostream_object@?$_Error_objects@H@std@@2V_Iostream_error_category@2@A@@YAXXZ 10001069 f   libcpmt:xthrow.obj
 0001:00000075       ??__E?_System_object@?$_Error_objects@H@std@@2V_System_error_category@2@A@@YAXXZ 10001075 f   libcpmt:xthrow.obj
 0001:00000081       ??__E?_Generic_object@?$_Error_objects@H@std@@2V_Generic_error_category@2@A@@YAXXZ 10001081 f   libcpmt:syserror.obj
 0001:0000008d       ??__E?_Iostream_object@?$_Error_objects@H@std@@2V_Iostream_error_category@2@A@@YAXXZ 1000108d f   libcpmt:syserror.obj
 0001:00000099       ??__E?_System_object@?$_Error_objects@H@std@@2V_System_error_category@2@A@@YAXXZ 10001099 f   libcpmt:syserror.obj
 0001:00003700       $LN71                      10004700     bot.obj
 0001:00003b2c       $LN93                      10004b2c     bot.obj
 0001:00003b48       $LN91                      10004b48     bot.obj
 0001:00004824       $LN208                     10005824     bot.obj
 0001:000053b8       $LN132                     100063b8     bot.obj
 0001:00005778       $LN19                      10006778     bot.obj
 0001:00005794       $LN17                      10006794     bot.obj
 0001:00005834       $LN13                      10006834     bot.obj
 0001:0000583c       $LN11                      1000683c     bot.obj
 0001:000064d4       $LN50                      100074d4     bot.obj
 0001:00006f8c       $LN18                      10007f8c     bot.obj
 0001:00006fac       $LN19                      10007fac     bot.obj
 0001:00006fc0       $LN15                      10007fc0     bot.obj
 0001:0000e5b4       $LN2654                    1000f5b4     bot.obj
 0001:0000ee70       $LN9                       1000fe70     bot.obj
 0001:0000ee78       $LN7                       1000fe78     bot.obj
 0001:00010d44       $LN194                     10011d44     bot.obj
 0001:000113ac       $LN128                     100123ac     bot.obj
 0001:00012008       $LN98                      10013008     bot.obj
 0001:00012024       $LN93                      10013024     bot.obj
 0001:00013144       $LN202                     10014144     bot.obj
 0001:00013178       $LN203                     10014178     bot.obj
 0001:00013188       $LN185                     10014188     bot.obj
 0001:000189ec       $LN1213                    100199ec     bot.obj
 0001:00018a18       $LN1214                    10019a18     bot.obj
 0001:00018a4c       $LN1215                    10019a4c     bot.obj
 0001:00018a60       $LN1216                    10019a60     bot.obj
 0001:00018a70       $LN1217                    10019a70     bot.obj
 0001:00018a88       $LN1218                    10019a88     bot.obj
 0001:00018aac       $LN1219                    10019aac     bot.obj
 0001:00018ac4       $LN1139                    10019ac4     bot.obj
 0001:00018ad0       $LN1220                    10019ad0     bot.obj
 0001:00018ec0       $LN22                      10019ec0     bot.obj
 0001:00018ed8       $LN18                      10019ed8     bot.obj
 0001:000198b6       __catch$?RemoveSameTask@CBotTasks@@QAEXABVCBotTask@@@Z$0 1001a8b6 f i bot.obj
 0001:0001a680       $LN16                      1001b680     bot.obj
 0001:0001bfc4       $LN91                      1001cfc4     bot.obj
 0001:0001deb8       $LN523                     1001eeb8     bot.obj
 0001:0001decc       $LN496                     1001eecc     bot.obj
 0001:0001e384       $LN91                      1001f384     bot.obj
 0001:0001e3ac       $LN84                      1001f3ac     bot.obj
 0001:00020964       $LN464                     10021964     bot.obj
 0001:00020974       $LN465                     10021974     bot.obj
 0001:00022278       $LN110                     10023278     bot.obj
 0001:000229cc       __catch$?_Reallocate@?$vector@VCActionUtility@@V?$allocator@VCActionUtility@@@std@@@std@@IAEXI@Z$0 100239cc f i bot.obj
 0001:00022abf       __catch$?_Reallocate@?$vector@VCRememberPosition@@V?$allocator@VCRememberPosition@@@std@@@std@@IAEXI@Z$0 10023abf f i bot.obj
 0001:000232e4       $LN89                      100242e4     bot.obj
 0001:00024864       $LN19                      10025864     bot.obj
 0001:000253c0       $LN18                      100263c0     bot.obj
 0001:00026970       _localtime                 10027970 f   bot.obj
 0001:00026a00       _time                      10027a00 f   bot.obj
 0001:0002946b       __catch$?_Reallocate@?$vector@VCBotNSTech@@V?$allocator@VCBotNSTech@@@std@@@std@@IAEXI@Z$0 1002a46b f i bot_client.obj
 0001:0002954f       __catch$?_Reallocate@?$vector@VTSObjective@@V?$allocator@VTSObjective@@@std@@@std@@IAEXI@Z$0 1002a54f f i bot_client.obj
 0001:00029b80       $LN33                      1002ab80     bot_client.obj
 0001:00029b9c       $LN29                      1002ab9c     bot_client.obj
 0001:00029f04       $LN43                      1002af04     bot_client.obj
 0001:0002a048       $LN28                      1002b048     bot_client.obj
 0001:0002aef4       $LN26                      1002bef4     bot_client.obj
 0001:0002bd94       $LN174                     1002cd94     bot_client.obj
 0001:0002bda8       $LN175                     1002cda8     bot_client.obj
 0001:0002bed8       $LN20                      1002ced8     bot_client.obj
 0001:0002c01e       __catch$?execute@BotClient_TS_ClipInfo@@UAEXPAXH@Z$0 1002d01e f   bot_client.obj
 0001:0002c2b8       $LN27                      1002d2b8     bot_client.obj
 0001:0002c560       $LN24                      1002d560     bot_client.obj
 0001:000349d8       $LN98                      100359d8     bot_menu.obj
 0001:0003bcae       __catch$?_Reallocate@?$vector@VVector@@V?$allocator@VVector@@@std@@@std@@IAEXI@Z$0 1003ccae f i bot_navigate.obj
 0001:000449dc       $LN585                     100459dc     client.obj
 0001:00044b80       $LN18                      10045b80     client.obj
 0001:00048c04       $LN28                      10049c04     dll.obj
 0001:0004a44c       $LN400                     1004b44c     dll.obj
 0001:00051a3c       $LN101                     10052a3c     globals.obj
 0001:00051a58       $LN97                      10052a58     globals.obj
 0001:00052fcc       $LN22                      10053fcc     globals.obj
 0001:00053468       __catch$?UpdateAngles@CBotSquads@@QAEXXZ$0 10054468 f i globals.obj
 0001:00053cf0       _stat                      10054cf0 f   globals.obj
 0001:00056730       $LN61                      10057730     megahal.obj
 0001:0005a6e4       $LN8                       1005b6e4     util.obj
 0001:0005ab6c       $LN16                      1005bb6c     util.obj
 0001:0005c488       $LN32                      1005d488     util.obj
 0001:0005c49c       $LN30                      1005d49c     util.obj
 0001:0005ce48       $LN16                      1005de48     util.obj
 0001:00061ccf       __catch$?_Copy@?$basic_string@DU?$char_traits@D@std@@V?$allocator@D@2@@std@@QAEXII@Z$0 10062ccf f i libcpmt:xthrow.obj
 0001:00061d4e       __catch$?_Copy@?$basic_string@DU?$char_traits@D@std@@V?$allocator@D@2@@std@@QAEXII@Z$1 10062d4e f i libcpmt:xthrow.obj
 0001:00061ebf       $LN22                      10062ebf     libcpmt:xthrow.obj
 0001:00062b0f       __hypothlp                 10063b0f f   LIBCMT:hypot.obj
 0001:00062d70       $$000000                   10063d70     LIBCMT:memcpy.obj
 0001:00062fc0       LeadUpVec                  10063fc0     LIBCMT:memcpy.obj
 0001:0006303c       UnwindUpVec                1006403c     LIBCMT:memcpy.obj
 0001:000630a8       TrailUpVec                 100640a8     LIBCMT:memcpy.obj
 0001:0006314c       LeadDownVec                1006414c     LIBCMT:memcpy.obj
 0001:000631d8       UnwindDownVec              100641d8     LIBCMT:memcpy.obj
 0001:00063244       TrailDownVec               10064244     LIBCMT:memcpy.obj
 0001:000633c0       $$000000                   100643c0     LIBCMT:memset.obj
 0001:00063580       $$000000                   10064580     LIBCMT:memmove.obj
 0001:000637d0       LeadUpVec                  100647d0     LIBCMT:memmove.obj
 0001:0006384c       UnwindUpVec                1006484c     LIBCMT:memmove.obj
 0001:000638b8       TrailUpVec                 100648b8     LIBCMT:memmove.obj
 0001:0006395c       LeadDownVec                1006495c     LIBCMT:memmove.obj
 0001:000639e8       UnwindDownVec              100649e8     LIBCMT:memmove.obj
 0001:00063a54       TrailDownVec               10064a54     LIBCMT:memmove.obj
 0001:00063bd0       $$000000                   10064bd0     LIBCMT:strncmp.obj
 0001:00063c50       $$000000                   10064c50     LIBCMT:strncpy.obj
 0001:00063d80       $$000000                   10064d80     LIBCMT:strstr.obj
 0001:00064599       _vscan_fn                  10065599 f   LIBCMT:sscanf.obj
 0001:00064bdc       __initterm                 10065bdc f   LIBCMT:crt0dat.obj
 0001:00064c46       _doexit                    10065c46 f   LIBCMT:crt0dat.obj
 0001:0006560d       ?CatchGuardHandler@@YA?AW4_EXCEPTION_DISPOSITION@@PAUEHExceptionRecord@@PAUCatchGuardRN@@PAX2@Z 1006660d f   LIBCMT:_trnsctrl_.obj
 0001:0006563e       ?TranslatorGuardHandler@@YA?AW4_EXCEPTION_DISPOSITION@@PAUEHExceptionRecord@@PAUTranslatorGuardRN@@PAX2@Z 1006663e f   LIBCMT:_trnsctrl_.obj
 0001:00065a90       $$000000                   10066a90     LIBCMT:chkstk.obj
 0001:00065ac0       $$000000                   10066ac0     LIBCMT:cos_sse2_precise.obj
 0001:00065c80       $$000000                   10066c80     LIBCMT:pow_sse2_precise.obj
 0001:000667f0       $$000000                   100677f0     LIBCMT:sin_sse2_precise.obj
 0001:000669c0       $$000000                   100679c0     LIBCMT:sqrt_sse2_precise.obj
 0001:00067330       _flsall                    10068330 f   LIBCMT:fflush.obj
 0001:00067b32       ?ArrayUnwindFilter@@YAHPAU_EXCEPTION_POINTERS@@@Z 10068b32 f   LIBCMT:ehvecdtr.obj
 0001:00067c1c       __onexit_nolock            10068c1c f   LIBCMT:onexit.obj
 0001:00068850       $$000000                   10069850     LIBCMT:exp_sse2_precise.obj
 0001:00068b20       $$000000                   10069b20     LIBCMT:acos_sse2_precise.obj
 0001:000691d5       ___DllMainCRTStartup       1006a1d5 f   LIBCMT:dllcrt0.obj
 0001:00069310       $$000000                   1006a310     LIBCMT:strlen.obj
 0001:0006a610       $$000000                   1006b610     LIBCMT:sehprolg4.obj
 0001:0006a670       _ValidateLocalCookies      1006b670 f   LIBCMT:chandler4.obj
 0001:0006c15d       $LN277                     1006d15d     LIBCMT:output.obj
 0001:0006c1b1       _write_char                1006d1b1 f   LIBCMT:output.obj
 0001:0006c1f9       _write_multi_char          1006d1f9 f   LIBCMT:output.obj
 0001:0006c225       _write_string              1006d225 f   LIBCMT:output.obj
 0001:0006c2a0       $$000000                   1006d2a0     LIBCMT:sqrt.obj
 0001:0006c6fd       __get_fname                1006d6fd f   LIBCMT:fpexcept.obj
 0001:0006d607       __cftoe2_l                 1006e607 f   LIBCMT:cvt.obj
 0001:0006d841       __cftof2_l                 1006e841 f   LIBCMT:cvt.obj
 0001:0006dc95       __shift                    1006ec95 f   LIBCMT:cvt.obj
 0001:0006dfd0       $$000000                   1006efd0     LIBCMT:strchr.obj
 0001:0006e640       $$000000                   1006f640     LIBCMT:exsup4.obj
 0001:0006e6d0       __unwind_handler4          1006f6d0 f   LIBCMT:exsup4.obj
 0001:0006ee6d       ___check_float_string      1006fe6d f   LIBCMT:input.obj
 0001:0006eecc       __hextodec                 1006fecc f   LIBCMT:input.obj
 0001:0006eeed       __inc                      1006feed f   LIBCMT:input.obj
 0001:0007005e       __un_inc                   1007105e f   LIBCMT:input.obj
 0001:0007006f       __whiteout                 1007106f f   LIBCMT:input.obj
 0001:0007009d       ___check_float_string      1007109d f   LIBCMT:inputs.obj
 0001:000700fc       __hextodec                 100710fc f   LIBCMT:inputs.obj
 0001:0007011d       __inc                      1007111d f   LIBCMT:inputs.obj
 0001:000713ee       __un_inc                   100723ee f   LIBCMT:inputs.obj
 0001:000713ff       __whiteout                 100723ff f   LIBCMT:inputs.obj
 0001:00072745       $LN736                     10073745     LIBCMT:outputp.obj
 0001:000728ae       _write_char                100738ae f   LIBCMT:outputp.obj
 0001:000728f6       _write_multi_char          100738f6 f   LIBCMT:outputp.obj
 0001:00072922       _write_string              10073922 f   LIBCMT:outputp.obj
 0001:00072b79       ___IsPackagedAppHelper     10073b79 f   LIBCMT:winapisupp.obj
 0001:0007376a       _ctrlevent_capture@4       1007476a f   LIBCMT:winsig.obj
 0001:000739ca       _siglookup                 100749ca f   LIBCMT:winsig.obj
 0001:00073d8c       ?CPtoLocaleName@@YAPB_WH@Z 10074d8c f   LIBCMT:mbctype.obj
 0001:00073dc6       ?getSystemCP@@YAHH@Z       10074dc6 f   LIBCMT:mbctype.obj
 0001:00073e34       ?setSBCS@@YAXPAUthreadmbcinfostruct@@@Z 10074e34 f   LIBCMT:mbctype.obj
 0001:00073e93       ?setSBUpLow@@YAXPAUthreadmbcinfostruct@@@Z 10074e93 f   LIBCMT:mbctype.obj
 0001:00074bab       ?_W_expandtime@@YAHPAUlocaleinfo_struct@@_WPBUtm@@PAPA_WPAIPAU__lc_time_data@@I@Z 10075bab f   LIBCMT:wcsftime.obj
 0001:000750d1       ?_W_store_num@@YAXHHPAPA_WPAII@Z 100760d1 f   LIBCMT:wcsftime.obj
 0001:00075140       ?_W_store_number@@YAXHPAPA_WPAI@Z 10076140 f   LIBCMT:wcsftime.obj
 0001:00075196       ?_W_store_str@@YAXPA_WPAPA_WPAI@Z 10076196 f   LIBCMT:wcsftime.obj
 0001:000751c4       ?_W_store_winword@@YAHPAUlocaleinfo_struct@@HPBUtm@@PAPA_WPAIPAU__lc_time_data@@@Z 100761c4 f   LIBCMT:wcsftime.obj
 0001:000764dd       __isindst_nolock           100774dd f   LIBCMT:tzset.obj
 0001:00076726       __tzset_nolock             10077726 f   LIBCMT:tzset.obj
 0001:00076a58       _cvtdate                   10077a58 f   LIBCMT:tzset.obj
 0001:00076dd0       $$000000                   10077dd0     LIBCMT:lldiv.obj
 0001:00076e80       $$000000                   10077e80     LIBCMT:llrem.obj
 0001:00076f40       $$000000                   10077f40     LIBCMT:ulldiv.obj
 0001:00076fb0       $$000000                   10077fb0     LIBCMT:lowhelpr.obj
 0001:000770ef       ?CallCatchBlock@@YAPAXPAUEHExceptionRecord@@PAUEHRegistrationNode@@PAU_CONTEXT@@PBU_s_FuncInfo@@PAXHK@Z 100780ef f   LIBCMT:frame.obj
 0001:000772b5       ?CallUnexpected@@YAXPBU_s_ESTypeList@@@Z 100782b5 f   LIBCMT:frame.obj
 0001:000772dd       __catch$?CallUnexpected@@YAXPBU_s_ESTypeList@@@Z$0 100782dd f   LIBCMT:frame.obj
 0001:000772f5       ?CatchIt@@YAXPAUEHExceptionRecord@@PAUEHRegistrationNode@@PAU_CONTEXT@@PAXPBU_s_FuncInfo@@PBU_s_HandlerType@@PBU_s_CatchableType@@PBU_s_TryBlockMapEntry@@H1E@Z 100782f5 f   LIBCMT:frame.obj
 0001:00077370       ?ExFilterRethrow@@YAHPAU_EXCEPTION_POINTERS@@@Z 10078370 f   LIBCMT:frame.obj
 0001:000773bd       ?FindHandler@@YAXPAUEHExceptionRecord@@PAUEHRegistrationNode@@PAU_CONTEXT@@PAXPBU_s_FuncInfo@@EH1@Z 100783bd f   LIBCMT:frame.obj
 0001:0007775a       ?FindHandlerForForeignException@@YAXPAUEHExceptionRecord@@PAUEHRegistrationNode@@PAU_CONTEXT@@PAXPBU_s_FuncInfo@@HH1@Z 1007875a f   LIBCMT:frame.obj
 0001:00077876       ?IsInExceptionSpec@@YAEPAUEHExceptionRecord@@PBU_s_ESTypeList@@@Z 10078876 f   LIBCMT:frame.obj
 0001:000778fe       ?Is_bad_exception_allowed@@YAEPBU_s_ESTypeList@@@Z 100788fe f   LIBCMT:frame.obj
 0001:000782c0       $$000000                   100792c0     LIBCMT:cos.obj
 0001:00078699       $LN79                      10079699     LIBCMT:libm_error.obj
 0001:00078700       $$000000                   10079700     LIBCMT:pow.obj
 0001:00078990       $$000000                   10079990     LIBCMT:sin.obj
 0001:00078ac0       $$000000                   10079ac0     LIBCMT:strcmp.obj
 0001:00079dd0       $LN333                     1007add0     LIBCMT:strgtold.obj
 0001:00079ee0       ?strtoxq@@YA_KPAUlocaleinfo_struct@@PBDPAPBDHH@Z 1007aee0 f   LIBCMT:strtoq.obj
 0001:0007a273       ?strtoxl@@YAKPAUlocaleinfo_struct@@PBDPAPBDHH@Z 1007b273 f   LIBCMT:strtol.obj
 0001:0007a942       _IsRootUNCName             1007b942 f   LIBCMT:wstati32.obj
 0001:0007a9ed       __wfullpath_helper         1007b9ed f   LIBCMT:wstati32.obj
 0001:0007b191       __copytlocinfo_nolock      1007c191 f   LIBCMT:wsetloca.obj
 0001:0007b90f       __wsetlocale_get_all       1007c90f f   LIBCMT:wsetloca.obj
 0001:0007ba7c       __wsetlocale_nolock        1007ca7c f   LIBCMT:wsetloca.obj
 0001:0007bd05       __wsetlocale_set_cat       1007cd05 f   LIBCMT:wsetloca.obj
 0001:0007c0af       _sync_legacy_variables_lk  1007d0af f   LIBCMT:wsetloca.obj
 0001:0007c38b       ?__crtLCMapStringA_stat@@YAHPAUlocaleinfo_struct@@PB_WKPBDHPADHHH@Z 1007d38b f   LIBCMT:a_map.obj
 0001:0007c58f       ?strncnt@@YAHPBDH@Z        1007d58f f   LIBCMT:a_map.obj
 0001:0007c600       $$000000                   1007d600     LIBCMT:87ctran.obj
 0001:0007c690       $$000000                   1007d690     LIBCMT:acos.obj
 0001:0007c94f       _xcptlookup                1007d94f f   LIBCMT:winxfltr.obj
 0001:0007ca43       _parse_cmdline             1007da43 f   LIBCMT:stdargv.obj
 0001:0007e0fa       $LN296                     1007f0fa     LIBCMT:outputs.obj
 0001:0007e11a       _write_char                1007f11a f   LIBCMT:outputs.obj
 0001:0007e162       _write_multi_char          1007f162 f   LIBCMT:outputs.obj
 0001:0007e18e       _write_string              1007f18e f   LIBCMT:outputs.obj
 0001:0007e3d0       $$000000                   1007f3d0     LIBCMT:ulldvrm.obj
 0001:0007e470       $$000000                   1007f470     LIBCMT:87disp.obj
 0001:0007e640       $$000000                   1007f640     LIBCMT:genexcep.obj
 0001:0007e6a0       $$000000                   1007f6a0     LIBCMT:common.obj
 0001:0007e830       $$000000                   1007f830     LIBCMT:strrchr.obj
 0001:0007ed90       $$000000                   1007fd90     LIBCMT:lldvrm.obj
 0001:0007ee70       $$000000                   1007fe70     LIBCMT:ullshr.obj
 0001:0007efd1       ?__crtGetLocaleInfoA_stat@@YAHPAUlocaleinfo_struct@@PB_WKPADH@Z 1007ffd1 f   LIBCMT:a_loc.obj
 0001:0007f264       ___crtEnumLocalesProc@4    10080264 f   LIBCMT:winapinls.obj
 0001:0007f990       $$000000                   10080990     LIBCMT:exsup.obj
 0001:0007f9b0       __unwind_handler           100809b0 f   LIBCMT:exsup.obj
 0001:0007fc20       $$000000                   10080c20     LIBCMT:llmul.obj
 0001:0008012a       ?__crtGetStringTypeA_stat@@YAHPAUlocaleinfo_struct@@KPBDHPAGHH@Z 1008112a f   LIBCMT:a_str.obj
 0001:000806ff       _fix_grouping              100816ff f   LIBCMT:initmon.obj
 0001:000809a4       _fix_grouping              100819a4 f   LIBCMT:initnum.obj
 0001:00080dd8       __get_lc_time              10081dd8 f   LIBCMT:inittime.obj
 0001:000819f0       $$000000                   100829f0     LIBCMT:alloca16.obj
 0001:00081b22       __dupenv_s_helper          10082b22 f   LIBCMT:getenv.obj
 0001:00081c42       __getenv_s_helper          10082c42 f   LIBCMT:getenv.obj
 0001:000822e0       $$000000                   100832e0     LIBCMT:cos_pentium4.obj
 0001:00082490       $$000000                   10083490     LIBCMT:pow_pentium4.obj
 0001:00082ff0       $$000000                   10083ff0     LIBCMT:87tran.obj
 0001:00083390       $$000000                   10084390     LIBCMT:sin_pentium4.obj
 0001:000856cb       $LN113                     100866cb     LIBCMT:undname.obj
 0001:000856e3       $LN105                     100866e3     LIBCMT:undname.obj
 0001:00086443       $LN27                      10087443     LIBCMT:undname.obj
 0001:00088ac5       $LN129                     10089ac5     LIBCMT:undname.obj
 0001:000890c2       ?und_memcpy@@YAXPADPBDI@Z  1008a0c2 f   LIBCMT:undname.obj
 0001:000890e1       ?und_strlen@@YAIPBD@Z      1008a0e1 f   LIBCMT:undname.obj
 0001:000890f6       ?und_strncmp@@YAIPBD0I@Z   1008a0f6 f   LIBCMT:undname.obj
 0001:0008b2ac       ___createFile              1008c2ac f   LIBCMT:wopen.obj
 0001:0008bc51       _IsRootUNCName             1008cc51 f   LIBCMT:wstat.obj
 0001:0008bdbd       __wfullpath_helper         1008cdbd f   LIBCMT:wstat.obj
 0001:0008c26d       _cmpBYTE                   1008d26d f   LIBCMT:memcmp.obj
 0001:0008c292       _cmpDWORD                  1008d292 f   LIBCMT:memcmp.obj
 0001:0008c31d       _cmpResult                 1008d31d f   LIBCMT:memcmp.obj
 0001:0008c339       _cmpWORD                   1008d339 f   LIBCMT:memcmp.obj
 0001:0008da82       $LN1281                    1008ea82     LIBCMT:memcmp.obj
 0001:0008db02       _unaligned_memcmp          1008eb02 f   LIBCMT:memcmp.obj
 0001:0008f21e       $LN1269                    1009021e     LIBCMT:memcmp.obj
 0001:0008f37c       _GetLocaleNameFromDefault  1009037c f   LIBCMT:getqloc.obj
 0001:0008f3f5       _GetLocaleNameFromLangCountry 100903f5 f   LIBCMT:getqloc.obj
 0001:0008f469       _GetLocaleNameFromLanguage 10090469 f   LIBCMT:getqloc.obj
 0001:0008f4b3       _GetPrimaryLen             100904b3 f   LIBCMT:getqloc.obj
 0001:0008f4e5       _LangCountryEnumProcEx@12  100904e5 f   LIBCMT:getqloc.obj
 0001:0008f705       _LanguageEnumProcEx@12     10090705 f   LIBCMT:getqloc.obj
 0001:0008f7b8       _ProcessCodePage           100907b8 f   LIBCMT:getqloc.obj
 0001:0008f84d       _TestDefaultCountry        1009084d f   LIBCMT:getqloc.obj
 0001:0008f899       _TestDefaultLanguage       10090899 f   LIBCMT:getqloc.obj
 0001:0008f8d4       _TranslateName             100908d4 f   LIBCMT:getqloc.obj
 0001:0008fb02       _CountryEnumProc@4         10090b02 f   LIBCMT:getqloc_downlevel.obj
 0001:0008fbb2       _GetLcidFromCountry        10090bb2 f   LIBCMT:getqloc_downlevel.obj
 0001:0008fbf2       _GetLcidFromDefault        10090bf2 f   LIBCMT:getqloc_downlevel.obj
 0001:0008fc0e       _GetLcidFromLangCountry    10090c0e f   LIBCMT:getqloc_downlevel.obj
 0001:0008fc8b       _GetLcidFromLanguage       10090c8b f   LIBCMT:getqloc_downlevel.obj
 0001:0008fce4       _GetPrimaryLen             10090ce4 f   LIBCMT:getqloc_downlevel.obj
 0001:0008fd0e       _LangCountryEnumProc@4     10090d0e f   LIBCMT:getqloc_downlevel.obj
 0001:0008ff03       _LanguageEnumProc@4        10090f03 f   LIBCMT:getqloc_downlevel.obj
 0001:0008ffde       _LcidFromHexString         10090fde f   LIBCMT:getqloc_downlevel.obj
 0001:0009002d       _ProcessCodePage           1009102d f   LIBCMT:getqloc_downlevel.obj
 0001:000900b8       _TestDefaultCountry        100910b8 f   LIBCMT:getqloc_downlevel.obj
 0001:000900da       _TestDefaultLanguage       100910da f   LIBCMT:getqloc_downlevel.obj
 0001:00090144       _TranslateName             10091144 f   LIBCMT:getqloc_downlevel.obj
 0001:00090440       $$000000                   10091440     LIBCMT:exp_pentium4.obj
 0001:00090700       $$000000                   10091700     LIBCMT:87cdisp.obj
 0001:00090980       $$000000                   10091980     LIBCMT:acos_pentium4.obj
 0001:00090ed4       ?x_ismbbtype_l@@YAHPAUlocaleinfo_struct@@IHH@Z 10091ed4 f   LIBCMT:ismbbyte.obj
 0001:00091cbb       ___abstract_cw_sse2        10092cbb f   LIBCMT:ieee87.obj
 0001:00091d64       ___abstract_sw_sse2        10092d64 f   LIBCMT:ieee87.obj
 0001:00091da5       ___clearfp_sse2            10092da5 f   LIBCMT:ieee87.obj
 0001:0009210f       ___control87_sse2          1009310f f   LIBCMT:ieee87.obj
 0001:00092292       ___fpreset_sse2            10093292 f   LIBCMT:ieee87.obj
 0001:0009229e       ___hw_cw_sse2              1009329e f   LIBCMT:ieee87.obj
 0001:00092347       ___statusfp_sse2           10093347 f   LIBCMT:ieee87.obj
 0001:00092388       __abstract_cw              10093388 f   LIBCMT:ieee87.obj
 0001:00092427       __abstract_sw              10093427 f   LIBCMT:ieee87.obj
 0001:00092b8c       __hw_cw                    10093b8c f   LIBCMT:ieee87.obj
 0001:00093590       $$000000                   10094590     LIBCMT:sehprolg4gs.obj
 0001:00094261       @x64tow_s@24               10095261 f   LIBCMT:xtows.obj
 0001:00094434       _xtow_s@20                 10095434 f   LIBCMT:xtows.obj
 0001:00094820       $$000000                   10095820     LIBCMT:_strnicm.obj
 0001:00094ac9       _copy_environ              10095ac9 f   LIBCMT:setenv.obj
 0001:00094b29       _findenv                   10095b29 f   LIBCMT:setenv.obj
 0001:00094c70       ?__crtCompareStringA_stat@@YAHPAUlocaleinfo_struct@@PB_WKPBDH2HH@Z 10095c70 f   LIBCMT:a_cmp.obj
 0001:00094ef4       ?strncnt@@YAHPBDH@Z        10095ef4 f   LIBCMT:a_cmp.obj
 0001:000952f0       ?wcstoxl@@YAKPB_WPAPB_WHH@Z 100962f0 f   LIBCMT:wcstol.obj
 0001:00095531       ?wcstoxq@@YA_KPAUlocaleinfo_struct@@PB_WPAPB_WHH@Z 10096531 f   LIBCMT:wcstoq.obj
 0001:00096682       $LN323                     10097682     LIBCMT:wstrgtold.obj
 0001:000969f0       __unwindfunclet$??0CGA@@QAE@H@Z$0 100979f0 f   bot.obj
 0001:000969fb       __unwindfunclet$??0CGA@@QAE@H@Z$1 100979fb f   bot.obj
 0001:00096a06       __ehhandler$??0CGA@@QAE@H@Z 10097a06 f   bot.obj
 0001:00096a30       __unwindfunclet$?AddSquadMember@CBotSquads@@QAEPAVCBotSquad@@PAUedict_s@@0@Z$0 10097a30 f   bot.obj
 0001:00096a3e       __ehhandler$?AddSquadMember@CBotSquads@@QAEPAVCBotSquad@@PAUedict_s@@0@Z 10097a3e f   bot.obj
 0001:00096a70       __unwindfunclet$?BotEvent@CBot@@QAEXW4eBotEvent@@PAUedict_s@@1PAM@Z$0 10097a70 f   bot.obj
 0001:00096a78       __unwindfunclet$?BotEvent@CBot@@QAEXW4eBotEvent@@PAUedict_s@@1PAM@Z$1 10097a78 f   bot.obj
 0001:00096a80       __ehhandler$?BotEvent@CBot@@QAEXW4eBotEvent@@PAUedict_s@@1PAM@Z 10097a80 f   bot.obj
 0001:00096aa0       __unwindfunclet$?BotFunc_FindRandomEntity@@YAPAUedict_s@@PAD@Z$0 10097aa0 f   bot.obj
 0001:00096aa8       __ehhandler$?BotFunc_FindRandomEntity@@YAPAUedict_s@@PAD@Z 10097aa8 f   bot.obj
 0001:00096ad0       __unwindfunclet$?BotFunc_GetRandomPlayerName@@YAPBDPAVCBot@@H@Z$0 10097ad0 f   bot.obj
 0001:00096ad8       __ehhandler$?BotFunc_GetRandomPlayerName@@YAPBDPAVCBot@@H@Z 10097ad8 f   bot.obj
 0001:00096b00       __unwindfunclet$?BotFunc_GetStructureForGorgeBuild@@YAHPAUentvars_s@@0@Z$0 10097b00 f   bot.obj
 0001:00096b08       __ehhandler$?BotFunc_GetStructureForGorgeBuild@@YAHPAUentvars_s@@0@Z 10097b08 f   bot.obj
 0001:00096b30       __unwindfunclet$?DoTasks@CBot@@AAEXXZ$0 10097b30 f   bot.obj
 0001:00096b3b       __unwindfunclet$?DoTasks@CBot@@AAEXXZ$2 10097b3b f   bot.obj
 0001:00096b46       __unwindfunclet$?DoTasks@CBot@@AAEXXZ$1 10097b46 f   bot.obj
 0001:00096b51       __ehhandler$?DoTasks@CBot@@AAEXXZ 10097b51 f   bot.obj
 0001:00096b80       __unwindfunclet$?LookForNewTasks@CBot@@QAEXXZ$0 10097b80 f   bot.obj
 0001:00096b88       __unwindfunclet$?LookForNewTasks@CBot@@QAEXXZ$1 10097b88 f   bot.obj
 0001:00096b90       __unwindfunclet$?LookForNewTasks@CBot@@QAEXXZ$2 10097b90 f   bot.obj
 0001:00096b98       __ehhandler$?LookForNewTasks@CBot@@QAEXXZ 10097b98 f   bot.obj
 0001:00096bc0       __ehhandler$?RemoveSameTask@CBotTasks@@QAEXABVCBotTask@@@Z 10097bc0 f   bot.obj
 0001:00096be0       __unwindfunclet$?UpdateVisibles@CBot@@QAEHXZ$0 10097be0 f   bot.obj
 0001:00096beb       __ehhandler$?UpdateVisibles@CBot@@QAEHXZ 10097beb f   bot.obj
 0001:00096c10       __unwindfunclet$?WantToFollowEnemy@CBot@@QAEHPAUedict_s@@@Z$0 10097c10 f   bot.obj
 0001:00096c18       __unwindfunclet$?WantToFollowEnemy@CBot@@QAEHPAUedict_s@@@Z$1 10097c18 f   bot.obj
 0001:00096c20       __ehhandler$?WantToFollowEnemy@CBot@@QAEHPAUedict_s@@@Z 10097c20 f   bot.obj
 0001:00096c40       __unwindfunclet$?WorkMoveDirection@CBot@@QAEXXZ$0 10097c40 f   bot.obj
 0001:00096c48       __ehhandler$?WorkMoveDirection@CBot@@QAEXXZ 10097c48 f   bot.obj
 0001:00096c70       __ehhandler$?_Reallocate@?$vector@VCActionUtility@@V?$allocator@VCActionUtility@@@std@@@std@@IAEXI@Z 10097c70 f   bot.obj
 0001:00096c90       __ehhandler$?_Reallocate@?$vector@VCRememberPosition@@V?$allocator@VCRememberPosition@@@std@@@std@@IAEXI@Z 10097c90 f   bot.obj
 0001:00096cb0       __unwindfunclet$?decideJumpDuckStrafe@CBot@@AAEXMVVector@@@Z$0 10097cb0 f   bot.obj
 0001:00096cb8       __ehhandler$?decideJumpDuckStrafe@CBot@@AAEXMVVector@@@Z 10097cb8 f   bot.obj
 0001:00096ce0       __unwindfunclet$?setupDataStructures@CBot@@QAEXXZ$0 10097ce0 f   bot.obj
 0001:00096ceb       __unwindfunclet$?setupDataStructures@CBot@@QAEXXZ$1 10097ceb f   bot.obj
 0001:00096cf6       __unwindfunclet$?setupDataStructures@CBot@@QAEXXZ$2 10097cf6 f   bot.obj
 0001:00096d01       __unwindfunclet$?setupDataStructures@CBot@@QAEXXZ$4 10097d01 f   bot.obj
 0001:00096d0c       __unwindfunclet$?setupDataStructures@CBot@@QAEXXZ$5 10097d0c f   bot.obj
 0001:00096d17       __unwindfunclet$?setupDataStructures@CBot@@QAEXXZ$6 10097d17 f   bot.obj
 0001:00096d22       __unwindfunclet$?setupDataStructures@CBot@@QAEXXZ$7 10097d22 f   bot.obj
 0001:00096d2d       __unwindfunclet$?setupDataStructures@CBot@@QAEXXZ$8 10097d2d f   bot.obj
 0001:00096d38       __unwindfunclet$?setupDataStructures@CBot@@QAEXXZ$9 10097d38 f   bot.obj
 0001:00096d43       __unwindfunclet$?setupDataStructures@CBot@@QAEXXZ$10 10097d43 f   bot.obj
 0001:00096d4e       __unwindfunclet$?setupDataStructures@CBot@@QAEXXZ$11 10097d4e f   bot.obj
 0001:00096d59       __unwindfunclet$?setupDataStructures@CBot@@QAEXXZ$12 10097d59 f   bot.obj
 0001:00096d64       __unwindfunclet$?setupDataStructures@CBot@@QAEXXZ$13 10097d64 f   bot.obj
 0001:00096d6f       __unwindfunclet$?setupDataStructures@CBot@@QAEXXZ$14 10097d6f f   bot.obj
 0001:00096d7a       __unwindfunclet$?setupDataStructures@CBot@@QAEXXZ$15 10097d7a f   bot.obj
 0001:00096d85       __unwindfunclet$?setupDataStructures@CBot@@QAEXXZ$16 10097d85 f   bot.obj
 0001:00096d90       __ehhandler$?setupDataStructures@CBot@@QAEXXZ 10097d90 f   bot.obj
 0001:00096db0       __unwindfunclet$?SetupNetMessages@@YAXXZ$0 10097db0 f   bot_client.obj
 0001:00096dbb       __unwindfunclet$?SetupNetMessages@@YAXXZ$1 10097dbb f   bot_client.obj
 0001:00096dc6       __unwindfunclet$?SetupNetMessages@@YAXXZ$2 10097dc6 f   bot_client.obj
 0001:00096dd1       __unwindfunclet$?SetupNetMessages@@YAXXZ$3 10097dd1 f   bot_client.obj
 0001:00096ddc       __unwindfunclet$?SetupNetMessages@@YAXXZ$4 10097ddc f   bot_client.obj
 0001:00096de7       __unwindfunclet$?SetupNetMessages@@YAXXZ$5 10097de7 f   bot_client.obj
 0001:00096df2       __unwindfunclet$?SetupNetMessages@@YAXXZ$6 10097df2 f   bot_client.obj
 0001:00096dfd       __unwindfunclet$?SetupNetMessages@@YAXXZ$7 10097dfd f   bot_client.obj
 0001:00096e08       __unwindfunclet$?SetupNetMessages@@YAXXZ$8 10097e08 f   bot_client.obj
 0001:00096e13       __unwindfunclet$?SetupNetMessages@@YAXXZ$9 10097e13 f   bot_client.obj
 0001:00096e1e       __unwindfunclet$?SetupNetMessages@@YAXXZ$10 10097e1e f   bot_client.obj
 0001:00096e29       __unwindfunclet$?SetupNetMessages@@YAXXZ$11 10097e29 f   bot_client.obj
 0001:00096e34       __unwindfunclet$?SetupNetMessages@@YAXXZ$12 10097e34 f   bot_client.obj
 0001:00096e3f       __unwindfunclet$?SetupNetMessages@@YAXXZ$13 10097e3f f   bot_client.obj
 0001:00096e4a       __unwindfunclet$?SetupNetMessages@@YAXXZ$14 10097e4a f   bot_client.obj
 0001:00096e55       __unwindfunclet$?SetupNetMessages@@YAXXZ$15 10097e55 f   bot_client.obj
 0001:00096e60       __unwindfunclet$?SetupNetMessages@@YAXXZ$16 10097e60 f   bot_client.obj
 0001:00096e6b       __unwindfunclet$?SetupNetMessages@@YAXXZ$17 10097e6b f   bot_client.obj
 0001:00096e76       __unwindfunclet$?SetupNetMessages@@YAXXZ$18 10097e76 f   bot_client.obj
 0001:00096e81       __unwindfunclet$?SetupNetMessages@@YAXXZ$19 10097e81 f   bot_client.obj
 0001:00096e8c       __unwindfunclet$?SetupNetMessages@@YAXXZ$20 10097e8c f   bot_client.obj
 0001:00096e97       __unwindfunclet$?SetupNetMessages@@YAXXZ$21 10097e97 f   bot_client.obj
 0001:00096ea2       __unwindfunclet$?SetupNetMessages@@YAXXZ$22 10097ea2 f   bot_client.obj
 0001:00096ead       __unwindfunclet$?SetupNetMessages@@YAXXZ$23 10097ead f   bot_client.obj
 0001:00096eb8       __unwindfunclet$?SetupNetMessages@@YAXXZ$24 10097eb8 f   bot_client.obj
 0001:00096ec3       __unwindfunclet$?SetupNetMessages@@YAXXZ$25 10097ec3 f   bot_client.obj
 0001:00096ece       __unwindfunclet$?SetupNetMessages@@YAXXZ$26 10097ece f   bot_client.obj
 0001:00096ed9       __unwindfunclet$?SetupNetMessages@@YAXXZ$27 10097ed9 f   bot_client.obj
 0001:00096ee4       __unwindfunclet$?SetupNetMessages@@YAXXZ$28 10097ee4 f   bot_client.obj
 0001:00096eef       __unwindfunclet$?SetupNetMessages@@YAXXZ$29 10097eef f   bot_client.obj
 0001:00096efa       __unwindfunclet$?SetupNetMessages@@YAXXZ$30 10097efa f   bot_client.obj
 0001:00096f05       __unwindfunclet$?SetupNetMessages@@YAXXZ$31 10097f05 f   bot_client.obj
 0001:00096f10       __unwindfunclet$?SetupNetMessages@@YAXXZ$32 10097f10 f   bot_client.obj
 0001:00096f1b       __unwindfunclet$?SetupNetMessages@@YAXXZ$33 10097f1b f   bot_client.obj
 0001:00096f26       __ehhandler$?SetupNetMessages@@YAXXZ 10097f26 f   bot_client.obj
 0001:00096f50       __ehhandler$?_Reallocate@?$vector@VCBotNSTech@@V?$allocator@VCBotNSTech@@@std@@@std@@IAEXI@Z 10097f50 f   bot_client.obj
 0001:00096f70       __ehhandler$?_Reallocate@?$vector@VTSObjective@@V?$allocator@VTSObjective@@@std@@@std@@IAEXI@Z 10097f70 f   bot_client.obj
 0001:00096f90       __ehhandler$?execute@BotClient_TS_ClipInfo@@UAEXPAXH@Z 10097f90 f   bot_client.obj
 0001:00096fb0       __unwindfunclet$?BotFunc_AddBot@@YA?AW4eBotCvarState@@PAVCClient@@PBD111@Z$0 10097fb0 f   bot_commands.obj
 0001:00096fbb       __unwindfunclet$?BotFunc_AddBot@@YA?AW4eBotCvarState@@PAVCClient@@PBD111@Z$1 10097fbb f   bot_commands.obj
 0001:00096fc6       __ehhandler$?BotFunc_AddBot@@YA?AW4eBotCvarState@@PAVCClient@@PBD111@Z 10097fc6 f   bot_commands.obj
 0001:00096ff0       __unwindfunclet$?SetupCommands@@YAXXZ$0 10097ff0 f   bot_commands.obj
 0001:00096ffb       __unwindfunclet$?SetupCommands@@YAXXZ$1 10097ffb f   bot_commands.obj
 0001:00097006       __unwindfunclet$?SetupCommands@@YAXXZ$2 10098006 f   bot_commands.obj
 0001:00097011       __unwindfunclet$?SetupCommands@@YAXXZ$3 10098011 f   bot_commands.obj
 0001:0009701c       __unwindfunclet$?SetupCommands@@YAXXZ$4 1009801c f   bot_commands.obj
 0001:00097027       __unwindfunclet$?SetupCommands@@YAXXZ$5 10098027 f   bot_commands.obj
 0001:00097032       __unwindfunclet$?SetupCommands@@YAXXZ$6 10098032 f   bot_commands.obj
 0001:0009703d       __unwindfunclet$?SetupCommands@@YAXXZ$7 1009803d f   bot_commands.obj
 0001:00097048       __unwindfunclet$?SetupCommands@@YAXXZ$8 10098048 f   bot_commands.obj
 0001:00097053       __unwindfunclet$?SetupCommands@@YAXXZ$9 10098053 f   bot_commands.obj
 0001:0009705e       __unwindfunclet$?SetupCommands@@YAXXZ$10 1009805e f   bot_commands.obj
 0001:00097069       __unwindfunclet$?SetupCommands@@YAXXZ$11 10098069 f   bot_commands.obj
 0001:00097074       __unwindfunclet$?SetupCommands@@YAXXZ$12 10098074 f   bot_commands.obj
 0001:0009707f       __unwindfunclet$?SetupCommands@@YAXXZ$13 1009807f f   bot_commands.obj
 0001:0009708a       __unwindfunclet$?SetupCommands@@YAXXZ$14 1009808a f   bot_commands.obj
 0001:00097095       __unwindfunclet$?SetupCommands@@YAXXZ$15 10098095 f   bot_commands.obj
 0001:000970a0       __unwindfunclet$?SetupCommands@@YAXXZ$16 100980a0 f   bot_commands.obj
 0001:000970ab       __unwindfunclet$?SetupCommands@@YAXXZ$17 100980ab f   bot_commands.obj
 0001:000970b6       __unwindfunclet$?SetupCommands@@YAXXZ$18 100980b6 f   bot_commands.obj
 0001:000970c1       __ehhandler$?SetupCommands@@YAXXZ 100980c1 f   bot_commands.obj
 0001:000970e0       __unwindfunclet$??0CBitsGAValues@@QAE@I@Z$0 100980e0 f   bot_ga.obj
 0001:000970eb       __ehhandler$??0CBitsGAValues@@QAE@I@Z 100980eb f   bot_ga.obj
 0001:00097110       __unwindfunclet$??0CBotGAValues@@QAE@V?$vector@MV?$allocator@M@std@@@std@@@Z$0 10098110 f   bot_ga.obj
 0001:00097118       __unwindfunclet$??0CBotGAValues@@QAE@V?$vector@MV?$allocator@M@std@@@std@@@Z$1 10098118 f   bot_ga.obj
 0001:00097123       __ehhandler$??0CBotGAValues@@QAE@V?$vector@MV?$allocator@M@std@@@std@@@Z 10098123 f   bot_ga.obj
 0001:00097140       __unwindfunclet$?copy@CBitsGAValues@@UAEPAVIIndividual@@XZ$0 10098140 f   bot_ga.obj
 0001:0009714b       __ehhandler$?copy@CBitsGAValues@@UAEPAVIIndividual@@XZ 1009814b f   bot_ga.obj
 0001:00097170       __unwindfunclet$?copy@CBotGAValues@@UAEPAVIIndividual@@XZ$0 10098170 f   bot_ga.obj
 0001:0009717b       __ehhandler$?copy@CBotGAValues@@UAEPAVIIndividual@@XZ 1009817b f   bot_ga.obj
 0001:000971a0       __unwindfunclet$?crossOver@CBitsGAValues@@UAEXPAVIIndividual@@@Z$0 100981a0 f   bot_ga.obj
 0001:000971ab       __ehhandler$?crossOver@CBitsGAValues@@UAEXPAVIIndividual@@@Z 100981ab f   bot_ga.obj
 0001:000971d0       __unwindfunclet$?setVector@CBotGAValues@@QAEXV?$vector@MV?$allocator@M@std@@@std@@@Z$0 100981d0 f   bot_ga.obj
 0001:000971d8       __ehhandler$?setVector@CBotGAValues@@QAEXV?$vector@MV?$allocator@M@std@@@std@@@Z 100981d8 f   bot_ga.obj
 0001:00097200       __unwindfunclet$?AddExitMenuItem@CBotMenu@@QAEXH@Z$0 10098200 f   bot_menu.obj
 0001:0009720b       __ehhandler$?AddExitMenuItem@CBotMenu@@QAEXH@Z 1009820b f   bot_menu.obj
 0001:00097230       __unwindfunclet$?AddMenuItem@CBotMenu@@QAEXHPBDP6AXPAVCClient@@@Z@Z$0 10098230 f   bot_menu.obj
 0001:0009723b       __ehhandler$?AddMenuItem@CBotMenu@@QAEXHPBDP6AXPAVCClient@@@Z@Z 1009823b f   bot_menu.obj
 0001:00097260       __unwindfunclet$?AddMenuItem@CBotMenu@@QAEXHPBDPAV1@@Z$0 10098260 f   bot_menu.obj
 0001:0009726b       __ehhandler$?AddMenuItem@CBotMenu@@QAEXHPBDPAV1@@Z 1009826b f   bot_menu.obj
 0001:00097290       __unwindfunclet$?BotMenu_Func_KickBot@@YAXPAVCClient@@@Z$0 10098290 f   bot_menu.obj
 0001:00097298       __ehhandler$?BotMenu_Func_KickBot@@YAXPAVCClient@@@Z 10098298 f   bot_menu.obj
 0001:000972c0       __unwindfunclet$?BotMenu_Func_KickBotFromTeam@@YAXPAVCClient@@@Z$0 100982c0 f   bot_menu.obj
 0001:000972c8       __ehhandler$?BotMenu_Func_KickBotFromTeam@@YAXPAVCClient@@@Z 100982c8 f   bot_menu.obj
 0001:000972f0       __unwindfunclet$?SetupMenus@@YAXXZ$0 100982f0 f   bot_menu.obj
 0001:000972fb       __unwindfunclet$?SetupMenus@@YAXXZ$1 100982fb f   bot_menu.obj
 0001:00097306       __unwindfunclet$?SetupMenus@@YAXXZ$2 10098306 f   bot_menu.obj
 0001:00097311       __unwindfunclet$?SetupMenus@@YAXXZ$3 10098311 f   bot_menu.obj
 0001:0009731c       __unwindfunclet$?SetupMenus@@YAXXZ$4 1009831c f   bot_menu.obj
 0001:00097327       __unwindfunclet$?SetupMenus@@YAXXZ$5 10098327 f   bot_menu.obj
 0001:00097332       __unwindfunclet$?SetupMenus@@YAXXZ$6 10098332 f   bot_menu.obj
 0001:0009733d       __unwindfunclet$?SetupMenus@@YAXXZ$7 1009833d f   bot_menu.obj
 0001:00097348       __unwindfunclet$?SetupMenus@@YAXXZ$8 10098348 f   bot_menu.obj
 0001:00097353       __unwindfunclet$?SetupMenus@@YAXXZ$9 10098353 f   bot_menu.obj
 0001:0009735e       __unwindfunclet$?SetupMenus@@YAXXZ$10 1009835e f   bot_menu.obj
 0001:00097369       __unwindfunclet$?SetupMenus@@YAXXZ$11 10098369 f   bot_menu.obj
 0001:00097374       __unwindfunclet$?SetupMenus@@YAXXZ$12 10098374 f   bot_menu.obj
 0001:0009737f       __unwindfunclet$?SetupMenus@@YAXXZ$13 1009837f f   bot_menu.obj
 0001:0009738a       __unwindfunclet$?SetupMenus@@YAXXZ$14 1009838a f   bot_menu.obj
 0001:00097395       __unwindfunclet$?SetupMenus@@YAXXZ$15 10098395 f   bot_menu.obj
 0001:000973a0       __unwindfunclet$?SetupMenus@@YAXXZ$16 100983a0 f   bot_menu.obj
 0001:000973ab       __unwindfunclet$?SetupMenus@@YAXXZ$17 100983ab f   bot_menu.obj
 0001:000973b6       __unwindfunclet$?SetupMenus@@YAXXZ$18 100983b6 f   bot_menu.obj
 0001:000973c1       __unwindfunclet$?SetupMenus@@YAXXZ$19 100983c1 f   bot_menu.obj
 0001:000973cc       __unwindfunclet$?SetupMenus@@YAXXZ$20 100983cc f   bot_menu.obj
 0001:000973d7       __unwindfunclet$?SetupMenus@@YAXXZ$21 100983d7 f   bot_menu.obj
 0001:000973e2       __unwindfunclet$?SetupMenus@@YAXXZ$22 100983e2 f   bot_menu.obj
 0001:000973ed       __unwindfunclet$?SetupMenus@@YAXXZ$23 100983ed f   bot_menu.obj
 0001:000973f8       __unwindfunclet$?SetupMenus@@YAXXZ$24 100983f8 f   bot_menu.obj
 0001:00097403       __unwindfunclet$?SetupMenus@@YAXXZ$25 10098403 f   bot_menu.obj
 0001:0009740e       __unwindfunclet$?SetupMenus@@YAXXZ$26 1009840e f   bot_menu.obj
 0001:00097419       __unwindfunclet$?SetupMenus@@YAXXZ$27 10098419 f   bot_menu.obj
 0001:00097424       __unwindfunclet$?SetupMenus@@YAXXZ$28 10098424 f   bot_menu.obj
 0001:0009742f       __unwindfunclet$?SetupMenus@@YAXXZ$29 1009842f f   bot_menu.obj
 0001:0009743a       __unwindfunclet$?SetupMenus@@YAXXZ$30 1009843a f   bot_menu.obj
 0001:00097445       __unwindfunclet$?SetupMenus@@YAXXZ$31 10098445 f   bot_menu.obj
 0001:00097450       __unwindfunclet$?SetupMenus@@YAXXZ$32 10098450 f   bot_menu.obj
 0001:0009745b       __unwindfunclet$?SetupMenus@@YAXXZ$33 1009845b f   bot_menu.obj
 0001:00097466       __unwindfunclet$?SetupMenus@@YAXXZ$34 10098466 f   bot_menu.obj
 0001:00097471       __unwindfunclet$?SetupMenus@@YAXXZ$35 10098471 f   bot_menu.obj
 0001:0009747c       __unwindfunclet$?SetupMenus@@YAXXZ$36 1009847c f   bot_menu.obj
 0001:00097487       __unwindfunclet$?SetupMenus@@YAXXZ$37 10098487 f   bot_menu.obj
 0001:00097492       __unwindfunclet$?SetupMenus@@YAXXZ$38 10098492 f   bot_menu.obj
 0001:0009749d       __unwindfunclet$?SetupMenus@@YAXXZ$39 1009849d f   bot_menu.obj
 0001:000974a8       __unwindfunclet$?SetupMenus@@YAXXZ$40 100984a8 f   bot_menu.obj
 0001:000974b3       __unwindfunclet$?SetupMenus@@YAXXZ$41 100984b3 f   bot_menu.obj
 0001:000974be       __unwindfunclet$?SetupMenus@@YAXXZ$42 100984be f   bot_menu.obj
 0001:000974c9       __unwindfunclet$?SetupMenus@@YAXXZ$43 100984c9 f   bot_menu.obj
 0001:000974d4       __unwindfunclet$?SetupMenus@@YAXXZ$44 100984d4 f   bot_menu.obj
 0001:000974df       __unwindfunclet$?SetupMenus@@YAXXZ$45 100984df f   bot_menu.obj
 0001:000974ea       __unwindfunclet$?SetupMenus@@YAXXZ$46 100984ea f   bot_menu.obj
 0001:000974f5       __unwindfunclet$?SetupMenus@@YAXXZ$47 100984f5 f   bot_menu.obj
 0001:00097500       __unwindfunclet$?SetupMenus@@YAXXZ$48 10098500 f   bot_menu.obj
 0001:0009750b       __unwindfunclet$?SetupMenus@@YAXXZ$49 1009850b f   bot_menu.obj
 0001:00097516       __unwindfunclet$?SetupMenus@@YAXXZ$50 10098516 f   bot_menu.obj
 0001:00097521       __unwindfunclet$?SetupMenus@@YAXXZ$51 10098521 f   bot_menu.obj
 0001:0009752c       __unwindfunclet$?SetupMenus@@YAXXZ$52 1009852c f   bot_menu.obj
 0001:00097537       __unwindfunclet$?SetupMenus@@YAXXZ$53 10098537 f   bot_menu.obj
 0001:00097542       __unwindfunclet$?SetupMenus@@YAXXZ$54 10098542 f   bot_menu.obj
 0001:0009754d       __unwindfunclet$?SetupMenus@@YAXXZ$55 1009854d f   bot_menu.obj
 0001:00097558       __unwindfunclet$?SetupMenus@@YAXXZ$56 10098558 f   bot_menu.obj
 0001:00097563       __unwindfunclet$?SetupMenus@@YAXXZ$57 10098563 f   bot_menu.obj
 0001:0009756e       __unwindfunclet$?SetupMenus@@YAXXZ$58 1009856e f   bot_menu.obj
 0001:00097579       __unwindfunclet$?SetupMenus@@YAXXZ$59 10098579 f   bot_menu.obj
 0001:00097584       __unwindfunclet$?SetupMenus@@YAXXZ$60 10098584 f   bot_menu.obj
 0001:0009758f       __unwindfunclet$?SetupMenus@@YAXXZ$61 1009858f f   bot_menu.obj
 0001:0009759a       __unwindfunclet$?SetupMenus@@YAXXZ$62 1009859a f   bot_menu.obj
 0001:000975a5       __unwindfunclet$?SetupMenus@@YAXXZ$63 100985a5 f   bot_menu.obj
 0001:000975b0       __unwindfunclet$?SetupMenus@@YAXXZ$64 100985b0 f   bot_menu.obj
 0001:000975bb       __unwindfunclet$?SetupMenus@@YAXXZ$65 100985bb f   bot_menu.obj
 0001:000975c6       __unwindfunclet$?SetupMenus@@YAXXZ$66 100985c6 f   bot_menu.obj
 0001:000975d1       __unwindfunclet$?SetupMenus@@YAXXZ$67 100985d1 f   bot_menu.obj
 0001:000975dc       __unwindfunclet$?SetupMenus@@YAXXZ$68 100985dc f   bot_menu.obj
 0001:000975e7       __unwindfunclet$?SetupMenus@@YAXXZ$69 100985e7 f   bot_menu.obj
 0001:000975f2       __unwindfunclet$?SetupMenus@@YAXXZ$70 100985f2 f   bot_menu.obj
 0001:000975fd       __unwindfunclet$?SetupMenus@@YAXXZ$71 100985fd f   bot_menu.obj
 0001:00097608       __unwindfunclet$?SetupMenus@@YAXXZ$72 10098608 f   bot_menu.obj
 0001:00097613       __unwindfunclet$?SetupMenus@@YAXXZ$73 10098613 f   bot_menu.obj
 0001:0009761e       __unwindfunclet$?SetupMenus@@YAXXZ$74 1009861e f   bot_menu.obj
 0001:00097629       __unwindfunclet$?SetupMenus@@YAXXZ$75 10098629 f   bot_menu.obj
 0001:00097634       __unwindfunclet$?SetupMenus@@YAXXZ$76 10098634 f   bot_menu.obj
 0001:0009763f       __unwindfunclet$?SetupMenus@@YAXXZ$77 1009863f f   bot_menu.obj
 0001:0009764a       __unwindfunclet$?SetupMenus@@YAXXZ$78 1009864a f   bot_menu.obj
 0001:00097655       __unwindfunclet$?SetupMenus@@YAXXZ$79 10098655 f   bot_menu.obj
 0001:00097660       __unwindfunclet$?SetupMenus@@YAXXZ$80 10098660 f   bot_menu.obj
 0001:0009766b       __unwindfunclet$?SetupMenus@@YAXXZ$81 1009866b f   bot_menu.obj
 0001:00097676       __unwindfunclet$?SetupMenus@@YAXXZ$82 10098676 f   bot_menu.obj
 0001:00097681       __unwindfunclet$?SetupMenus@@YAXXZ$83 10098681 f   bot_menu.obj
 0001:0009768c       __unwindfunclet$?SetupMenus@@YAXXZ$84 1009868c f   bot_menu.obj
 0001:00097697       __unwindfunclet$?SetupMenus@@YAXXZ$85 10098697 f   bot_menu.obj
 0001:000976a2       __unwindfunclet$?SetupMenus@@YAXXZ$86 100986a2 f   bot_menu.obj
 0001:000976ad       __unwindfunclet$?SetupMenus@@YAXXZ$87 100986ad f   bot_menu.obj
 0001:000976b8       __unwindfunclet$?SetupMenus@@YAXXZ$88 100986b8 f   bot_menu.obj
 0001:000976c3       __unwindfunclet$?SetupMenus@@YAXXZ$89 100986c3 f   bot_menu.obj
 0001:000976ce       __unwindfunclet$?SetupMenus@@YAXXZ$90 100986ce f   bot_menu.obj
 0001:000976d9       __unwindfunclet$?SetupMenus@@YAXXZ$91 100986d9 f   bot_menu.obj
 0001:000976e4       __unwindfunclet$?SetupMenus@@YAXXZ$92 100986e4 f   bot_menu.obj
 0001:000976ef       __unwindfunclet$?SetupMenus@@YAXXZ$93 100986ef f   bot_menu.obj
 0001:000976fa       __unwindfunclet$?SetupMenus@@YAXXZ$94 100986fa f   bot_menu.obj
 0001:00097705       __unwindfunclet$?SetupMenus@@YAXXZ$95 10098705 f   bot_menu.obj
 0001:00097710       __unwindfunclet$?SetupMenus@@YAXXZ$96 10098710 f   bot_menu.obj
 0001:0009771b       __unwindfunclet$?SetupMenus@@YAXXZ$97 1009871b f   bot_menu.obj
 0001:00097726       __unwindfunclet$?SetupMenus@@YAXXZ$98 10098726 f   bot_menu.obj
 0001:00097731       __unwindfunclet$?SetupMenus@@YAXXZ$99 10098731 f   bot_menu.obj
 0001:0009773c       __unwindfunclet$?SetupMenus@@YAXXZ$100 1009873c f   bot_menu.obj
 0001:00097747       __unwindfunclet$?SetupMenus@@YAXXZ$101 10098747 f   bot_menu.obj
 0001:00097752       __ehhandler$?SetupMenus@@YAXXZ 10098752 f   bot_menu.obj
 0001:00097770       __unwindfunclet$?BotNavigate_ScanFOV@@YA?AVVector@@PAVCBot@@@Z$0 10098770 f   bot_navigate.obj
 0001:00097778       __ehhandler$?BotNavigate_ScanFOV@@YA?AVVector@@PAVCBot@@@Z 10098778 f   bot_navigate.obj
 0001:000977a0       __ehhandler$?_Reallocate@?$vector@VVector@@V?$allocator@VVector@@@std@@@std@@IAEXI@Z 100987a0 f   bot_navigate.obj
 0001:000977c0       __unwindfunclet$??0CPerceptron@@QAE@PAU_iobuf@@@Z$0 100987c0 f   bot_nn.obj
 0001:000977cb       __unwindfunclet$??0CPerceptron@@QAE@PAU_iobuf@@@Z$1 100987cb f   bot_nn.obj
 0001:000977d6       __ehhandler$??0CPerceptron@@QAE@PAU_iobuf@@@Z 100987d6 f   bot_nn.obj
 0001:00097800       __unwindfunclet$??0NN@@QAE@HHHH@Z$0 10098800 f   bot_nn.obj
 0001:0009780b       __unwindfunclet$??0NN@@QAE@HHHH@Z$1 1009880b f   bot_nn.obj
 0001:00097816       __unwindfunclet$??0NN@@QAE@HHHH@Z$2 10098816 f   bot_nn.obj
 0001:00097821       __unwindfunclet$??0NN@@QAE@HHHH@Z$3 10098821 f   bot_nn.obj
 0001:0009782c       __ehhandler$??0NN@@QAE@HHHH@Z 1009882c f   bot_nn.obj
 0001:00097850       __unwindfunclet$??0NNGATrained@@QAE@HHHH@Z$0 10098850 f   bot_nn.obj
 0001:00097858       __unwindfunclet$??0NNGATrained@@QAE@HHHH@Z$2 10098858 f   bot_nn.obj
 0001:00097863       __unwindfunclet$??0NNGATrained@@QAE@HHHH@Z$3 10098863 f   bot_nn.obj
 0001:0009786e       __ehhandler$??0NNGATrained@@QAE@HHHH@Z 1009886e f   bot_nn.obj
 0001:00097890       __unwindfunclet$??0NNLayer@@QAE@HH@Z$0 10098890 f   bot_nn.obj
 0001:00097898       __unwindfunclet$??0NNLayer@@QAE@HH@Z$1 10098898 f   bot_nn.obj
 0001:000978a3       __ehhandler$??0NNLayer@@QAE@HH@Z 100988a3 f   bot_nn.obj
 0001:000978c0       __unwindfunclet$??0NNLayer@@QAE@PAU_iobuf@@@Z$0 100988c0 f   bot_nn.obj
 0001:000978c8       __ehhandler$??0NNLayer@@QAE@PAU_iobuf@@@Z 100988c8 f   bot_nn.obj
 0001:000978f0       __unwindfunclet$??1NNGATrained@@QAE@XZ$0 100988f0 f   bot_nn.obj
 0001:000978f8       __ehhandler$??1NNGATrained@@QAE@XZ 100988f8 f   bot_nn.obj
 0001:00097920       __unwindfunclet$?execute@NN@@QAEXPAV?$vector@MV?$allocator@M@std@@@std@@0@Z$0 10098920 f   bot_nn.obj
 0001:00097928       __ehhandler$?execute@NN@@QAEXPAV?$vector@MV?$allocator@M@std@@@std@@0@Z 10098928 f   bot_nn.obj
 0001:00097950       __unwindfunclet$?load@NN@@QAEXPAU_iobuf@@@Z$0 10098950 f   bot_nn.obj
 0001:0009795b       __unwindfunclet$?load@NN@@QAEXPAU_iobuf@@@Z$1 1009895b f   bot_nn.obj
 0001:00097963       __ehhandler$?load@NN@@QAEXPAU_iobuf@@@Z 10098963 f   bot_nn.obj
 0001:00097990       __unwindfunclet$?load@NNLayer@@QAEXPAU_iobuf@@@Z$0 10098990 f   bot_nn.obj
 0001:0009799b       __unwindfunclet$?load@NNLayer@@QAEXPAU_iobuf@@@Z$1 1009899b f   bot_nn.obj
 0001:000979a6       __unwindfunclet$?load@NNLayer@@QAEXPAU_iobuf@@@Z$2 100989a6 f   bot_nn.obj
 0001:000979b1       __ehhandler$?load@NNLayer@@QAEXPAU_iobuf@@@Z 100989b1 f   bot_nn.obj
 0001:000979e0       __unwindfunclet$?train@NNGATrained@@UAEXV?$vector@VCNNTrainSet@@V?$allocator@VCNNTrainSet@@@std@@@std@@@Z$0 100989e0 f   bot_nn.obj
 0001:000979e8       __unwindfunclet$?train@NNGATrained@@UAEXV?$vector@VCNNTrainSet@@V?$allocator@VCNNTrainSet@@@std@@@std@@@Z$1 100989e8 f   bot_nn.obj
 0001:000979f0       __unwindfunclet$?train@NNGATrained@@UAEXV?$vector@VCNNTrainSet@@V?$allocator@VCNNTrainSet@@@std@@@std@@@Z$3 100989f0 f   bot_nn.obj
 0001:000979f8       __ehhandler$?train@NNGATrained@@UAEXV?$vector@VCNNTrainSet@@V?$allocator@VCNNTrainSet@@@std@@@std@@@Z 100989f8 f   bot_nn.obj
 0001:00097a20       __unwindfunclet$?GetRandomClient@CBotReputations@@QAEPAVCClient@@H@Z$0 10098a20 f   bot_rep.obj
 0001:00097a28       __ehhandler$?GetRandomClient@CBotReputations@@QAEPAVCClient@@H@Z 10098a28 f   bot_rep.obj
 0001:00097a50       __unwindfunclet$??0CBotVisibles@@QAE@XZ$0 10098a50 f   bot_visibles.obj
 0001:00097a5b       __unwindfunclet$??0CBotVisibles@@QAE@XZ$1 10098a5b f   bot_visibles.obj
 0001:00097a66       __ehhandler$??0CBotVisibles@@QAE@XZ 10098a66 f   bot_visibles.obj
 0001:00097a90       __unwindfunclet$?GetBestWeaponId@CBotWeapons@@QAEHPAVCBot@@PAUedict_s@@@Z$0 10098a90 f   bot_weapons.obj
 0001:00097a9b       __unwindfunclet$?GetBestWeaponId@CBotWeapons@@QAEHPAVCBot@@PAUedict_s@@@Z$1 10098a9b f   bot_weapons.obj
 0001:00097aa6       __unwindfunclet$?GetBestWeaponId@CBotWeapons@@QAEHPAVCBot@@PAUedict_s@@@Z$2 10098aa6 f   bot_weapons.obj
 0001:00097ab1       __ehhandler$?GetBestWeaponId@CBotWeapons@@QAEHPAVCBot@@PAUedict_s@@@Z 10098ab1 f   bot_weapons.obj
 0001:00097ae0       __unwindfunclet$??0CBot@@QAE@XZ$0 10098ae0 f   dll.obj
 0001:00097aeb       __unwindfunclet$??0CBot@@QAE@XZ$1 10098aeb f   dll.obj
 0001:00097af9       __unwindfunclet$??0CBot@@QAE@XZ$2 10098af9 f   dll.obj
 0001:00097b07       __unwindfunclet$??0CBot@@QAE@XZ$3 10098b07 f   dll.obj
 0001:00097b15       __ehhandler$??0CBot@@QAE@XZ 10098b15 f   dll.obj
 0001:00097b30       __unwindfunclet$??0CBotGlobals@@QAE@XZ$0 10098b30 f   dll.obj
 0001:00097b46       __unwindfunclet$??0CBotGlobals@@QAE@XZ$1 10098b46 f   dll.obj
 0001:00097b54       __unwindfunclet$??0CBotGlobals@@QAE@XZ$2 10098b54 f   dll.obj
 0001:00097b6c       __unwindfunclet$??0CBotGlobals@@QAE@XZ$3 10098b6c f   dll.obj
 0001:00097b7a       __unwindfunclet$??0CBotGlobals@@QAE@XZ$4 10098b7a f   dll.obj
 0001:00097b88       __unwindfunclet$??0CBotGlobals@@QAE@XZ$5 10098b88 f   dll.obj
 0001:00097ba3       __unwindfunclet$??0CBotGlobals@@QAE@XZ$6 10098ba3 f   dll.obj
 0001:00097bb1       __unwindfunclet$??0CBotGlobals@@QAE@XZ$12 10098bb1 f   dll.obj
 0001:00097bbc       __unwindfunclet$??0CBotGlobals@@QAE@XZ$13 10098bbc f   dll.obj
 0001:00097bc7       __unwindfunclet$??0CBotGlobals@@QAE@XZ$7 10098bc7 f   dll.obj
 0001:00097bd5       __unwindfunclet$??0CBotGlobals@@QAE@XZ$8 10098bd5 f   dll.obj
 0001:00097bed       __unwindfunclet$??0CBotGlobals@@QAE@XZ$9 10098bed f   dll.obj
 0001:00097c05       __ehhandler$??0CBotGlobals@@QAE@XZ 10098c05 f   dll.obj
 0001:00097c20       __unwindfunclet$??0SBotChatMessages@@QAE@XZ$0 10098c20 f   dll.obj
 0001:00097c33       __unwindfunclet$??0SBotChatMessages@@QAE@XZ$1 10098c33 f   dll.obj
 0001:00097c49       __unwindfunclet$??0SBotChatMessages@@QAE@XZ$2 10098c49 f   dll.obj
 0001:00097c5f       __unwindfunclet$??0SBotChatMessages@@QAE@XZ$3 10098c5f f   dll.obj
 0001:00097c75       __unwindfunclet$??0SBotChatMessages@@QAE@XZ$4 10098c75 f   dll.obj
 0001:00097c8d       __ehhandler$??0SBotChatMessages@@QAE@XZ 10098c8d f   dll.obj
 0001:00097cb0       __unwindfunclet$??1CBotGlobals@@QAE@XZ$0 10098cb0 f   dll.obj
 0001:00097cc6       __unwindfunclet$??1CBotGlobals@@QAE@XZ$1 10098cc6 f   dll.obj
 0001:00097cd4       __unwindfunclet$??1CBotGlobals@@QAE@XZ$2 10098cd4 f   dll.obj
 0001:00097cec       __unwindfunclet$??1CBotGlobals@@QAE@XZ$3 10098cec f   dll.obj
 0001:00097cfa       __unwindfunclet$??1CBotGlobals@@QAE@XZ$4 10098cfa f   dll.obj
 0001:00097d08       __unwindfunclet$??1CBotGlobals@@QAE@XZ$5 10098d08 f   dll.obj
 0001:00097d23       __unwindfunclet$??1CBotGlobals@@QAE@XZ$6 10098d23 f   dll.obj
 0001:00097d31       __unwindfunclet$??1CBotGlobals@@QAE@XZ$7 10098d31 f   dll.obj
 0001:00097d3f       __unwindfunclet$??1CBotGlobals@@QAE@XZ$8 10098d3f f   dll.obj
 0001:00097d57       __unwindfunclet$??1CBotGlobals@@QAE@XZ$9 10098d57 f   dll.obj
 0001:00097d6f       __ehhandler$??1CBotGlobals@@QAE@XZ 10098d6f f   dll.obj
 0001:00097d90       __unwindfunclet$??1SBotChatMessages@@QAE@XZ$0 10098d90 f   dll.obj
 0001:00097da3       __unwindfunclet$??1SBotChatMessages@@QAE@XZ$1 10098da3 f   dll.obj
 0001:00097db9       __unwindfunclet$??1SBotChatMessages@@QAE@XZ$2 10098db9 f   dll.obj
 0001:00097dcf       __unwindfunclet$??1SBotChatMessages@@QAE@XZ$3 10098dcf f   dll.obj
 0001:00097de5       __unwindfunclet$??1SBotChatMessages@@QAE@XZ$4 10098de5 f   dll.obj
 0001:00097dfd       __ehhandler$??1SBotChatMessages@@QAE@XZ 10098dfd f   dll.obj
 0001:00097e20       __unwindfunclet$??_FCGA@@QAEXXZ$0 10098e20 f   dll.obj
 0001:00097e2b       __unwindfunclet$??_FCGA@@QAEXXZ$1 10098e2b f   dll.obj
 0001:00097e36       __ehhandler$??_FCGA@@QAEXXZ 10098e36 f   dll.obj
 0001:00097e60       __unwindfunclet$?Think@CBotCam@@QAEXXZ$0 10098e60 f   dll.obj
 0001:00097e6b       __unwindfunclet$?Think@CBotCam@@QAEXXZ$1 10098e6b f   dll.obj
 0001:00097e76       __ehhandler$?Think@CBotCam@@QAEXXZ 10098e76 f   dll.obj
 0001:00097ea0       __unwindfunclet$?getCapturePoint@CTFCCapturePoints@@QAEPAUedict_s@@HHHH@Z$0 10098ea0 f   dll.obj
 0001:00097ea8       __ehhandler$?getCapturePoint@CTFCCapturePoints@@QAEPAUedict_s@@HHHH@Z 10098ea8 f   dll.obj
 0001:00097ed0       __unwindfunclet$?load@CPopulation@@QAEXPAU_iobuf@@HH@Z$0 10098ed0 f   ga.obj
 0001:00097edb       __ehhandler$?load@CPopulation@@QAEXPAU_iobuf@@HH@Z 10098edb f   ga.obj
 0001:00097f00       __unwindfunclet$?AddMaster@CMasterEntities@@QAEXPAUedict_s@@PAD@Z$0 10098f00 f   globals.obj
 0001:00097f0b       __ehhandler$?AddMaster@CMasterEntities@@QAEXPAUedict_s@@PAD@Z 10098f0b f   globals.obj
 0001:00097f30       __unwindfunclet$?TFC_getBestClass@CBotGlobals@@QAEHHH@Z$0 10098f30 f   globals.obj
 0001:00097f38       __ehhandler$?TFC_getBestClass@CBotGlobals@@QAEHHH@Z 10098f38 f   globals.obj
 0001:00097f60       __ehhandler$?UpdateAngles@CBotSquads@@QAEXXZ 10098f60 f   globals.obj
 0001:00097f80       __unwindfunclet$??0CPerceptron@@QAE@IPAVITransfer@@M@Z$0 10098f80 f   perceptron.obj
 0001:00097f8b       __unwindfunclet$??0CPerceptron@@QAE@IPAVITransfer@@M@Z$1 10098f8b f   perceptron.obj
 0001:00097f96       __ehhandler$??0CPerceptron@@QAE@IPAVITransfer@@M@Z 10098f96 f   perceptron.obj
 0001:00097fc0       __unwindfunclet$?setWeights@CPerceptron@@QAEXV?$vector@MV?$allocator@M@std@@@std@@@Z$0 10098fc0 f   perceptron.obj
 0001:00097fc8       __ehhandler$?setWeights@CPerceptron@@QAEXV?$vector@MV?$allocator@M@std@@@std@@@Z 10098fc8 f   perceptron.obj
 0001:00097ff0       __unwindfunclet$?setWeights@CPerceptron@@QAEXV?$vector@MV?$allocator@M@std@@@std@@HH@Z$0 10098ff0 f   perceptron.obj
 0001:00097ff8       __ehhandler$?setWeights@CPerceptron@@QAEXV?$vector@MV?$allocator@M@std@@@std@@HH@Z 10098ff8 f   perceptron.obj
 0001:00098020       __unwindfunclet$??0CSom@@QAE@HHH@Z$0 10099020 f   som.obj
 0001:00098028       __unwindfunclet$??0CSom@@QAE@HHH@Z$1 10099028 f   som.obj
 0001:00098033       __ehhandler$??0CSom@@QAE@HHH@Z 10099033 f   som.obj
 0001:00098050       __unwindfunclet$??0CSomNeuron@@QAE@HHH@Z$0 10099050 f   som.obj
 0001:00098058       __ehhandler$??0CSomNeuron@@QAE@HHH@Z 10099058 f   som.obj
 0001:00098080       __unwindfunclet$?BotFunc_KickBotFromTeam@@YAXH@Z$0 10099080 f   util.obj
 0001:00098088       __ehhandler$?BotFunc_KickBotFromTeam@@YAXH@Z 10099088 f   util.obj
 0001:000980b0       __unwindfunclet$?UTIL_FindRandomUnusedFuncResource@@YAPAUedict_s@@PAVCBot@@@Z$0 100990b0 f   util.obj
 0001:000980b8       __ehhandler$?UTIL_FindRandomUnusedFuncResource@@YAPAUedict_s@@PAVCBot@@@Z 100990b8 f   util.obj
 0001:000980e0       __unwindfunclet$?UTIL_FurthestVectorAroundYaw@@YA?AVVector@@PAVCBot@@@Z$0 100990e0 f   util.obj
 0001:000980e8       __ehhandler$?UTIL_FurthestVectorAroundYaw@@YA?AVVector@@PAVCBot@@@Z 100990e8 f   util.obj
 0001:00098110       __unwindfunclet$?UTIL_GetBuildWaypoint@@YAHVVector@@PAV?$dataStack@H@@@Z$0 10099110 f   util.obj
 0001:00098118       __ehhandler$?UTIL_GetBuildWaypoint@@YAHVVector@@PAV?$dataStack@H@@@Z 10099118 f   util.obj
 0001:00098140       __unwindfunclet$?UTIL_GetRandomUnbuiltHive@@YAPAUedict_s@@XZ$0 10099140 f   util.obj
 0001:00098148       __ehhandler$?UTIL_GetRandomUnbuiltHive@@YAPAUedict_s@@XZ 10099148 f   util.obj
 0001:00098163       __ehhandler$?_Copy@?$basic_string@DU?$char_traits@D@std@@V?$allocator@D@2@@std@@QAEXII@Z 10099163 f   libcpmt:xthrow.obj
 0001:0009817e       __ehhandler$?CallUnexpected@@YAXPBU_s_ESTypeList@@@Z 1009917e f   LIBCMT:frame.obj
 0001:000981a0       ??__FgBotGlobals@@YAXXZ    100991a0 f   dll.obj
 0001:000981aa       ??__F?_Generic_object@?$_Error_objects@H@std@@2V_Generic_error_category@2@A@@YAXXZ 100991aa f   libcpmt:xthrow.obj
 0001:000981b5       ??__F?_Iostream_object@?$_Error_objects@H@std@@2V_Iostream_error_category@2@A@@YAXXZ 100991b5 f   libcpmt:xthrow.obj
 0001:000981c0       ??__F?_System_object@?$_Error_objects@H@std@@2V_System_error_category@2@A@@YAXXZ 100991c0 f   libcpmt:xthrow.obj
 0001:000981cb       ??__F?_Generic_object@?$_Error_objects@H@std@@2V_Generic_error_category@2@A@@YAXXZ 100991cb f   libcpmt:syserror.obj
 0001:000981d6       ??__F?_Iostream_object@?$_Error_objects@H@std@@2V_Iostream_error_category@2@A@@YAXXZ 100991d6 f   libcpmt:syserror.obj
 0001:000981e1       ??__F?_System_object@?$_Error_objects@H@std@@2V_System_error_category@2@A@@YAXXZ 100991e1 f   libcpmt:syserror.obj
 0002:0000018c       _gBotGlobals$initializer$  1009a18c     dll.obj
 0002:00000190       _WaypointVisibility$initializer$ 1009a190     waypoint.obj
 0002:00000194       _waypoints$initializer$    1009a194     waypoint.obj
 0002:00000198       ?_Generic_object$initializer$@?$_Error_objects@H@std@@2P6AXXZA 1009a198     libcpmt:xthrow.obj
 0002:0000019c       ?_Iostream_object$initializer$@?$_Error_objects@H@std@@2P6AXXZA 1009a19c     libcpmt:xthrow.obj
 0002:000001a0       ?_System_object$initializer$@?$_Error_objects@H@std@@2P6AXXZA 1009a1a0     libcpmt:xthrow.obj
 0002:000001ac       _pinit                     1009a1ac     LIBCMT:onexit.obj
 0002:000001b0       _pinit                     1009a1b0     LIBCMT:_file.obj
 0002:000001b4       _pinit                     1009a1b4     LIBCMT:cpu_disp.obj
 0002:000001b8       _pinit                     1009a1b8     LIBCMT:mbctype.obj
 0002:000001bc       _pinit                     1009a1bc     LIBCMT:mathfcns.obj
 0002:000001c8       _pterm                     1009a1c8     LIBCMT:wsetloca.obj
 0002:000001cc       _pterm                     1009a1cc     LIBCMT:initcon.obj
 0002:000001d0       _pterm                     1009a1d0     LIBCMT:_file.obj
 0002:00009e40       __Win_errtab               100a3e40     libcpmt:syserror.obj
 0002:0000a098       __Sys_errtab               100a4098     libcpmt:syserror.obj
 0002:0000abe0       ?ExceptionTemplate@?1??_CxxThrowException@@9@8@4UEHExceptionRecord@@B 100a4be0     LIBCMT:throw.obj
 0002:0000ac00       Ctable                     100a4c00     LIBCMT:cos_sse2_precise.obj
 0002:0000b400       SC_1                       100a5400     LIBCMT:cos_sse2_precise.obj
 0002:0000b410       SC_2                       100a5410     LIBCMT:cos_sse2_precise.obj
 0002:0000b420       SC_3                       100a5420     LIBCMT:cos_sse2_precise.obj
 0002:0000b430       SC_4                       100a5430     LIBCMT:cos_sse2_precise.obj
 0002:0000b440       PI32INV                    100a5440     LIBCMT:cos_sse2_precise.obj
 0002:0000b448       SHIFTER                    100a5448     LIBCMT:cos_sse2_precise.obj
 0002:0000b450       P_2                        100a5450     LIBCMT:cos_sse2_precise.obj
 0002:0000b460       P_1                        100a5460     LIBCMT:cos_sse2_precise.obj
 0002:0000b468       P_3                        100a5468     LIBCMT:cos_sse2_precise.obj
 0002:0000b470       TWO_POW_55                 100a5470     LIBCMT:cos_sse2_precise.obj
 0002:0000b478       TWO_POW_M55                100a5478     LIBCMT:cos_sse2_precise.obj
 0002:0000b480       ALL_ONES                   100a5480     LIBCMT:cos_sse2_precise.obj
 0002:0000b488       NEG_ZERO                   100a5488     LIBCMT:cos_sse2_precise.obj
 0002:0000b490       ONE                        100a5490     LIBCMT:cos_sse2_precise.obj
 0002:0000b4a0       SIGN_MASK                  100a54a0     LIBCMT:cos_sse2_precise.obj
 0002:0000b4b0       rcp_t1                     100a54b0     LIBCMT:pow_sse2_precise.obj
 0002:0000b8c0       log2_t1                    100a58c0     LIBCMT:pow_sse2_precise.obj
 0002:0000c0d0       rcp_t2                     100a60d0     LIBCMT:pow_sse2_precise.obj
 0002:0000c4e0       log2_t2                    100a64e0     LIBCMT:pow_sse2_precise.obj
 0002:0000ccf0       rcp_t3                     100a6cf0     LIBCMT:pow_sse2_precise.obj
 0002:0000d500       log2_t3                    100a7500     LIBCMT:pow_sse2_precise.obj
 0002:0000e510       clv                        100a8510     LIBCMT:pow_sse2_precise.obj
 0002:0000e530       exp2_tbl                   100a8530     LIBCMT:pow_sse2_precise.obj
 0002:0000ed30       Shifter                    100a8d30     LIBCMT:pow_sse2_precise.obj
 0002:0000ed40       SIGMASK                    100a8d40     LIBCMT:pow_sse2_precise.obj
 0002:0000ed50       ONEMASK                    100a8d50     LIBCMT:pow_sse2_precise.obj
 0002:0000ed60       ABSVALMASK                 100a8d60     LIBCMT:pow_sse2_precise.obj
 0002:0000ed70       cev                        100a8d70     LIBCMT:pow_sse2_precise.obj
 0002:0000ed98       HALFSIG                    100a8d98     LIBCMT:pow_sse2_precise.obj
 0002:0000eda0       LHN                        100a8da0     LIBCMT:pow_sse2_precise.obj
 0002:0000eda8       sNaN                       100a8da8     LIBCMT:pow_sse2_precise.obj
 0002:0000edb0       INF                        100a8db0     LIBCMT:pow_sse2_precise.obj
 0002:0000edb8       NEG_INF                    100a8db8     LIBCMT:pow_sse2_precise.obj
 0002:0000edc0       NEG_ZERO                   100a8dc0     LIBCMT:pow_sse2_precise.obj
 0002:0000edc8       NEG_BIG                    100a8dc8     LIBCMT:pow_sse2_precise.obj
 0002:0000edd0       POS_BIG                    100a8dd0     LIBCMT:pow_sse2_precise.obj
 0002:0000edd8       EMIN                       100a8dd8     LIBCMT:pow_sse2_precise.obj
 0002:0000ede0       QIND                       100a8de0     LIBCMT:pow_sse2_precise.obj
 0002:0000edf0       Ctable                     100a8df0     LIBCMT:sin_sse2_precise.obj
 0002:0000f5f0       SC_1                       100a95f0     LIBCMT:sin_sse2_precise.obj
 0002:0000f600       SC_2                       100a9600     LIBCMT:sin_sse2_precise.obj
 0002:0000f610       SC_3                       100a9610     LIBCMT:sin_sse2_precise.obj
 0002:0000f620       SC_4                       100a9620     LIBCMT:sin_sse2_precise.obj
 0002:0000f630       PI32INV                    100a9630     LIBCMT:sin_sse2_precise.obj
 0002:0000f638       SHIFTER                    100a9638     LIBCMT:sin_sse2_precise.obj
 0002:0000f640       P_2                        100a9640     LIBCMT:sin_sse2_precise.obj
 0002:0000f650       P_1                        100a9650     LIBCMT:sin_sse2_precise.obj
 0002:0000f658       P_3                        100a9658     LIBCMT:sin_sse2_precise.obj
 0002:0000f660       TWO_POW_55                 100a9660     LIBCMT:sin_sse2_precise.obj
 0002:0000f668       TWO_POW_M55                100a9668     LIBCMT:sin_sse2_precise.obj
 0002:0000f670       ALL_ONES                   100a9670     LIBCMT:sin_sse2_precise.obj
 0002:0000f678       NEG_ZERO                   100a9678     LIBCMT:sin_sse2_precise.obj
 0002:0000f680       ONE                        100a9680     LIBCMT:sin_sse2_precise.obj
 0002:0000f698       _GS_ExceptionPointers      100a9698     LIBCMT:gs_report.obj
 0002:0000f6a0       smask                      100a96a0     LIBCMT:exp_sse2_precise.obj
 0002:0000f6b0       emask                      100a96b0     LIBCMT:exp_sse2_precise.obj
 0002:0000f6c0       mmask                      100a96c0     LIBCMT:exp_sse2_precise.obj
 0002:0000f6d0       bias                       100a96d0     LIBCMT:exp_sse2_precise.obj
 0002:0000f6e0       Shifter                    100a96e0     LIBCMT:exp_sse2_precise.obj
 0002:0000f6f0       twom60                     100a96f0     LIBCMT:exp_sse2_precise.obj
 0002:0000f700       cv                         100a9700     LIBCMT:exp_sse2_precise.obj
 0002:0000f750       Tbl_addr                   100a9750     LIBCMT:exp_sse2_precise.obj
 0002:0000fb50       ONE_val                    100a9b50     LIBCMT:exp_sse2_precise.obj
 0002:0000fb58       EMIN                       100a9b58     LIBCMT:exp_sse2_precise.obj
 0002:0000fb60       MAX_ARG                    100a9b60     LIBCMT:exp_sse2_precise.obj
 0002:0000fb68       MIN_ARG                    100a9b68     LIBCMT:exp_sse2_precise.obj
 0002:0000fb70       INF                        100a9b70     LIBCMT:exp_sse2_precise.obj
 0002:0000fb78       ZERO                       100a9b78     LIBCMT:exp_sse2_precise.obj
 0002:0000fb80       XMAX                       100a9b80     LIBCMT:exp_sse2_precise.obj
 0002:0000fb88       XMIN                       100a9b88     LIBCMT:exp_sse2_precise.obj
 0002:0000fb90       Sm_Thres                   100a9b90     LIBCMT:exp_sse2_precise.obj
 0002:0000fb98       Del_Thres                  100a9b98     LIBCMT:exp_sse2_precise.obj
 0002:0000fba0       Shifter                    100a9ba0     LIBCMT:acos_sse2_precise.obj
 0002:0000fbb0       Tbl_addr                   100a9bb0     LIBCMT:acos_sse2_precise.obj
 0002:00010ab0       T_table                    100aaab0     LIBCMT:acos_sse2_precise.obj
 0002:000112b0       PI_BY_2                    100ab2b0     LIBCMT:acos_sse2_precise.obj
 0002:000112c0       NEG_PI                     100ab2c0     LIBCMT:acos_sse2_precise.obj
 0002:000112d0       PI                         100ab2d0     LIBCMT:acos_sse2_precise.obj
 0002:000112e0       SIGNMASK                   100ab2e0     LIBCMT:acos_sse2_precise.obj
 0002:000112f0       HALFMASK                   100ab2f0     LIBCMT:acos_sse2_precise.obj
 0002:00011300       HALFMASK2                  100ab300     LIBCMT:acos_sse2_precise.obj
 0002:00011310       cv                         100ab310     LIBCMT:acos_sse2_precise.obj
 0002:00011330       cv2                        100ab330     LIBCMT:acos_sse2_precise.obj
 0002:00011370       ABSVALMASK                 100ab370     LIBCMT:acos_sse2_precise.obj
 0002:00011378       TMASK                      100ab378     LIBCMT:acos_sse2_precise.obj
 0002:00011380       ONEMASK                    100ab380     LIBCMT:acos_sse2_precise.obj
 0002:00011388       ONE_BY_2                   100ab388     LIBCMT:acos_sse2_precise.obj
 0002:00011390       EMIN                       100ab390     LIBCMT:acos_sse2_precise.obj
 0002:00011398       MAX_ARG                    100ab398     LIBCMT:acos_sse2_precise.obj
 0002:000113a0       MIN_ARG                    100ab3a0     LIBCMT:acos_sse2_precise.obj
 0002:000113a8       INF                        100ab3a8     LIBCMT:acos_sse2_precise.obj
 0002:000113b0       ZERO                       100ab3b0     LIBCMT:acos_sse2_precise.obj
 0002:000113b8       ALPHA                      100ab3b8     LIBCMT:acos_sse2_precise.obj
 0002:0001154c       ?ccsField@?P@??_openfile@@9@9 100ab54c     LIBCMT:_open.obj
 0002:00011550       ?utf8encoding@?P@??_openfile@@9@9 100ab550     LIBCMT:_open.obj
 0002:00011558       ?utf16encoding@?P@??_openfile@@9@9 100ab558     LIBCMT:_open.obj
 0002:00011564       ?unicodeencoding@?P@??_openfile@@9@9 100ab564     LIBCMT:_open.obj
 0002:00011850       _rterrs                    100ab850     LIBCMT:crt0msg.obj
 0002:000122e4       __mb_locale_names          100ac2e4     LIBCMT:mbctype.obj
 0002:000126f8       _INF                       100ac6f8     LIBCMT:libm_error.obj
 0002:00012708       _BIG                       100ac708     LIBCMT:libm_error.obj
 0002:00012718       _ZERO                      100ac718     LIBCMT:libm_error.obj
 0002:00012728       _INF_32                    100ac728     LIBCMT:libm_error.obj
 0002:00012730       _NAN_32                    100ac730     LIBCMT:libm_error.obj
 0002:00012738       _ZERO_32                   100ac738     LIBCMT:libm_error.obj
 0002:00012740       _libm_largef               100ac740     LIBCMT:libm_error.obj
 0002:00012748       _libm_smallf               100ac748     LIBCMT:libm_error.obj
 0002:00012750       _libm_small                100ac750     LIBCMT:libm_error.obj
 0002:00012840       __first_127char            100ac840     LIBCMT:wsetloca.obj
 0002:00012a04       One                        100aca04     LIBCMT:87disp.obj
 0002:00012a0c       XAMtoTagTab                100aca0c     LIBCMT:87disp.obj
 0002:00012a20       One                        100aca20     LIBCMT:common.obj
 0002:00012a34       DblMax                     100aca34     LIBCMT:common.obj
 0002:00012a3c       DblMin                     100aca3c     LIBCMT:common.obj
 0002:00012a44       IeeeAdjO                   100aca44     LIBCMT:common.obj
 0002:00012a4c       IeeeAdjU                   100aca4c     LIBCMT:common.obj
 0002:00012a54       _infinity                  100aca54     LIBCMT:common.obj
 0002:00012a5c       _zero                      100aca5c     LIBCMT:common.obj
 0002:00015370       Ctable                     100af370     LIBCMT:cos_pentium4.obj
 0002:00015b70       SC_1                       100afb70     LIBCMT:cos_pentium4.obj
 0002:00015b80       SC_2                       100afb80     LIBCMT:cos_pentium4.obj
 0002:00015b90       SC_3                       100afb90     LIBCMT:cos_pentium4.obj
 0002:00015ba0       SC_4                       100afba0     LIBCMT:cos_pentium4.obj
 0002:00015bb0       PI32INV                    100afbb0     LIBCMT:cos_pentium4.obj
 0002:00015bb8       SHIFTER                    100afbb8     LIBCMT:cos_pentium4.obj
 0002:00015bc0       P_2                        100afbc0     LIBCMT:cos_pentium4.obj
 0002:00015bd0       P_1                        100afbd0     LIBCMT:cos_pentium4.obj
 0002:00015bd8       P_3                        100afbd8     LIBCMT:cos_pentium4.obj
 0002:00015be0       TWO_POW_55                 100afbe0     LIBCMT:cos_pentium4.obj
 0002:00015be8       TWO_POW_M55                100afbe8     LIBCMT:cos_pentium4.obj
 0002:00015bf0       ALL_ONES                   100afbf0     LIBCMT:cos_pentium4.obj
 0002:00015bf8       NEG_ZERO                   100afbf8     LIBCMT:cos_pentium4.obj
 0002:00015c00       ONE                        100afc00     LIBCMT:cos_pentium4.obj
 0002:00015c10       SIGN_MASK                  100afc10     LIBCMT:cos_pentium4.obj
 0002:00015c20       rcp_t1                     100afc20     LIBCMT:pow_pentium4.obj
 0002:00016030       log2_t1                    100b0030     LIBCMT:pow_pentium4.obj
 0002:00016840       rcp_t2                     100b0840     LIBCMT:pow_pentium4.obj
 0002:00016c50       log2_t2                    100b0c50     LIBCMT:pow_pentium4.obj
 0002:00017460       rcp_t3                     100b1460     LIBCMT:pow_pentium4.obj
 0002:00017c70       log2_t3                    100b1c70     LIBCMT:pow_pentium4.obj
 0002:00018c80       clv                        100b2c80     LIBCMT:pow_pentium4.obj
 0002:00018ca0       exp2_tbl                   100b2ca0     LIBCMT:pow_pentium4.obj
 0002:000194a0       Shifter                    100b34a0     LIBCMT:pow_pentium4.obj
 0002:000194b0       SIGMASK                    100b34b0     LIBCMT:pow_pentium4.obj
 0002:000194c0       ONEMASK                    100b34c0     LIBCMT:pow_pentium4.obj
 0002:000194d0       ABSVALMASK                 100b34d0     LIBCMT:pow_pentium4.obj
 0002:000194e0       cev                        100b34e0     LIBCMT:pow_pentium4.obj
 0002:00019508       HALFSIG                    100b3508     LIBCMT:pow_pentium4.obj
 0002:00019510       LHN                        100b3510     LIBCMT:pow_pentium4.obj
 0002:00019518       sNaN                       100b3518     LIBCMT:pow_pentium4.obj
 0002:00019520       INF                        100b3520     LIBCMT:pow_pentium4.obj
 0002:00019528       NEG_INF                    100b3528     LIBCMT:pow_pentium4.obj
 0002:00019530       NEG_ZERO                   100b3530     LIBCMT:pow_pentium4.obj
 0002:00019538       NEG_BIG                    100b3538     LIBCMT:pow_pentium4.obj
 0002:00019540       POS_BIG                    100b3540     LIBCMT:pow_pentium4.obj
 0002:00019548       EMIN                       100b3548     LIBCMT:pow_pentium4.obj
 0002:00019550       QIND                       100b3550     LIBCMT:pow_pentium4.obj
 0002:0001957e       _log2max                   100b357e     LIBCMT:87tran.obj
 0002:00019588       _smallarg                  100b3588     LIBCMT:87tran.obj
 0002:00019592       _half                      100b3592     LIBCMT:87tran.obj
 0002:000195c0       Ctable                     100b35c0     LIBCMT:sin_pentium4.obj
 0002:00019dc0       SC_1                       100b3dc0     LIBCMT:sin_pentium4.obj
 0002:00019dd0       SC_2                       100b3dd0     LIBCMT:sin_pentium4.obj
 0002:00019de0       SC_3                       100b3de0     LIBCMT:sin_pentium4.obj
 0002:00019df0       SC_4                       100b3df0     LIBCMT:sin_pentium4.obj
 0002:00019e00       PI32INV                    100b3e00     LIBCMT:sin_pentium4.obj
 0002:00019e08       SHIFTER                    100b3e08     LIBCMT:sin_pentium4.obj
 0002:00019e10       P_2                        100b3e10     LIBCMT:sin_pentium4.obj
 0002:00019e20       P_1                        100b3e20     LIBCMT:sin_pentium4.obj
 0002:00019e28       P_3                        100b3e28     LIBCMT:sin_pentium4.obj
 0002:00019e30       TWO_POW_55                 100b3e30     LIBCMT:sin_pentium4.obj
 0002:00019e38       TWO_POW_M55                100b3e38     LIBCMT:sin_pentium4.obj
 0002:00019e40       ALL_ONES                   100b3e40     LIBCMT:sin_pentium4.obj
 0002:00019e48       NEG_ZERO                   100b3e48     LIBCMT:sin_pentium4.obj
 0002:00019e50       ONE                        100b3e50     LIBCMT:sin_pentium4.obj
 0002:00019e60       _tokenTable                100b3e60     LIBCMT:undname.obj
 0002:00019e98       _nameTable                 100b3e98     LIBCMT:undname.obj
 0002:00019fd8       _rttiTable                 100b3fd8     LIBCMT:undname.obj
 0002:0001b760       smask                      100b5760     LIBCMT:exp_pentium4.obj
 0002:0001b770       emask                      100b5770     LIBCMT:exp_pentium4.obj
 0002:0001b780       mmask                      100b5780     LIBCMT:exp_pentium4.obj
 0002:0001b790       bias                       100b5790     LIBCMT:exp_pentium4.obj
 0002:0001b7a0       Shifter                    100b57a0     LIBCMT:exp_pentium4.obj
 0002:0001b7b0       twom60                     100b57b0     LIBCMT:exp_pentium4.obj
 0002:0001b7c0       cv                         100b57c0     LIBCMT:exp_pentium4.obj
 0002:0001b810       Tbl_addr                   100b5810     LIBCMT:exp_pentium4.obj
 0002:0001bc10       ONE_val                    100b5c10     LIBCMT:exp_pentium4.obj
 0002:0001bc18       EMIN                       100b5c18     LIBCMT:exp_pentium4.obj
 0002:0001bc20       MAX_ARG                    100b5c20     LIBCMT:exp_pentium4.obj
 0002:0001bc28       MIN_ARG                    100b5c28     LIBCMT:exp_pentium4.obj
 0002:0001bc30       INF                        100b5c30     LIBCMT:exp_pentium4.obj
 0002:0001bc38       ZERO                       100b5c38     LIBCMT:exp_pentium4.obj
 0002:0001bc40       XMAX                       100b5c40     LIBCMT:exp_pentium4.obj
 0002:0001bc48       XMIN                       100b5c48     LIBCMT:exp_pentium4.obj
 0002:0001bc50       Sm_Thres                   100b5c50     LIBCMT:exp_pentium4.obj
 0002:0001bc58       Del_Thres                  100b5c58     LIBCMT:exp_pentium4.obj
 0002:0001bc60       DblMax                     100b5c60     LIBCMT:87cdisp.obj
 0002:0001bc68       DblMin                     100b5c68     LIBCMT:87cdisp.obj
 0002:0001bc70       IeeeAdjO                   100b5c70     LIBCMT:87cdisp.obj
 0002:0001bc78       IeeeAdjU                   100b5c78     LIBCMT:87cdisp.obj
 0002:0001bc80       _infinity                  100b5c80     LIBCMT:87cdisp.obj
 0002:0001bc88       _zero                      100b5c88     LIBCMT:87cdisp.obj
 0002:0001bc90       Shifter                    100b5c90     LIBCMT:acos_pentium4.obj
 0002:0001bca0       Tbl_addr                   100b5ca0     LIBCMT:acos_pentium4.obj
 0002:0001cba0       T_table                    100b6ba0     LIBCMT:acos_pentium4.obj
 0002:0001d3a0       PI_BY_2                    100b73a0     LIBCMT:acos_pentium4.obj
 0002:0001d3b0       NEG_PI                     100b73b0     LIBCMT:acos_pentium4.obj
 0002:0001d3c0       PI                         100b73c0     LIBCMT:acos_pentium4.obj
 0002:0001d3d0       SIGNMASK                   100b73d0     LIBCMT:acos_pentium4.obj
 0002:0001d3e0       HALFMASK                   100b73e0     LIBCMT:acos_pentium4.obj
 0002:0001d3f0       HALFMASK2                  100b73f0     LIBCMT:acos_pentium4.obj
 0002:0001d400       cv                         100b7400     LIBCMT:acos_pentium4.obj
 0002:0001d420       cv2                        100b7420     LIBCMT:acos_pentium4.obj
 0002:0001d460       ABSVALMASK                 100b7460     LIBCMT:acos_pentium4.obj
 0002:0001d468       TMASK                      100b7468     LIBCMT:acos_pentium4.obj
 0002:0001d470       ONEMASK                    100b7470     LIBCMT:acos_pentium4.obj
 0002:0001d478       ONE_BY_2                   100b7478     LIBCMT:acos_pentium4.obj
 0002:0001d480       EMIN                       100b7480     LIBCMT:acos_pentium4.obj
 0002:0001d488       MAX_ARG                    100b7488     LIBCMT:acos_pentium4.obj
 0002:0001d490       MIN_ARG                    100b7490     LIBCMT:acos_pentium4.obj
 0002:0001d498       INF                        100b7498     LIBCMT:acos_pentium4.obj
 0002:0001d4a0       ZERO                       100b74a0     LIBCMT:acos_pentium4.obj
 0002:0001d4a8       ALPHA                      100b74a8     LIBCMT:acos_pentium4.obj
 0002:0001f198       __unwindtable$??0CGA@@QAE@H@Z 100b9198     bot.obj
 0002:0001f1a8       __ehfuncinfo$??0CGA@@QAE@H@Z 100b91a8     bot.obj
 0002:0001f1cc       __unwindtable$?BotFunc_FindRandomEntity@@YAPAUedict_s@@PAD@Z 100b91cc     bot.obj
 0002:0001f1d4       __ehfuncinfo$?BotFunc_FindRandomEntity@@YAPAUedict_s@@PAD@Z 100b91d4     bot.obj
 0002:0001f1f8       __catchsym$?RemoveSameTask@CBotTasks@@QAEXABVCBotTask@@@Z$2 100b91f8     bot.obj
 0002:0001f208       __unwindtable$?RemoveSameTask@CBotTasks@@QAEXABVCBotTask@@@Z 100b9208     bot.obj
 0002:0001f218       __tryblocktable$?RemoveSameTask@CBotTasks@@QAEXABVCBotTask@@@Z 100b9218     bot.obj
 0002:0001f22c       __ehfuncinfo$?RemoveSameTask@CBotTasks@@QAEXABVCBotTask@@@Z 100b922c     bot.obj
 0002:0001f250       __catchsym$?_Reallocate@?$vector@VCRememberPosition@@V?$allocator@VCRememberPosition@@@std@@@std@@IAEXI@Z$2 100b9250     bot.obj
 0002:0001f260       __unwindtable$?_Reallocate@?$vector@VCRememberPosition@@V?$allocator@VCRememberPosition@@@std@@@std@@IAEXI@Z 100b9260     bot.obj
 0002:0001f270       __tryblocktable$?_Reallocate@?$vector@VCRememberPosition@@V?$allocator@VCRememberPosition@@@std@@@std@@IAEXI@Z 100b9270     bot.obj
 0002:0001f284       __ehfuncinfo$?_Reallocate@?$vector@VCRememberPosition@@V?$allocator@VCRememberPosition@@@std@@@std@@IAEXI@Z 100b9284     bot.obj
 0002:0001f2a8       __unwindtable$?AddSquadMember@CBotSquads@@QAEPAVCBotSquad@@PAUedict_s@@0@Z 100b92a8     bot.obj
 0002:0001f2b0       __ehfuncinfo$?AddSquadMember@CBotSquads@@QAEPAVCBotSquad@@PAUedict_s@@0@Z 100b92b0     bot.obj
 0002:0001f2d4       __unwindtable$?decideJumpDuckStrafe@CBot@@AAEXMVVector@@@Z 100b92d4     bot.obj
 0002:0001f2dc       __ehfuncinfo$?decideJumpDuckStrafe@CBot@@AAEXMVVector@@@Z 100b92dc     bot.obj
 0002:0001f300       __unwindtable$?DoTasks@CBot@@AAEXXZ 100b9300     bot.obj
 0002:0001f318       __ehfuncinfo$?DoTasks@CBot@@AAEXXZ 100b9318     bot.obj
 0002:0001f33c       __ehfuncinfo$?setupDataStructures@CBot@@QAEXXZ 100b933c     bot.obj
 0002:0001f360       __unwindtable$?setupDataStructures@CBot@@QAEXXZ 100b9360     bot.obj
 0002:0001f3e0       __unwindtable$?LookForNewTasks@CBot@@QAEXXZ 100b93e0     bot.obj
 0002:0001f3f8       __ehfuncinfo$?LookForNewTasks@CBot@@QAEXXZ 100b93f8     bot.obj
 0002:0001f41c       __unwindtable$?WorkMoveDirection@CBot@@QAEXXZ 100b941c     bot.obj
 0002:0001f424       __ehfuncinfo$?WorkMoveDirection@CBot@@QAEXXZ 100b9424     bot.obj
 0002:0001f448       __unwindtable$?WantToFollowEnemy@CBot@@QAEHPAUedict_s@@@Z 100b9448     bot.obj
 0002:0001f458       __ehfuncinfo$?WantToFollowEnemy@CBot@@QAEHPAUedict_s@@@Z 100b9458     bot.obj
 0002:0001f47c       __unwindtable$?BotEvent@CBot@@QAEXW4eBotEvent@@PAUedict_s@@1PAM@Z 100b947c     bot.obj
 0002:0001f48c       __ehfuncinfo$?BotEvent@CBot@@QAEXW4eBotEvent@@PAUedict_s@@1PAM@Z 100b948c     bot.obj
 0002:0001f4b0       __unwindtable$?UpdateVisibles@CBot@@QAEHXZ 100b94b0     bot.obj
 0002:0001f4b8       __ehfuncinfo$?UpdateVisibles@CBot@@QAEHXZ 100b94b8     bot.obj
 0002:0001f4dc       __unwindtable$?BotFunc_GetRandomPlayerName@@YAPBDPAVCBot@@H@Z 100b94dc     bot.obj
 0002:0001f4e4       __ehfuncinfo$?BotFunc_GetRandomPlayerName@@YAPBDPAVCBot@@H@Z 100b94e4     bot.obj
 0002:0001f508       __unwindtable$?BotFunc_GetStructureForGorgeBuild@@YAHPAUentvars_s@@0@Z 100b9508     bot.obj
 0002:0001f510       __ehfuncinfo$?BotFunc_GetStructureForGorgeBuild@@YAHPAUentvars_s@@0@Z 100b9510     bot.obj
 0002:0001f534       __catchsym$?_Reallocate@?$vector@VCActionUtility@@V?$allocator@VCActionUtility@@@std@@@std@@IAEXI@Z$2 100b9534     bot.obj
 0002:0001f544       __unwindtable$?_Reallocate@?$vector@VCActionUtility@@V?$allocator@VCActionUtility@@@std@@@std@@IAEXI@Z 100b9544     bot.obj
 0002:0001f554       __tryblocktable$?_Reallocate@?$vector@VCActionUtility@@V?$allocator@VCActionUtility@@@std@@@std@@IAEXI@Z 100b9554     bot.obj
 0002:0001f568       __ehfuncinfo$?_Reallocate@?$vector@VCActionUtility@@V?$allocator@VCActionUtility@@@std@@@std@@IAEXI@Z 100b9568     bot.obj
 0002:0001f5e0       __catchsym$?execute@BotClient_TS_ClipInfo@@UAEXPAXH@Z$2 100b95e0     bot_client.obj
 0002:0001f5f0       __unwindtable$?execute@BotClient_TS_ClipInfo@@UAEXPAXH@Z 100b95f0     bot_client.obj
 0002:0001f600       __tryblocktable$?execute@BotClient_TS_ClipInfo@@UAEXPAXH@Z 100b9600     bot_client.obj
 0002:0001f614       __ehfuncinfo$?execute@BotClient_TS_ClipInfo@@UAEXPAXH@Z 100b9614     bot_client.obj
 0002:0001f638       __ehfuncinfo$?SetupNetMessages@@YAXXZ 100b9638     bot_client.obj
 0002:0001f65c       __unwindtable$?SetupNetMessages@@YAXXZ 100b965c     bot_client.obj
 0002:0001f76c       __catchsym$?_Reallocate@?$vector@VTSObjective@@V?$allocator@VTSObjective@@@std@@@std@@IAEXI@Z$2 100b976c     bot_client.obj
 0002:0001f77c       __unwindtable$?_Reallocate@?$vector@VTSObjective@@V?$allocator@VTSObjective@@@std@@@std@@IAEXI@Z 100b977c     bot_client.obj
 0002:0001f78c       __tryblocktable$?_Reallocate@?$vector@VTSObjective@@V?$allocator@VTSObjective@@@std@@@std@@IAEXI@Z 100b978c     bot_client.obj
 0002:0001f7a0       __ehfuncinfo$?_Reallocate@?$vector@VTSObjective@@V?$allocator@VTSObjective@@@std@@@std@@IAEXI@Z 100b97a0     bot_client.obj
 0002:0001f7c4       __catchsym$?_Reallocate@?$vector@VCBotNSTech@@V?$allocator@VCBotNSTech@@@std@@@std@@IAEXI@Z$2 100b97c4     bot_client.obj
 0002:0001f7d4       __unwindtable$?_Reallocate@?$vector@VCBotNSTech@@V?$allocator@VCBotNSTech@@@std@@@std@@IAEXI@Z 100b97d4     bot_client.obj
 0002:0001f7e4       __tryblocktable$?_Reallocate@?$vector@VCBotNSTech@@V?$allocator@VCBotNSTech@@@std@@@std@@IAEXI@Z 100b97e4     bot_client.obj
 0002:0001f7f8       __ehfuncinfo$?_Reallocate@?$vector@VCBotNSTech@@V?$allocator@VCBotNSTech@@@std@@@std@@IAEXI@Z 100b97f8     bot_client.obj
 0002:0001f81c       __ehfuncinfo$?SetupCommands@@YAXXZ 100b981c     bot_commands.obj
 0002:0001f840       __unwindtable$?SetupCommands@@YAXXZ 100b9840     bot_commands.obj
 0002:0001f8d8       __unwindtable$?BotFunc_AddBot@@YA?AW4eBotCvarState@@PAVCClient@@PBD111@Z 100b98d8     bot_commands.obj
 0002:0001f8e8       __ehfuncinfo$?BotFunc_AddBot@@YA?AW4eBotCvarState@@PAVCClient@@PBD111@Z 100b98e8     bot_commands.obj
 0002:0001f90c       __unwindtable$??0CBotGAValues@@QAE@V?$vector@MV?$allocator@M@std@@@std@@@Z 100b990c     bot_ga.obj
 0002:0001f91c       __ehfuncinfo$??0CBotGAValues@@QAE@V?$vector@MV?$allocator@M@std@@@std@@@Z 100b991c     bot_ga.obj
 0002:0001f940       __unwindtable$?copy@CBotGAValues@@UAEPAVIIndividual@@XZ 100b9940     bot_ga.obj
 0002:0001f948       __ehfuncinfo$?copy@CBotGAValues@@UAEPAVIIndividual@@XZ 100b9948     bot_ga.obj
 0002:0001f96c       __unwindtable$?setVector@CBotGAValues@@QAEXV?$vector@MV?$allocator@M@std@@@std@@@Z 100b996c     bot_ga.obj
 0002:0001f974       __ehfuncinfo$?setVector@CBotGAValues@@QAEXV?$vector@MV?$allocator@M@std@@@std@@@Z 100b9974     bot_ga.obj
 0002:0001f998       __unwindtable$??0CBitsGAValues@@QAE@I@Z 100b9998     bot_ga.obj
 0002:0001f9a0       __ehfuncinfo$??0CBitsGAValues@@QAE@I@Z 100b99a0     bot_ga.obj
 0002:0001f9c4       __unwindtable$?crossOver@CBitsGAValues@@UAEXPAVIIndividual@@@Z 100b99c4     bot_ga.obj
 0002:0001f9cc       __ehfuncinfo$?crossOver@CBitsGAValues@@UAEXPAVIIndividual@@@Z 100b99cc     bot_ga.obj
 0002:0001f9f0       __unwindtable$?copy@CBitsGAValues@@UAEPAVIIndividual@@XZ 100b99f0     bot_ga.obj
 0002:0001f9f8       __ehfuncinfo$?copy@CBitsGAValues@@UAEPAVIIndividual@@XZ 100b99f8     bot_ga.obj
 0002:0001fa1c       __unwindtable$?AddExitMenuItem@CBotMenu@@QAEXH@Z 100b9a1c     bot_menu.obj
 0002:0001fa24       __ehfuncinfo$?AddExitMenuItem@CBotMenu@@QAEXH@Z 100b9a24     bot_menu.obj
 0002:0001fa48       __unwindtable$?AddMenuItem@CBotMenu@@QAEXHPBDPAV1@@Z 100b9a48     bot_menu.obj
 0002:0001fa50       __ehfuncinfo$?AddMenuItem@CBotMenu@@QAEXHPBDPAV1@@Z 100b9a50     bot_menu.obj
 0002:0001fa74       __unwindtable$?AddMenuItem@CBotMenu@@QAEXHPBDP6AXPAVCClient@@@Z@Z 100b9a74     bot_menu.obj
 0002:0001fa7c       __ehfuncinfo$?AddMenuItem@CBotMenu@@QAEXHPBDP6AXPAVCClient@@@Z@Z 100b9a7c     bot_menu.obj
 0002:0001faa0       __ehfuncinfo$?SetupMenus@@YAXXZ 100b9aa0     bot_menu.obj
 0002:0001fac4       __unwindtable$?SetupMenus@@YAXXZ 100b9ac4     bot_menu.obj
 0002:0001fdf4       __unwindtable$?BotMenu_Func_KickBot@@YAXPAVCClient@@@Z 100b9df4     bot_menu.obj
 0002:0001fdfc       __ehfuncinfo$?BotMenu_Func_KickBot@@YAXPAVCClient@@@Z 100b9dfc     bot_menu.obj
 0002:0001fe20       __unwindtable$?BotMenu_Func_KickBotFromTeam@@YAXPAVCClient@@@Z 100b9e20     bot_menu.obj
 0002:0001fe28       __ehfuncinfo$?BotMenu_Func_KickBotFromTeam@@YAXPAVCClient@@@Z 100b9e28     bot_menu.obj
 0002:0001fe4c       __unwindtable$?BotNavigate_ScanFOV@@YA?AVVector@@PAVCBot@@@Z 100b9e4c     bot_navigate.obj
 0002:0001fe54       __ehfuncinfo$?BotNavigate_ScanFOV@@YA?AVVector@@PAVCBot@@@Z 100b9e54     bot_navigate.obj
 0002:0001fe78       __catchsym$?_Reallocate@?$vector@VVector@@V?$allocator@VVector@@@std@@@std@@IAEXI@Z$2 100b9e78     bot_navigate.obj
 0002:0001fe88       __unwindtable$?_Reallocate@?$vector@VVector@@V?$allocator@VVector@@@std@@@std@@IAEXI@Z 100b9e88     bot_navigate.obj
 0002:0001fe98       __tryblocktable$?_Reallocate@?$vector@VVector@@V?$allocator@VVector@@@std@@@std@@IAEXI@Z 100b9e98     bot_navigate.obj
 0002:0001feac       __ehfuncinfo$?_Reallocate@?$vector@VVector@@V?$allocator@VVector@@@std@@@std@@IAEXI@Z 100b9eac     bot_navigate.obj
 0002:0001fed0       __unwindtable$??0CPerceptron@@QAE@PAU_iobuf@@@Z 100b9ed0     bot_nn.obj
 0002:0001fee0       __ehfuncinfo$??0CPerceptron@@QAE@PAU_iobuf@@@Z 100b9ee0     bot_nn.obj
 0002:0001ff04       __unwindtable$??0NNLayer@@QAE@PAU_iobuf@@@Z 100b9f04     bot_nn.obj
 0002:0001ff0c       __ehfuncinfo$??0NNLayer@@QAE@PAU_iobuf@@@Z 100b9f0c     bot_nn.obj
 0002:0001ff30       __unwindtable$??0NNLayer@@QAE@HH@Z 100b9f30     bot_nn.obj
 0002:0001ff40       __ehfuncinfo$??0NNLayer@@QAE@HH@Z 100b9f40     bot_nn.obj
 0002:0001ff64       __unwindtable$?load@NNLayer@@QAEXPAU_iobuf@@@Z 100b9f64     bot_nn.obj
 0002:0001ff7c       __ehfuncinfo$?load@NNLayer@@QAEXPAU_iobuf@@@Z 100b9f7c     bot_nn.obj
 0002:0001ffa0       __unwindtable$??0NN@@QAE@HHHH@Z 100b9fa0     bot_nn.obj
 0002:0001ffc0       __ehfuncinfo$??0NN@@QAE@HHHH@Z 100b9fc0     bot_nn.obj
 0002:0001ffe4       __unwindtable$?execute@NN@@QAEXPAV?$vector@MV?$allocator@M@std@@@std@@0@Z 100b9fe4     bot_nn.obj
 0002:0001ffec       __ehfuncinfo$?execute@NN@@QAEXPAV?$vector@MV?$allocator@M@std@@@std@@0@Z 100b9fec     bot_nn.obj
 0002:00020010       __unwindtable$?load@NN@@QAEXPAU_iobuf@@@Z 100ba010     bot_nn.obj
 0002:00020020       __ehfuncinfo$?load@NN@@QAEXPAU_iobuf@@@Z 100ba020     bot_nn.obj
 0002:00020044       __unwindtable$??0NNGATrained@@QAE@HHHH@Z 100ba044     bot_nn.obj
 0002:0002005c       __ehfuncinfo$??0NNGATrained@@QAE@HHHH@Z 100ba05c     bot_nn.obj
 0002:00020080       __unwindtable$??1NNGATrained@@QAE@XZ 100ba080     bot_nn.obj
 0002:00020088       __ehfuncinfo$??1NNGATrained@@QAE@XZ 100ba088     bot_nn.obj
 0002:000200ac       __unwindtable$?train@NNGATrained@@UAEXV?$vector@VCNNTrainSet@@V?$allocator@VCNNTrainSet@@@std@@@std@@@Z 100ba0ac     bot_nn.obj
 0002:000200c4       __ehfuncinfo$?train@NNGATrained@@UAEXV?$vector@VCNNTrainSet@@V?$allocator@VCNNTrainSet@@@std@@@std@@@Z 100ba0c4     bot_nn.obj
 0002:000200e8       __unwindtable$?GetRandomClient@CBotReputations@@QAEPAVCClient@@H@Z 100ba0e8     bot_rep.obj
 0002:000200f0       __ehfuncinfo$?GetRandomClient@CBotReputations@@QAEPAVCClient@@H@Z 100ba0f0     bot_rep.obj
 0002:00020114       __unwindtable$??0CBotVisibles@@QAE@XZ 100ba114     bot_visibles.obj
 0002:00020124       __ehfuncinfo$??0CBotVisibles@@QAE@XZ 100ba124     bot_visibles.obj
 0002:00020148       __unwindtable$?GetBestWeaponId@CBotWeapons@@QAEHPAVCBot@@PAUedict_s@@@Z 100ba148     bot_weapons.obj
 0002:00020160       __ehfuncinfo$?GetBestWeaponId@CBotWeapons@@QAEHPAVCBot@@PAUedict_s@@@Z 100ba160     bot_weapons.obj
 0002:00020184       __unwindtable$??_FCGA@@QAEXXZ 100ba184     dll.obj
 0002:00020194       __ehfuncinfo$??_FCGA@@QAEXXZ 100ba194     dll.obj
 0002:000201b8       __unwindtable$??0CBot@@QAE@XZ 100ba1b8     dll.obj
 0002:000201d8       __ehfuncinfo$??0CBot@@QAE@XZ 100ba1d8     dll.obj
 0002:000201fc       __ehfuncinfo$??0SBotChatMessages@@QAE@XZ 100ba1fc     dll.obj
 0002:00020220       __unwindtable$??0SBotChatMessages@@QAE@XZ 100ba220     dll.obj
 0002:00020248       __ehfuncinfo$??1SBotChatMessages@@QAE@XZ 100ba248     dll.obj
 0002:0002026c       __unwindtable$??1SBotChatMessages@@QAE@XZ 100ba26c     dll.obj
 0002:00020294       __unwindtable$?Think@CBotCam@@QAEXXZ 100ba294     dll.obj
 0002:000202a4       __ehfuncinfo$?Think@CBotCam@@QAEXXZ 100ba2a4     dll.obj
 0002:000202c8       __unwindtable$?getCapturePoint@CTFCCapturePoints@@QAEPAUedict_s@@HHHH@Z 100ba2c8     dll.obj
 0002:000202d0       __ehfuncinfo$?getCapturePoint@CTFCCapturePoints@@QAEPAUedict_s@@HHHH@Z 100ba2d0     dll.obj
 0002:000202f4       __ehfuncinfo$??0CBotGlobals@@QAE@XZ 100ba2f4     dll.obj
 0002:00020318       __unwindtable$??0CBotGlobals@@QAE@XZ 100ba318     dll.obj
 0002:00020378       __ehfuncinfo$??1CBotGlobals@@QAE@XZ 100ba378     dll.obj
 0002:0002039c       __unwindtable$??1CBotGlobals@@QAE@XZ 100ba39c     dll.obj
 0002:000203ec       __unwindtable$?load@CPopulation@@QAEXPAU_iobuf@@HH@Z 100ba3ec     ga.obj
 0002:000203f4       __ehfuncinfo$?load@CPopulation@@QAEXPAU_iobuf@@HH@Z 100ba3f4     ga.obj
 0002:00020418       __catchsym$?UpdateAngles@CBotSquads@@QAEXXZ$2 100ba418     globals.obj
 0002:00020428       __unwindtable$?UpdateAngles@CBotSquads@@QAEXXZ 100ba428     globals.obj
 0002:00020438       __tryblocktable$?UpdateAngles@CBotSquads@@QAEXXZ 100ba438     globals.obj
 0002:0002044c       __ehfuncinfo$?UpdateAngles@CBotSquads@@QAEXXZ 100ba44c     globals.obj
 0002:00020470       __unwindtable$?AddMaster@CMasterEntities@@QAEXPAUedict_s@@PAD@Z 100ba470     globals.obj
 0002:00020478       __ehfuncinfo$?AddMaster@CMasterEntities@@QAEXPAUedict_s@@PAD@Z 100ba478     globals.obj
 0002:0002049c       __unwindtable$?TFC_getBestClass@CBotGlobals@@QAEHHH@Z 100ba49c     globals.obj
 0002:000204a4       __ehfuncinfo$?TFC_getBestClass@CBotGlobals@@QAEHHH@Z 100ba4a4     globals.obj
 0002:000204c8       __unwindtable$??0CPerceptron@@QAE@IPAVITransfer@@M@Z 100ba4c8     perceptron.obj
 0002:000204d8       __ehfuncinfo$??0CPerceptron@@QAE@IPAVITransfer@@M@Z 100ba4d8     perceptron.obj
 0002:000204fc       __unwindtable$?setWeights@CPerceptron@@QAEXV?$vector@MV?$allocator@M@std@@@std@@@Z 100ba4fc     perceptron.obj
 0002:00020504       __ehfuncinfo$?setWeights@CPerceptron@@QAEXV?$vector@MV?$allocator@M@std@@@std@@@Z 100ba504     perceptron.obj
 0002:00020528       __unwindtable$?setWeights@CPerceptron@@QAEXV?$vector@MV?$allocator@M@std@@@std@@HH@Z 100ba528     perceptron.obj
 0002:00020530       __ehfuncinfo$?setWeights@CPerceptron@@QAEXV?$vector@MV?$allocator@M@std@@@std@@HH@Z 100ba530     perceptron.obj
 0002:00020554       __unwindtable$??0CSomNeuron@@QAE@HHH@Z 100ba554     som.obj
 0002:0002055c       __ehfuncinfo$??0CSomNeuron@@QAE@HHH@Z 100ba55c     som.obj
 0002:00020580       __unwindtable$??0CSom@@QAE@HHH@Z 100ba580     som.obj
 0002:00020590       __ehfuncinfo$??0CSom@@QAE@HHH@Z 100ba590     som.obj
 0002:000205b4       __unwindtable$?UTIL_FurthestVectorAroundYaw@@YA?AVVector@@PAVCBot@@@Z 100ba5b4     util.obj
 0002:000205bc       __ehfuncinfo$?UTIL_FurthestVectorAroundYaw@@YA?AVVector@@PAVCBot@@@Z 100ba5bc     util.obj
 0002:000205e0       __unwindtable$?UTIL_GetRandomUnbuiltHive@@YAPAUedict_s@@XZ 100ba5e0     util.obj
 0002:000205e8       __ehfuncinfo$?UTIL_GetRandomUnbuiltHive@@YAPAUedict_s@@XZ 100ba5e8     util.obj
 0002:0002060c       __unwindtable$?UTIL_FindRandomUnusedFuncResource@@YAPAUedict_s@@PAVCBot@@@Z 100ba60c     util.obj
 0002:00020614       __ehfuncinfo$?UTIL_FindRandomUnusedFuncResource@@YAPAUedict_s@@PAVCBot@@@Z 100ba614     util.obj
 0002:00020638       __unwindtable$?UTIL_GetBuildWaypoint@@YAHVVector@@PAV?$dataStack@H@@@Z 100ba638     util.obj
 0002:00020640       __ehfuncinfo$?UTIL_GetBuildWaypoint@@YAHVVector@@PAV?$dataStack@H@@@Z 100ba640     util.obj
 0002:00020664       __unwindtable$?BotFunc_KickBotFromTeam@@YAXH@Z 100ba664     util.obj
 0002:0002066c       __ehfuncinfo$?BotFunc_KickBotFromTeam@@YAXH@Z 100ba66c     util.obj
 0002:00020690       __catchsym$?_Copy@?$basic_string@DU?$char_traits@D@std@@V?$allocator@D@2@@std@@QAEXII@Z$5 100ba690     libcpmt:xthrow.obj
 0002:000206a0       __catchsym$?_Copy@?$basic_string@DU?$char_traits@D@std@@V?$allocator@D@2@@std@@QAEXII@Z$4 100ba6a0     libcpmt:xthrow.obj
 0002:000206b0       __unwindtable$?_Copy@?$basic_string@DU?$char_traits@D@std@@V?$allocator@D@2@@std@@QAEXII@Z 100ba6b0     libcpmt:xthrow.obj
 0002:000206d0       __ehfuncinfo$?_Copy@?$basic_string@DU?$char_traits@D@std@@V?$allocator@D@2@@std@@QAEXII@Z 100ba6d0     libcpmt:xthrow.obj
 0002:000206f4       __tryblocktable$?_Copy@?$basic_string@DU?$char_traits@D@std@@V?$allocator@D@2@@std@@QAEXII@Z 100ba6f4     libcpmt:xthrow.obj
 0002:00020928       __sehtable$_fread_s        100ba928     LIBCMT:fread.obj
 0002:00020948       __sehtable$_fwrite         100ba948     LIBCMT:fwrite.obj
 0002:00020968       __sehtable$_fclose         100ba968     LIBCMT:fclose.obj
 0002:00020988       __sehtable$__fsopen        100ba988     LIBCMT:fopen.obj
 0002:000209a8       __sehtable$_fprintf        100ba9a8     LIBCMT:fprintf.obj
 0002:000209c8       __sehtable$_printf         100ba9c8     LIBCMT:printf.obj
 0002:000209e8       __sehtable$_doexit         100ba9e8     LIBCMT:crt0dat.obj
 0002:00020a08       __sehtable$_vfscanf_fn     100baa08     LIBCMT:fscanf.obj
 0002:00020a28       __sehtable$_fflush         100baa28     LIBCMT:fflush.obj
 0002:00020a48       __sehtable$_flsall         100baa48     LIBCMT:fflush.obj
 0002:00020a70       __sehtable$_fgets          100baa70     LIBCMT:fgets.obj
 0002:00020a90       __sehtable$_fseek          100baa90     LIBCMT:fseek.obj
 0002:00020ab0       __sehtable$_ftell          100baab0     LIBCMT:ftell.obj
 0002:00020ad0       __sehtable$??_L@YGXPAXIHP6EX0@Z1@Z 100baad0     LIBCMT:ehvecctr.obj
 0002:00020af0       __sehtable$??_M@YGXPAXIHP6EX0@Z@Z 100baaf0     LIBCMT:ehvecdtr.obj
 0002:00020b10       __sehtable$?__ArrayUnwind@@YGXPAXIHP6EX0@Z@Z 100bab10     LIBCMT:ehvecdtr.obj
 0002:00020b30       __sehtable$__onexit        100bab30     LIBCMT:onexit.obj
 0002:00020b50       __sehtable$__CRT_INIT@12   100bab50     LIBCMT:dllcrt0.obj
 0002:00020b70       __sehtable$___DllMainCRTStartup 100bab70     LIBCMT:dllcrt0.obj
 0002:00020b90       __sehtable$__read          100bab90     LIBCMT:read.obj
 0002:00020bb0       __sehtable$__write         100babb0     LIBCMT:write.obj
 0002:00020bd0       __sehtable$___set_fpsr_sse2 100babd0     LIBCMT:fpctrl.obj
 0002:00020bf0       __sehtable$__close         100babf0     LIBCMT:close.obj
 0002:00020c10       __sehtable$__getstream     100bac10     LIBCMT:stream.obj
 0002:00020c30       __sehtable$_vfprintf_helper 100bac30     LIBCMT:vfprintf.obj
 0002:00020c50       __sehtable$__ioinit        100bac50     LIBCMT:ioinit.obj
 0002:00020c70       __sehtable$_vprintf_helper 100bac70     LIBCMT:vprintf.obj
 0002:00020c90       __sehtable$__mtinitlocknum 100bac90     LIBCMT:mlock.obj
 0002:00020cb0       __sehtable$__IsNonwritableInCurrentImage 100bacb0     LIBCMT:pesect.obj
 0002:00020cd0       __sehtable$?terminate@@YAXXZ 100bacd0     LIBCMT:hooks.obj
 0002:00020cf0       __sehtable$?_inconsistency@@YAXXZ 100bacf0     LIBCMT:hooks.obj
 0002:00020d10       __sehtable$_signal         100bad10     LIBCMT:winsig.obj
 0002:00020d30       __sehtable$_raise          100bad30     LIBCMT:winsig.obj
 0002:00020d50       __sehtable$_ctrlevent_capture@4 100bad50     LIBCMT:winsig.obj
 0002:00020d70       __sehtable$___updatetmbcinfo 100bad70     LIBCMT:mbctype.obj
 0002:00020d90       __sehtable$__setmbcp       100bad90     LIBCMT:mbctype.obj
 0002:00020db0       __sehtable$___updatetlocinfo 100badb0     LIBCMT:localref.obj
 0002:00020dd0       __sehtable$__freefls@4     100badd0     LIBCMT:tidtable.obj
 0002:00020df8       __sehtable$__initptd       100badf8     LIBCMT:tidtable.obj
 0002:00020e20       __sehtable$__tzset         100bae20     LIBCMT:tzset.obj
 0002:00020e40       __sehtable$__isindst       100bae40     LIBCMT:tzset.obj
 0002:00020e60       __sehtable$___tzset        100bae60     LIBCMT:tzset.obj
 0002:00020e80       __sehtable$__tzset_nolock  100bae80     LIBCMT:tzset.obj
 0002:00020ea0       __sehtable$___FrameUnwindToState 100baea0     LIBCMT:frame.obj
 0002:00020ec8       __sehtable$?CallCatchBlock@@YAPAXPAUEHExceptionRecord@@PAUEHRegistrationNode@@PAU_CONTEXT@@PBU_s_FuncInfo@@PAXHK@Z 100baec8     LIBCMT:frame.obj
 0002:00020ef0       __sehtable$___BuildCatchObject 100baef0     LIBCMT:frame.obj
 0002:00020f10       __sehtable$___DestructExceptionObject 100baf10     LIBCMT:frame.obj
 0002:00020f2c       __catchsym$?CallUnexpected@@YAXPBU_s_ESTypeList@@@Z$2 100baf2c     LIBCMT:frame.obj
 0002:00020f3c       __unwindtable$?CallUnexpected@@YAXPBU_s_ESTypeList@@@Z 100baf3c     LIBCMT:frame.obj
 0002:00020f4c       __tryblocktable$?CallUnexpected@@YAXPBU_s_ESTypeList@@@Z 100baf4c     LIBCMT:frame.obj
 0002:00020f60       __ehfuncinfo$?CallUnexpected@@YAXPBU_s_ESTypeList@@@Z 100baf60     LIBCMT:frame.obj
 0002:00020f88       __sehtable$___BuildCatchObjectHelper 100baf88     LIBCMT:frame.obj
 0002:00020fe0       __sehtable$?_Name_base@type_info@@CAPBDPBV1@PAU__type_info_node@@@Z 100bafe0     LIBCMT:typname.obj
 0002:00021000       __sehtable$?_Type_info_dtor@type_info@@CAXPAV1@@Z 100bb000     LIBCMT:typname.obj
 0002:00021020       __sehtable$?_Name_base_internal@type_info@@CAPBDPBV1@PAU__type_info_node@@@Z 100bb020     LIBCMT:typname.obj
 0002:00021040       __sehtable$?_Type_info_dtor_internal@type_info@@CAXPAV1@@Z 100bb040     LIBCMT:typname.obj
 0002:00021060       __sehtable$___clean_type_info_names_internal 100bb060     LIBCMT:typname.obj
 0002:00021080       __sehtable$__commit        100bb080     LIBCMT:commit.obj
 0002:000210a0       __sehtable$__lseek         100bb0a0     LIBCMT:lseek.obj
 0002:000210c0       __sehtable$__lseeki64      100bb0c0     LIBCMT:lseeki64.obj
 0002:000210e0       __sehtable$__get_current_locale 100bb0e0     LIBCMT:wsetloca.obj
 0002:00021108       __sehtable$__free_locale   100bb108     LIBCMT:wsetloca.obj
 0002:00021130       __sehtable$__wsetlocale    100bb130     LIBCMT:wsetloca.obj
 0002:00021168       __sehtable$__locterm       100bb168     LIBCMT:wsetloca.obj
 0002:00021188       __sehtable$__fcloseall     100bb188     LIBCMT:closeall.obj
 0002:000211a8       __sehtable$__alloc_osfhnd  100bb1a8     LIBCMT:osfinfo.obj
 0002:000211d0       __sehtable$___lock_fhandle 100bb1d0     LIBCMT:osfinfo.obj
 0002:000211f0       __sehtable$__open_osfhandle 100bb1f0     LIBCMT:osfinfo.obj
 0002:00021210       __sehtable$__putwch        100bb210     LIBCMT:putwch.obj
 0002:00021230       __sehtable$__sopen_helper  100bb230     LIBCMT:open.obj
 0002:00021250       __sehtable$__open          100bb250     LIBCMT:open.obj
 0002:00021270       __sehtable$_ungetc         100bb270     LIBCMT:ungetc.obj
 0002:00021290       __sehtable$_getenv         100bb290     LIBCMT:getenv.obj
 0002:000212b0       __sehtable$_getenv_s       100bb2b0     LIBCMT:getenv.obj
 0002:000212d0       __sehtable$__dupenv_s      100bb2d0     LIBCMT:getenv.obj
 0002:000212f0       __sehtable$___unDName      100bb2f0     LIBCMT:undname.obj
 0002:00021310       __sehtable$___unDNameEx    100bb310     LIBCMT:undname.obj
 0002:00021330       __sehtable$__fstat64i32    100bb330     LIBCMT:fstati32.obj
 0002:00021350       __sehtable$__wsopen_helper 100bb350     LIBCMT:wopen.obj
 0002:00021370       __sehtable$__wopen         100bb370     LIBCMT:wopen.obj
 0002:00021390       __sehtable$__chsize_s      100bb390     LIBCMT:chsize.obj
 0002:000213b0       __sehtable$__setmode       100bb3b0     LIBCMT:setmode.obj
 0002:000213d0       __sehtable$__fstat32       100bb3d0     LIBCMT:fstat.obj
 0002:000213f0       .edata                     100bb3f0     HPB_bot.exp
 0002:00021418       rgpv                       100bb418     HPB_bot.exp
 0002:00021434       rgszName                   100bb434     HPB_bot.exp
 0002:00021450       rgwOrd                     100bb450     HPB_bot.exp
 0002:0002145e       szName                     100bb45e     HPB_bot.exp
 0002:0002146a       $N00002                    100bb46a     HPB_bot.exp
 0002:00021491       $N00003                    100bb491     HPB_bot.exp
 0002:000214a4       $N00004                    100bb4a4     HPB_bot.exp
 0002:000214b2       $N00001                    100bb4b2     HPB_bot.exp
 0002:000214c2       $N00005                    100bb4c2     HPB_bot.exp
 0002:000214ce       $N00006                    100bb4ce     HPB_bot.exp
 0002:000214da       $N00007                    100bb4da     HPB_bot.exp
 0002:000216da       .idata$6                   100bb6da     kernel32:KERNEL32.dll
 0002:000216f6       .idata$6                   100bb6f6     user32:USER32.dll
 0003:00000000       ?message_type@?1??execute@BotClient_NS_AlienInfo@@UAEXPAXH@Z@4HA 100bc000     bot_client.obj
 0003:00000174       ?BOT_STEAM_ID@?1??pfnGetPlayerAuthId@@YAPBDPAUedict_s@@@Z@4PBDB 100bc174     engine.obj
 0003:00000178       ?szClasses@?1??TFC_getClassName@CBotGlobals@@QAEPADH@Z@4PAPADA 100bc178     globals.obj
 0003:000001a0       ?fPreviousTime@?1??StartFrame@CBotGlobals@@QAEXXZ@4MA 100bc1a0     globals.obj
 0003:000001f8       ?tooltips@?1??UTIL_BotToolTip@@YAXPAUedict_s@@W4eLanguage@@W4eToolTip@@@Z@4PAY0O@PADA 100bc1f8     util.obj
 0003:000005d0       _errtable                  100bc5d0     LIBCMT:dosmap.obj
 0003:00000738       _ErrnoNoMem                100bc738     LIBCMT:dosmap.obj
 0003:0000073c       _DoserrorNoMem             100bc73c     LIBCMT:dosmap.obj
 0003:00000750       _NAME_                     100bc750     LIBCMT:sqrt.obj
 0003:00000780       ?_names@?1??_get_fname@@9@9 100bc780     LIBCMT:fpexcept.obj
 0003:00000868       _over                      100bc868     LIBCMT:fpctrl.obj
 0003:00000874       _under                     100bc874     LIBCMT:fpctrl.obj
 0003:00000880       ?__DAZ_ENABLED@?1??__set_fpsr_sse2@@9@9 100bc880     LIBCMT:fpctrl.obj
 0003:00000900       __locktable                100bc900     LIBCMT:mlock.obj
 0003:00000a20       ?isPackaged@?1??__crtIsPackagedApp@@9@9 100bca20     LIBCMT:winapisupp.obj
 0003:00000e50       ___rgctypeflag             100bce50     LIBCMT:mbctype.obj
 0003:00000e58       ___rgcode_page_info        100bce58     LIBCMT:mbctype.obj
 0003:00001198       _tzstd                     100bd198     LIBCMT:timeset.obj
 0003:000011d8       _tzdst                     100bd1d8     LIBCMT:timeset.obj
 0003:00001220       _dststart                  100bd220     LIBCMT:tzset.obj
 0003:0000122c       _dstend                    100bd22c     LIBCMT:tzset.obj
 0003:00001240       _NAME_                     100bd240     LIBCMT:cos.obj
 0003:00001258       POW_name                   100bd258     LIBCMT:pow.obj
 0003:00001260       _NAME_                     100bd260     LIBCMT:sin.obj
 0003:00001270       __ctype_loc_style          100bd270     LIBCMT:wsetloca.obj
 0003:00001280       _NAME_                     100bd280     LIBCMT:acos.obj
 0003:00001380       _DoubleFormat              100bd380     LIBCMT:intrncvt.obj
 0003:00001398       _FloatFormat               100bd398     LIBCMT:intrncvt.obj
 0003:000022e0       _allocator_arg             100be2e0     bits.obj
 0003:000022e1       _piecewise_construct       100be2e1     bits.obj
 0003:000022e2       _allocator_arg             100be2e2     bot.obj
 0003:000022e3       _piecewise_construct       100be2e3     bot.obj
 0003:000022e4       ?pBases@?BB@??BotCommand@CBot@@QAEXXZ@4VCStructures@@A 100be2e4     bot.obj
 0003:0000230c       ?$S1@?BB@??BotCommand@CBot@@QAEXXZ@4IA 100be30c     bot.obj
 0003:00002310       ?temp@?1??BotFunc_FillString@@YAHPADPBD1H@Z@4PADA 100be310     bot.obj
 0003:00002710       ?tr@?1??Think@CBot@@QAEXXZ@4UTraceResult@@A 100be710     bot.obj
 0003:00002748       ?$S2@?1??Think@CBot@@QAEXXZ@4IA 100be748     bot.obj
 0003:0000274c       ?pNearestBuildable@?1??UpdateVisibles@CBot@@QAEHXZ@4PAUedict_s@@A 100be74c     bot.obj
 0003:00002750       ?fNearestBuildableDist@?1??UpdateVisibles@CBot@@QAEHXZ@4MA 100be750     bot.obj
 0003:00002754       ?fDistance@?1??UpdateVisibles@CBot@@QAEHXZ@4MA 100be754     bot.obj
 0003:00002758       ?fNearestAvoidEntity@?1??UpdateVisibles@CBot@@QAEHXZ@4MA 100be758     bot.obj
 0003:0000275c       ?fPlayerAvoidDist@?1??UpdateVisibles@CBot@@QAEHXZ@4MA 100be75c     bot.obj
 0003:00002760       ?bLookForBuildable@?1??UpdateVisibles@CBot@@QAEHXZ@4HA 100be760     bot.obj
 0003:00002764       ?pNearestResourceFountain@?1??UpdateVisibles@CBot@@QAEHXZ@4PAUedict_s@@A 100be764     bot.obj
 0003:00002768       ?fNearestResourceFountainDist@?1??UpdateVisibles@CBot@@QAEHXZ@4MA 100be768     bot.obj
 0003:0000276c       ?pNearestBuildEdict@?1??UpdateVisibles@CBot@@QAEHXZ@4PAUedict_s@@A 100be76c     bot.obj
 0003:00002770       ?fNearestBuildPositionDist@?1??UpdateVisibles@CBot@@QAEHXZ@4MA 100be770     bot.obj
 0003:00002774       ?iToBuild@?1??UpdateVisibles@CBot@@QAEHXZ@4HA 100be774     bot.obj
 0003:00002778       ?iBestStructureToBuild@?1??UpdateVisibles@CBot@@QAEHXZ@4HA 100be778     bot.obj
 0003:0000277c       ?pTeleporter@?1??UpdateVisibles@CBot@@QAEHXZ@4PAUedict_s@@A 100be77c     bot.obj
 0003:00002780       ?pNearestHive@?1??UpdateVisibles@CBot@@QAEHXZ@4PAUedict_s@@A 100be780     bot.obj
 0003:00002784       ?fNearestHiveDist@?1??UpdateVisibles@CBot@@QAEHXZ@4MA 100be784     bot.obj
 0003:00002788       ?vecLOS@?1??DotProductFromOrigin@CBot@@QAEMPAVVector@@@Z@4V3@A 100be788     bot.obj
 0003:00002794       ?$S3@?1??DotProductFromOrigin@CBot@@QAEMPAVVector@@@Z@4IA 100be794     bot.obj
 0003:00002798       ?flDot@?1??DotProductFromOrigin@CBot@@QAEMPAVVector@@@Z@4MA 100be798     bot.obj
 0003:000027a0       ?string@?1??BugMessage@@YAXPAUedict_s@@PADZZ@4PADA 100be7a0     bot.obj
 0003:00002ba0       ?string@?4??AssertMessage@@YAXHPADZZ@4PADA 100beba0     bot.obj
 0003:00002fa0       ?string@?1??DebugMessage@@YAXHPAUedict_s@@HPADZZ@4PADA 100befa0     bot.obj
 0003:000033a0       ?string@?1??BotPrintTalkMessage@@YAXPADZZ@4PADA 100bf3a0     bot.obj
 0003:000037a0       ?string@?1??BotPrintTalkMessageOne@@YAXPAUedict_s@@PADZZ@4PADA 100bf7a0     bot.obj
 0003:00003ba0       ?string@?1??BotMessage@@YAXPAUedict_s@@HPADZZ@4PADA 100bfba0     bot.obj
 0003:00003fa0       _allocator_arg             100bffa0     bot_client.obj
 0003:00003fa1       _piecewise_construct       100bffa1     bot_client.obj
 0003:00003fa4       ?origin@?1??execute@BotClient_TS_Objective@@UAEXPAXH@Z@4VVector@@A 100bffa4     bot_client.obj
 0003:00003fb0       ?$S1@?1??execute@BotClient_TS_Objective@@UAEXPAXH@Z@4IA 100bffb0     bot_client.obj
 0003:00003fb4       ?id@?1??execute@BotClient_TS_Objective@@UAEXPAXH@Z@4HA 100bffb4     bot_client.obj
 0003:00003fb8       ?name@?1??execute@BotClient_TS_Objective@@UAEXPAXH@Z@4PADA 100bffb8     bot_client.obj
 0003:00003fbc       ?clip@?1??execute@BotClient_TS_WeaponInfo@@UAEXPAXH@Z@4HA 100bffbc     bot_client.obj
 0003:00003fc0       ?ammo@?1??execute@BotClient_TS_WeaponInfo@@UAEXPAXH@Z@4HA 100bffc0     bot_client.obj
 0003:00003fc4       ?id@?1??execute@BotClient_TS_WeaponInfo@@UAEXPAXH@Z@4HA 100bffc4     bot_client.obj
 0003:00003fc8       ?wpn@?4??execute@BotClient_TS_WeaponInfo@@UAEXPAXH@Z@4HA 100bffc8     bot_client.obj
 0003:00003fcc       ?iSlots@?1??execute@BotClient_NS_TechSlots@@UAEXPAXH@Z@4HA 100bffcc     bot_client.obj
 0003:00003fd0       ?iSenderId@?1??execute@BotClient_BG_MakeMessage@@UAEXPAXH@Z@4HA 100bffd0     bot_client.obj
 0003:00003fd4       ?bCheckTeleEntrance@?1??execute@BotClient_Generic_TextMessage@@UAEXPAXH@Z@4HA 100bffd4     bot_client.obj
 0003:00003fd8       ?bCheckTeleExit@?1??execute@BotClient_Generic_TextMessage@@UAEXPAXH@Z@4HA 100bffd8     bot_client.obj
 0003:00003fdc       ?bBuiltSentry@?1??execute@BotClient_Generic_TextMessage@@UAEXPAXH@Z@4HA 100bffdc     bot_client.obj
 0003:00003fe0       ?iSenderId@?1??execute@BotClient_All_Generic_SayText@@UAEXPAXH@Z@4HA 100bffe0     bot_client.obj
 0003:00003fe4       ?iSenderId@?1??execute@BotClient_Generic_SayText@@UAEXPAXH@Z@4HA 100bffe4     bot_client.obj
 0003:00003fe8       ?state@?1??execute@BotClient_NS_AlienInfo@@UAEXPAXH@Z@4FA 100bffe8     bot_client.obj
 0003:00003fec       ?num_loops@?1??execute@BotClient_NS_AlienInfo@@UAEXPAXH@Z@4HA 100bffec     bot_client.obj
 0003:00003ff0       ?got_loops@?1??execute@BotClient_NS_AlienInfo@@UAEXPAXH@Z@4HA 100bfff0     bot_client.obj
 0003:00003ff4       ?theHiveInfoChanged@?1??execute@BotClient_NS_AlienInfo@@UAEXPAXH@Z@4HA 100bfff4     bot_client.obj
 0003:00003ff8       ?theSentCoords@?1??execute@BotClient_NS_AlienInfo@@UAEXPAXH@Z@4HA 100bfff8     bot_client.obj
 0003:00003ffc       ?theX@?1??execute@BotClient_NS_AlienInfo@@UAEXPAXH@Z@4MA 100bfffc     bot_client.obj
 0003:00004000       ?theY@?1??execute@BotClient_NS_AlienInfo@@UAEXPAXH@Z@4MA 100c0000     bot_client.obj
 0003:00004004       ?theZ@?1??execute@BotClient_NS_AlienInfo@@UAEXPAXH@Z@4MA 100c0004     bot_client.obj
 0003:00004008       ?mStatus@?1??execute@BotClient_NS_AlienInfo@@UAEXPAXH@Z@4HA 100c0008     bot_client.obj
 0003:0000400c       ?mUnderAttack@?1??execute@BotClient_NS_AlienInfo@@UAEXPAXH@Z@4HA 100c000c     bot_client.obj
 0003:00004010       ?mTechnology@?1??execute@BotClient_NS_AlienInfo@@UAEXPAXH@Z@4HA 100c0010     bot_client.obj
 0003:00004014       ?read_states@?1??execute@BotClient_NS_AlienInfo@@UAEXPAXH@Z@4HA 100c0014     bot_client.obj
 0003:00004018       ?iTeam@?1??execute@BotClient_Generic_TeamScore@@UAEXPAXH@Z@4HA 100c0018     bot_client.obj
 0003:0000401c       ?iScore@?1??execute@BotClient_Generic_TeamScore@@UAEXPAXH@Z@4HA 100c001c     bot_client.obj
 0003:00004020       ?state@?1??execute@BotClient_NS_HudText@@UAEXPAXH@Z@4FA 100c0020     bot_client.obj
 0003:00004024       ?iImpulsemessage@?1??execute@BotClient_NS_SetTech@@UAEXPAXH@Z@4W4AvHMessageID@@A 100c0024     bot_client.obj
 0003:00004028       ?iSlot@?1??execute@BotClient_NS_SetTech@@UAEXPAXH@Z@4HA 100c0028     bot_client.obj
 0003:0000402c       ?iCost@?1??execute@BotClient_NS_SetTech@@UAEXPAXH@Z@4HA 100c002c     bot_client.obj
 0003:00004030       ?iRadius@?1??execute@BotClient_NS_SetTech@@UAEXPAXH@Z@4HA 100c0030     bot_client.obj
 0003:00004034       ?vOrigin@?1??execute@BotClient_NS_SetOrder@@UAEXPAXH@Z@4VVector@@A 100c0034     bot_client.obj
 0003:00004040       ?$S2@?1??execute@BotClient_NS_SetOrder@@UAEXPAXH@Z@4IA 100c0040     bot_client.obj
 0003:00004044       ?iReceiverIndexes@?1??execute@BotClient_NS_SetOrder@@UAEXPAXH@Z@4V?$dataStack@H@@A 100c0044     bot_client.obj
 0003:00004048       ?iOrderType@?1??execute@BotClient_NS_SetOrder@@UAEXPAXH@Z@4W4AvHOrderType@@A 100c0048     bot_client.obj
 0003:0000404c       ?iOrderTargetType@?1??execute@BotClient_NS_SetOrder@@UAEXPAXH@Z@4W4AvHOrderTargetType@@A 100c004c     bot_client.obj
 0003:00004050       ?iOrderStatus@?1??execute@BotClient_NS_SetOrder@@UAEXPAXH@Z@4HA 100c0050     bot_client.obj
 0003:00004054       ?iReceivers@?1??execute@BotClient_NS_SetOrder@@UAEXPAXH@Z@4HA 100c0054     bot_client.obj
 0003:00004058       ?iEntityUser3@?1??execute@BotClient_NS_SetOrder@@UAEXPAXH@Z@4HA 100c0058     bot_client.obj
 0003:0000405c       ?pEntity@?1??execute@BotClient_NS_SetOrder@@UAEXPAXH@Z@4PAUedict_s@@A 100c005c     bot_client.obj
 0003:00004060       ?killer_index@?1??execute@BotClient_Generic_DeathMessage@@UAEXPAXH@Z@4HA 100c0060     bot_client.obj
 0003:00004064       ?victim_index@?1??execute@BotClient_Generic_DeathMessage@@UAEXPAXH@Z@4HA 100c0064     bot_client.obj
 0003:00004068       ?szClassname@?1??execute@BotClient_Generic_WeaponList@@UAEXPAXH@Z@4PADA 100c0068     bot_client.obj
 0003:0000406c       ?iAmmo1Max@?1??execute@BotClient_Generic_WeaponList@@UAEXPAXH@Z@4HA 100c006c     bot_client.obj
 0003:00004070       ?iAmmo1@?1??execute@BotClient_Generic_WeaponList@@UAEXPAXH@Z@4HA 100c0070     bot_client.obj
 0003:00004074       ?iAmmo2Max@?1??execute@BotClient_Generic_WeaponList@@UAEXPAXH@Z@4HA 100c0074     bot_client.obj
 0003:00004078       ?iAmmo2@?1??execute@BotClient_Generic_WeaponList@@UAEXPAXH@Z@4HA 100c0078     bot_client.obj
 0003:0000407c       ?iSlot@?1??execute@BotClient_Generic_WeaponList@@UAEXPAXH@Z@4HA 100c007c     bot_client.obj
 0003:00004080       ?iPosition@?1??execute@BotClient_Generic_WeaponList@@UAEXPAXH@Z@4HA 100c0080     bot_client.obj
 0003:00004084       ?iId@?1??execute@BotClient_Generic_WeaponList@@UAEXPAXH@Z@4HA 100c0084     bot_client.obj
 0003:00004088       ?iFlags@?1??execute@BotClient_Generic_WeaponList@@UAEXPAXH@Z@4HA 100c0088     bot_client.obj
 0003:0000408c       ?iState@?1??execute@BotClient_Generic_CurrentWeapon@@UAEXPAXH@Z@4HA 100c008c     bot_client.obj
 0003:00004090       ?iId@?1??execute@BotClient_Generic_CurrentWeapon@@UAEXPAXH@Z@4HA 100c0090     bot_client.obj
 0003:00004094       ?iClip@?1??execute@BotClient_Generic_CurrentWeapon@@UAEXPAXH@Z@4HA 100c0094     bot_client.obj
 0003:00004098       ?index@?1??execute@BotClient_Generic_AmmoX@@UAEXPAXH@Z@4HA 100c0098     bot_client.obj
 0003:0000409c       ?amount@?1??execute@BotClient_Generic_AmmoX@@UAEXPAXH@Z@4HA 100c009c     bot_client.obj
 0003:000040a0       ?index@?1??execute@BotClient_Generic_AmmoPickup@@UAEXPAXH@Z@4HA 100c00a0     bot_client.obj
 0003:000040a4       ?amount@?1??execute@BotClient_Generic_AmmoPickup@@UAEXPAXH@Z@4HA 100c00a4     bot_client.obj
 0003:000040a8       ?damage_armor@?1??execute@BotClient_Generic_Damage@@UAEXPAXH@Z@4HA 100c00a8     bot_client.obj
 0003:000040ac       ?damage_taken@?1??execute@BotClient_Generic_Damage@@UAEXPAXH@Z@4HA 100c00ac     bot_client.obj
 0003:000040b0       ?damage_bits@?1??execute@BotClient_Generic_Damage@@UAEXPAXH@Z@4HA 100c00b0     bot_client.obj
 0003:000040b4       ?damage_origin@?1??execute@BotClient_Generic_Damage@@UAEXPAXH@Z@4VVector@@A 100c00b4     bot_client.obj
 0003:000040c0       ?$S3@?1??execute@BotClient_Generic_Damage@@UAEXPAXH@Z@4IA 100c00c0     bot_client.obj
 0003:000040c4       _allocator_arg             100c00c4     bot_combat.obj
 0003:000040c5       _piecewise_construct       100c00c5     bot_combat.obj
 0003:000040c6       _allocator_arg             100c00c6     bot_commands.obj
 0003:000040c7       _piecewise_construct       100c00c7     bot_commands.obj
 0003:000040c8       _allocator_arg             100c00c8     bot_ga.obj
 0003:000040c9       _piecewise_construct       100c00c9     bot_ga.obj
 0003:000040ca       _allocator_arg             100c00ca     bot_menu.obj
 0003:000040cb       _piecewise_construct       100c00cb     bot_menu.obj
 0003:000040cc       _allocator_arg             100c00cc     bot_navigate.obj
 0003:000040cd       _piecewise_construct       100c00cd     bot_navigate.obj
 0003:000040ce       _allocator_arg             100c00ce     bot_nn.obj
 0003:000040cf       _piecewise_construct       100c00cf     bot_nn.obj
 0003:000040d0       _allocator_arg             100c00d0     bot_rep.obj
 0003:000040d1       _piecewise_construct       100c00d1     bot_rep.obj
 0003:000040d2       _allocator_arg             100c00d2     bot_visibles.obj
 0003:000040d3       _piecewise_construct       100c00d3     bot_visibles.obj
 0003:000040d4       _allocator_arg             100c00d4     bot_weapons.obj
 0003:000040d5       _piecewise_construct       100c00d5     bot_weapons.obj
 0003:000040d6       _allocator_arg             100c00d6     client.obj
 0003:000040d7       _piecewise_construct       100c00d7     client.obj
 0003:000041a4       _allocator_arg             100c01a4     dll.obj
 0003:000041a5       _piecewise_construct       100c01a5     dll.obj
 0003:0009e4fc       ?pBot@?1??DispatchTouch@@YAXPAUedict_s@@0@Z@4PAVCBot@@A 1015a4fc     dll.obj
 0003:0009e500       ?pBot@?1??DispatchBlocked@@YAXPAUedict_s@@0@Z@4PAVCBot@@A 1015a500     dll.obj
 0003:0009e508       ?command@?1??FakeClientCommand@@YAXPAUedict_s@@PBDZZ@4PADA 1015a508     dll.obj
 0003:0009e608       ?bNotAlive@?1??Think@CBotCam@@QAEXXZ@4HA 1015a608     dll.obj
 0003:0009e60c       _allocator_arg             1015a60c     engine.obj
 0003:0009e60d       _piecewise_construct       1015a60d     engine.obj
 0003:0009e610       _fp                        1015a610     engine.obj
 0003:0009e618       ?arg@?1??GetArg@@YAPBDPBDH@Z@4PADA 1015a618     engine.obj
 0003:0009ea18       _allocator_arg             1015aa18     ga.obj
 0003:0009ea19       _piecewise_construct       1015aa19     ga.obj
 0003:0009ea1c       _allocator_arg             1015aa1c     globals.obj
 0003:0009ea1d       _piecewise_construct       1015aa1d     globals.obj
 0003:0009ea20       _fp                        1015aa20     globals.obj
 0003:0009ea24       ?iIndex@?1??StartFrame@CBotGlobals@@QAEXXZ@4HA 1015aa24     globals.obj
 0003:0009ea28       ?pBot@?1??StartFrame@CBotGlobals@@QAEXXZ@4PAVCBot@@A 1015aa28     globals.obj
 0003:0009ea2c       ?iNumClients@?1??StartFrame@CBotGlobals@@QAEXXZ@4HA 1015aa2c     globals.obj
 0003:0009ea30       ?bUpdateClientData@?1??StartFrame@CBotGlobals@@QAEXXZ@4HA 1015aa30     globals.obj
 0003:0009ea34       ?bCheckedTeamplay@?1??StartFrame@CBotGlobals@@QAEXXZ@4HA 1015aa34     globals.obj
 0003:0009ea38       _allocator_arg             1015aa38     megahal.obj
 0003:0009ea39       _piecewise_construct       1015aa39     megahal.obj
 0003:0009ea3c       ?output_template@?1??BotHALGenerateReply@@YAXPAVCBot@@PAD@Z@4PADA 1015aa3c     megahal.obj
 0003:0009ea40       ?keys@?1??BotHALMakeKeywords@@YAPAUHAL_DICTIONARY@@PAVCBot@@PAU2@@Z@4PAU2@A 1015aa40     megahal.obj
 0003:0009ea44       ?replies@?1??BotHALBuildReplyDictionary@@YAPAUHAL_DICTIONARY@@PAVCBot@@PAU2@@Z@4PAU2@A 1015aa44     megahal.obj
 0003:0009ea48       _allocator_arg             1015aa48     netmessages.obj
 0003:0009ea49       _piecewise_construct       1015aa49     netmessages.obj
 0003:0009ea4a       _allocator_arg             1015aa4a     perceptron.obj
 0003:0009ea4b       _piecewise_construct       1015aa4b     perceptron.obj
 0003:0009ef40       _allocator_arg             1015af40     rcbot_meta_api.obj
 0003:0009ef41       _piecewise_construct       1015af41     rcbot_meta_api.obj
 0003:0009ef42       _allocator_arg             1015af42     som.obj
 0003:0009ef43       _piecewise_construct       1015af43     som.obj
 0003:0009ef44       _allocator_arg             1015af44     util.obj
 0003:0009ef45       _piecewise_construct       1015af45     util.obj
 0003:0009ef48       ?string@?1??UTIL_LogPrintf@@YAXPADZZ@4PADA 1015af48     util.obj
 0003:0009f348       ?hudmessage@?1??UTIL_BotToolTip@@YAXPAUedict_s@@W4eLanguage@@W4eToolTip@@@Z@4VHudText@@A 1015b348     util.obj
 0003:0009f470       ?$S1@?1??UTIL_BotToolTip@@YAXPAUedict_s@@W4eLanguage@@W4eToolTip@@@Z@4IA 1015b470     util.obj
 0003:000a0480       _allocator_arg             1015c480     waypoint.obj
 0003:000a0481       _piecewise_construct       1015c481     waypoint.obj
 0003:000c448c       _fp                        1018048c     waypoint.obj
 0003:000c4490       _g_iFailedWaypoints        10180490     waypoint.obj
 0003:000c4890       __Tuple_alloc              10180890     libcpmt:xthrow.obj
 0003:000c4891       _ignore                    10180891     libcpmt:xthrow.obj
 0003:000c4892       _allocator_arg             10180892     libcpmt:xthrow.obj
 0003:000c4893       _piecewise_construct       10180893     libcpmt:xthrow.obj
 0003:000c48a4       _allocator_arg             101808a4     libcpmt:syserror.obj
 0003:000c48a5       _piecewise_construct       101808a5     libcpmt:syserror.obj
 0003:000c48ac       ___enable_percent_n        101808ac     LIBCMT:printf.obj
 0003:000c48e8       _GS_ExceptionRecord        101808e8     LIBCMT:gs_report.obj
 0003:000c4938       _GS_ContextRecord          10180938     LIBCMT:gs_report.obj
 0003:000c4c04       _DebuggerWasPresent        10180c04     LIBCMT:gs_report.obj
 0003:000c4c08       ___proc_attached           10180c08     LIBCMT:dllcrt0.obj
 0003:000c4d38       _lclcritsects              10180d38     LIBCMT:mlock.obj
 0003:000c4e90       ?outmsg@?9??_NMSG_WRITE@@9@9 10180e90     LIBCMT:crt0msg.obj
 0003:000c54c0       _ctrlc_action              101814c0     LIBCMT:winsig.obj
 0003:000c54c4       _ctrlbreak_action          101814c4     LIBCMT:winsig.obj
 0003:000c54c8       _abort_action              101814c8     LIBCMT:winsig.obj
 0003:000c54cc       _term_action               101814cc     LIBCMT:winsig.obj
 0003:000c54d0       _ConsoleCtrlHandler_Installed 101814d0     LIBCMT:winsig.obj
 0003:000c54d4       _g_pfnRtlGenRandom         101814d4     LIBCMT:rand_s.obj
 0003:000c54f0       _fSystemSet                101814f0     LIBCMT:mbctype.obj
 0003:000c5500       _lastTZ                    10181500     LIBCMT:tzset.obj
 0003:000c5504       ?first_time@?1??__tzset@@9@9 10181504     LIBCMT:tzset.obj
 0003:000c5508       _tzapiused                 10181508     LIBCMT:tzset.obj
 0003:000c5510       _tzinfo                    10181510     LIBCMT:tzset.obj
 0003:000c55c0       __pmatherr_set             101815c0     LIBCMT:libm_error.obj
 0003:000c55c4       ___type_info_root_node     101815c4     LIBCMT:typname.obj
 0003:000c55d0       ?_pgmname@?1??_setargv@@9@9 101815d0     LIBCMT:stdargv.obj
 0003:000c56dc       ___crtCallProc             101816dc     LIBCMT:winapinls.obj
 0003:000c56e8       ?pfnMessageBox@?1??__crtMessageBoxW@@9@9 101816e8     LIBCMT:crtmboxw.obj
 0003:000c56ec       ?pfnGetActiveWindow@?1??__crtMessageBoxW@@9@9 101816ec     LIBCMT:crtmboxw.obj
 0003:000c56f0       ?pfnGetLastActivePopup@?1??__crtMessageBoxW@@9@9 101816f0     LIBCMT:crtmboxw.obj
 0003:000c56f4       ?pfnGetProcessWindowStation@?1??__crtMessageBoxW@@9@9 101816f4     LIBCMT:crtmboxw.obj
 0003:000c56f8       ?pfnGetUserObjectInformation@?1??__crtMessageBoxW@@9@9 101816f8     LIBCMT:crtmboxw.obj
 0003:000c572c       _heap                      1018172c     LIBCMT:undname.obj
 0004:00000060       $R000000                   10183060     * linker generated manifest res *
