 HPB_bot

 Timestamp is 5933da0b (Sun Jun  4 10:59:39 2017)

 Preferred load address is 10000000

 Start         Length     Name                   Class
 0001:00000000 00000060H .text$di                CODE
 0001:00000060 000af110H .text$mn                CODE
 0001:000af170 00001840H .text$x                 CODE
 0001:000b09b0 0000000aH .text$yd                CODE
 0002:00000000 0000019cH .idata$5                DATA
 0002:0000019c 00000004H .00cfg                  DATA
 0002:000001a0 00000004H .CRT$XCA                DATA
 0002:000001a4 0000000cH .CRT$XCU                DATA
 0002:000001b0 00000004H .CRT$XCZ                DATA
 0002:000001b4 00000004H .CRT$XIA                DATA
 0002:000001b8 00000014H .CRT$XIC                DATA
 0002:000001cc 00000004H .CRT$XIZ                DATA
 0002:000001d0 00000004H .CRT$XLA                DATA
 0002:000001d4 00000004H .CRT$XLZ                DATA
 0002:000001d8 00000004H .CRT$XPA                DATA
 0002:000001dc 00000008H .CRT$XPX                DATA
 0002:000001e4 00000004H .CRT$XPXA               DATA
 0002:000001e8 00000004H .CRT$XPZ                DATA
 0002:000001ec 00000004H .CRT$XTA                DATA
 0002:000001f0 00000010H .CRT$XTZ                DATA
 0002:000001f4 00000000H .gfids$y                DATA
 0002:00000200 00016f20H .rdata                  DATA
 0002:00017120 00000018H .rdata$T                DATA
 0002:00017138 000018e8H .rdata$r                DATA
 0002:00018a20 00000124H .rdata$sxdata           DATA
 0002:00018b44 000003bcH .rdata$zzzdbg           DATA
 0002:00018f00 00000004H .rtc$IAA                DATA
 0002:00018f04 00000004H .rtc$IZZ                DATA
 0002:00018f08 00000004H .rtc$TAA                DATA
 0002:00018f0c 00000004H .rtc$TZZ                DATA
 0002:00018f10 00002320H .xdata$x                DATA
 0002:0001b230 000000f8H .edata                  DATA
 0002:0001b328 00000028H .idata$2                DATA
 0002:0001b350 00000014H .idata$3                DATA
 0002:0001b364 0000019cH .idata$4                DATA
 0002:0001b500 000007a8H .idata$6                DATA
 0003:00000000 00000ba0H .data                   DATA
 0003:00000ba0 00000b68H .data$r                 DATA
 0003:00001708 000c390cH .bss                    DATA
 0004:00000000 00000004H .tls                    DATA
 0004:00000004 00000004H .tls$                   DATA
 0004:00000008 00000001H .tls$ZZZ                DATA
 0005:00000000 00000060H .rsrc$01                DATA
 0005:00000060 00000180H .rsrc$02                DATA

  Address         Publics by Value              Rva+Base       Lib:Object

 0000:00000000       ___guard_iat_table         00000000     <absolute>
 0000:00000000       ___guard_iat_count         00000000     <absolute>
 0000:00000000       ___guard_fids_count        00000000     <absolute>
 0000:00000000       ___guard_fids_table        00000000     <absolute>
 0000:00000000       ___dynamic_value_reloc_table 00000000     <absolute>
 0000:00000000       ___guard_longjmp_count     00000000     <absolute>
 0000:00000000       ___guard_longjmp_table     00000000     <absolute>
 0000:00000000       __except_list              00000000     <absolute>
 0000:0000002c       __tls_array                0000002c     <absolute>
 0000:00000049       ___safe_se_handler_count   00000049     <absolute>
 0000:00000100       ___guard_flags             00000100     <absolute>
 0000:00000000       ___ImageBase               10000000     <linker-defined>
 0001:00000060       ??$__vcrt_va_start_verify_argument_type@QBD@@YAXXZ 10001060 f i bits.obj
 0001:00000070       ??0CBits@@QAE@I@Z          10001070 f   bits.obj
 0001:00000090       ??0CBits@@QAE@PAV0@@Z      10001090 f   bits.obj
 0001:000000b0       ??_H@YGXPAXIIP6EPAX0@Z@Z   100010b0 f i bits.obj
 0001:000000e0       ?clear@CBits@@QAEXXZ       100010e0 f   bits.obj
 0001:00000100       ?copy@CBits@@QAEXPAV1@@Z   10001100 f   bits.obj
 0001:00000130       ?freeMemory@CBits@@QAEXXZ  10001130 f   bits.obj
 0001:00000150       ?getBit@CBits@@QAEHH@Z     10001150 f   bits.obj
 0001:00000190       ?load@CBits@@QAEXPAU_iobuf@@@Z 10001190 f   bits.obj
 0001:000002b0       ?randomize@CBits@@QAEXXZ   100012b0 f   bits.obj
 0001:00000310       ?save@CBits@@QAEXPAU_iobuf@@@Z 10001310 f   bits.obj
 0001:00000380       ?setBit@CBits@@QAEXHH@Z    10001380 f   bits.obj
 0001:000003d0       ?setup@CBits@@QAEXH@Z      100013d0 f   bits.obj
 0001:00000400       ?size@CBits@@QAEHXZ        10001400 f   bits.obj
 0001:00000440       ___local_stdio_printf_options 10001440 f i bits.obj
 0001:00000450       _sprintf                   10001450 f i bits.obj
 0001:00000490       ??$_Uninitialized_copy_al_unchecked@PAVCRememberPosition@@PAV1@V?$allocator@VCRememberPosition@@@std@@@std@@YAPAVCRememberPosition@@PAV1@00AAU?$_Wrap_alloc@V?$allocator@VCRememberPosition@@@std@@@0@U_General_ptr_iterator_tag@0@U_Any_tag@0@@Z 10001490 f i bot.obj
 0001:00000510       ??$_Uninitialized_move_al_unchecked@PAVCActionUtility@@PAV1@V?$allocator@VCActionUtility@@@std@@@std@@YAPAVCActionUtility@@PAV1@00AAU?$_Wrap_alloc@V?$allocator@VCActionUtility@@@std@@@0@U_General_ptr_iterator_tag@0@U_Any_tag@0@@Z 10001510 f i bot.obj
 0001:00000550       ??$__vcrt_va_start_verify_argument_type@PAD@@YAXXZ 10001550 f i bot.obj
 0001:00000560       ??$emplace_back@ABH@?$vector@HV?$allocator@H@std@@@std@@QAEXABH@Z 10001560 f i bot.obj
 0001:00000630       ??$emplace_back@ABM@?$vector@MV?$allocator@M@std@@@std@@QAEXABM@Z 10001630 f i bot.obj
 0001:00000700       ??$emplace_back@ABQAUedict_s@@@?$vector@PAUedict_s@@V?$allocator@PAUedict_s@@@std@@@std@@QAEXABQAUedict_s@@@Z 10001700 f i bot.obj
 0001:000007d0       ??$emplace_back@ABQBD@?$vector@PBDV?$allocator@PBD@std@@@std@@QAEXABQBD@Z 100017d0 f i bot.obj
 0001:000008a0       ??$emplace_back@ABVCRememberPosition@@@?$vector@VCRememberPosition@@V?$allocator@VCRememberPosition@@@std@@@std@@QAEXABVCRememberPosition@@@Z 100018a0 f i bot.obj
 0001:00000a40       ??$emplace_back@M@?$vector@MV?$allocator@M@std@@@std@@QAEX$$QAM@Z 10001a40 f i bot.obj
 0001:00000b10       ??$emplace_back@VCActionUtility@@@?$vector@VCActionUtility@@V?$allocator@VCActionUtility@@@std@@@std@@QAEX$$QAVCActionUtility@@@Z 10001b10 f i bot.obj
 0001:00000c50       ??0?$dataStack@H@@QAE@XZ   10001c50 f i bot.obj
 0001:00000c60       ??0?$dataStack@VCStructure@@@@QAE@XZ 10001c60 f i bot.obj
 0001:00000c70       ??0?$dataUnconstArray@H@@QAE@XZ 10001c70 f i bot.obj
 0001:00000ca0       ??0?$vector@MV?$allocator@M@std@@@std@@QAE@ABV01@@Z 10001ca0 f i bot.obj
 0001:00000d30       ??0?$vector@MV?$allocator@M@std@@@std@@QAE@XZ 10001d30 f i bot.obj
 0001:00000d50       ??0CBotSquad@@QAE@PAUedict_s@@0@Z 10001d50 f i bot.obj
 0001:00000e00       ??0CBotTask@@QAE@ABV0@@Z   10001e00 f i bot.obj
 0001:00000e60       ??0CBotTask@@QAE@W4eBotTask@@HPAUedict_s@@HMVVector@@M@Z 10001e60 f i bot.obj
 0001:00000ee0       ??0CGA@@QAE@H@Z            10001ee0 f i bot.obj
 0001:00000fb0       ??0CLearnedHeader@@QAE@H@Z 10001fb0 f   bot.obj
 0001:00000fe0       ??0CStructures@@QAE@XZ     10001fe0 f i bot.obj
 0001:00001030       ??0Vector@@QAE@ABV0@@Z     10002030 f i bot.obj
 0001:00001050       ??1?$dataUnconstArray@H@@QAE@XZ 10002050 f i bot.obj
 0001:00001090       ??1?$dataUnconstArray@PAUedict_s@@@@QAE@XZ 10002090 f i bot.obj
 0001:000010d0       ??1?$dataUnconstArray@PBD@@QAE@XZ 100020d0 f i bot.obj
 0001:00001110       ??1?$vector@MV?$allocator@M@std@@@std@@QAE@XZ 10002110 f i bot.obj
 0001:00001140       ??1CActionUtilities@@QAE@XZ 10002140 f i bot.obj
 0001:00001170       ??1CGA@@QAE@XZ             10002170 f i bot.obj
 0001:000011e0       ??1CPerceptron@@QAE@XZ     100021e0 f i bot.obj
 0001:00001260       ??1CPopulation@@QAE@XZ     10002260 f i bot.obj
 0001:00001290       ??8CBotTask@@QAEHABV0@@Z   10002290 f   bot.obj
 0001:00001310       ??8CLearnedHeader@@QAEHV0@@Z 10002310 f   bot.obj
 0001:00001370       ??8Vector@@QBEHABV0@@Z     10002370 f i bot.obj
 0001:000013b0       ??9Vector@@QBEHABV0@@Z     100023b0 f i bot.obj
 0001:000013f0       ??_GCBotGAValues@@QAEPAXI@Z 100023f0 f i bot.obj
 0001:00001440       ?Add@?$dataQueue@VCBotTask@@@@QAEXABVCBotTask@@@Z 10002440 f i bot.obj
 0001:000014c0       ?AddFailedPath@CBotFailedPaths@@QAEXPAUpath@@@Z 100024c0 f i bot.obj
 0001:00001530       ?AddFront@?$dataQueue@VCBotTask@@@@QAEXABVCBotTask@@@Z 10002530 f i bot.obj
 0001:000015a0       ?AddMember@CBotSquad@@QAEXPAUedict_s@@@Z 100025a0 f i bot.obj
 0001:00001600       ?AddPriorityTask@CBot@@QAEXABVCBotTask@@@Z 10002600 f   bot.obj
 0001:00001630       ?AddSquadMember@CBotSquads@@QAEPAVCBotSquad@@PAUedict_s@@0@Z 10002630 f   bot.obj
 0001:00001820       ?AddStructure@CStructures@@QAEXPAUedict_s@@H@Z 10002820 f i bot.obj
 0001:000018c0       ?AddTask@CBot@@QAEXABVCBotTask@@@Z 100028c0 f   bot.obj
 0001:000018d0       ?AddToSquad@CBot@@QAEXPAUedict_s@@@Z 100028d0 f   bot.obj
 0001:00001970       ?AddVisitedResourceTower@CBot@@QAEXPAUedict_s@@@Z 10002970 f   bot.obj
 0001:000019d0       ?AltButton@CBot@@QAEXXZ    100029d0 f i bot.obj
 0001:000019f0       ?AssertMessage@@YAXHPADZZ  100029f0 f   bot.obj
 0001:00001a40       ?AverageRepOnServer@CBotReputations@@QAEHXZ 10002a40 f i bot.obj
 0001:00001a80       ?Blocked@CBot@@QAEXPAUedict_s@@@Z 10002a80 f   bot.obj
 0001:00001af0       ?BotChat@CBot@@QAEXW4eBotChatType@@PAUedict_s@@H@Z 10002af0 f   bot.obj
 0001:00001ed0       ?BotCommand@CBot@@QAEXXZ   10002ed0 f   bot.obj
 0001:00002300       ?BotEvent@CBot@@QAEXW4eBotEvent@@PAUedict_s@@1PAM@Z 10003300 f   bot.obj
 0001:00002ff0       ?BotFile_Write@@YAXPAD@Z   10003ff0 f   bot.obj
 0001:00003090       ?BotFunc_BreakableIsEnemy@@YAHPAUedict_s@@0@Z 10004090 f   bot.obj
 0001:00003140       ?BotFunc_ChangeAngles@@YAXPAM000@Z 10004140 f   bot.obj
 0001:00003220       ?BotFunc_DecreaseRep@@YAHHMM@Z 10004220 f   bot.obj
 0001:000032a0       ?BotFunc_DistanceBetweenEdicts@@YAMPAUedict_s@@0@Z 100042a0 f   bot.obj
 0001:00003310       ?BotFunc_EntityIsMoving@@YAHPAUentvars_s@@@Z 10004310 f   bot.obj
 0001:000033a0       ?BotFunc_FillString@@YAHPADPBD1H@Z 100043a0 f   bot.obj
 0001:000034d0       ?BotFunc_FindNearestButton@@YAPAUedict_s@@VVector@@PAUentvars_s@@PAV2@@Z 100044d0 f   bot.obj
 0001:000037f0       ?BotFunc_FindRandomEntity@@YAPAUedict_s@@PAD@Z 100047f0 f   bot.obj
 0001:000038b0       ?BotFunc_GetBitSetOf@@YAHH@Z 100048b0 f   bot.obj
 0001:000038d0       ?BotFunc_GetRandomPlayerName@@YAPBDPAVCBot@@H@Z 100048d0 f   bot.obj
 0001:00003ad0       ?BotFunc_GetStructureForGorgeBuild@@YAHPAUentvars_s@@0@Z 10004ad0 f   bot.obj
 0001:00003d20       ?BotFunc_GetStructuresToBuildForEntity@@YAHW4AvHUser3@@PAH111@Z 10004d20 f   bot.obj
 0001:00003e10       ?BotFunc_IncreaseRep@@YAHHMM@Z 10004e10 f   bot.obj
 0001:00003e50       ?BotFunc_IsLongRangeWeapon@@YAHH@Z 10004e50 f   bot.obj
 0001:00003eb0       ?BotFunc_MakeSquad@@YAXPAVCClient@@@Z 10004eb0 f   bot.obj
 0001:00003f30       ?BotMessage@@YAXPAUedict_s@@HPADZZ 10004f30 f   bot.obj
 0001:00004080       ?BotPrintTalkMessage@@YAXPADZZ 10005080 f   bot.obj
 0001:000040f0       ?BotPrintTalkMessageOne@@YAXPAUedict_s@@PADZZ 100050f0 f   bot.obj
 0001:00004140       ?BotSquadLeaderThink@CBot@@QAEXXZ 10005140 f   bot.obj
 0001:00004180       ?BugMessage@@YAXPAUedict_s@@PADZZ 10005180 f   bot.obj
 0001:000041f0       ?CanAddToSquad@CBot@@QAEHPAUedict_s@@@Z 100051f0 f   bot.obj
 0001:00004240       ?CanAvoid@CBot@@QAEHPAUedict_s@@MM@Z 10005240 f   bot.obj
 0001:000046b0       ?CanBuild@CBot@@QAEHPAUedict_s@@PAH@Z 100056b0 f   bot.obj
 0001:000047b0       ?CanFire@CMasterEntity@@QAE?AW4eMasterType@@PAUedict_s@@@Z 100057b0 f   bot.obj
 0001:00004800       ?CanGetMorePrimaryAmmo@CBotWeapon@@QAEHXZ 10005800 f i bot.obj
 0001:00004850       ?CanPickup@CBot@@QAEHPAUedict_s@@@Z 10005850 f   bot.obj
 0001:00004b60       ?CanShootSecondary@CBotWeapon@@QAEHXZ 10005b60 f i bot.obj
 0001:00004b80       ?CanUseTank@CBot@@QAEHPAUedict_s@@@Z 10005b80 f i bot.obj
 0001:00004bc0       ?ChangeAngles@CBot@@QAEXPAM000@Z 10005bc0 f   bot.obj
 0001:00004be0       ?ChangeLeader@CBotSquad@@QAEXXZ 10005be0 f i bot.obj
 0001:00004c60       ?ChangeLeader@CBotSquads@@QAEXPAVCBotSquad@@@Z 10005c60 f   bot.obj
 0001:00004d10       ?CheckStuck@CBot@@AAEXXZ   10005d10 f   bot.obj
 0001:00005300       ?ChooseFromStack@?$dataStack@H@@QAEHXZ 10006300 f i bot.obj
 0001:00005310       ?ChooseFromStack@?$dataStack@PAUedict_s@@@@QAEPAUedict_s@@XZ 10006310 f i bot.obj
 0001:00005320       ?ChooseFromStack@?$dataStack@PAVCBotSquad@@@@QAEPAVCBotSquad@@XZ 10006320 f i bot.obj
 0001:00005330       ?ChooseFromStack@?$dataStack@PAVCMasterEntity@@@@QAEPAVCMasterEntity@@XZ 10006330 f i bot.obj
 0001:00005340       ?ChooseFromStack@?$dataStack@VMyEHandle@@@@QAE?AVMyEHandle@@XZ 10006340 f i bot.obj
 0001:00005360       ?ChoosePointerFrom@?$dataQueue@VCBotTask@@@@QAEPAVCBotTask@@XZ 10006360 f i bot.obj
 0001:00005370       ?ChoosePointerFromStack@?$dataStack@VCBotFailedPath@@@@QAEPAVCBotFailedPath@@XZ 10006370 f i bot.obj
 0001:00005380       ?ChoosePointerFromStack@?$dataStack@VCBotReputation@@@@QAEPAVCBotReputation@@XZ 10006380 f i bot.obj
 0001:00005390       ?ChoosePointerFromStack@?$dataStack@VCStructure@@@@QAEPAVCStructure@@XZ 10006390 f i bot.obj
 0001:000053a0       ?ChoosePointerFromStack@?$dataStack@VCTFCBackpack@@@@QAEPAVCTFCBackpack@@XZ 100063a0 f i bot.obj
 0001:000053b0       ?ChoosePointerFromStack@?$dataStack@VMyEHandle@@@@QAEPAVMyEHandle@@XZ 100063b0 f i bot.obj
 0001:000053c0       ?CrossProduct@@YA?AVVector@@ABV1@0@Z 100063c0 f i bot.obj
 0001:00005420       ?DebugMessage@@YAXHPAUedict_s@@HPADZZ 10006420 f   bot.obj
 0001:00005650       ?DecreaseRep@CBotReputations@@QAEXH@Z 10006650 f i bot.obj
 0001:000056a0       ?Destroy@?$dataStack@H@@QAEXXZ 100066a0 f i bot.obj
 0001:000056d0       ?Destroy@?$dataStack@PAUedict_s@@@@QAEXXZ 100066d0 f i bot.obj
 0001:00005700       ?DistanceFrom@CBot@@QAEMABVVector@@H@Z 10006700 f   bot.obj
 0001:000057d0       ?DistanceFromEdict@CBot@@QAEMPAUedict_s@@@Z 100067d0 f   bot.obj
 0001:00005820       ?DoTasks@CBot@@AAEXXZ      10006820 f   bot.obj
 0001:0000c530       ?DotProductFromOrigin@CBot@@QAEMPAVVector@@@Z 1000d530 f   bot.obj
 0001:0000c670       ?DuckAndJump@CBot@@QAEXXZ  1000d670 f   bot.obj
 0001:0000c6e0       ?EnemyDown@CBot@@QAEXPAUedict_s@@@Z 1000d6e0 f   bot.obj
 0001:0000c6f0       ?EnemyFound@CBot@@QAEXPAUedict_s@@@Z 1000d6f0 f   bot.obj
 0001:0000cab0       ?EntityIsAlien@@YAHPAUedict_s@@@Z 1000dab0 f   bot.obj
 0001:0000cae0       ?EntityIsAlienStruct@@YAHPAUedict_s@@@Z 1000dae0 f   bot.obj
 0001:0000cb10       ?EntityIsAlive@@YAHPAUedict_s@@@Z 1000db10 f   bot.obj
 0001:0000cb70       ?EntityIsBuildable@@YAHPAUedict_s@@@Z 1000db70 f   bot.obj
 0001:0000cb90       ?EntityIsCommander@@YAHPAUedict_s@@@Z 1000db90 f   bot.obj
 0001:0000cbb0       ?EntityIsMarine@@YAHPAUedict_s@@@Z 1000dbb0 f   bot.obj
 0001:0000cbe0       ?EntityIsMarineStruct@@YAHPAUedict_s@@@Z 1000dbe0 f   bot.obj
 0001:0000cc40       ?EntityIsSelectable@@YAHPAUedict_s@@@Z 1000dc40 f   bot.obj
 0001:0000cc60       ?EntityIsWeldable@@YAHPAUedict_s@@@Z 1000dc60 f   bot.obj
 0001:0000cdf0       ?FInViewCone@CBot@@QAEHPAVVector@@@Z 1000ddf0 f   bot.obj
 0001:0000ce40       ?FNullEnt@@YAHPBUedict_s@@@Z 1000de40 f i bot.obj
 0001:0000ce70       ?FStrEq@@YAHPBD0@Z         1000de70 f i bot.obj
 0001:0000cec0       ?FVisible@CBot@@QAEHABVVector@@@Z 1000dec0 f   bot.obj
 0001:0000cf40       ?FVisible@CBot@@QAEHPAUedict_s@@@Z 1000df40 f   bot.obj
 0001:0000d100       ?FacingIdeal@CBot@@QAEHXZ  1000e100 f   bot.obj
 0001:0000d1b0       ?FindBackPack@CBot@@QAEXHHHHHHH@Z 1000e1b0 f   bot.obj
 0001:0000d3c0       ?FindButton@CMasterEntity@@QAEPAUedict_s@@VVector@@@Z 1000e3c0 f   bot.obj
 0001:0000d670       ?FindEnemy@CBot@@QAEPAUedict_s@@XZ 1000e670 f   bot.obj
 0001:0000db10       ?FinishSchedule@CBotTasks@@QAEHH@Z 1000eb10 f i bot.obj
 0001:0000db70       ?FinishSchedule@CBotTasks@@QAEHW4eScheduleDesc@@@Z 1000eb70 f i bot.obj
 0001:0000dbd0       ?FinishedCurrentTask@CBotTasks@@QAEXH@Z 1000ebd0 f i bot.obj
 0001:0000dc30       ?FlapWings@CBot@@AAEXXZ    1000ec30 f   bot.obj
 0001:0000dc90       ?FlushTasks@CBotTasks@@QAEXXZ 1000ec90 f i bot.obj
 0001:0000dcd0       ?FreeLocalMemory@CBot@@QAEXXZ 1000ecd0 f   bot.obj
 0001:0000e1c0       ?FreeLocalMemory@CStructures@@QAEXXZ 1000f1c0 f i bot.obj
 0001:0000e210       ?Get@MyEHandle@@QBEPAUedict_s@@XZ 1000f210 f i bot.obj
 0001:0000e230       ?GetAimVector@CBot@@QAE?AVVector@@PAUedict_s@@@Z 1000f230 f   bot.obj
 0001:0000ea50       ?GetClientByEdict@CClients@@QAEPAVCClient@@PAUedict_s@@@Z 1000fa50 f i bot.obj
 0001:0000eaa0       ?GetClimbType@CBot@@QAE?AW4eClimbType@@XZ 1000faa0 f   bot.obj
 0001:0000eba0       ?GetFormationVector@CBotSquad@@QAE?AVVector@@PAUedict_s@@@Z 1000fba0 f   bot.obj
 0001:0000efb0       ?GetGunPosition@CBot@@QAE?AVVector@@XZ 1000ffb0 f i bot.obj
 0001:0000f000       ?GetLadderDir@CBot@@QAEHH@Z 10010000 f   bot.obj
 0001:0000f0b0       ?GetNewScheduleId@CBotTasks@@QAEHXZ 100100b0 f i bot.obj
 0001:0000f100       ?GetPrimaryWeaponId@CBotWeapons@@QAEHXZ 10010100 f i bot.obj
 0001:0000f140       ?GetRep@CBotReputations@@QAEPAVCBotReputation@@H@Z 10010140 f i bot.obj
 0001:0000f170       ?GetSecondaryWeaponId@CBotWeapons@@QAEHXZ 10010170 f i bot.obj
 0001:0000f1b0       ?GetTask@CBotTasks@@QAEXW4eBotTask@@PAVCBotTask@@@Z 100101b0 f i bot.obj
 0001:0000f280       ?GetTeam@CBot@@QAEHXZ      10010280 f   bot.obj
 0001:0000f290       ?GetVector@?$CTypeVector@F@@QBE?AVVector@@XZ 10010290 f i bot.obj
 0001:0000f2d0       ?GetWeapon@CBotWeapons@@QAEPAVCBotWeapon@@H@Z 100102d0 f i bot.obj
 0001:0000f2f0       ?GiveSchedIdDescription@CBotTasks@@QAEXHW4eScheduleDesc@@@Z 100102f0 f i bot.obj
 0001:0000f340       ?HasJetPack@CBot@@QAEHXZ   10010340 f i bot.obj
 0001:0000f370       ?HasSchedule@CBotTasks@@QAEHW4eScheduleDesc@@@Z 10010370 f i bot.obj
 0001:0000f3c0       ?HasSeenEnemy@CBot@@QAEHPAUedict_s@@@Z 100103c0 f   bot.obj
 0001:0000f3e0       ?HasTask@CBotTasks@@QAEHVCBotTask@@@Z 100103e0 f i bot.obj
 0001:0000f460       ?HasTask@CBotTasks@@QAEHW4eBotTask@@@Z 10010460 f i bot.obj
 0001:0000f4b0       ?HasUpgraded@CBot@@QAEHH@Z 100104b0 f   bot.obj
 0001:0000f520       ?HasUser4Mask@CBot@@QAEHH@Z 10010520 f i bot.obj
 0001:0000f540       ?HasVisitedResourceTower@CBot@@QAEHPAUedict_s@@@Z 10010540 f   bot.obj
 0001:0000f580       ?HasWeapon@CBot@@QAEHH@Z   10010580 f   bot.obj
 0001:0000f5a0       ?HearSound@CBot@@QAEXW4eSoundType@@VVector@@PAUedict_s@@@Z 100105a0 f   bot.obj
 0001:0000fa00       ?IncreaseRep@CBotReputations@@QAEXH@Z 10010a00 f i bot.obj
 0001:0000fa50       ?Init@CBot@@QAEXXZ         10010a50 f   bot.obj
 0001:0000fca0       ?Instance@CBaseEntity@@SAPAV1@PAUentvars_s@@@Z 10010ca0 f i bot.obj
 0001:0000fcd0       ?IsAlien@CBot@@QAEHXZ      10010cd0 f   bot.obj
 0001:0000fcf0       ?IsCommander@CBot@@QAEHXZ  10010cf0 f   bot.obj
 0001:0000fd20       ?IsCurrentWeapon@CBot@@QAEHH@Z 10010d20 f i bot.obj
 0001:0000fd40       ?IsEnemy@CBot@@QAEHPAUedict_s@@@Z 10010d40 f   bot.obj
 0001:00010890       ?IsFade@CBot@@QAEHXZ       10011890 f   bot.obj
 0001:000108c0       ?IsGestating@CBot@@QAEHXZ  100118c0 f   bot.obj
 0001:000108f0       ?IsGorge@CBot@@QAEHXZ      100118f0 f   bot.obj
 0001:00010920       ?IsHoldingMiniGun@CBot@@QAEHXZ 10011920 f   bot.obj
 0001:00010950       ?IsInReadyRoom@CBot@@QAEHXZ 10011950 f   bot.obj
 0001:00010970       ?IsInVisibleList@CBot@@QAEHPAUedict_s@@@Z 10011970 f   bot.obj
 0001:00010990       ?IsLerk@CBot@@QAEHXZ       10011990 f   bot.obj
 0001:000109c0       ?IsMarine@CBot@@QAEHXZ     100119c0 f   bot.obj
 0001:000109f0       ?IsMelee@CBotWeapon@@QAEHXZ 100119f0 f i bot.obj
 0001:00010a00       ?IsMember@?$dataStack@H@@QAEHH@Z 10011a00 f i bot.obj
 0001:00010a30       ?IsMember@CBotSquad@@QAEHPAUedict_s@@@Z 10011a30 f i bot.obj
 0001:00010a90       ?IsOnLadder@CBot@@QAEHXZ   10011a90 f i bot.obj
 0001:00010ab0       ?IsOnos@CBot@@QAEHXZ       10011ab0 f   bot.obj
 0001:00010ae0       ?IsSkulk@CBot@@QAEHXZ      10011ae0 f   bot.obj
 0001:00010b10       ?IsUsingTank@CBot@@QAEHXZ  10011b10 f   bot.obj
 0001:00010b80       ?IsWallSticking@CBot@@QAEHXZ 10011b80 f i bot.obj
 0001:00010bb0       ?JumpAndDuck@CBot@@QAEXXZ  10011bb0 f   bot.obj
 0001:00010c80       ?LookForNewTasks@CBot@@QAEXXZ 10011c80 f   bot.obj
 0001:00015550       ?NS_AmountOfEnergy@CBot@@QAEMXZ 10016550 f i bot.obj
 0001:00015580       ?NeedMetal@CBot@@QAEXHHH@Z 10016580 f   bot.obj
 0001:00015790       ?NoTasksLeft@CBotTasks@@QAEHXZ 10016790 f i bot.obj
 0001:000157b0       ?Normalize@Vector@@QBE?AV1@XZ 100167b0 f i bot.obj
 0001:00015850       ?NotStartedGame@CBot@@QAEHXZ 10016850 f   bot.obj
 0001:00015930       ?OutOfAmmo@CBotWeapon@@QAEHXZ 10016930 f i bot.obj
 0001:00015950       ?PlayerStandingOnMe@CBot@@QAEPAUedict_s@@XZ 10016950 f   bot.obj
 0001:000159d0       ?PrimMinRange@CBotWeapon@@QAEMXZ 100169d0 f i bot.obj
 0001:000159f0       ?PrimaryAttack@CBot@@QAEHXZ 100169f0 f   bot.obj
 0001:00015a80       ?PrimaryInRange@CBotWeapon@@QAEHM@Z 10016a80 f i bot.obj
 0001:00015af0       ?Push@?$dataStack@H@@QAEXH@Z 10016af0 f i bot.obj
 0001:00015b40       ?Push@?$dataStack@PAUedict_s@@@@QAEXQAUedict_s@@@Z 10016b40 f i bot.obj
 0001:00015b90       ?Push@?$dataStack@PAVCBotSquad@@@@QAEXQAVCBotSquad@@@Z 10016b90 f i bot.obj
 0001:00015be0       ?Random@?$dataUnconstArray@H@@QAEHXZ 10016be0 f i bot.obj
 0001:00015c10       ?Random@?$dataUnconstArray@PAD@@QAEPADXZ 10016c10 f i bot.obj
 0001:00015c40       ?Random@?$dataUnconstArray@VTSObjective@@@@QAE?AVTSObjective@@XZ 10016c40 f i bot.obj
 0001:00015ca0       ?RememberPosition@CBot@@QAEXVVector@@PAUedict_s@@H@Z 10016ca0 f   bot.obj
 0001:00015d00       ?Remove@?$dataStack@PAVCBotSquad@@@@QAEHQAVCBotSquad@@@Z 10016d00 f i bot.obj
 0001:00015d70       ?Remove@?$dataUnconstArray@VCRememberPosition@@@@QAEXVCRememberPosition@@@Z 10016d70 f i bot.obj
 0001:00015e30       ?RemoveByPointer@?$dataQueue@VCBotTask@@@@QAEHPBVCBotTask@@@Z 10016e30 f i bot.obj
 0001:00015ed0       ?RemoveByPointer@?$dataStack@VMyEHandle@@@@QAEHPBVMyEHandle@@@Z 10016ed0 f i bot.obj
 0001:00015f40       ?RemoveFront@?$dataQueue@VCBotTask@@@@QAEXXZ 10016f40 f i bot.obj
 0001:00015f90       ?RemoveMySquad@CBot@@QAEHXZ 10016f90 f   bot.obj
 0001:00015fd0       ?RemovePaths@CBotTasks@@QAEXXZ 10016fd0 f i bot.obj
 0001:00016020       ?RemoveSameTask@CBotTasks@@QAEXABVCBotTask@@@Z 10017020 f i bot.obj
 0001:000160f0       ?RemoveSimilarTask@CBotTasks@@QAEXW4eBotTask@@@Z 100170f0 f i bot.obj
 0001:00016150       ?RemoveSquad@CBotSquads@@QAEXPAVCBotSquad@@@Z 10017150 f   bot.obj
 0001:00016250       ?RemoveTimedOutSchedules@CBotTasks@@QAEXXZ 10017250 f i bot.obj
 0001:000162e0       ?RepairSentry@CBot@@AAEXH@Z 100172e0 f   bot.obj
 0001:000164c0       ?ReplyToMessage@CBot@@QAEXPADPAUedict_s@@H@Z 100174c0 f   bot.obj
 0001:000165a0       ?ReturnAllToFormation@CBotSquad@@QAEXXZ 100175a0 f   bot.obj
 0001:000166c0       ?RunForCover@CBot@@QAEXVVector@@HH@Z 100176c0 f   bot.obj
 0001:00016a30       ?RunPlayerMove@CBot@@QAEXXZ 10017a30 f   bot.obj
 0001:00016bd0       ?SUB_CallUseToggle@CBaseEntity@@QAEXXZ 10017bd0 f i bot.obj
 0001:00016bf0       ?SawSpy@CBot@@AAEXPAUedict_s@@@Z 10017bf0 f i bot.obj
 0001:00016c30       ?SayInPosition@CBot@@QAEXXZ 10017c30 f   bot.obj
 0001:00016cb0       ?SecondaryAttack@CBot@@QAEHXZ 10017cb0 f i bot.obj
 0001:00016ce0       ?SecondaryInRange@CBotWeapon@@QAEHM@Z 10017ce0 f i bot.obj
 0001:00016d10       ?SentryNeedsRepaired@CBot@@AAEHXZ 10017d10 f   bot.obj
 0001:00016d90       ?Set@MyEHandle@@QAEXPAUedict_s@@@Z 10017d90 f i bot.obj
 0001:00016db0       ?SetEdict@CBot@@QAEXPAUedict_s@@@Z 10017db0 f   bot.obj
 0001:00016e00       ?SetMoveVector@CBot@@QAEXABVVector@@@Z 10017e00 f   bot.obj
 0001:00016e30       ?SetTimeToCompleteSchedule@CBotTasks@@QAEXHM@Z 10017e30 f i bot.obj
 0001:00016e90       ?SetVector@?$CTypeVector@F@@QAEXVVector@@@Z 10017e90 f i bot.obj
 0001:00016ec0       ?SetViewAngles@CBot@@QAEXABVVector@@@Z 10017ec0 f   bot.obj
 0001:000172d0       ?SpawnInit@CBot@@QAEXH@Z   100182d0 f   bot.obj
 0001:00018080       ?StandingOnPlayer@CBot@@QAEPAUedict_s@@XZ 10019080 f   bot.obj
 0001:000180a0       ?StartGame@CBot@@QAEXXZ    100190a0 f   bot.obj
 0001:000185d0       ?StopMoving@CBot@@QAEXXZ   100195d0 f   bot.obj
 0001:000185e0       ?SwitchWeapon@CBot@@QAEHH@Z 100195e0 f   bot.obj
 0001:00018820       ?TFC_UpdateFlagInfo@CBot@@QAEXXZ 10019820 f   bot.obj
 0001:00018880       ?TaskVector@CBotTask@@QBE?AVVector@@XZ 10019880 f i bot.obj
 0001:000188a0       ?Think@CBot@@QAEXXZ        100198a0 f   bot.obj
 0001:0001a410       ?ThinkSpyOnTeam@CBot@@QAEHPAUedict_s@@@Z 1001b410 f   bot.obj
 0001:0001a5a0       ?ThrowGrenade@CBot@@QAEXPAUedict_s@@HH@Z 1001b5a0 f   bot.obj
 0001:0001a6d0       ?ThrowingGrenade@CBot@@QAEHXZ 1001b6d0 f   bot.obj
 0001:0001a700       ?Tick@CStructures@@QAEPAUedict_s@@PAH@Z 1001b700 f i bot.obj
 0001:0001a910       ?Touch@CBot@@QAEHPAUedict_s@@@Z 1001b910 f   bot.obj
 0001:0001b290       ?UpdateConditions@CBot@@QAEXXZ 1001c290 f   bot.obj
 0001:0001b430       ?UpdateMsec@CBot@@QAEXXZ   1001c430 f   bot.obj
 0001:0001b460       ?UpdateVisibles@CBot@@QAEHXZ 1001c460 f   bot.obj
 0001:0001cc40       ?UseTank@CBot@@QAEXPAUedict_s@@@Z 1001dc40 f   bot.obj
 0001:0001cd70       ?WantToFindEnemy@CBot@@QAEHXZ 1001dd70 f   bot.obj
 0001:0001ce20       ?WantToFollowEnemy@CBot@@QAEHPAUedict_s@@@Z 1001de20 f   bot.obj
 0001:0001d1e0       ?WantToLeaveGame@CBot@@QAEHXZ 1001e1e0 f   bot.obj
 0001:0001d290       ?WorkMoveDirection@CBot@@QAEXXZ 1001e290 f   bot.obj
 0001:0001df10       ?WorkViewAngles@CBot@@QAEXXZ 1001ef10 f   bot.obj
 0001:0001e4e0       ?_Change_array@?$vector@VCRememberPosition@@V?$allocator@VCRememberPosition@@@std@@@std@@AAEXQAVCRememberPosition@@II@Z 1001f4e0 f i bot.obj
 0001:0001e530       ?_Getal@?$_Vector_alloc@U?$_Vec_base_types@VCActionUtility@@V?$allocator@VCActionUtility@@@std@@@std@@@std@@QAEAAU?$_Wrap_alloc@V?$allocator@VCActionUtility@@@std@@@2@XZ 1001f530 f i bot.obj
 0001:0001e540       ?_Getal@?$_Vector_alloc@U?$_Vec_base_types@VCRememberPosition@@V?$allocator@VCRememberPosition@@@std@@@std@@@std@@QAEAAU?$_Wrap_alloc@V?$allocator@VCRememberPosition@@@std@@@2@XZ 1001f540 f i bot.obj
 0001:0001e550       ?_Xlength@?$vector@HV?$allocator@H@std@@@std@@CAXXZ 1001f550 f i bot.obj
 0001:0001e560       ?_Xlength@?$vector@MV?$allocator@M@std@@@std@@CAXXZ 1001f560 f i bot.obj
 0001:0001e570       ?_Xlength@?$vector@PAUedict_s@@V?$allocator@PAUedict_s@@@std@@@std@@CAXXZ 1001f570 f i bot.obj
 0001:0001e580       ?_Xlength@?$vector@PBDV?$allocator@PBD@std@@@std@@CAXXZ 1001f580 f i bot.obj
 0001:0001e590       ?_Xlength@?$vector@VCActionUtility@@V?$allocator@VCActionUtility@@@std@@@std@@CAXXZ 1001f590 f i bot.obj
 0001:0001e5a0       ?_Xlength@?$vector@VCRememberPosition@@V?$allocator@VCRememberPosition@@@std@@@std@@CAXXZ 1001f5a0 f i bot.obj
 0001:0001e5b0       ?_getTaskDescription@CBotTask@@SAPADW4eBotTask@@@Z 1001f5b0 f i bot.obj
 0001:0001e970       ?addPosition@CRememberedPositions@@QAEXVVector@@PAUedict_s@@H0@Z 1001f970 f i bot.obj
 0001:0001eb20       ?allocate@?$allocator@H@std@@QAEPAHI@Z 1001fb20 f i bot.obj
 0001:0001eb90       ?allocate@?$allocator@M@std@@QAEPAMI@Z 1001fb90 f i bot.obj
 0001:0001ec00       ?allocate@?$allocator@PAUedict_s@@@std@@QAEPAPAUedict_s@@I@Z 1001fc00 f i bot.obj
 0001:0001ec70       ?allocate@?$allocator@PBD@std@@QAEPAPBDI@Z 1001fc70 f i bot.obj
 0001:0001ece0       ?allocate@?$allocator@VCActionUtility@@@std@@QAEPAVCActionUtility@@I@Z 1001fce0 f i bot.obj
 0001:0001ed50       ?allocate@?$allocator@VCRememberPosition@@@std@@QAEPAVCRememberPosition@@I@Z 1001fd50 f i bot.obj
 0001:0001edc0       ?builtTeleporterEntrance@CBot@@QAEHXZ 1001fdc0 f   bot.obj
 0001:0001ee10       ?builtTeleporterExit@CBot@@QAEHXZ 1001fe10 f   bot.obj
 0001:0001ee20       ?clear@CIntGAValues@@UAEXXZ 1001fe20 f i bot.obj
 0001:0001ee30       ?clearEnemyCosts@CBot@@AAEXXZ 1001fe30 f   bot.obj
 0001:0001ee80       ?copy@CIntGAValues@@UAEPAVIIndividual@@XZ 1001fe80 f i bot.obj
 0001:0001eed0       ?crossOver@CIntGAValues@@UAEXPAVIIndividual@@@Z 1001fed0 f i bot.obj
 0001:0001ef50       ?deallocate@?$_Wrap_alloc@V?$allocator@H@std@@@std@@QAEXPAHI@Z 1001ff50 f i bot.obj
 0001:0001efb0       ?deallocate@?$_Wrap_alloc@V?$allocator@M@std@@@std@@QAEXPAMI@Z 1001ffb0 f i bot.obj
 0001:0001f010       ?deallocate@?$_Wrap_alloc@V?$allocator@PAUedict_s@@@std@@@std@@QAEXPAPAUedict_s@@I@Z 10020010 f i bot.obj
 0001:0001f070       ?deallocate@?$_Wrap_alloc@V?$allocator@PAVIIndividual@@@std@@@std@@QAEXPAPAVIIndividual@@I@Z 10020070 f i bot.obj
 0001:0001f0d0       ?deallocate@?$_Wrap_alloc@V?$allocator@PBD@std@@@std@@QAEXPAPBDI@Z 100200d0 f i bot.obj
 0001:0001f130       ?deallocate@?$_Wrap_alloc@V?$allocator@VCActionUtility@@@std@@@std@@QAEXPAVCActionUtility@@I@Z 10020130 f i bot.obj
 0001:0001f190       ?deallocate@?$_Wrap_alloc@V?$allocator@VCRememberPosition@@@std@@@std@@QAEXPAVCRememberPosition@@I@Z 10020190 f i bot.obj
 0001:0001f1a0       ?deallocate@?$allocator@VCRememberPosition@@@std@@QAEXPAVCRememberPosition@@I@Z 100201a0 f i bot.obj
 0001:0001f200       ?decideJumpDuckStrafe@CBot@@AAEXMVVector@@@Z 10020200 f   bot.obj
 0001:0001f570       ?findBackpack@CTFCBackpacks@@QAEPAUedict_s@@VVector@@HHHHH@Z 10020570 f i bot.obj
 0001:0001f660       ?getBestAction@CActionUtilities@@QAE?AW4eCanDoStuff@@XZ 10020660 f i bot.obj
 0001:0001f6e0       ?getExisting@?$dataUnconstArray@VCRememberPosition@@@@QAEPAVCRememberPosition@@V2@@Z 100206e0 f i bot.obj
 0001:0001f780       ?getNewest@CRememberedPositions@@QAEPAVCRememberPosition@@XZ 10020780 f i bot.obj
 0001:0001f7d0       ?getScheduleDescription@CBotTask@@QAEPADXZ 100207d0 f i bot.obj
 0001:0001f870       ?getSentry@CBot@@QAEPAUedict_s@@XZ 10020870 f   bot.obj
 0001:0001f8c0       ?getSentryPosition@CRememberedPositions@@QAEPAVCRememberPosition@@XZ 100208c0 f i bot.obj
 0001:0001f930       ?getTeleporterExit@CBot@@QAEPAUedict_s@@XZ 10020930 f   bot.obj
 0001:0001f980       ?getTotalUtility@CActionUtilities@@QAEMXZ 10020980 f i bot.obj
 0001:0001fa00       ?gettingBored@CBot@@QAEXXZ 10020a00 f i bot.obj
 0001:0001fa20       ?gotStuck@CBot@@QAEXXZ     10020a20 f   bot.obj
 0001:0001fa30       ?hasBlink@CBot@@QAEHXZ     10020a30 f   bot.obj
 0001:0001fa50       ?hasUsedTeleporter@CBot@@AAEHPAUedict_s@@@Z 10020a50 f i bot.obj
 0001:0001fa90       ?hasWeb@CBot@@QAEHXZ       10020a90 f   bot.obj
 0001:0001fab0       ?havingFun@CBot@@QAEXXZ    10020ab0 f i bot.obj
 0001:0001fad0       ?isInAnimate@CBot@@QAEHPAUedict_s@@@Z 10020ad0 f   bot.obj
 0001:0001faf0       ?load@CIntGAValues@@UAEXPAU_iobuf@@H@Z 10020af0 f i bot.obj
 0001:0001fb50       ?loadLearnedData@CBot@@AAEXXZ 10020b50 f   bot.obj
 0001:0001fd60       ?mutate@CIntGAValues@@UAEXXZ 10020d60 f i bot.obj
 0001:0001fdd0       ?onGround@CBot@@QAEHXZ     10020dd0 f i bot.obj
 0001:0001fde0       ?positionNearest@CRememberedPositions@@QAEPAVCRememberPosition@@VVector@@0@Z 10020de0 f i bot.obj
 0001:0001ff70       ?printRep@CBotReputation@@QAEXPAVCBot@@PAUedict_s@@@Z 10020f70 f   bot.obj
 0001:000200d0       ?removeMember@CBotSquad@@QAEXPAUedict_s@@@Z 100210d0 f i bot.obj
 0001:00020120       ?removePosition@CRememberedPositions@@QAEXPAUedict_s@@@Z 10021120 f i bot.obj
 0001:00020200       ?removeSquadMember@CBotSquads@@QAEXPAVCBotSquad@@PAUedict_s@@@Z 10021200 f i bot.obj
 0001:00020250       ?safefree@@YAXPAPAX@Z      10021250 f   bot.obj
 0001:00020280       ?save@CIntGAValues@@UAEXPAU_iobuf@@@Z 10021280 f i bot.obj
 0001:000202c0       ?saveLearnedData@CBot@@QAEXXZ 100212c0 f   bot.obj
 0001:00020440       ?setupDataStructures@CBot@@QAEXXZ 10021440 f   bot.obj
 0001:00020b00       ?touchedWpt@CBot@@QAEXXZ   10021b00 f   bot.obj
 0001:00020dc0       ?usedTeleporter@CBot@@AAEXPAUedict_s@@@Z 10021dc0 f i bot.obj
 0001:00020de0       ?workEnemyCosts@CBot@@AAEXPAUedict_s@@VVector@@M@Z 10021de0 f   bot.obj
 0001:00021050       ___local_stdio_scanf_options 10022050 f i bot.obj
 0001:00021060       _fprintf                   10022060 f i bot.obj
 0001:00021090       _printf                    10022090 f i bot.obj
 0001:000210c0       _sscanf                    100220c0 f i bot.obj
 0001:000210f0       ??$_Uninitialized_copy_al_unchecked@PAVTSObjective@@PAV1@V?$allocator@VTSObjective@@@std@@@std@@YAPAVTSObjective@@PAV1@00AAU?$_Wrap_alloc@V?$allocator@VTSObjective@@@std@@@0@U_General_ptr_iterator_tag@0@U_Any_tag@0@@Z 100220f0 f i bot_client.obj
 0001:00021150       ??$_Uninitialized_move_al_unchecked@PAVCBotNSTech@@PAV1@V?$allocator@VCBotNSTech@@@std@@@std@@YAPAVCBotNSTech@@PAV1@00AAU?$_Wrap_alloc@V?$allocator@VCBotNSTech@@@std@@@0@U_General_ptr_iterator_tag@0@U_Any_tag@0@@Z 10022150 f i bot_client.obj
 0001:00021180       ??$emplace_back@ABVCBotNSTech@@@?$vector@VCBotNSTech@@V?$allocator@VCBotNSTech@@@std@@@std@@QAEXABVCBotNSTech@@@Z 10022180 f i bot_client.obj
 0001:000212d0       ??$emplace_back@ABVTSObjective@@@?$vector@VTSObjective@@V?$allocator@VTSObjective@@@std@@@std@@QAEXABVTSObjective@@@Z 100222d0 f i bot_client.obj
 0001:00021440       ?CantBuildHere@CBot@@QAEXXZ 10022440 f i bot_client.obj
 0001:00021470       ?ChooseFromStack@?$dataStack@PAD@@QAEPADXZ 10022470 f i bot_client.obj
 0001:00021480       ?ClearTasks@CBot@@QAEXXZ   10022480 f i bot_client.obj
 0001:00021560       ?FindClient@CClients@@QAEPAUedict_s@@PBD@Z 10022560 f i bot_client.obj
 0001:00021600       ?GetString@CStoredStrings@@QAEPADPBD@Z 10022600 f i bot_client.obj
 0001:000216e0       ?IsUsed@CBot@@QAEHXZ       100226e0 f i bot_client.obj
 0001:00021700       ?PlayerDead@CBot@@QAEXPAUedict_s@@@Z 10022700 f i bot_client.obj
 0001:00021720       ?Push@?$dataStack@PAD@@QAEXQAD@Z 10022720 f i bot_client.obj
 0001:00021770       ?RemoveByPointer@?$dataUnconstArray@VTSObjective@@@@QAEXPAVTSObjective@@@Z 10022770 f i bot_client.obj
 0001:000217f0       ?SetupNetMessages@@YAXXZ   100227f0 f   bot_client.obj
 0001:00022950       ?TFCTeleExitDestroyed@CClient@@QAEXXZ 10023950 f i bot_client.obj
 0001:00022990       ?UseRPGLaser@CBot@@QAEXXZ  10023990 f i bot_client.obj
 0001:00022a00       ?_Change_array@?$vector@VTSObjective@@V?$allocator@VTSObjective@@@std@@@std@@AAEXQAVTSObjective@@II@Z 10023a00 f i bot_client.obj
 0001:00022a50       ?_Getal@?$_Vector_alloc@U?$_Vec_base_types@VCBotNSTech@@V?$allocator@VCBotNSTech@@@std@@@std@@@std@@QAEAAU?$_Wrap_alloc@V?$allocator@VCBotNSTech@@@std@@@2@XZ 10023a50 f i bot_client.obj
 0001:00022a60       ?_Getal@?$_Vector_alloc@U?$_Vec_base_types@VTSObjective@@V?$allocator@VTSObjective@@@std@@@std@@@std@@QAEAAU?$_Wrap_alloc@V?$allocator@VTSObjective@@@std@@@2@XZ 10023a60 f i bot_client.obj
 0001:00022a70       ?_Xlength@?$vector@VCBotNSTech@@V?$allocator@VCBotNSTech@@@std@@@std@@CAXXZ 10023a70 f i bot_client.obj
 0001:00022a80       ?_Xlength@?$vector@VTSObjective@@V?$allocator@VTSObjective@@@std@@@std@@CAXXZ 10023a80 f i bot_client.obj
 0001:00022a90       ?addTech@CBotNSTechs@@QAEXVCBotNSTech@@@Z 10023a90 f i bot_client.obj
 0001:00022b20       ?allocate@?$allocator@VCBotNSTech@@@std@@QAEPAVCBotNSTech@@I@Z 10023b20 f i bot_client.obj
 0001:00022b90       ?allocate@?$allocator@VTSObjective@@@std@@QAEPAVTSObjective@@I@Z 10023b90 f i bot_client.obj
 0001:00022c00       ?deallocate@?$_Wrap_alloc@V?$allocator@VCBotNSTech@@@std@@@std@@QAEXPAVCBotNSTech@@I@Z 10023c00 f i bot_client.obj
 0001:00022c10       ?deallocate@?$_Wrap_alloc@V?$allocator@VTSObjective@@@std@@@std@@QAEXPAVTSObjective@@I@Z 10023c10 f i bot_client.obj
 0001:00022c20       ?deallocate@?$allocator@VCBotNSTech@@@std@@QAEXPAVCBotNSTech@@I@Z 10023c20 f i bot_client.obj
 0001:00022c80       ?deallocate@?$allocator@VTSObjective@@@std@@QAEXPAVTSObjective@@I@Z 10023c80 f i bot_client.obj
 0001:00022ce0       ?execute@BotClient_All_Generic_SayText@@UAEXPAXH@Z 10023ce0 f   bot_client.obj
 0001:00022d10       ?execute@BotClient_BG_MakeMessage@@UAEXPAXH@Z 10023d10 f   bot_client.obj
 0001:00022e80       ?execute@BotClient_DMC_QuakeItem@@UAEXPAXH@Z 10023e80 f   bot_client.obj
 0001:00022f00       ?execute@BotClient_Generic_AmmoPickup@@UAEXPAXH@Z 10023f00 f   bot_client.obj
 0001:00022f80       ?execute@BotClient_Generic_AmmoX@@UAEXPAXH@Z 10023f80 f   bot_client.obj
 0001:00023000       ?execute@BotClient_Generic_Battery@@UAEXPAXH@Z 10024000 f   bot_client.obj
 0001:00023010       ?execute@BotClient_Generic_CurrentWeapon@@UAEXPAXH@Z 10024010 f   bot_client.obj
 0001:00023200       ?execute@BotClient_Generic_Damage@@UAEXPAXH@Z 10024200 f   bot_client.obj
 0001:00023330       ?execute@BotClient_Generic_DeathMessage@@UAEXPAXH@Z 10024330 f   bot_client.obj
 0001:00023630       ?execute@BotClient_Generic_Health@@UAEXPAXH@Z 10024630 f   bot_client.obj
 0001:000237a0       ?execute@BotClient_Generic_ItemPickup@@UAEXPAXH@Z 100247a0 f   bot_client.obj
 0001:000237e0       ?execute@BotClient_Generic_SayText@@UAEXPAXH@Z 100247e0 f   bot_client.obj
 0001:00023810       ?execute@BotClient_Generic_ScreenFade@@UAEXPAXH@Z 10024810 f   bot_client.obj
 0001:00023820       ?execute@BotClient_Generic_TeamScore@@UAEXPAXH@Z 10024820 f   bot_client.obj
 0001:000239b0       ?execute@BotClient_Generic_TextMessage@@UAEXPAXH@Z 100249b0 f   bot_client.obj
 0001:00024020       ?execute@BotClient_Generic_VGUIMenu@@UAEXPAXH@Z 10025020 f   bot_client.obj
 0001:00024050       ?execute@BotClient_Generic_WeaponList@@UAEXPAXH@Z 10025050 f   bot_client.obj
 0001:000241f0       ?execute@BotClient_Generic_WeaponPickup@@UAEXPAXH@Z 100251f0 f   bot_client.obj
 0001:00024290       ?execute@BotClient_NS_AlienInfo@@UAEXPAXH@Z 10025290 f   bot_client.obj
 0001:00024920       ?execute@BotClient_NS_Commndr@@UAEXPAXH@Z 10025920 f   bot_client.obj
 0001:00024970       ?execute@BotClient_NS_HudText@@UAEXPAXH@Z 10025970 f   bot_client.obj
 0001:00024a00       ?execute@BotClient_NS_SetOrder@@UAEXPAXH@Z 10025a00 f   bot_client.obj
 0001:00025030       ?execute@BotClient_NS_SetTech@@UAEXPAXH@Z 10026030 f   bot_client.obj
 0001:00025150       ?execute@BotClient_NS_TechSlots@@UAEXPAXH@Z 10026150 f   bot_client.obj
 0001:00025180       ?execute@BotClient_TS_ClipInfo@@UAEXPAXH@Z 10026180 f   bot_client.obj
 0001:00025290       ?execute@BotClient_TS_DelObj@@UAEXPAXH@Z 10026290 f   bot_client.obj
 0001:000253a0       ?execute@BotClient_TS_Frags@@UAEXPAXH@Z 100263a0 f   bot_client.obj
 0001:000253c0       ?execute@BotClient_TS_Health@@UAEXPAXH@Z 100263c0 f   bot_client.obj
 0001:000253e0       ?execute@BotClient_TS_Objective@@UAEXPAXH@Z 100263e0 f   bot_client.obj
 0001:00025500       ?execute@BotClient_TS_PTakeDam@@UAEXPAXH@Z 10026500 f   bot_client.obj
 0001:00025530       ?execute@BotClient_TS_RoundTime@@UAEXPAXH@Z 10026530 f   bot_client.obj
 0001:00025550       ?execute@BotClient_TS_State@@UAEXPAXH@Z 10026550 f   bot_client.obj
 0001:00025590       ?execute@BotClient_TS_TSMessage@@UAEXPAXH@Z 10026590 f   bot_client.obj
 0001:000255a0       ?execute@BotClient_TS_TeamInfo@@UAEXPAXH@Z 100265a0 f   bot_client.obj
 0001:000255c0       ?execute@BotClient_TS_WStatus@@UAEXPAXH@Z 100265c0 f   bot_client.obj
 0001:00025610       ?execute@BotClient_TS_WeaponInfo@@UAEXPAXH@Z 10026610 f   bot_client.obj
 0001:000257a0       ?execute@CBotNetMessage@@UAEXPAXH@Z 100267a0 f i bot_client.obj
 0001:000257b0       ?isStateMsg@CBotNetMessage@@UAEHXZ 100267b0 f i bot_client.obj
 0001:000257c0       ?setHasWeapon@CBotWeapons@@QAEXHH@Z 100267c0 f i bot_client.obj
 0001:000257f0       ??$emplace_back@ABQAD@?$vector@PADV?$allocator@PAD@std@@@std@@QAEXABQAD@Z 100267f0 f i bot_commands.obj
 0001:000258c0       ??0?$dataUnconstArray@PAD@@QAE@XZ 100268c0 f i bot_commands.obj
 0001:000258f0       ??0CWhichbotConvert@@QAE@XZ 100268f0 f i bot_commands.obj
 0001:000259a0       ??1?$dataUnconstArray@PAD@@QAE@XZ 100269a0 f i bot_commands.obj
 0001:000259e0       ??8CAllowedPlayer@@QAEHV0@@Z 100269e0 f i bot_commands.obj
 0001:00025aa0       ?Activate@CBotMenu@@QAEXHPAVCClient@@@Z 10026aa0 f i bot_commands.obj
 0001:00025ac0       ?AddCvar@CBotCvarList@@QAEXPAVCBotCvar@@@Z 10026ac0 f   bot_commands.obj
 0001:00025b10       ?AddPlayer@CAllowedPlayers@@QAEXPBDPADH1@Z 10026b10 f i bot_commands.obj
 0001:00025c00       ?AutoWaypoint@CClient@@QAEXH@Z 10026c00 f i bot_commands.obj
 0001:00025c50       ?BotFunc_AddBot@@YA?AW4eBotCvarState@@PAVCClient@@PBD111@Z 10026c50 f   bot_commands.obj
 0001:00026700       ?ChooseFromStack@?$dataStack@PAVCBotCvar@@@@QAEPAVCBotCvar@@XZ 10027700 f i bot_commands.obj
 0001:00026710       ?ChoosePointerFromStack@?$dataStack@VCAllowedPlayer@@@@QAEPAVCAllowedPlayer@@XZ 10027710 f i bot_commands.obj
 0001:00026720       ?FindSquadByLeader@CBotSquads@@QAEPAVCBotSquad@@PAUedict_s@@@Z 10027720 f i bot_commands.obj
 0001:00026770       ?FreeMemory@CWaypointConversion@@QAEXXZ 10027770 f i bot_commands.obj
 0001:00026810       ?GetCvar@CBotCvarList@@QAEPAVCBotCvar@@PBD@Z 10027810 f i bot_commands.obj
 0001:00026890       ?GiveTSWeapon@@YAXPAUedict_s@@H@Z 10027890 f   bot_commands.obj
 0001:000268f0       ?PrintCommands@CBotCvarList@@QAEXPAUedict_s@@@Z 100278f0 f i bot_commands.obj
 0001:00026930       ?RCBot_ServerCommand@@YAXXZ 10027930 f   bot_commands.obj
 0001:00026ad0       ?Remove@?$dataStack@VCAllowedPlayer@@@@QAEHVCAllowedPlayer@@@Z 10027ad0 f i bot_commands.obj
 0001:00026c30       ?RemovePlayer@CAllowedPlayers@@QAEXPBDPAD1@Z 10027c30 f i bot_commands.obj
 0001:00026cb0       ?SetTeleportVector@CClient@@QAEXVVector@@@Z 10027cb0 f i bot_commands.obj
 0001:00026d20       ?SetupCommands@@YAXXZ      10027d20 f   bot_commands.obj
 0001:00027310       ?ShowUsers@CAllowedPlayers@@QAEXPAUedict_s@@@Z 10028310 f i bot_commands.obj
 0001:00027360       ?_Xlength@?$vector@PADV?$allocator@PAD@std@@@std@@CAXXZ 10028360 f i bot_commands.obj
 0001:00027370       ?action@CAddBotCommand@@UAE?AW4eBotCvarState@@PAVCClient@@PBD111@Z 10028370 f   bot_commands.obj
 0001:00027390       ?action@CAutoWaypointCommand@@UAE?AW4eBotCvarState@@PAVCClient@@PBD111@Z 10028390 f   bot_commands.obj
 0001:00027540       ?action@CBotCamCommand@@UAE?AW4eBotCvarState@@PAVCClient@@PBD111@Z 10028540 f   bot_commands.obj
 0001:00027610       ?action@CBotCvar@@UAE?AW4eBotCvarState@@PAVCClient@@PBD111@Z 10028610 f i bot_commands.obj
 0001:00027620       ?action@CBotMenuCommand@@UAE?AW4eBotCvarState@@PAVCClient@@PBD111@Z 10028620 f   bot_commands.obj
 0001:00027660       ?action@CBotSquadCommand@@UAE?AW4eBotCvarState@@PAVCClient@@PBD111@Z 10028660 f   bot_commands.obj
 0001:00027810       ?action@CConfigCommand@@UAE?AW4eBotCvarState@@PAVCClient@@PBD111@Z 10028810 f   bot_commands.obj
 0001:00028220       ?action@CDebugBotCommand@@UAE?AW4eBotCvarState@@PAVCClient@@PBD111@Z 10029220 f   bot_commands.obj
 0001:000283b0       ?action@CDebugCommand@@UAE?AW4eBotCvarState@@PAVCClient@@PBD111@Z 100293b0 f   bot_commands.obj
 0001:000285c0       ?action@CDebugEntCommand@@UAE?AW4eBotCvarState@@PAVCClient@@PBD111@Z 100295c0 f   bot_commands.obj
 0001:00028660       ?action@CHelpCommand@@UAE?AW4eBotCvarState@@PAVCClient@@PBD111@Z 10029660 f   bot_commands.obj
 0001:000286f0       ?action@CMenuSelectCommand@@UAE?AW4eBotCvarState@@PAVCClient@@PBD111@Z 100296f0 f   bot_commands.obj
 0001:00028740       ?action@CPathWaypointCommand@@UAE?AW4eBotCvarState@@PAVCClient@@PBD111@Z 10029740 f   bot_commands.obj
 0001:00028970       ?action@CRemoveBotCommand@@UAE?AW4eBotCvarState@@PAVCClient@@PBD111@Z 10029970 f   bot_commands.obj
 0001:000289a0       ?action@CSetPassCommand@@UAE?AW4eBotCvarState@@PAVCClient@@PBD111@Z 100299a0 f   bot_commands.obj
 0001:00028a10       ?action@CSquadMenuCommand@@UAE?AW4eBotCvarState@@PAVCClient@@PBD111@Z 10029a10 f   bot_commands.obj
 0001:00028a50       ?action@CUsersCommand@@UAE?AW4eBotCvarState@@PAVCClient@@PBD111@Z 10029a50 f   bot_commands.obj
 0001:00028e10       ?action@CUtilCommand@@UAE?AW4eBotCvarState@@PAVCClient@@PBD111@Z 10029e10 f   bot_commands.obj
 0001:0002a100       ?action@CWaypointCommand@@UAE?AW4eBotCvarState@@PAVCClient@@PBD111@Z 1002b100 f   bot_commands.obj
 0001:0002a3f0       ?action@CWaypointMenuCommand@@UAE?AW4eBotCvarState@@PAVCClient@@PBD111@Z 1002b3f0 f   bot_commands.obj
 0001:0002a490       ?allocate@?$allocator@PAD@std@@QAEPAPADI@Z 1002b490 f i bot_commands.obj
 0001:0002a500       ?deallocate@?$_Wrap_alloc@V?$allocator@PAD@std@@@std@@QAEXPAPADI@Z 1002b500 f i bot_commands.obj
 0001:0002a560       ?printBoredoms@CBot@@QAEXPAUedict_s@@@Z 1002b560 f i bot_commands.obj
 0001:0002a5b0       ?printReps@CBotReputations@@QAEXPAVCBot@@PAUedict_s@@@Z 1002b5b0 f i bot_commands.obj
 0001:0002a5f0       ?setupCommand@CBotCvar@@QAEXPBDHH@Z 1002b5f0 f   bot_commands.obj
 0001:0002a620       ?showHelp@CAddBotCommand@@UAEXPAUedict_s@@@Z 1002b620 f   bot_commands.obj
 0001:0002a690       ?showHelp@CAutoWaypointCommand@@UAEXPAUedict_s@@@Z 1002b690 f i bot_commands.obj
 0001:0002a700       ?showHelp@CBotCamCommand@@UAEXPAUedict_s@@@Z 1002b700 f i bot_commands.obj
 0001:0002a760       ?showHelp@CBotCvar@@UAEXPAUedict_s@@@Z 1002b760 f i bot_commands.obj
 0001:0002a780       ?showHelp@CBotSquadCommand@@UAEXPAUedict_s@@@Z 1002b780 f i bot_commands.obj
 0001:0002a7f0       ?showHelp@CConfigCommand@@UAEXPAUedict_s@@@Z 1002b7f0 f i bot_commands.obj
 0001:0002ab10       ?showHelp@CDebugBotCommand@@UAEXPAUedict_s@@@Z 1002bb10 f i bot_commands.obj
 0001:0002ab70       ?showHelp@CDebugCommand@@UAEXPAUedict_s@@@Z 1002bb70 f i bot_commands.obj
 0001:0002ac40       ?showHelp@CDebugEntCommand@@UAEXPAUedict_s@@@Z 1002bc40 f i bot_commands.obj
 0001:0002aca0       ?showHelp@CHelpCommand@@UAEXPAUedict_s@@@Z 1002bca0 f i bot_commands.obj
 0001:0002ad50       ?showHelp@CPathWaypointCommand@@UAEXPAUedict_s@@@Z 1002bd50 f i bot_commands.obj
 0001:0002adf0       ?showHelp@CRemoveBotCommand@@UAEXPAUedict_s@@@Z 1002bdf0 f i bot_commands.obj
 0001:0002ae10       ?showHelp@CSetPassCommand@@UAEXPAUedict_s@@@Z 1002be10 f i bot_commands.obj
 0001:0002ae80       ?showHelp@CUsersCommand@@UAEXPAUedict_s@@@Z 1002be80 f i bot_commands.obj
 0001:0002af00       ?showHelp@CUtilCommand@@UAEXPAUedict_s@@@Z 1002bf00 f i bot_commands.obj
 0001:0002b030       ?showHelp@CWaypointCommand@@UAEXPAUedict_s@@@Z 1002c030 f   bot_commands.obj
 0001:0002b0c0       ?toggleCmd@CClient@@QAEXH@Z 1002c0c0 f i bot_commands.obj
 0001:0002b0f0       _fscanf                    1002c0f0 f i bot_commands.obj
 0001:0002b120       ??0CBitsGAValues@@QAE@I@Z  1002c120 f   bot_ga.obj
 0001:0002b1a0       ??0CBitsGAValues@@QAE@PAVCBits@@@Z 1002c1a0 f   bot_ga.obj
 0001:0002b1d0       ??0CBotGAValues@@QAE@V?$vector@MV?$allocator@M@std@@@std@@@Z 1002c1d0 f   bot_ga.obj
 0001:0002b270       ??0CBotGAValues@@QAE@XZ    1002c270 f   bot_ga.obj
 0001:0002b2b0       ?clear@CBitsGAValues@@UAEXXZ 1002c2b0 f   bot_ga.obj
 0001:0002b2c0       ?clear@CBotGAValues@@UAEXXZ 1002c2c0 f   bot_ga.obj
 0001:0002b2d0       ?convert@CBitsGAValues@@QAEXPAH@Z 1002c2d0 f   bot_ga.obj
 0001:0002b320       ?copy@CBitsGAValues@@UAEPAVIIndividual@@XZ 1002c320 f   bot_ga.obj
 0001:0002b3b0       ?copy@CBotGAValues@@UAEPAVIIndividual@@XZ 1002c3b0 f   bot_ga.obj
 0001:0002b430       ?crossOver@CBitsGAValues@@UAEXPAVIIndividual@@@Z 1002c430 f   bot_ga.obj
 0001:0002b550       ?crossOver@CBotGAValues@@UAEXPAVIIndividual@@@Z 1002c550 f   bot_ga.obj
 0001:0002b610       ?freeMemory@CBitsGAValues@@QAEXXZ 1002c610 f   bot_ga.obj
 0001:0002b630       ?freeMemory@CBotGAValues@@QAEXXZ 1002c630 f   bot_ga.obj
 0001:0002b640       ?get@CBitsGAValues@@QAEHH@Z 1002c640 f   bot_ga.obj
 0001:0002b650       ?get@CBotGAValues@@QAEMH@Z 1002c650 f   bot_ga.obj
 0001:0002b660       ?getVector@CBotGAValues@@QAEXPAV?$vector@MV?$allocator@M@std@@@std@@@Z 1002c660 f   bot_ga.obj
 0001:0002b6b0       ?load@CBitsGAValues@@UAEXPAU_iobuf@@H@Z 1002c6b0 f   bot_ga.obj
 0001:0002b6d0       ?load@CBotGAValues@@UAEXPAU_iobuf@@H@Z 1002c6d0 f   bot_ga.obj
 0001:0002b7d0       ?mutate@CBitsGAValues@@UAEXXZ 1002c7d0 f   bot_ga.obj
 0001:0002b840       ?mutate@CBotGAValues@@UAEXXZ 1002c840 f   bot_ga.obj
 0001:0002b900       ?read@CGenericHeader@@QAEHPAU_iobuf@@V1@@Z 1002c900 f i bot_ga.obj
 0001:0002b980       ?save@CBitsGAValues@@UAEXPAU_iobuf@@@Z 1002c980 f   bot_ga.obj
 0001:0002b990       ?save@CBotGAValues@@UAEXPAU_iobuf@@@Z 1002c990 f   bot_ga.obj
 0001:0002ba40       ?set@CBitsGAValues@@QAEXHH@Z 1002ca40 f   bot_ga.obj
 0001:0002ba50       ?set@CBotGAValues@@QAEXHM@Z 1002ca50 f   bot_ga.obj
 0001:0002ba70       ?setVector@CBotGAValues@@QAEXV?$vector@MV?$allocator@M@std@@@std@@@Z 1002ca70 f   bot_ga.obj
 0001:0002bb40       ?size@CBitsGAValues@@QAEIXZ 1002cb40 f   bot_ga.obj
 0001:0002bb50       ??$emplace_back@ABQAVCBot@@@?$vector@PAVCBot@@V?$allocator@PAVCBot@@@std@@@std@@QAEXABQAVCBot@@@Z 1002cb50 f i bot_menu.obj
 0001:0002bc20       ??0CBotMenu@@QAE@PBD@Z     1002cc20 f   bot_menu.obj
 0001:0002bc50       ??0CBotMenuItem@@QAE@PBD@Z 1002cc50 f   bot_menu.obj
 0001:0002bc80       ??0CBotMenuItem@@QAE@PBDP6AXPAVCClient@@@Z@Z 1002cc80 f   bot_menu.obj
 0001:0002bcd0       ??0CBotMenuItem@@QAE@PBDPAVCBotMenu@@@Z 1002ccd0 f   bot_menu.obj
 0001:0002bd20       ??1?$dataUnconstArray@PAVCBot@@@@QAE@XZ 1002cd20 f i bot_menu.obj
 0001:0002bd60       ??1CBotMenu@@QAE@XZ        1002cd60 f   bot_menu.obj
 0001:0002bd70       ??1CBotMenuItem@@QAE@XZ    1002cd70 f   bot_menu.obj
 0001:0002bd90       ?Activate@CBotMenuItem@@QAEXPAVCClient@@@Z 1002cd90 f   bot_menu.obj
 0001:0002bdd0       ?AddMenuItem@CBotMenu@@QAEXHPBDP6AXPAVCClient@@@Z@Z 1002cdd0 f i bot_menu.obj
 0001:0002be50       ?BotMenu_CheckForLift_Waypoint@@YAXPAVCClient@@@Z 1002ce50 f   bot_menu.obj
 0001:0002bea0       ?BotMenu_Func_AddBot@@YAXPAVCClient@@@Z 1002cea0 f   bot_menu.obj
 0001:0002bec0       ?BotMenu_Func_AddBotToTeam@@YAXPAVCClient@@@Z 1002cec0 f   bot_menu.obj
 0001:0002bf20       ?BotMenu_Func_Barney_Waypoint@@YAXPAVCClient@@@Z 1002cf20 f   bot_menu.obj
 0001:0002bf70       ?BotMenu_Func_CrouchJump_Waypoint@@YAXPAVCClient@@@Z 1002cf70 f   bot_menu.obj
 0001:0002bfc0       ?BotMenu_Func_Crouch_Waypoint@@YAXPAVCClient@@@Z 1002cfc0 f   bot_menu.obj
 0001:0002c000       ?BotMenu_Func_Defend_Waypoint@@YAXPAVCClient@@@Z 1002d000 f   bot_menu.obj
 0001:0002c050       ?BotMenu_Func_DeleteWaypoints@@YAXPAVCClient@@@Z 1002d050 f   bot_menu.obj
 0001:0002c060       ?BotMenu_Func_EndLevel_Waypoint@@YAXPAVCClient@@@Z 1002d060 f   bot_menu.obj
 0001:0002c0b0       ?BotMenu_Func_Fly_Waypoint@@YAXPAVCClient@@@Z 1002d0b0 f   bot_menu.obj
 0001:0002c100       ?BotMenu_Func_HumanTower_Waypoint@@YAXPAVCClient@@@Z 1002d100 f   bot_menu.obj
 0001:0002c150       ?BotMenu_Func_Jump_Waypoint@@YAXPAVCClient@@@Z 1002d150 f   bot_menu.obj
 0001:0002c1a0       ?BotMenu_Func_KickBot@@YAXPAVCClient@@@Z 1002d1a0 f   bot_menu.obj
 0001:0002c2c0       ?BotMenu_Func_KickBotFromTeam@@YAXPAVCClient@@@Z 1002d2c0 f   bot_menu.obj
 0001:0002c410       ?BotMenu_Func_Ladder_Waypoint@@YAXPAVCClient@@@Z 1002d410 f   bot_menu.obj
 0001:0002c450       ?BotMenu_Func_Lift_Waypoint@@YAXPAVCClient@@@Z 1002d450 f   bot_menu.obj
 0001:0002c490       ?BotMenu_Func_OpensLater_Waypoint@@YAXPAVCClient@@@Z 1002d490 f   bot_menu.obj
 0001:0002c4e0       ?BotMenu_Func_Pushable_Waypoint@@YAXPAVCClient@@@Z 1002d4e0 f   bot_menu.obj
 0001:0002c530       ?BotMenu_Func_Remove_All_Paths@@YAXPAVCClient@@@Z 1002d530 f   bot_menu.obj
 0001:0002c570       ?BotMenu_Func_Remove_Paths_From@@YAXPAVCClient@@@Z 1002d570 f   bot_menu.obj
 0001:0002c5a0       ?BotMenu_Func_Remove_Paths_To@@YAXPAVCClient@@@Z 1002d5a0 f   bot_menu.obj
 0001:0002c5c0       ?BotMenu_Func_Sci_Waypoint@@YAXPAVCClient@@@Z 1002d5c0 f   bot_menu.obj
 0001:0002c610       ?BotMenu_Func_SquadMode1@@YAXPAVCClient@@@Z 1002d610 f   bot_menu.obj
 0001:0002c790       ?BotMenu_Func_Squad_Form2@@YAXPAVCClient@@@Z 1002d790 f   bot_menu.obj
 0001:0002c850       ?BotMenu_Func_Squad_Form@@YAXPAVCClient@@@Z 1002d850 f   bot_menu.obj
 0001:0002c910       ?BotMenu_Func_Squad_Leave@@YAXPAVCClient@@@Z 1002d910 f   bot_menu.obj
 0001:0002c980       ?BotMenu_Func_Squad_Remove@@YAXPAVCClient@@@Z 1002d980 f   bot_menu.obj
 0001:0002c9f0       ?BotMenu_Func_Squad_RemoveAllBotSquads@@YAXPAVCClient@@@Z 1002d9f0 f   bot_menu.obj
 0001:0002cab0       ?BotMenu_Func_Squad_Spread@@YAXPAVCClient@@@Z 1002dab0 f   bot_menu.obj
 0001:0002cb40       ?BotMenu_Func_StayClose_Waypoint@@YAXPAVCClient@@@Z 1002db40 f   bot_menu.obj
 0001:0002cb90       ?BotMenu_Func_Tank_Waypoint@@YAXPAVCClient@@@Z 1002db90 f   bot_menu.obj
 0001:0002cbe0       ?BotMenu_Func_Team_Waypoint@@YAXPAVCClient@@@Z 1002dbe0 f   bot_menu.obj
 0001:0002cc50       ?BotMenu_Func_Teleport_Waypoint@@YAXPAVCClient@@@Z 1002dc50 f   bot_menu.obj
 0001:0002cca0       ?BotMenu_Func_Unreachable_Waypoint@@YAXPAVCClient@@@Z 1002dca0 f   bot_menu.obj
 0001:0002cd00       ?BotMenu_Func_WaitLift_Waypoint@@YAXPAVCClient@@@Z 1002dd00 f   bot_menu.obj
 0001:0002cd50       ?BotMenu_Func_Wall_Stick_Waypoint@@YAXPAVCClient@@@Z 1002dd50 f   bot_menu.obj
 0001:0002cda0       ?Bot_Menu_GrenThrow_Waypoint@@YAXPAVCClient@@@Z 1002dda0 f   bot_menu.obj
 0001:0002cdf0       ?Bot_Menu_Important_Waypoint@@YAXPAVCClient@@@Z 1002ddf0 f   bot_menu.obj
 0001:0002ce40       ?DestroyMenu@CBotMenu@@QAEXXZ 1002de40 f   bot_menu.obj
 0001:0002cf50       ?InitMenu@CBotMenu@@QAEXXZ 1002df50 f   bot_menu.obj
 0001:0002cf60       ?Render@CBotMenu@@QAEXPAVCClient@@@Z 1002df60 f   bot_menu.obj
 0001:0002d070       ?SetupMenus@@YAXXZ         1002e070 f   bot_menu.obj
 0001:0002ec40       ?ToggleFireMode@CBotSquad@@QAEXXZ 1002fc40 f i bot_menu.obj
 0001:0002ec80       ?_Xlength@?$vector@PAVCBot@@V?$allocator@PAVCBot@@@std@@@std@@CAXXZ 1002fc80 f i bot_menu.obj
 0001:0002ec90       ?allocate@?$allocator@PAVCBot@@@std@@QAEPAPAVCBot@@I@Z 1002fc90 f i bot_menu.obj
 0001:0002ed00       ?deallocate@?$_Wrap_alloc@V?$allocator@PAVCBot@@@std@@@std@@QAEXPAPAVCBot@@I@Z 1002fd00 f i bot_menu.obj
 0001:0002ed60       ??$_Uninitialized_copy_al_unchecked@PAVVector@@PAV1@V?$allocator@VVector@@@std@@@std@@YAPAVVector@@PAV1@00AAU?$_Wrap_alloc@V?$allocator@VVector@@@std@@@0@U_General_ptr_iterator_tag@0@U_Any_tag@0@@Z 1002fd60 f i bot_navigate.obj
 0001:0002eda0       ??$emplace_back@ABVVector@@@?$vector@VVector@@V?$allocator@VVector@@@std@@@std@@QAEXABVVector@@@Z 1002fda0 f i bot_navigate.obj
 0001:0002ef20       ??0AStarNode@@QAE@XZ       1002ff20 f   bot_navigate.obj
 0001:0002ef30       ??1?$dataUnconstArray@VVector@@@@QAE@XZ 1002ff30 f i bot_navigate.obj
 0001:0002ef80       ??MAStarNode@@QAE_NPAV0@@Z 1002ff80 f   bot_navigate.obj
 0001:0002ef90       ??RAStarNode@@QAE_NPAV0@0@Z 1002ff90 f   bot_navigate.obj
 0001:0002efb0       ?BotCanDuckUnder@@YAHPAVCBot@@@Z 1002ffb0 f   bot_navigate.obj
 0001:0002f510       ?BotCanJumpUp@@YAHPAVCBot@@@Z 10030510 f   bot_navigate.obj
 0001:0002fa80       ?BotCantMoveForward@@YAHPAVCBot@@PAUTraceResult@@@Z 10030a80 f   bot_navigate.obj
 0001:0002fc20       ?BotCheckWallOnLeft@@YAHPAVCBot@@@Z 10030c20 f   bot_navigate.obj
 0001:0002fcf0       ?BotCheckWallOnRight@@YAHPAVCBot@@@Z 10030cf0 f   bot_navigate.obj
 0001:0002fdc0       ?BotNavigate_AStarAlgo@@YAHPAVCBot@@HHH@Z 10030dc0 f   bot_navigate.obj
 0001:000308d0       ?BotNavigate_FindNextWaypoint@@YAHPAVCBot@@@Z 100318d0 f   bot_navigate.obj
 0001:00030ae0       ?BotNavigate_FindPathFromTo@@YAPAUpath@@HHH@Z 10031ae0 f   bot_navigate.obj
 0001:00030b60       ?BotNavigate_ScanFOV@@YA?AVVector@@PAVCBot@@@Z 10031b60 f   bot_navigate.obj
 0001:00031200       ?BotNavigate_UpdateWaypoint@@YAHPAVCBot@@@Z 10032200 f   bot_navigate.obj
 0001:00032520       ?BotTurnAtWall@@YAXPAVCBot@@PAUTraceResult@@@Z 10033520 f   bot_navigate.obj
 0001:00032720       ?CanFly@CBot@@QAEHXZ       10033720 f i bot_navigate.obj
 0001:00032760       ?CheckLift@@YAHPAVCBot@@VVector@@1@Z 10033760 f   bot_navigate.obj
 0001:00033030       ?ClearFailedPaths@CBotFailedPaths@@QAEXXZ 10034030 f i bot_navigate.obj
 0001:00033060       ?ClearViolatedPaths@CBotFailedPaths@@QAEHXZ 10034060 f i bot_navigate.obj
 0001:000330e0       ?EntityCanFire@CMasterEntities@@QAE?AW4eMasterType@@PAUedict_s@@0@Z 100340e0 f i bot_navigate.obj
 0001:00033120       ?GetNextWaypoint@CBot@@QAEHXZ 10034120 f i bot_navigate.obj
 0001:00033160       ?IsMember@?$dataUnconstArray@H@@QAEHH@Z 10034160 f i bot_navigate.obj
 0001:000331a0       ?Remove@?$dataStack@H@@QAEHH@Z 100341a0 f i bot_navigate.obj
 0001:00033210       ?_Getal@?$_Vector_alloc@U?$_Vec_base_types@VVector@@V?$allocator@VVector@@@std@@@std@@@std@@QAEAAU?$_Wrap_alloc@V?$allocator@VVector@@@std@@@2@XZ 10034210 f i bot_navigate.obj
 0001:00033220       ?_Xlength@?$vector@VVector@@V?$allocator@VVector@@@std@@@std@@CAXXZ 10034220 f i bot_navigate.obj
 0001:00033230       ?add@AStarOpenList@@QAEXPAVAStarNode@@@Z 10034230 f i bot_navigate.obj
 0001:000332c0       ?allocate@?$allocator@VVector@@@std@@QAEPAVVector@@I@Z 100342c0 f i bot_navigate.obj
 0001:00033330       ?close@AStarNode@@QAEXXZ   10034330 f   bot_navigate.obj
 0001:00033340       ?deallocate@?$_Wrap_alloc@V?$allocator@VVector@@@std@@@std@@QAEXPAVVector@@I@Z 10034340 f i bot_navigate.obj
 0001:00033350       ?deallocate@?$allocator@VVector@@@std@@QAEXPAVVector@@I@Z 10034350 f i bot_navigate.obj
 0001:000333b0       ?destroy@AStarOpenList@@QAEXXZ 100343b0 f i bot_navigate.obj
 0001:000333e0       ?getHeuristic@AStarNode@@QAEMXZ 100343e0 f   bot_navigate.obj
 0001:000333f0       ?getParent@AStarNode@@QAEFXZ 100343f0 f   bot_navigate.obj
 0001:00033400       ?hasParent@AStarNode@@QAEHXZ 10034400 f   bot_navigate.obj
 0001:00033410       ?heuristicSet@AStarNode@@QAEHXZ 10034410 f   bot_navigate.obj
 0001:00033420       ?isClosed@AStarNode@@QAEHXZ 10034420 f   bot_navigate.obj
 0001:00033430       ?isOpen@AStarNode@@QAEHXZ  10034430 f   bot_navigate.obj
 0001:00033440       ?open@AStarNode@@QAEXXZ    10034440 f   bot_navigate.obj
 0001:00033450       ?otherBotAtWaypoint@CBotGlobals@@QAEPAVCBot@@PAV2@H@Z 10034450 f i bot_navigate.obj
 0001:00033480       ?precedes@AStarNode@@QAE_NPAV1@@Z 10034480 f   bot_navigate.obj
 0001:000334c0       ?setHeuristic@AStarNode@@QAEXMMH@Z 100344c0 f   bot_navigate.obj
 0001:000334f0       ?setParent@AStarNode@@QAEXH@Z 100344f0 f   bot_navigate.obj
 0001:00033510       ?top@AStarOpenList@@QAEPAVAStarNode@@XZ 10034510 f i bot_navigate.obj
 0001:00033520       ?unClose@AStarNode@@QAEXXZ 10034520 f   bot_navigate.obj
 0001:00033530       ?unOpen@AStarNode@@QAEXXZ  10034530 f   bot_navigate.obj
 0001:00033540       ??$_Destroy_range1@V?$allocator@VCNNTrainSet@@@std@@PAVCNNTrainSet@@@std@@YAXPAVCNNTrainSet@@0AAU?$_Wrap_alloc@V?$allocator@VCNNTrainSet@@@std@@@0@U?$integral_constant@_N$0A@@0@@Z 10034540 f i bot_nn.obj
 0001:00033630       ??$emplace_back@PAVCPerceptron@@@?$vector@PAVCPerceptron@@V?$allocator@PAVCPerceptron@@@std@@@std@@QAEX$$QAPAVCPerceptron@@@Z 10034630 f i bot_nn.obj
 0001:00033700       ??$emplace_back@PAVNNLayer@@@?$vector@PAVNNLayer@@V?$allocator@PAVNNLayer@@@std@@@std@@QAEX$$QAPAVNNLayer@@@Z 10034700 f i bot_nn.obj
 0001:000337d0       ??0NN@@QAE@HHHH@Z          100347d0 f   bot_nn.obj
 0001:000338f0       ??0NNGATrained@@QAE@HHHH@Z 100348f0 f   bot_nn.obj
 0001:000339f0       ??0NNLayer@@QAE@HH@Z       100349f0 f   bot_nn.obj
 0001:00033aa0       ??1?$vector@PAVCPerceptron@@V?$allocator@PAVCPerceptron@@@std@@@std@@QAE@XZ 10034aa0 f i bot_nn.obj
 0001:00033ad0       ??1?$vector@PAVNNLayer@@V?$allocator@PAVNNLayer@@@std@@@std@@QAE@XZ 10034ad0 f i bot_nn.obj
 0001:00033b00       ??1?$vector@VCNNTrainSet@@V?$allocator@VCNNTrainSet@@@std@@@std@@QAE@XZ 10034b00 f i bot_nn.obj
 0001:00033b60       ??1NN@@QAE@XZ              10034b60 f i bot_nn.obj
 0001:00033ba0       ??1NNGATrained@@QAE@XZ     10034ba0 f   bot_nn.obj
 0001:00033c50       ?_Xlength@?$vector@PAVCPerceptron@@V?$allocator@PAVCPerceptron@@@std@@@std@@CAXXZ 10034c50 f i bot_nn.obj
 0001:00033c60       ?_Xlength@?$vector@PAVNNLayer@@V?$allocator@PAVNNLayer@@@std@@@std@@CAXXZ 10034c60 f i bot_nn.obj
 0001:00033c70       ?allocate@?$allocator@PAVCPerceptron@@@std@@QAEPAPAVCPerceptron@@I@Z 10034c70 f i bot_nn.obj
 0001:00033ce0       ?allocate@?$allocator@PAVNNLayer@@@std@@QAEPAPAVNNLayer@@I@Z 10034ce0 f i bot_nn.obj
 0001:00033d50       ?deallocate@?$_Wrap_alloc@V?$allocator@PAVCPerceptron@@@std@@@std@@QAEXPAPAVCPerceptron@@I@Z 10034d50 f i bot_nn.obj
 0001:00033db0       ?deallocate@?$_Wrap_alloc@V?$allocator@PAVNNLayer@@@std@@@std@@QAEXPAPAVNNLayer@@I@Z 10034db0 f i bot_nn.obj
 0001:00033e10       ?deallocate@?$allocator@VCNNTrainSet@@@std@@QAEXPAVCNNTrainSet@@I@Z 10034e10 f i bot_nn.obj
 0001:00033e70       ?execute@NN@@QAEXPAV?$vector@MV?$allocator@M@std@@@std@@0@Z 10034e70 f   bot_nn.obj
 0001:00034020       ?freeMemory@NN@@QAEXXZ     10035020 f   bot_nn.obj
 0001:00034130       ?freeMemory@NNLayer@@QAEXXZ 10035130 f   bot_nn.obj
 0001:000341a0       ?getOutputs@NN@@QAEXPAV?$vector@MV?$allocator@M@std@@@std@@@Z 100351a0 f   bot_nn.obj
 0001:00034240       ?getWeights@NN@@QAEXPAV?$vector@MV?$allocator@M@std@@@std@@@Z 10035240 f   bot_nn.obj
 0001:00034300       ?load@NN@@QAEXPAU_iobuf@@@Z 10035300 f   bot_nn.obj
 0001:00034410       ?load@NNLayer@@QAEXPAU_iobuf@@@Z 10035410 f   bot_nn.obj
 0001:00034590       ?randomize@NN@@QAEXXZ      10035590 f   bot_nn.obj
 0001:00034610       ?save@NN@@QAEXPAU_iobuf@@@Z 10035610 f   bot_nn.obj
 0001:000346b0       ?save@NNLayer@@QAEXPAU_iobuf@@@Z 100356b0 f   bot_nn.obj
 0001:00034740       ?setWeights@NN@@QAEXPAV?$vector@MV?$allocator@M@std@@@std@@@Z 10035740 f   bot_nn.obj
 0001:00034810       ?train@NN@@UAEXV?$vector@VCNNTrainSet@@V?$allocator@VCNNTrainSet@@@std@@@std@@@Z 10035810 f i bot_nn.obj
 0001:00034860       ?train@NNGATrained@@UAEXV?$vector@VCNNTrainSet@@V?$allocator@VCNNTrainSet@@@std@@@std@@@Z 10035860 f   bot_nn.obj
 0001:00034b40       ?trainOutputs@NN@@QAEXPAV?$vector@MV?$allocator@M@std@@@std@@@Z 10035b40 f   bot_nn.obj
 0001:00034be0       ??$emplace_back@ABQAVCBotReputation@@@?$vector@PAVCBotReputation@@V?$allocator@PAVCBotReputation@@@std@@@std@@QAEXABQAVCBotReputation@@@Z 10035be0 f i bot_rep.obj
 0001:00034cb0       ??0CBotReputation@@QAE@HH@Z 10035cb0 f   bot_rep.obj
 0001:00034cd0       ??1?$dataUnconstArray@PAVCBotReputation@@@@QAE@XZ 10035cd0 f i bot_rep.obj
 0001:00034d10       ?AddLoadRep@CBotReputations@@QAEXHH@Z 10035d10 f   bot_rep.obj
 0001:00034f20       ?BotFunc_GetRepArrayNum@@YAHH@Z 10035f20 f   bot_rep.obj
 0001:00034f60       ?GetClientRep@CBotReputations@@QAEHPAVCClient@@@Z 10035f60 f   bot_rep.obj
 0001:00034fe0       ?GetPlayerEdictRepId@@YAHPAUedict_s@@@Z 10035fe0 f   bot_rep.obj
 0001:00035030       ?GetPlayerRepId@@YAHPBD@Z  10036030 f   bot_rep.obj
 0001:000352c0       ?GetRandomClient@CBotReputations@@QAEPAVCClient@@H@Z 100362c0 f   bot_rep.obj
 0001:000353b0       ?Push@?$dataStack@VCBotReputation@@@@QAEXVCBotReputation@@@Z 100363b0 f i bot_rep.obj
 0001:00035400       ?RemoveByPointer@?$dataStack@VCBotReputation@@@@QAEHPBVCBotReputation@@@Z 10036400 f i bot_rep.obj
 0001:00035470       ?RemoveSaveRep@CBotReputations@@QAEXHH@Z 10036470 f   bot_rep.obj
 0001:000354d0       ?SaveAllRep@CBotReputations@@QAEXH@Z 100364d0 f   bot_rep.obj
 0001:00035510       ?WriteToFile@CBotReputations@@QAEXHPAVCBotReputation@@@Z 10036510 f   bot_rep.obj
 0001:00035710       ?_Xlength@?$vector@PAVCBotReputation@@V?$allocator@PAVCBotReputation@@@std@@@std@@CAXXZ 10036710 f i bot_rep.obj
 0001:00035720       ?allocate@?$allocator@PAVCBotReputation@@@std@@QAEPAPAVCBotReputation@@I@Z 10036720 f i bot_rep.obj
 0001:00035790       ?deallocate@?$_Wrap_alloc@V?$allocator@PAVCBotReputation@@@std@@@std@@QAEXPAPAVCBotReputation@@I@Z 10036790 f i bot_rep.obj
 0001:000357f0       ??0CBotVisibles@@QAE@XZ    100367f0 f   bot_visibles.obj
 0001:00035890       ?Remove@?$dataUnconstArray@H@@QAEXH@Z 10036890 f i bot_visibles.obj
 0001:000358e0       ?freeMemory@CBotVisibles@@QAEXXZ 100368e0 f   bot_visibles.obj
 0001:00035910       ?isVisible@CBotVisibles@@QAEHH@Z 10036910 f   bot_visibles.obj
 0001:00035920       ?nextVisible@CBotVisibles@@QAEPAUedict_s@@XZ 10036920 f   bot_visibles.obj
 0001:00035970       ?resetIter@CBotVisibles@@QAEXXZ 10036970 f   bot_visibles.obj
 0001:00035980       ?setVisible@CBotVisibles@@QAEXHH@Z 10036980 f   bot_visibles.obj
 0001:000359e0       ??$_Push_heap_by_index@PAPAVCBotWeapon@@HPAV1@VCompareBotWeapon@@@std@@YAXPAPAVCBotWeapon@@HH$$QAPAV1@AAVCompareBotWeapon@@@Z 100369e0 f i bot_weapons.obj
 0001:00035a70       ??$emplace_back@ABQAVCBotWeapon@@@?$vector@PAVCBotWeapon@@V?$allocator@PAVCBotWeapon@@@std@@@std@@QAEXABQAVCBotWeapon@@@Z 10036a70 f i bot_weapons.obj
 0001:00035b40       ??0CBotWeapon@@QAE@XZ      10036b40 f i bot_weapons.obj
 0001:00035b50       ??0CWeapon@@QAE@XZ         10036b50 f i bot_weapons.obj
 0001:00035ba0       ??0CWeaponPreset@@QAE@PAUweapon_preset_t@@@Z 10036ba0 f i bot_weapons.obj
 0001:00035c30       ??1?$priority_queue@PAVCBotWeapon@@V?$vector@PAVCBotWeapon@@V?$allocator@PAVCBotWeapon@@@std@@@std@@VCompareBotWeapon@@@std@@QAE@XZ 10036c30 f i bot_weapons.obj
 0001:00035c60       ?AddWeapon@CBotWeapons@@QAEXH@Z 10036c60 f   bot_weapons.obj
 0001:00035c80       ?AddWeapon@CWeapons@@QAEXHPBDHHHHHHH@Z 10036c80 f   bot_weapons.obj
 0001:00035d10       ?CanBeUsedUnderWater@CWeapon@@UAEHXZ 10036d10 f i bot_weapons.obj
 0001:00035d20       ?CanBeUsedUnderWater@CWeaponPreset@@UAEHXZ 10036d20 f i bot_weapons.obj
 0001:00035d30       ?CanReload@CBotWeapon@@QAEHXZ 10036d30 f   bot_weapons.obj
 0001:00035d60       ?CanShootPrimary@CBotWeapon@@QAEHPAUedict_s@@MM@Z 10036d60 f   bot_weapons.obj
 0001:00035e30       ?CanUsePrimary@CWeapon@@UAEHXZ 10036e30 f i bot_weapons.obj
 0001:00035e40       ?CanUsePrimary@CWeaponPreset@@UAEHXZ 10036e40 f i bot_weapons.obj
 0001:00035e50       ?CanUseSecondary@CWeapon@@UAEHXZ 10036e50 f i bot_weapons.obj
 0001:00035e60       ?CanUseSecondary@CWeaponPreset@@UAEHXZ 10036e60 f i bot_weapons.obj
 0001:00035e70       ?ChoosePointerFromStack@?$dataStack@Uweapon_preset_t@@@@QAEPAUweapon_preset_t@@XZ 10036e70 f i bot_weapons.obj
 0001:00035e80       ?GetArrayOfExplosives@@YAXPAF@Z 10036e80 f   bot_weapons.obj
 0001:00035eb0       ?GetBestWeaponId@CBotWeapons@@QAEHPAVCBot@@PAUedict_s@@@Z 10036eb0 f   bot_weapons.obj
 0001:00036c30       ?GetNoWeaponArray@@YAXPAF@Z 10037c30 f   bot_weapons.obj
 0001:00036c50       ?GetPreset@CWeaponPresets@@QAEPAUweapon_preset_t@@FH@Z 10037c50 f i bot_weapons.obj
 0001:00036c90       ?GetPriority@CWeapon@@UAEHXZ 10037c90 f i bot_weapons.obj
 0001:00036ca0       ?GetPriority@CWeaponPreset@@UAEHXZ 10037ca0 f i bot_weapons.obj
 0001:00036cb0       ?HasWeapon@CBotWeapon@@QAEHPAUedict_s@@@Z 10037cb0 f   bot_weapons.obj
 0001:00036da0       ?HasWeapon@CBotWeapons@@QAEHPAUedict_s@@PAD@Z 10037da0 f   bot_weapons.obj
 0001:00036e20       ?IsMelee@CWeapon@@UAEHXZ   10037e20 f i bot_weapons.obj
 0001:00036e30       ?IsMelee@CWeaponPreset@@UAEHXZ 10037e30 f i bot_weapons.obj
 0001:00036e40       ?IsPrimary@CWeapon@@QAEHXZ 10037e40 f   bot_weapons.obj
 0001:00036e60       ?IsSecondary@CWeapon@@QAEHXZ 10037e60 f   bot_weapons.obj
 0001:00036e80       ?NeedToReload@CBotWeapon@@QAEHXZ 10037e80 f   bot_weapons.obj
 0001:00036ed0       ?PrimMaxRange@CWeapon@@UAEMXZ 10037ed0 f i bot_weapons.obj
 0001:00036ee0       ?PrimMaxRange@CWeaponPreset@@UAEMXZ 10037ee0 f i bot_weapons.obj
 0001:00036f00       ?PrimMinRange@CWeapon@@UAEMXZ 10037f00 f i bot_weapons.obj
 0001:00036f10       ?PrimMinRange@CWeaponPreset@@UAEMXZ 10037f10 f i bot_weapons.obj
 0001:00036f30       ?PrimaryInRange@CWeapon@@UAEHM@Z 10037f30 f i bot_weapons.obj
 0001:00036f40       ?PrimaryInRange@CWeaponPreset@@UAEHM@Z 10037f40 f i bot_weapons.obj
 0001:00036f80       ?Push@?$dataStack@Uweapon_preset_t@@@@QAEXUweapon_preset_t@@@Z 10037f80 f i bot_weapons.obj
 0001:00036fe0       ?ReadPresets@CWeaponPresets@@QAEXXZ 10037fe0 f   bot_weapons.obj
 0001:000373b0       ?SecondaryInRange@CWeapon@@UAEHM@Z 100383b0 f i bot_weapons.obj
 0001:000373c0       ?SecondaryInRange@CWeaponPreset@@UAEHM@Z 100383c0 f i bot_weapons.obj
 0001:00037400       ?SetWeapon@CBotWeapon@@QAEXHPAH@Z 10038400 f   bot_weapons.obj
 0001:00037460       ?SetWeapon@CWeapon@@QAEXHPBDHHHHHHH@Z 10038460 f   bot_weapons.obj
 0001:000374c0       ?_Xlength@?$vector@PAVCBotWeapon@@V?$allocator@PAVCBotWeapon@@@std@@@std@@CAXXZ 100384c0 f i bot_weapons.obj
 0001:000374d0       ?allocate@?$allocator@PAVCBotWeapon@@@std@@QAEPAPAVCBotWeapon@@I@Z 100384d0 f i bot_weapons.obj
 0001:00037540       ?deallocate@?$_Wrap_alloc@V?$allocator@PAVCBotWeapon@@@std@@@std@@QAEXPAPAVCBotWeapon@@I@Z 10038540 f i bot_weapons.obj
 0001:000375a0       ?push@?$priority_queue@PAVCBotWeapon@@V?$vector@PAVCBotWeapon@@V?$allocator@PAVCBotWeapon@@@std@@@std@@VCompareBotWeapon@@@std@@QAEXABQAVCBotWeapon@@@Z 100385a0 f i bot_weapons.obj
 0001:000375f0       ?setHasWeapon@CBotWeapon@@QAEXH@Z 100385f0 f   bot_weapons.obj
 0001:00037600       ?Add@CPendingToolTips@@QAEXW4eToolTip@@@Z 10038600 f i client.obj
 0001:00037650       ?AddNewToolTip@CClient@@QAEXW4eToolTip@@@Z 10038650 f   client.obj
 0001:000376a0       ?ClientConnected@CClients@@QAEPAVCClient@@PAUedict_s@@@Z 100386a0 f   client.obj
 0001:00037850       ?ClientDisconnected@CClients@@QAEXPAUedict_s@@@Z 10038850 f   client.obj
 0001:000378d0       ?ClientDisconnected@CClients@@QAEXPAVCClient@@@Z 100388d0 f   client.obj
 0001:000379e0       ?FreeGlobalMemory@CClient@@QAEXXZ 100389e0 f   client.obj
 0001:00037a50       ?GetClientByRepId@CClients@@QAEPAVCClient@@H@Z 10038a50 f   client.obj
 0001:00037a90       ?Init@CClient@@QAEXXZ      10038a90 f i client.obj
 0001:00037b10       ?RemoveFront@?$dataQueue@W4eToolTip@@@@QAEXXZ 10038b10 f i client.obj
 0001:00037b60       ?SetEdict@CClient@@QAEXPAUedict_s@@@Z 10038b60 f   client.obj
 0001:00037b90       ?Think@CClient@@QAEXXZ     10038b90 f   client.obj
 0001:00039a40       ?Think@CPendingToolTips@@QAEXPAUedict_s@@@Z 1003aa40 f   client.obj
 0001:00039aa0       ?addIgnoreSentry@CClient@@QAEXPAUedict_s@@@Z 1003aaa0 f   client.obj
 0001:00039ac0       ?checkBuiltSentry@CClient@@QAEXXZ 1003aac0 f   client.obj
 0001:00039af0       ?clearIgnoreSentries@CClient@@QAEXXZ 1003aaf0 f   client.obj
 0001:00039b10       ?getLookTaskDescription@CBot@@QAEPBDXZ 1003ab10 f i client.obj
 0001:00039ba0       ?setSteamID@CClient@@QAEXXZ 1003aba0 f   client.obj
 0001:00039be0       ?FindDirectory@@YAPAXPAXPAD1@Z 1003abe0 f   dir.obj
 0001:00039cf0       ?SpectatorThink@@YAXPAUedict_s@@@Z 1003acf0 f   dll.obj
 0001:00039d00       ?Sys_Error@@YAXPBD@Z       1003ad00 f   dll.obj
 0001:00039d60       ?PM_Move@@YAXPAUplayermove_s@@H@Z 1003ad60 f   dll.obj
 0001:00039d70       ?PM_Init@@YAXPAUplayermove_s@@@Z 1003ad70 f   dll.obj
 0001:00039d80       ?PM_FindTextureType@@YADPAD@Z 1003ad80 f   dll.obj
 0001:00039d90       ?SetupVisibility@@YAXPAUedict_s@@0PAPAE1@Z 1003ad90 f   dll.obj
 0001:00039da0       ?UpdateClientData@@YAXPBUedict_s@@HPAUclientdata_s@@@Z 1003ada0 f   dll.obj
 0001:00039db0       ?AddToFullPack@@YAHPAUentity_state_s@@HPAUedict_s@@1HHPAE@Z 1003adb0 f   dll.obj
 0001:00039dc0       ?CreateBaseline@@YAXHHPAUentity_state_s@@PAUedict_s@@HVVector@@2@Z 1003adc0 f   dll.obj
 0001:00039dd0       ?RegisterEncoders@@YAXXZ   1003add0 f   dll.obj
 0001:00039de0       ?GetWeaponData@@YAHPAUedict_s@@PAUweapon_data_s@@@Z 1003ade0 f   dll.obj
 0001:00039df0       ?CmdStart@@YAXPBUedict_s@@PBUusercmd_s@@I@Z 1003adf0 f   dll.obj
 0001:00039e00       ?CmdEnd@@YAXPBUedict_s@@@Z 1003ae00 f   dll.obj
 0001:00039e10       ?ConnectionlessPacket@@YAHPBUnetadr_s@@PBDPADPAH@Z 1003ae10 f   dll.obj
 0001:00039e20       ?GetHullBounds@@YAHHPAM0@Z 1003ae20 f   dll.obj
 0001:00039e30       ?CreateInstancedBaselines@@YAXXZ 1003ae30 f   dll.obj
 0001:00039e40       ?InconsistentFile@@YAHPBUedict_s@@PBDPAD@Z 1003ae40 f   dll.obj
 0001:00039e90       ?AllowLagCompensation@@YAHXZ 1003ae90 f   dll.obj
 0001:00039ea0       ?GameDLLInit@@YAXXZ        1003aea0 f   dll.obj
 0001:00039eb0       ?DispatchSpawn@@YAHPAUedict_s@@@Z 1003aeb0 f   dll.obj
 0001:0003a030       ?DispatchThink@@YAXPAUedict_s@@@Z 1003b030 f   dll.obj
 0001:0003a040       ?DispatchUse@@YAXPAUedict_s@@0@Z 1003b040 f   dll.obj
 0001:0003a050       ?DispatchTouch@@YAXPAUedict_s@@0@Z 1003b050 f   dll.obj
 0001:0003a0e0       ?DispatchBlocked@@YAXPAUedict_s@@0@Z 1003b0e0 f   dll.obj
 0001:0003a120       ?DispatchKeyValue@@YAXPAUedict_s@@PAUKeyValueData_s@@@Z 1003b120 f   dll.obj
 0001:0003a140       ?DispatchSave@@YAXPAUedict_s@@PAUsaverestore_s@@@Z 1003b140 f   dll.obj
 0001:0003a150       ?DispatchRestore@@YAHPAUedict_s@@PAUsaverestore_s@@H@Z 1003b150 f   dll.obj
 0001:0003a160       ?DispatchObjectCollsionBox@@YAXPAUedict_s@@@Z 1003b160 f   dll.obj
 0001:0003a170       ?SaveWriteFields@@YAXPAUsaverestore_s@@PBDPAXPAUTYPEDESCRIPTION@@H@Z 1003b170 f   dll.obj
 0001:0003a180       ?SaveReadFields@@YAXPAUsaverestore_s@@PBDPAXPAUTYPEDESCRIPTION@@H@Z 1003b180 f   dll.obj
 0001:0003a190       ?SaveGlobalState@@YAXPAUsaverestore_s@@@Z 1003b190 f   dll.obj
 0001:0003a1a0       ?RestoreGlobalState@@YAXPAUsaverestore_s@@@Z 1003b1a0 f   dll.obj
 0001:0003a1b0       ?ResetGlobalState@@YAXXZ   1003b1b0 f   dll.obj
 0001:0003a1c0       ?ClientConnect@@YAHPAUedict_s@@PBD1QAD@Z 1003b1c0 f   dll.obj
 0001:0003a4f0       ?ClientDisconnect@@YAXPAUedict_s@@@Z 1003b4f0 f   dll.obj
 0001:0003a5e0       ?ClientKill@@YAXPAUedict_s@@@Z 1003b5e0 f   dll.obj
 0001:0003a630       ?ClientPutInServer@@YAXPAUedict_s@@@Z 1003b630 f   dll.obj
 0001:0003a680       ?ClientCommand@@YAXPAUedict_s@@@Z 1003b680 f   dll.obj
 0001:0003ad80       ?ClientUserInfoChanged@@YAXPAUedict_s@@PAD@Z 1003bd80 f   dll.obj
 0001:0003add0       ?ServerActivate@@YAXPAUedict_s@@HH@Z 1003bdd0 f   dll.obj
 0001:0003adf0       ?ServerDeactivate@@YAXXZ   1003bdf0 f   dll.obj
 0001:0003aed0       ?PlayerPreThink@@YAXPAUedict_s@@@Z 1003bed0 f   dll.obj
 0001:0003aee0       ?PlayerPostThink@@YAXPAUedict_s@@@Z 1003bee0 f   dll.obj
 0001:0003aef0       ?StartFrame@@YAXXZ         1003bef0 f   dll.obj
 0001:0003af10       ?ParmsNewLevel@@YAXXZ      1003bf10 f   dll.obj
 0001:0003af20       ?ParmsChangeLevel@@YAXXZ   1003bf20 f   dll.obj
 0001:0003af30       ?GetGameDescription@@YAPBDXZ 1003bf30 f   dll.obj
 0001:0003af40       ?PlayerCustomization@@YAXPAUedict_s@@PAUcustomization_s@@@Z 1003bf40 f   dll.obj
 0001:0003af90       ?SpectatorConnect@@YAXPAUedict_s@@@Z 1003bf90 f   dll.obj
 0001:0003afa0       ?SpectatorDisconnect@@YAXPAUedict_s@@@Z 1003bfa0 f   dll.obj
 0001:0003afb0       ??$__vcrt_va_start_verify_argument_type@PBD@@YAXXZ 1003bfb0 f i dll.obj
 0001:0003afc0       ??$emplace_back@ABW4eCamLookState@@@?$vector@W4eCamLookState@@V?$allocator@W4eCamLookState@@@std@@@std@@QAEXABW4eCamLookState@@@Z 1003bfc0 f i dll.obj
 0001:0003b090       ??0?$CTypeVector@F@@QAE@XZ 1003c090 f i dll.obj
 0001:0003b0b0       ??0?$dataStack@PAD@@QAE@XZ 1003c0b0 f i dll.obj
 0001:0003b0c0       ??0CAutoWaypointCheck@@QAE@XZ 1003c0c0 f i dll.obj
 0001:0003b0d0       ??0CBot@@QAE@XZ            1003c0d0 f i dll.obj
 0001:0003b260       ??0CBotCam@@QAE@XZ         1003c260 f   dll.obj
 0001:0003b290       ??0CBotGlobals@@QAE@XZ     1003c290 f i dll.obj
 0001:0003b5c0       ??0CBotMenu@@QAE@XZ        1003c5c0 f i dll.obj
 0001:0003b5d0       ??0CBotNSTechs@@QAE@XZ     1003c5d0 f i dll.obj
 0001:0003b600       ??0CClient@@QAE@XZ         1003c600 f i dll.obj
 0001:0003b660       ??0SBotChatMessages@@QAE@XZ 1003c660 f i dll.obj
 0001:0003b780       ??0edict_s@@QAE@ABU0@@Z    1003c780 f i dll.obj
 0001:0003b800       ??0entvars_s@@QAE@ABU0@@Z  1003c800 f i dll.obj
 0001:0003bf40       ??0hive_info_t@@QAE@XZ     1003cf40 f i dll.obj
 0001:0003bf50       ??1?$dataUnconstArray@VTSObjective@@@@QAE@XZ 1003cf50 f i dll.obj
 0001:0003bfa0       ??1?$dataUnconstArray@W4eCamLookState@@@@QAE@XZ 1003cfa0 f i dll.obj
 0001:0003bfe0       ??1CBot@@QAE@XZ            1003cfe0 f i dll.obj
 0001:0003c100       ??1CBotGlobals@@QAE@XZ     1003d100 f i dll.obj
 0001:0003c260       ??1CBotNSTechs@@QAE@XZ     1003d260 f i dll.obj
 0001:0003c2a0       ??1CClient@@QAE@XZ         1003d2a0 f i dll.obj
 0001:0003c2f0       ??1CClients@@QAE@XZ        1003d2f0 f i dll.obj
 0001:0003c340       ??1CRememberedPositions@@QAE@XZ 1003d340 f i dll.obj
 0001:0003c390       ??1CWeapons@@QAE@XZ        1003d390 f i dll.obj
 0001:0003c3c0       ??1SBotChatMessages@@QAE@XZ 1003d3c0 f i dll.obj
 0001:0003c4f0       ??_FCGA@@QAEXXZ            1003d4f0 f i dll.obj
 0001:0003c500       ?BotFunc_InitProfile@@YAXPAUbot_profile_s@@@Z 1003d500 f   dll.obj
 0001:0003c620       ?BotFunc_NS_CommanderBuild@@YAPAUedict_s@@HPBDVVector@@@Z 1003d620 f   dll.obj
 0001:0003c630       ?BotFunc_NS_MarineBuild@@YAPAUedict_s@@HPBDVVector@@PAU1@H@Z 1003d630 f   dll.obj
 0001:0003c820       ?BotFunc_ReadProfile@@YAXPAU_iobuf@@PAUbot_profile_s@@@Z 1003d820 f   dll.obj
 0001:0003d040       ?BotFunc_TraceToss@@YAXPAUedict_s@@0PAUTraceResult@@@Z 1003e040 f   dll.obj
 0001:0003d230       ?BotFunc_WriteProfile@@YAXPAU_iobuf@@PAUbot_profile_s@@@Z 1003e230 f   dll.obj
 0001:0003d3a0       ?ChoosePointerFromStack@?$dataStack@VCTFCGoal@@@@QAEPAVCTFCGoal@@XZ 1003e3a0 f i dll.obj
 0001:0003d3b0       ?Clear@CBotCam@@QAEXXZ     1003e3b0 f   dll.obj
 0001:0003d3e0       ?FakeClientCommand@@YAXPAUedict_s@@PBDZZ 1003e3e0 f   dll.obj
 0001:0003d580       ?FreeArgs@@YAXPBD00000@Z   1003e580 f   dll.obj
 0001:0003d5f0       ?FreeMemory@CBotSquads@@QAEXXZ 1003e5f0 f i dll.obj
 0001:0003d680       ?HasPlayerName@CClient@@QAEHPBD@Z 1003e680 f i dll.obj
 0001:0003d6f0       ?IsForClient@CAllowedPlayer@@QAEHPAVCClient@@@Z 1003e6f0 f   dll.obj
 0001:0003d780       ?IsForSteamID@CAllowedPlayer@@QAEHPAD@Z 1003e780 f i dll.obj
 0001:0003d7e0       ?IsWorking@CBotCam@@QAEHXZ 1003e7e0 f   dll.obj
 0001:0003d800       ?ReadBotUsersConfig@@YAXXZ 1003e800 f   dll.obj
 0001:0003db10       ?ReadMapConfig@@YAXXZ      1003eb10 f   dll.obj
 0001:0003dc50       ?Spawn@CBotCam@@QAEXXZ     1003ec50 f   dll.obj
 0001:0003dd20       ?TFC_isValidGoal@CBotGlobals@@QAEHHH@Z 1003ed20 f i dll.obj
 0001:0003dd90       ?Think@CBotCam@@QAEXXZ     1003ed90 f   dll.obj
 0001:0003e9d0       ?TuneIn@CBotCam@@QAEHPAUedict_s@@@Z 1003f9d0 f   dll.obj
 0001:0003ea30       ?TuneOff@CBotCam@@QAEXPAUedict_s@@@Z 1003fa30 f   dll.obj
 0001:0003ea50       ?UTIL_GetCommander@@YAPAUedict_s@@XZ 1003fa50 f   dll.obj
 0001:0003eac0       ?_Xlength@?$vector@W4eCamLookState@@V?$allocator@W4eCamLookState@@@std@@@std@@CAXXZ 1003fac0 f i dll.obj
 0001:0003ead0       ?allocate@?$allocator@W4eCamLookState@@@std@@QAEPAW4eCamLookState@@I@Z 1003fad0 f i dll.obj
 0001:0003eb40       ?deallocate@?$_Wrap_alloc@V?$allocator@W4eCamLookState@@@std@@@std@@QAEXPAW4eCamLookState@@I@Z 1003fb40 f i dll.obj
 0001:0003eba0       ?getCapturePoint@CTFCCapturePoints@@QAEPAUedict_s@@HHHH@Z 1003fba0 f   dll.obj
 0001:0003ecb0       ?needAccess@CBotCvar@@QAEHH@Z 1003fcb0 f i dll.obj
 0001:0003ecd0       _GetEntityAPI2             1003fcd0 f   dll.obj
 0001:0003ed30       ?AddRep@CBotReputations@@QAEXHH@Z 1003fd30 f i engine.obj
 0001:0003edb0       ?GetArg@@YAPBDPBDH@Z       1003fdb0 f   engine.obj
 0001:0003eec0       ?pfnAllocString@@YAHPBD@Z  1003fec0 f   engine.obj
 0001:0003ef10       ?pfnAngleVectors@@YAXPBMPAM11@Z 1003ff10 f   engine.obj
 0001:0003ef20       ?pfnAnimationAutomove@@YAXPBUedict_s@@M@Z 1003ff20 f   engine.obj
 0001:0003ef30       ?pfnBuildSoundMsg@@YAXPAUedict_s@@HPBDMMHHHHPBM0@Z 1003ff30 f   engine.obj
 0001:0003ef80       ?pfnCRC32_Final@@YAKK@Z    1003ff80 f   engine.obj
 0001:0003efd0       ?pfnCRC32_Init@@YAXPAK@Z   1003ffd0 f   engine.obj
 0001:0003f020       ?pfnCRC32_ProcessBuffer@@YAXPAKPAXH@Z 10040020 f   engine.obj
 0001:0003f070       ?pfnCRC32_ProcessByte@@YAXPAKE@Z 10040070 f   engine.obj
 0001:0003f0c0       ?pfnCVarGetFloat@@YAMPBD@Z 100400c0 f   engine.obj
 0001:0003f0d0       ?pfnCVarGetPointer@@YAPAUcvar_s@@PBD@Z 100400d0 f   engine.obj
 0001:0003f120       ?pfnCVarGetString@@YAPBDPBD@Z 10040120 f   engine.obj
 0001:0003f130       ?pfnCVarRegister@@YAXPAUcvar_s@@@Z 10040130 f   engine.obj
 0001:0003f180       ?pfnCVarSetFloat@@YAXPBDM@Z 10040180 f   engine.obj
 0001:0003f190       ?pfnCVarSetString@@YAXPBD0@Z 10040190 f   engine.obj
 0001:0003f1a0       ?pfnCanSkipPlayer@@YAHPBUedict_s@@@Z 100401a0 f   engine.obj
 0001:0003f1f0       ?pfnChangeLevel@@YAXPAD0@Z 100401f0 f   engine.obj
 0001:0003f2a0       ?pfnChangePitch@@YAXPAUedict_s@@@Z 100402a0 f   engine.obj
 0001:0003f2b0       ?pfnChangeYaw@@YAXPAUedict_s@@@Z 100402b0 f   engine.obj
 0001:0003f2c0       ?pfnCheckVisibility@@YAHPBUedict_s@@PAE@Z 100402c0 f   engine.obj
 0001:0003f2d0       ?pfnClientCommand@@YAXPAUedict_s@@PADZZ 100402d0 f   engine.obj
 0001:0003f330       ?pfnClientPrintf@@YAXPAUedict_s@@W4PRINT_TYPE@@PBD@Z 10040330 f   engine.obj
 0001:0003f380       ?pfnCmd_Argc@@YAHXZ        10040380 f   engine.obj
 0001:0003f3b0       ?pfnCmd_Args@@YAPBDXZ      100403b0 f   engine.obj
 0001:0003f430       ?pfnCmd_Argv@@YAPBDH@Z     10040430 f   engine.obj
 0001:0003f470       ?pfnCompareFileTime@@YAHPAD0PAH@Z 10040470 f   engine.obj
 0001:0003f4c0       ?pfnCreateEntity@@YAPAUedict_s@@XZ 100404c0 f   engine.obj
 0001:0003f4d0       ?pfnCreateFakeClient@@YAPAUedict_s@@PBD@Z 100404d0 f   engine.obj
 0001:0003f520       ?pfnCreateInstancedBaseline@@YAHHPAUentity_state_s@@@Z 10040520 f   engine.obj
 0001:0003f570       ?pfnCreateNamedEntity@@YAPAUedict_s@@H@Z 10040570 f   engine.obj
 0001:0003f580       ?pfnCrosshairAngle@@YAXPBUedict_s@@MM@Z 10040580 f   engine.obj
 0001:0003f5d0       ?pfnCvar_DirectSet@@YAXPAUcvar_s@@PAD@Z 100405d0 f   engine.obj
 0001:0003f620       ?pfnCvar_RegisterVariable@@YAXPAUcvar_s@@@Z 10040620 f   engine.obj
 0001:0003f670       ?pfnDecalIndex@@YAHPBD@Z   10040670 f   engine.obj
 0001:0003f680       ?pfnDeltaAddEncoder@@YAXPADP6AXPAUdelta_s@@PBE2@Z@Z 10040680 f   engine.obj
 0001:0003f690       ?pfnDeltaFindField@@YAHPAUdelta_s@@PBD@Z 10040690 f   engine.obj
 0001:0003f6a0       ?pfnDeltaSetField@@YAXPAUdelta_s@@PBD@Z 100406a0 f   engine.obj
 0001:0003f6b0       ?pfnDeltaSetFieldByIndex@@YAXPAUdelta_s@@H@Z 100406b0 f   engine.obj
 0001:0003f700       ?pfnDeltaUnsetField@@YAXPAUdelta_s@@PBD@Z 10040700 f   engine.obj
 0001:0003f710       ?pfnDeltaUnsetFieldByIndex@@YAXPAUdelta_s@@H@Z 10040710 f   engine.obj
 0001:0003f720       ?pfnDropToFloor@@YAHPAUedict_s@@@Z 10040720 f   engine.obj
 0001:0003f770       ?pfnEmitAmbientSound@@YAXPAUedict_s@@PAMPBDMMHH@Z 10040770 f   engine.obj
 0001:0003f7c0       ?pfnEmitSound@@YAXPAUedict_s@@HPBDMMHH@Z 100407c0 f   engine.obj
 0001:0003fb60       ?pfnEndSection@@YAXPBD@Z   10040b60 f   engine.obj
 0001:0003fbb0       ?pfnEntIsOnFloor@@YAHPAUedict_s@@@Z 10040bb0 f   engine.obj
 0001:0003fc00       ?pfnEntOffsetOfPEntity@@YAHPBUedict_s@@@Z 10040c00 f   engine.obj
 0001:0003fc10       ?pfnEntitiesInPVS@@YAPAUedict_s@@PAU1@@Z 10040c10 f   engine.obj
 0001:0003fc60       ?pfnFadeClientVolume@@YAXPBUedict_s@@HHHH@Z 10040c60 f   engine.obj
 0001:0003fcb0       ?pfnFindClientInPVS@@YAPAUedict_s@@PAU1@@Z 10040cb0 f   engine.obj
 0001:0003fd00       ?pfnFindEntityByString@@YAPAUedict_s@@PAU1@PBD1@Z 10040d00 f   engine.obj
 0001:0003fd10       ?pfnFindEntityByVars@@YAPAUedict_s@@PAUentvars_s@@@Z 10040d10 f   engine.obj
 0001:0003fd20       ?pfnFindEntityInSphere@@YAPAUedict_s@@PAU1@PBMM@Z 10040d20 f   engine.obj
 0001:0003fd70       ?pfnForceUnmodified@@YAXW4FORCE_TYPE@@PAM1PBD@Z 10040d70 f   engine.obj
 0001:0003fdc0       ?pfnFreeEntPrivateData@@YAXPAUedict_s@@@Z 10040dc0 f   engine.obj
 0001:0003fe20       ?pfnFreeFile@@YAXPAX@Z     10040e20 f   engine.obj
 0001:0003fe70       ?pfnFunctionFromName@@YAKPBD@Z 10040e70 f   engine.obj
 0001:0003fec0       ?pfnGetAimVector@@YAXPAUedict_s@@MPAM@Z 10040ec0 f   engine.obj
 0001:0003fed0       ?pfnGetAttachment@@YAXPBUedict_s@@HPAM1@Z 10040ed0 f   engine.obj
 0001:0003fee0       ?pfnGetBonePosition@@YAXPBUedict_s@@HPAM1@Z 10040ee0 f   engine.obj
 0001:0003fef0       ?pfnGetCurrentPlayer@@YAHXZ 10040ef0 f   engine.obj
 0001:0003ff40       ?pfnGetEntityIllum@@YAHPAUedict_s@@@Z 10040f40 f   engine.obj
 0001:0003ff90       ?pfnGetGameDir@@YAXPAD@Z   10040f90 f   engine.obj
 0001:00040000       ?pfnGetInfoKeyBuffer@@YAPADPAUedict_s@@@Z 10041000 f   engine.obj
 0001:00040050       ?pfnGetModelPtr@@YAPAXPAUedict_s@@@Z 10041050 f   engine.obj
 0001:00040060       ?pfnGetPhysicsInfoString@@YAPBDPBUedict_s@@@Z 10041060 f   engine.obj
 0001:000400b0       ?pfnGetPhysicsKeyValue@@YAPBDPBUedict_s@@PBD@Z 100410b0 f   engine.obj
 0001:00040100       ?pfnGetPlayerAuthId@@YAPBDPAUedict_s@@@Z 10041100 f   engine.obj
 0001:00040130       ?pfnGetPlayerStats@@YAXPBUedict_s@@PAH1@Z 10041130 f   engine.obj
 0001:00040180       ?pfnGetPlayerUserId@@YAHPAUedict_s@@@Z 10041180 f   engine.obj
 0001:000401f0       ?pfnGetPlayerWONId@@YAIPAUedict_s@@@Z 100411f0 f   engine.obj
 0001:00040270       ?pfnGetSpawnParms@@YAXPAUedict_s@@@Z 10041270 f   engine.obj
 0001:000402c0       ?pfnGetVarsOfEnt@@YAPAUentvars_s@@PAUedict_s@@@Z 100412c0 f   engine.obj
 0001:00040310       ?pfnIndexOfEdict@@YAHPBUedict_s@@@Z 10041310 f   engine.obj
 0001:00040320       ?pfnInfoKeyValue@@YAPADPAD0@Z 10041320 f   engine.obj
 0001:00040370       ?pfnInfo_RemoveKey@@YAXPADPBD@Z 10041370 f   engine.obj
 0001:000403c0       ?pfnIsDedicatedServer@@YAHXZ 100413c0 f   engine.obj
 0001:00040410       ?pfnIsMapValid@@YAHPAD@Z   10041410 f   engine.obj
 0001:00040460       ?pfnLightStyle@@YAXHPAD@Z  10041460 f   engine.obj
 0001:00040470       ?pfnLoadFileForMe@@YAPAEPADPAH@Z 10041470 f   engine.obj
 0001:000404c0       ?pfnMakeStatic@@YAXPAUedict_s@@@Z 100414c0 f   engine.obj
 0001:00040510       ?pfnMakeVectors@@YAXPBM@Z  10041510 f   engine.obj
 0001:00040520       ?pfnMessageBegin@@YAXHHPBMPAUedict_s@@@Z 10041520 f   engine.obj
 0001:00040550       ?pfnMessageEnd@@YAXXZ      10041550 f   engine.obj
 0001:00040620       ?pfnModelFrames@@YAHH@Z    10041620 f   engine.obj
 0001:00040670       ?pfnModelIndex@@YAHPBD@Z   10041670 f   engine.obj
 0001:00040680       ?pfnMoveToOrigin@@YAXPAUedict_s@@PBMMH@Z 10041680 f   engine.obj
 0001:000406d0       ?pfnNameForFunction@@YAPBDK@Z 100416d0 f   engine.obj
 0001:00040720       ?pfnNumberOfEntities@@YAHXZ 10041720 f   engine.obj
 0001:00040770       ?pfnPEntityOfEntIndex@@YAPAUedict_s@@H@Z 10041770 f   engine.obj
 0001:00040780       ?pfnPEntityOfEntOffset@@YAPAUedict_s@@H@Z 10041780 f   engine.obj
 0001:00040790       ?pfnParticleEffect@@YAXPBM0MM@Z 10041790 f   engine.obj
 0001:000407a0       ?pfnPlaybackEvent@@YAXHPBUedict_s@@GMPAM1MMHHHH@Z 100417a0 f   engine.obj
 0001:000407f0       ?pfnPointContents@@YAHPBM@Z 100417f0 f   engine.obj
 0001:00040800       ?pfnPrecacheEvent@@YAGHPBD@Z 10041800 f   engine.obj
 0001:00040850       ?pfnPrecacheGeneric@@YAHPAD@Z 10041850 f   engine.obj
 0001:000408a0       ?pfnPrecacheModel@@YAHPAD@Z 100418a0 f   engine.obj
 0001:000408f0       ?pfnPrecacheSound@@YAHPAD@Z 100418f0 f   engine.obj
 0001:00040940       ?pfnPvAllocEntPrivateData@@YAPAXPAUedict_s@@J@Z 10041940 f   engine.obj
 0001:00040990       ?pfnPvEntPrivateData@@YAPAXPAUedict_s@@@Z 10041990 f   engine.obj
 0001:000409e0       ?pfnRandomFloat@@YAMMM@Z   100419e0 f   engine.obj
 0001:000409f0       ?pfnRandomLong@@YAJJJ@Z    100419f0 f   engine.obj
 0001:00040a00       ?pfnRegUserMsg@@YAHPBDH@Z  10041a00 f   engine.obj
 0001:00040a60       ?pfnRemoveEntity@@YAXPAUedict_s@@@Z 10041a60 f   engine.obj
 0001:00040ae0       ?pfnRunPlayerMove@@YAXPAUedict_s@@PBMMMMGEE@Z 10041ae0 f   engine.obj
 0001:00040b30       ?pfnSaveSpawnParms@@YAXPAUedict_s@@@Z 10041b30 f   engine.obj
 0001:00040b80       ?pfnServerCommand@@YAXPAD@Z 10041b80 f   engine.obj
 0001:00040bd0       ?pfnServerExecute@@YAXXZ   10041bd0 f   engine.obj
 0001:00040c20       ?pfnServerPrint@@YAXPBD@Z  10041c20 f   engine.obj
 0001:00040c70       ?pfnSetClientKeyValue@@YAXHPAD00@Z 10041c70 f   engine.obj
 0001:00040dd0       ?pfnSetClientMaxspeed@@YAXPBUedict_s@@M@Z 10041dd0 f   engine.obj
 0001:00040e50       ?pfnSetFatPAS@@YAPAEPAM@Z  10041e50 f   engine.obj
 0001:00040ea0       ?pfnSetFatPVS@@YAPAEPAM@Z  10041ea0 f   engine.obj
 0001:00040ef0       ?pfnSetGroupMask@@YAXHH@Z  10041ef0 f   engine.obj
 0001:00040f40       ?pfnSetKeyValue@@YAXPAD00@Z 10041f40 f   engine.obj
 0001:00040f90       ?pfnSetModel@@YAXPAUedict_s@@PBD@Z 10041f90 f   engine.obj
 0001:00041000       ?pfnSetOrigin@@YAXPAUedict_s@@PBM@Z 10042000 f   engine.obj
 0001:00041050       ?pfnSetPhysicsKeyValue@@YAXPBUedict_s@@PBD1@Z 10042050 f   engine.obj
 0001:000410a0       ?pfnSetSize@@YAXPAUedict_s@@PBM1@Z 100420a0 f   engine.obj
 0001:000410f0       ?pfnSetView@@YAXPBUedict_s@@0@Z 100420f0 f   engine.obj
 0001:00041140       ?pfnStaticDecal@@YAXPBMHHH@Z 10042140 f   engine.obj
 0001:00041190       ?pfnSzFromIndex@@YAPBDH@Z  10042190 f   engine.obj
 0001:000411e0       ?pfnTime@@YAMXZ            100421e0 f   engine.obj
 0001:00041230       ?pfnTraceHull@@YAXPBM0HHPAUedict_s@@PAUTraceResult@@@Z 10042230 f   engine.obj
 0001:00041240       ?pfnTraceLine@@YAXPBM0HPAUedict_s@@PAUTraceResult@@@Z 10042240 f   engine.obj
 0001:00041250       ?pfnTraceModel@@YAXPBM0HPAUedict_s@@PAUTraceResult@@@Z 10042250 f   engine.obj
 0001:00041260       ?pfnTraceMonsterHull@@YAHPAUedict_s@@PBM1H0PAUTraceResult@@@Z 10042260 f   engine.obj
 0001:00041270       ?pfnTraceSphere@@YAXPBM0HMPAUedict_s@@PAUTraceResult@@@Z 10042270 f   engine.obj
 0001:00041280       ?pfnTraceTexture@@YAPBDPAUedict_s@@PBM1@Z 10042280 f   engine.obj
 0001:00041290       ?pfnTraceToss@@YAXPAUedict_s@@0PAUTraceResult@@@Z 10042290 f   engine.obj
 0001:000412a0       ?pfnVecToAngles@@YAXPBMPAM@Z 100422a0 f   engine.obj
 0001:000412b0       ?pfnVecToYaw@@YAMPBM@Z     100422b0 f   engine.obj
 0001:000412c0       ?pfnWalkMove@@YAHPAUedict_s@@MMH@Z 100422c0 f   engine.obj
 0001:00041310       ?pfnWriteAngle@@YAXM@Z     10042310 f   engine.obj
 0001:00041400       ?pfnWriteByte@@YAXH@Z      10042400 f   engine.obj
 0001:000414d0       ?pfnWriteChar@@YAXH@Z      100424d0 f   engine.obj
 0001:00041560       ?pfnWriteCoord@@YAXM@Z     10042560 f   engine.obj
 0001:00041650       ?pfnWriteEntity@@YAXH@Z    10042650 f   engine.obj
 0001:00041730       ?pfnWriteLong@@YAXH@Z      10042730 f   engine.obj
 0001:00041800       ?pfnWriteShort@@YAXH@Z     10042800 f   engine.obj
 0001:000418d0       ?pfnWriteString@@YAXPBD@Z  100428d0 f   engine.obj
 0001:00041990       ??$emplace_back@ABQAVIIndividual@@@?$vector@PAVIIndividual@@V?$allocator@PAVIIndividual@@@std@@@std@@QAEXABQAVIIndividual@@@Z 10042990 f i ga.obj
 0001:00041a60       ??0CGA@@QAE@PAVISelection@@@Z 10042a60 f   ga.obj
 0001:00041ac0       ?RCBOpenFile@@YAPAU_iobuf@@PAD0W4eGASaveType@@H@Z 10042ac0 f   ga.obj
 0001:00041b40       ?_Xlength@?$vector@PAVIIndividual@@V?$allocator@PAVIIndividual@@@std@@@std@@CAXXZ 10042b40 f i ga.obj
 0001:00041b50       ?add@CPopulation@@QAEXPAVIIndividual@@@Z 10042b50 f   ga.obj
 0001:00041b60       ?addToPopulation@CGA@@QAEXPAVIIndividual@@@Z 10042b60 f   ga.obj
 0001:00041c00       ?allocate@?$allocator@PAVIIndividual@@@std@@QAEPAPAVIIndividual@@I@Z 10042c00 f i ga.obj
 0001:00041c70       ?averageFitness@CPopulation@@QAEMXZ 10042c70 f   ga.obj
 0001:00041cb0       ?bestFitness@CPopulation@@QAEMXZ 10042cb0 f   ga.obj
 0001:00041db0       ?canPick@CGA@@QAE_NXZ      10042db0 f   ga.obj
 0001:00041dc0       ?clear@CPopulation@@QAEXXZ 10042dc0 f   ga.obj
 0001:00041dd0       ?epoch@CGA@@QAEXXZ         10042dd0 f   ga.obj
 0001:00041ea0       ?freeGlobalMemory@CGA@@QAEXXZ 10042ea0 f   ga.obj
 0001:00041ed0       ?freeLocalMemory@CGA@@QAEXXZ 10042ed0 f   ga.obj
 0001:00041f10       ?freeMemory@CPopulation@@QAEXXZ 10042f10 f   ga.obj
 0001:00041f60       ?get@CPopulation@@QAEPAVIIndividual@@H@Z 10042f60 f   ga.obj
 0001:00041f70       ?getBestIndividual@CPopulation@@QAEPAVIIndividual@@XZ 10042f70 f   ga.obj
 0001:00042030       ?load@CGA@@QAEXPAU_iobuf@@H@Z 10043030 f   ga.obj
 0001:00042060       ?load@CPopulation@@QAEXPAU_iobuf@@HH@Z 10043060 f   ga.obj
 0001:000421c0       ?loadTeam@CGA@@QAEXPADHH@Z 100431c0 f   ga.obj
 0001:00042200       ?pick@CGA@@QAEPAVIIndividual@@XZ 10043200 f   ga.obj
 0001:00042210       ?pick@CPopulation@@QAEPAVIIndividual@@XZ 10043210 f   ga.obj
 0001:00042220       ?save@CGA@@QAEXPAU_iobuf@@@Z 10043220 f   ga.obj
 0001:00042250       ?save@CPopulation@@QAEXPAU_iobuf@@@Z 10043250 f   ga.obj
 0001:000422e0       ?saveTeam@CGA@@QAEXPADH@Z  100432e0 f   ga.obj
 0001:00042320       ?select@CRouletteSelection@@EAEPAVIIndividual@@PAVCPopulation@@@Z 10043320 f   ga.obj
 0001:000423a0       ?totalFitness@CPopulation@@QAEMXZ 100433a0 f   ga.obj
 0001:00042430       ??0CThingToBuild@@QAE@XZ   10043430 f i globals.obj
 0001:000424b0       ??0CThingsToBuild@@QAE@XZ  100434b0 f i globals.obj
 0001:000426c0       ?AddMaster@CMasterEntities@@QAEXPAUedict_s@@PAD@Z 100436c0 f i globals.obj
 0001:00042780       ?AddNewSchedule@CBotTasks@@QAEXW4eScheduleDesc@@PAVCBotTask@@H@Z 10043780 f i globals.obj
 0001:00042830       ?ChoosePointerFromStack@?$dataStack@VCModInfo@@@@QAEPAVCModInfo@@XZ 10043830 f i globals.obj
 0001:00042840       ?FreeGlobalMemory@CBotGlobals@@QAEXXZ 10043840 f   globals.obj
 0001:00042e10       ?FreeLocalMemory@CBotGlobals@@QAEXXZ 10043e10 f   globals.obj
 0001:00043080       ?FreeLocalMemory@CMasterEntities@@QAEXXZ 10044080 f i globals.obj
 0001:00043100       ?FreeStrings@CStoredStrings@@QAEXXZ 10044100 f i globals.obj
 0001:00043180       ?GameInit@CBotGlobals@@AAEXXZ 10044180 f   globals.obj
 0001:00043270       ?GetClientByIndex@CClients@@QAEPAVCClient@@H@Z 10044270 f i globals.obj
 0001:00043290       ?GetModInfo@CBotGlobals@@QAEPBDXZ 10044290 f   globals.obj
 0001:00043370       ?GetModInfo@CModInfos@@QAEPAVCModInfo@@PBD@Z 10044370 f i globals.obj
 0001:000433e0       ?IsAlive@CBot@@QAEHXZ      100443e0 f i globals.obj
 0001:00043410       ?IsMessageName@CBotNetMessage@@QAEHPBD@Z 10044410 f i globals.obj
 0001:00043460       ?KeyValue@CBotGlobals@@QAEXPAUedict_s@@PAUKeyValueData_s@@@Z 10044460 f   globals.obj
 0001:00043f60       ?LoadBotModels@CBotGlobals@@QAEXXZ 10044f60 f   globals.obj
 0001:00044250       ?MapInit@CBotGlobals@@QAEXXZ 10045250 f   globals.obj
 0001:00044750       ?NetMessageStarted@CBotGlobals@@QAEHHHPBMPAUedict_s@@@Z 10045750 f   globals.obj
 0001:00044950       ?ReadBotFolder@CBotGlobals@@QAEXXZ 10045950 f   globals.obj
 0001:00044a50       ?ReadConfig@CBotGlobals@@QAEXXZ 10045a50 f   globals.obj
 0001:00044d60       ?ReadThingsToBuild@CBotGlobals@@QAEXXZ 10045d60 f   globals.obj
 0001:00045210       ?RemoveWeapons@CBotWeapons@@QAEXXZ 10046210 f i globals.obj
 0001:00045230       ?SetupBotChat@CBotGlobals@@QAEXXZ 10046230 f   globals.obj
 0001:00045860       ?StartFrame@CBotGlobals@@QAEXXZ 10046860 f   globals.obj
 0001:00046610       ?TFC_IsAvailableFlag@CBotGlobals@@QAEHPAUedict_s@@HH@Z 10047610 f   globals.obj
 0001:00046650       ?TFC_canGoClass@CBotGlobals@@QAEHHH@Z 10047650 f   globals.obj
 0001:000467c0       ?TFC_getBestClass@CBotGlobals@@QAEHHH@Z 100477c0 f   globals.obj
 0001:00046910       ?TFC_getBestTeam@CBotGlobals@@QAEHH@Z 10047910 f   globals.obj
 0001:00046990       ?TFC_getCaptureLocationForFlag@CBotGlobals@@QAEHPAVVector@@PAUedict_s@@@Z 10047990 f   globals.obj
 0001:00046a60       ?TFC_getClassName@CBotGlobals@@QAEPADH@Z 10047a60 f   globals.obj
 0001:00046a80       ?TFC_getTeamViaColorMap@CBotGlobals@@QAEHPAUedict_s@@@Z 10047a80 f   globals.obj
 0001:00046ae0       ?TFC_playerHasFlag@CBotGlobals@@QAEHPAUedict_s@@@Z 10047ae0 f   globals.obj
 0001:00046b30       ?Update@CStructure@@QAEXXZ 10047b30 f i globals.obj
 0001:00046b90       ?UpdateAngles@CBotSquads@@QAEXXZ 10047b90 f i globals.obj
 0001:00046c90       ?addBackpack@CTFCBackpacks@@QAEPAVCTFCBackpack@@V2@@Z 10047c90 f i globals.obj
 0001:00046ce0       ?addCapturePoint@CTFCCapturePoints@@QAEPAVCTFCGoal@@PAUedict_s@@@Z 10047ce0 f i globals.obj
 0001:00046d30       ?addFlag@CTFCFlags@@QAEPAVCTFCGoal@@PAUedict_s@@@Z 10047d30 f i globals.obj
 0001:00046d80       ?getRandomHeldFlagByTeam@CTFCFlags@@QAEPAUedict_s@@H@Z 10047d80 f i globals.obj
 0001:00046dd0       ?init@CBotStatedNetMessage@@QAEXH@Z 10047dd0 f i globals.obj
 0001:00046e10       ?isFlag@CTFCFlags@@QAEHPAUedict_s@@HH@Z 10047e10 f i globals.obj
 0001:00046e80       ?loadLearnedData@CBotGlobals@@QAEXXZ 10047e80 f   globals.obj
 0001:000470a0       ?randomHeldFlagOnTeam@CBotGlobals@@QAEPAUedict_s@@H@Z 100480a0 f   globals.obj
 0001:000470b0       ?saveLearnedData@CBotGlobals@@QAEXXZ 100480b0 f   globals.obj
 0001:00047270       ?BotChatReply@@YAXPAVCBot@@PADPAUedict_s@@1@Z 10048270 f   megahal.obj
 0001:000474c0       ?BotHALAddAuxiliaryKeyword@@YAXPAVCBot@@PAUHAL_DICTIONARY@@UHAL_STRING@@@Z 100484c0 f   megahal.obj
 0001:00047540       ?BotHALAddKeyword@@YAXPAVCBot@@PAUHAL_DICTIONARY@@UHAL_STRING@@@Z 10048540 f   megahal.obj
 0001:000475e0       ?BotHALBabble@@YAHPAVCBot@@PAUHAL_DICTIONARY@@1@Z 100485e0 f   megahal.obj
 0001:00047750       ?BotHALBuildReplyDictionary@@YAPAUHAL_DICTIONARY@@PAVCBot@@PAU1@@Z 10048750 f   megahal.obj
 0001:00047a20       ?BotHALGenerateReply@@YAXPAVCBot@@PAD@Z 10048a20 f   megahal.obj
 0001:00047d00       ?BotHALMakeKeywords@@YAPAUHAL_DICTIONARY@@PAVCBot@@PAU1@@Z 10048d00 f   megahal.obj
 0001:00047f10       ?BotHALSeedReply@@YAHPAVCBot@@PAUHAL_DICTIONARY@@@Z 10048f10 f   megahal.obj
 0001:00048010       ?FillStringArea@@YAXPADH0HHH@Z 10049010 f   megahal.obj
 0001:000480a0       ?FreeHALBrain@@YAXPAUbot_profile_s@@@Z 100490a0 f   megahal.obj
 0001:000481a0       ?HAL_AddNode@@YAXPAUHAL_NODE@@0H@Z 100491a0 f   megahal.obj
 0001:00048220       ?HAL_AddSwap@@YAXPAUHAL_SWAP@@PAD1@Z 10049220 f   megahal.obj
 0001:00048340       ?HAL_AddSymbol@@YAPAUHAL_NODE@@PAU1@G@Z 10049340 f   megahal.obj
 0001:00048370       ?HAL_AddWord@@YAGPAUHAL_DICTIONARY@@UHAL_STRING@@@Z 10049370 f   megahal.obj
 0001:000484c0       ?HAL_BoundaryExists@@YAHPADH@Z 100494c0 f   megahal.obj
 0001:000485d0       ?HAL_CompareWords@@YAHUHAL_STRING@@0@Z 100495d0 f   megahal.obj
 0001:00048670       ?HAL_DictionariesDiffer@@YAHPAUHAL_DICTIONARY@@0@Z 10049670 f   megahal.obj
 0001:000486d0       ?HAL_EmptyDictionary@@YAXPAUHAL_DICTIONARY@@@Z 100496d0 f   megahal.obj
 0001:00048720       ?HAL_FindSymbol@@YAPAUHAL_NODE@@PAU1@H@Z 10049720 f   megahal.obj
 0001:00048760       ?HAL_FindSymbolAdd@@YAPAUHAL_NODE@@PAU1@H@Z 10049760 f   megahal.obj
 0001:000487c0       ?HAL_FindWord@@YAGPAUHAL_DICTIONARY@@UHAL_STRING@@@Z 100497c0 f   megahal.obj
 0001:00048800       ?HAL_FreeModel@@YAXPAUHAL_MODEL@@@Z 10049800 f   megahal.obj
 0001:00048880       ?HAL_FreeSwap@@YAXPAUHAL_SWAP@@@Z 10049880 f   megahal.obj
 0001:00048930       ?HAL_FreeTree@@YAXPAUHAL_NODE@@@Z 10049930 f   megahal.obj
 0001:00048990       ?HAL_InitializeContext@@YAXPAUHAL_MODEL@@@Z 10049990 f   megahal.obj
 0001:000489c0       ?HAL_InitializeDictionary@@YAXPAUHAL_DICTIONARY@@@Z 100499c0 f   megahal.obj
 0001:00048a00       ?HAL_InitializeList@@YAPAUHAL_DICTIONARY@@PAD@Z 10049a00 f   megahal.obj
 0001:00048b00       ?HAL_InitializeSwap@@YAPAUHAL_SWAP@@PAD@Z 10049b00 f   megahal.obj
 0001:00048bd0       ?HAL_Learn@@YAXPAUHAL_MODEL@@PAUHAL_DICTIONARY@@@Z 10049bd0 f   megahal.obj
 0001:00048c80       ?HAL_LoadDictionary@@YAXPAU_iobuf@@PAUHAL_DICTIONARY@@@Z 10049c80 f   megahal.obj
 0001:00048d40       ?HAL_LoadTree@@YAXPAU_iobuf@@PAUHAL_NODE@@@Z 10049d40 f   megahal.obj
 0001:00048df0       ?HAL_MakeWords@@YAXPADPAUHAL_DICTIONARY@@@Z 10049df0 f   megahal.obj
 0001:00048ea0       ?HAL_NewDictionary@@YAPAUHAL_DICTIONARY@@XZ 10049ea0 f   megahal.obj
 0001:00048ee0       ?HAL_NewModel@@YAPAUHAL_MODEL@@H@Z 10049ee0 f   megahal.obj
 0001:00048f60       ?HAL_NewNode@@YAPAUHAL_NODE@@XZ 10049f60 f   megahal.obj
 0001:00048fa0       ?HAL_NewSwap@@YAPAUHAL_SWAP@@XZ 10049fa0 f   megahal.obj
 0001:00048fd0       ?HAL_SaveDictionary@@YAXPAU_iobuf@@PAUHAL_DICTIONARY@@@Z 10049fd0 f   megahal.obj
 0001:00049050       ?HAL_SaveTree@@YAXPAU_iobuf@@PAUHAL_NODE@@@Z 1004a050 f   megahal.obj
 0001:000490c0       ?HAL_SearchDictionary@@YAHPAUHAL_DICTIONARY@@UHAL_STRING@@PAH@Z 1004a0c0 f   megahal.obj
 0001:00049180       ?HAL_SearchNode@@YAHPAUHAL_NODE@@HPAH@Z 1004a180 f   megahal.obj
 0001:00049220       ?HAL_UpdateContext@@YAXPAUHAL_MODEL@@H@Z 1004a220 f   megahal.obj
 0001:00049260       ?HAL_UpdateModel@@YAXPAUHAL_MODEL@@H@Z 1004a260 f   megahal.obj
 0001:000492a0       ?HAL_WordExists@@YAHPAUHAL_DICTIONARY@@UHAL_STRING@@@Z 1004a2a0 f   megahal.obj
 0001:000492f0       ?HumanizeString@@YAXPAD@Z  1004a2f0 f   megahal.obj
 0001:00049440       ?LoadHALBrainForPersonality@@YAHPAUbot_profile_s@@H@Z 1004a440 f   megahal.obj
 0001:00049730       ?PrepareHALBrainForPersonality@@YAHPAUbot_profile_s@@@Z 1004a730 f   megahal.obj
 0001:00049ab0       ?RemoveNameTags@@YAXPBDPAD@Z 1004aab0 f   megahal.obj
 0001:00049c70       ?SaveHALBrainForPersonality@@YAXPAUbot_profile_s@@@Z 1004ac70 f   megahal.obj
 0001:00049d60       ?strpos@@YAHPAD0@Z         1004ad60 f   megahal.obj
 0001:00049d70       ??0CBotNetMessage@@QAE@PBDHH@Z 1004ad70 f   netmessages.obj
 0001:00049db0       ?ChooseFromStack@?$dataStack@PAVCBotNetMessage@@@@QAEPAVCBotNetMessage@@XZ 1004adb0 f i netmessages.obj
 0001:00049dc0       ?GetMessageA@CBotNetMessages@@QAEPAVCBotNetMessage@@HPBD@Z 1004adc0 f   netmessages.obj
 0001:00049e60       ?IsMessage@CBotNetMessage@@QAEHH@Z 1004ae60 f   netmessages.obj
 0001:00049ea0       ?execute@CBotNetMessages@@QAEXHPAXH@Z 1004aea0 f   netmessages.obj
 0001:00049ed0       ?setName@CBotNetMessage@@QAEXPAD@Z 1004aed0 f   netmessages.obj
 0001:00049ef0       ??0CPerceptron@@QAE@IPAVITransfer@@M@Z 1004aef0 f   perceptron.obj
 0001:0004a040       ?execute@CPerceptron@@QAEMXZ 1004b040 f   perceptron.obj
 0001:0004a0b0       ?fired@CPerceptron@@QAEHXZ 1004b0b0 f   perceptron.obj
 0001:0004a0d0       ?getOutput@CPerceptron@@QAEMXZ 1004b0d0 f   perceptron.obj
 0001:0004a0e0       ?input@CPerceptron@@QAEXPAV?$vector@MV?$allocator@M@std@@@std@@@Z 1004b0e0 f   perceptron.obj
 0001:0004a130       ?load@CPerceptron@@QAEXPADH@Z 1004b130 f   perceptron.obj
 0001:0004a170       ?load@CPerceptron@@QAEXPAU_iobuf@@@Z 1004b170 f   perceptron.obj
 0001:0004a2f0       ?randomize@CPerceptron@@QAEXXZ 1004b2f0 f   perceptron.obj
 0001:0004a350       ?save@CPerceptron@@QAEXPADH@Z 1004b350 f   perceptron.obj
 0001:0004a390       ?save@CPerceptron@@QAEXPAU_iobuf@@@Z 1004b390 f   perceptron.obj
 0001:0004a4a0       ?setWeights@CPerceptron@@QAEXPAVCBotGAValues@@HH@Z 1004b4a0 f   perceptron.obj
 0001:0004a4f0       ?setWeights@CPerceptron@@QAEXV?$vector@MV?$allocator@M@std@@@std@@@Z 1004b4f0 f   perceptron.obj
 0001:0004a5c0       ?setWeights@CPerceptron@@QAEXV?$vector@MV?$allocator@M@std@@@std@@HH@Z 1004b5c0 f   perceptron.obj
 0001:0004a690       ?train@CPerceptron@@QAEXM@Z 1004b690 f   perceptron.obj
 0001:0004a710       ?transfer@CSigmoidTransfer@@UAEMM@Z 1004b710 f   perceptron.obj
 0001:0004a750       _GetEngineFunctions        1004b750 f   rcbot_meta_api.obj
 0001:0004ac10       ?AddMod@CModInfos@@QAEXPBD0H@Z 1004bc10 f i rcbot_meta_api.obj
 0001:0004acb0       ?Init@CBotGlobals@@QAEXXZ  1004bcb0 f i rcbot_meta_api.obj
 0001:0004ae20       ?setDefaults@CBotGlobals@@QAEXXZ 1004be20 f i rcbot_meta_api.obj
 0001:0004b060       _DllMain@12                1004c060 f   rcbot_meta_api.obj
 0001:0004b080       _GiveFnptrsToDll@8         1004c080 f   rcbot_meta_api.obj
 0001:0004b0c0       _Meta_Attach               1004c0c0 f   rcbot_meta_api.obj
 0001:0004b1a0       _Meta_Detach               1004c1a0 f   rcbot_meta_api.obj
 0001:0004b200       _Meta_Query                1004c200 f   rcbot_meta_api.obj
 0001:0004b370       ??$emplace_back@PAVCSomNeuron@@@?$vector@PAVCSomNeuron@@V?$allocator@PAVCSomNeuron@@@std@@@std@@QAEX$$QAPAVCSomNeuron@@@Z 1004c370 f i som.obj
 0001:0004b440       ??0CSom@@QAE@HHH@Z         1004c440 f   som.obj
 0001:0004b530       ??0CSomNeuron@@QAE@HHH@Z   1004c530 f   som.obj
 0001:0004b5f0       ??0CSomNeuron@@QAE@XZ      1004c5f0 f   som.obj
 0001:0004b620       ??1?$vector@PAVCSomNeuron@@V?$allocator@PAVCSomNeuron@@@std@@@std@@QAE@XZ 1004c620 f i som.obj
 0001:0004b650       ??1CSom@@QAE@XZ            1004c650 f   som.obj
 0001:0004b690       ??1CSomNeuron@@QAE@XZ      1004c690 f   som.obj
 0001:0004b6d0       ?_Xlength@?$vector@PAVCSomNeuron@@V?$allocator@PAVCSomNeuron@@@std@@@std@@CAXXZ 1004c6d0 f i som.obj
 0001:0004b6e0       ?allocate@?$allocator@PAVCSomNeuron@@@std@@QAEPAPAVCSomNeuron@@I@Z 1004c6e0 f i som.obj
 0001:0004b750       ?deallocate@?$_Wrap_alloc@V?$allocator@PAVCSomNeuron@@@std@@@std@@QAEXPAPAVCSomNeuron@@I@Z 1004c750 f i som.obj
 0001:0004b7b0       ?display@CSom@@QAEXXZ      1004c7b0 f   som.obj
 0001:0004b7e0       ?displayWeights@CSomNeuron@@QAEXXZ 1004c7e0 f   som.obj
 0001:0004b830       ?distance@CSomNeuron@@QAEMPAV?$vector@MV?$allocator@M@std@@@std@@@Z 1004c830 f   som.obj
 0001:0004b920       ?getBMU@CSom@@QAEPAVCSomNeuron@@PAV?$vector@MV?$allocator@M@std@@@std@@@Z 1004c920 f   som.obj
 0001:0004b990       ?input@CSom@@QAEPAVCSomNeuron@@PAV?$vector@V?$vector@MV?$allocator@M@std@@@std@@V?$allocator@V?$vector@MV?$allocator@M@std@@@std@@@2@@std@@@Z 1004c990 f   som.obj
 0001:0004b9e0       ?inputOne@CSom@@QAEPAVCSomNeuron@@PAV?$vector@MV?$allocator@M@std@@@std@@@Z 1004c9e0 f   som.obj
 0001:0004ba40       ?neighbourDistance@CSomNeuron@@QAEMPAV1@M@Z 1004ca40 f   som.obj
 0001:0004ba80       ?update@CSomNeuron@@QAEXPAV?$vector@MV?$allocator@M@std@@@std@@M@Z 1004ca80 f   som.obj
 0001:0004bae0       ?updateAround@CSom@@QAEXPAV?$vector@MV?$allocator@M@std@@@std@@PAVCSomNeuron@@@Z 1004cae0 f   som.obj
 0001:0004bb70       ?weights@CSomNeuron@@QAEPAV?$vector@MV?$allocator@M@std@@@std@@XZ 1004cb70 f   som.obj
 0001:0004bb80       ?AbsOrigin@@YA?AVVector@@PAUedict_s@@@Z 1004cb80 f   util.obj
 0001:0004bbe0       ?BotFunc_FInViewCone@@YAHPAVVector@@PAUedict_s@@@Z 1004cbe0 f   util.obj
 0001:0004bca0       ?BotFunc_FVisible@@YAHABVVector@@PAUedict_s@@@Z 1004cca0 f   util.obj
 0001:0004bd60       ?BotFunc_KickBotFromTeam@@YAXH@Z 1004cd60 f   util.obj
 0001:0004bea0       ?Ceiling@@YAHM@Z           1004cea0 f   util.obj
 0001:0004bed0       ?ClientPrint@@YAXPAUedict_s@@HPBD@Z 1004ced0 f   util.obj
 0001:0004bf20       ?CreateEnt@@YAPAVCBaseEntity@@PADABVVector@@1PAUedict_s@@@Z 1004cf20 f   util.obj
 0001:0004bfc0       ?EntityOrigin@@YA?AVVector@@PAUedict_s@@@Z 1004cfc0 f   util.obj
 0001:0004c0a0       ?ExplosionCreate@@YAXABVVector@@0PAUedict_s@@HH@Z 1004d0a0 f   util.obj
 0001:0004c190       ?FixedSigned16@@YAFMM@Z    1004d190 f   util.obj
 0001:0004c1c0       ?FixedUnsigned16@@YAGMM@Z  1004d1c0 f   util.obj
 0001:0004c1f0       ?GetGunPosition@@YA?AVVector@@PAUedict_s@@@Z 1004d1f0 f   util.obj
 0001:0004c240       ?GetMessageID@@YAHPBD@Z    1004d240 f   util.obj
 0001:0004c260       ?InitMessage@HudText@@QAEXPBD@Z 1004d260 f   util.obj
 0001:0004c2c0       ?Initialise@HudText@@QAEXXZ 1004d2c0 f   util.obj
 0001:0004c310       ?NS_GetPlayerLevel@@YAHH@Z 1004d310 f   util.obj
 0001:0004c3b0       ?RadiusDamage@@YAXVVector@@PAUentvars_s@@1MMHH@Z 1004d3b0 f   util.obj
 0001:0004c650       ?RoundToNearestInteger@@YAHM@Z 1004d650 f   util.obj
 0001:0004c680       ?SayMessage@HudText@@QAEXPBDPAUedict_s@@@Z 1004d680 f   util.obj
 0001:0004c6c0       ?SayMessage@HudText@@QAEXPBDVVector@@1PAUedict_s@@@Z 1004d6c0 f   util.obj
 0001:0004c710       ?UTIL_AcceptablePushableVector@@YAHPAUedict_s@@VVector@@@Z 1004d710 f   util.obj
 0001:0004c770       ?UTIL_AngleBetweenOrigin@@YA?AVVector@@PAUentvars_s@@V1@@Z 1004d770 f   util.obj
 0001:0004c860       ?UTIL_AngleBetweenVectors@@YAMVVector@@0@Z 1004d860 f   util.obj
 0001:0004c940       ?UTIL_AngleDiff@@YAMMM@Z   1004d940 f   util.obj
 0001:0004c9a0       ?UTIL_AnglesBetweenEdictOrigin@@YAMPAUedict_s@@VVector@@@Z 1004d9a0 f   util.obj
 0001:0004cad0       ?UTIL_BotHudMessage@@YAXPAUedict_s@@ABUhudtextparms_s@@PBD@Z 1004dad0 f   util.obj
 0001:0004ccd0       ?UTIL_BotHudMessageAll@@YAXABUhudtextparms_s@@PBD@Z 1004dcd0 f   util.obj
 0001:0004cd20       ?UTIL_BotScreenShake@@YAXABVVector@@MMMM@Z 1004dd20 f   util.obj
 0001:0004ce90       ?UTIL_BotToolTip@@YAXPAUedict_s@@W4eLanguage@@W4eToolTip@@@Z 1004de90 f   util.obj
 0001:0004d050       ?UTIL_BuildFileName@@YAXPAD00@Z 1004e050 f   util.obj
 0001:0004d140       ?UTIL_CanBuildHive@@YAHPAUentvars_s@@@Z 1004e140 f   util.obj
 0001:0004d170       ?UTIL_CanEvolveInto@@YAHH@Z 1004e170 f   util.obj
 0001:0004d1c0       ?UTIL_CanStand@@YAHVVector@@PAV1@@Z 1004e1c0 f   util.obj
 0001:0004d2b0       ?UTIL_CheckTeleEntrance@@YAPAUedict_s@@VVector@@PAU1@1@Z 1004e2b0 f   util.obj
 0001:0004d3c0       ?UTIL_CheckTeleExit@@YAPAUedict_s@@VVector@@PAU1@1@Z 1004e3c0 f   util.obj
 0001:0004d520       ?UTIL_ClassOnTeam@@YAHHH@Z 1004e520 f   util.obj
 0001:0004d5b0       ?UTIL_CountBuildingsInRange@@YAXVVector@@MPAH111@Z 1004e5b0 f   util.obj
 0001:0004d640       ?UTIL_CountBuiltEntities@@YAHPAD@Z 1004e640 f   util.obj
 0001:0004d690       ?UTIL_CountEntities@@YAHPAD@Z 1004e690 f   util.obj
 0001:0004d6c0       ?UTIL_CountEntitiesInRange@@YAHPADVVector@@M@Z 1004e6c0 f   util.obj
 0001:0004d760       ?UTIL_EntityAnglesToVector2D@@YAMPAUentvars_s@@PBVVector@@@Z 1004e760 f   util.obj
 0001:0004d840       ?UTIL_EntityAnglesToVector3D@@YAMPAUentvars_s@@PBVVector@@@Z 1004e840 f   util.obj
 0001:0004d950       ?UTIL_EntityDistance2D@@YAMPAUentvars_s@@VVector@@@Z 1004e950 f   util.obj
 0001:0004d9a0       ?UTIL_EntityDistance@@YAMPAUentvars_s@@VVector@@@Z 1004e9a0 f   util.obj
 0001:0004da00       ?UTIL_EntityHasClassname@@YAHPAUedict_s@@PAD@Z 1004ea00 f   util.obj
 0001:0004da60       ?UTIL_EntityIsHive@@YAHPAUedict_s@@@Z 1004ea60 f   util.obj
 0001:0004da80       ?UTIL_FacingEnt@@YAPAUedict_s@@PAU1@H@Z 1004ea80 f   util.obj
 0001:0004db60       ?UTIL_FindEntityByClassname@@YAPAUedict_s@@PAU1@PBD@Z 1004eb60 f   util.obj
 0001:0004db80       ?UTIL_FindEntityByString@@YAPAUedict_s@@PAU1@PBD1@Z 1004eb80 f   util.obj
 0001:0004dbc0       ?UTIL_FindEntityByTarget@@YAPAUedict_s@@PAU1@PBD@Z 1004ebc0 f   util.obj
 0001:0004dbe0       ?UTIL_FindEntityByTargetname@@YAPAUedict_s@@PAU1@PBD@Z 1004ebe0 f   util.obj
 0001:0004dc00       ?UTIL_FindEntityInSphere@@YAPAUedict_s@@PAU1@ABVVector@@M@Z 1004ec00 f   util.obj
 0001:0004dc40       ?UTIL_FindNearestEntity@@YAPAUedict_s@@PAPADHVVector@@MHPAU1@@Z 1004ec40 f   util.obj
 0001:0004dd80       ?UTIL_FindPlayerByTruncName@@YAPAUedict_s@@PBD@Z 1004ed80 f   util.obj
 0001:0004de90       ?UTIL_FindRandomUnusedFuncResource@@YAPAUedict_s@@PAVCBot@@@Z 1004ee90 f   util.obj
 0001:0004df70       ?UTIL_FixAngles@@YAXPAVVector@@@Z 1004ef70 f   util.obj
 0001:0004dfa0       ?UTIL_FixFloatAngle@@YAXPAM@Z 1004efa0 f   util.obj
 0001:0004e040       ?UTIL_FuncResourceIsOccupied@@YAHPAUedict_s@@@Z 1004f040 f   util.obj
 0001:0004e180       ?UTIL_FurthestVectorAroundYaw@@YA?AVVector@@PAVCBot@@@Z 1004f180 f   util.obj
 0001:0004e5c0       ?UTIL_GetArgFromString@@YAXPAPADPAD@Z 1004f5c0 f   util.obj
 0001:0004e610       ?UTIL_GetArgsFromString@@YAXPAD0000@Z 1004f610 f   util.obj
 0001:0004e650       ?UTIL_GetAvoidAngle@@YAMPAUedict_s@@VVector@@@Z 1004f650 f   util.obj
 0001:0004e7a0       ?UTIL_GetBestPushableDistance@@YAMPAUedict_s@@@Z 1004f7a0 f   util.obj
 0001:0004e7c0       ?UTIL_GetBotIndex@@YAHPBUedict_s@@@Z 1004f7c0 f   util.obj
 0001:0004e810       ?UTIL_GetBotPointer@@YAPAVCBot@@PBUedict_s@@@Z 1004f810 f   util.obj
 0001:0004e850       ?UTIL_GetBuildWaypoint@@YAHVVector@@PAV?$dataStack@H@@@Z 1004f850 f   util.obj
 0001:0004ea00       ?UTIL_GetClass@@YAHPAUedict_s@@@Z 1004fa00 f   util.obj
 0001:0004ea50       ?UTIL_GetDesiredPushableVector@@YA?AVVector@@V1@PAUedict_s@@@Z 1004fa50 f   util.obj
 0001:0004eb80       ?UTIL_GetGroundVector@@YA?AVVector@@PAUedict_s@@@Z 1004fb80 f   util.obj
 0001:0004ec10       ?UTIL_GetNumClients@@YAHH@Z 1004fc10 f   util.obj
 0001:0004ec90       ?UTIL_GetNumHives@@YAHXZ   1004fc90 f   util.obj
 0001:0004ece0       ?UTIL_GetPlayerByPlayerId@@YAPAUedict_s@@H@Z 1004fce0 f   util.obj
 0001:0004ed30       ?UTIL_GetPlayerEnergy@@YAMPAUentvars_s@@@Z 1004fd30 f   util.obj
 0001:0004ed60       ?UTIL_GetRandomUnbuiltHive@@YAPAUedict_s@@XZ 1004fd60 f   util.obj
 0001:0004ee40       ?UTIL_GetTeam@@YAHPAUedict_s@@@Z 1004fe40 f   util.obj
 0001:0004ef90       ?UTIL_HostSay@@YAXPAUedict_s@@HPAD@Z 1004ff90 f   util.obj
 0001:0004f1a0       ?UTIL_IsButton@@YAHPAUedict_s@@@Z 100501a0 f   util.obj
 0001:0004f1e0       ?UTIL_IsFacingEntity@@YAHPAUentvars_s@@0@Z 100501e0 f   util.obj
 0001:0004f2e0       ?UTIL_IsGrenadeRocket@@YAHPAUedict_s@@@Z 100502e0 f   util.obj
 0001:0004f330       ?UTIL_IsResourceFountainUsed@@YAHPAUedict_s@@@Z 10050330 f   util.obj
 0001:0004f3b0       ?UTIL_LengthFromVector@@YA?AVVector@@V1@M@Z 100503b0 f   util.obj
 0001:0004f430       ?UTIL_LogPrintf@@YAXPADZZ  10050430 f   util.obj
 0001:0004f470       ?UTIL_MakeVectors@@YAXABVVector@@@Z 10050470 f   util.obj
 0001:0004f480       ?UTIL_NS_GetMaxArmour@@YAHPAUedict_s@@@Z 10050480 f   util.obj
 0001:0004f4c0       ?UTIL_OnGround@@YAHPAUentvars_s@@@Z 100504c0 f   util.obj
 0001:0004f4f0       ?UTIL_PlaySound@@YAXPAUedict_s@@PBD@Z 100504f0 f   util.obj
 0001:0004f550       ?UTIL_PlaySoundToAll@@YAXPBD@Z 10050550 f   util.obj
 0001:0004f5d0       ?UTIL_PlayerStandingOnEntity@@YAHPAUedict_s@@H0@Z 100505d0 f   util.obj
 0001:0004f660       ?UTIL_PlayersOnTeam@@YAHH@Z 10050660 f   util.obj
 0001:0004f6e0       ?UTIL_PointContents@@YAHABVVector@@@Z 100506e0 f   util.obj
 0001:0004f6f0       ?UTIL_SayText@@YAXPBDPAUedict_s@@@Z 100506f0 f   util.obj
 0001:0004f740       ?UTIL_SelectItem@@YAXPAUedict_s@@PAD@Z 10050740 f   util.obj
 0001:0004f750       ?UTIL_SentryLevel@@YAHPAUedict_s@@@Z 10050750 f   util.obj
 0001:0004f7a0       ?UTIL_SetOrigin@@YAXPAUentvars_s@@ABVVector@@@Z 100507a0 f   util.obj
 0001:0004f7c0       ?UTIL_SetSize@@YAXPAUentvars_s@@ABVVector@@1@Z 100507c0 f   util.obj
 0001:0004f7e0       ?UTIL_ShowMenu@@YAXPAUedict_s@@HHHPAD@Z 100507e0 f   util.obj
 0001:0004f840       ?UTIL_SpeciesOnTeam@@YAHHH@Z 10050840 f   util.obj
 0001:0004f8c0       ?UTIL_TFC_PlayerHasFlag@@YAPAUedict_s@@PAU1@@Z 100508c0 f   util.obj
 0001:0004f900       ?UTIL_TFC_getMaxArmor@@YAHPAUedict_s@@@Z 10050900 f   util.obj
 0001:0004f970       ?UTIL_TankUsed@@YAHPAUedict_s@@@Z 10050970 f   util.obj
 0001:0004f9a0       ?UTIL_TraceLine@@YAXABVVector@@0W4IGNORE_MONSTERS@@PAUedict_s@@PAUTraceResult@@@Z 100509a0 f   util.obj
 0001:0004f9c0       ?UTIL_TraceLine@@YAXABVVector@@0W4IGNORE_MONSTERS@@W4IGNORE_GLASS@@PAUedict_s@@PAUTraceResult@@@Z 100509c0 f   util.obj
 0001:0004fa00       ?UTIL_UpdateSounds@@YAPAUedict_s@@PAUentvars_s@@@Z 10050a00 f   util.obj
 0001:0004fc40       ?UTIL_VecToAngles@@YA?AVVector@@ABV1@@Z 10050c40 f   util.obj
 0001:0004fca0       ?UTIL_YawAngleBetweenOrigin@@YAMPAUentvars_s@@VVector@@@Z 10050ca0 f   util.obj
 0001:0004fd40       ?UTIL_getEntityInFront@@YAPAUedict_s@@PAU1@@Z 10050d40 f   util.obj
 0001:0004fe40       ?UTIL_makeTSweapon@@YAHPAUedict_s@@W4eTSWeaponID@@@Z 10050e40 f   util.obj
 0001:0004ffc0       ?strhigh@@YAXPAD@Z         10050fc0 f   util.obj
 0001:00050000       ?strlow@@YAXPAD@Z          10051000 f   util.obj
 0001:00050040       ??0WAYPOINT@@QAE@XZ        10051040 f i waypoint.obj
 0001:00050050       ??AWAYPOINTS@@QAEAAVWAYPOINT@@H@Z 10051050 f   waypoint.obj
 0001:00050080       ?AddWptLocation@CWaypointLocations@@QAEXHPBM@Z 10051080 f   waypoint.obj
 0001:00050140       ?Clear@CWaypointLocations@@QAEXXZ 10051140 f i waypoint.obj
 0001:000501b0       ?DeleteWptLocation@CWaypointLocations@@QAEXHPBM@Z 100511b0 f   waypoint.obj
 0001:00050250       ?DrawWaypoints@CWaypointLocations@@QAEXPAUedict_s@@AAVVector@@M@Z 10051250 f   waypoint.obj
 0001:000503f0       ?FillNearbyWaypoints@CWaypointLocations@@QAEXABVVector@@PAV?$dataStack@H@@1@Z 100513f0 f   waypoint.obj
 0001:000504a0       ?FillWaypointsInBucket@CWaypointLocations@@QAEXHHHABVVector@@PAV?$dataStack@H@@1@Z 100514a0 f   waypoint.obj
 0001:00050510       ?FindNearestCoverWaypointInBucket@CWaypointLocations@@QAEXHHHABVVector@@PAMPAHPAV?$dataStack@H@@H@Z 10051510 f   waypoint.obj
 0001:00050670       ?FindNearestInBucket@CWaypointLocations@@QAEXHHHABVVector@@PAMPAHHHHHPAV?$dataStack@H@@H@Z 10051670 f   waypoint.obj
 0001:00050820       ?GetCoverWaypoint@CWaypointLocations@@QAEHVVector@@0PAV?$dataStack@H@@@Z 10051820 f   waypoint.obj
 0001:00050920       ?NearestWaypoint@CWaypointLocations@@QAEHABVVector@@MHHHHPAV?$dataStack@H@@H@Z 10051920 f   waypoint.obj
 0001:00050a00       ?NearestWaypointToEdict@@YAHPAUedict_s@@HPAV?$dataStack@H@@@Z 10051a00 f   waypoint.obj
 0001:00050a40       ?NearestWaypointToOrigin@@YAHABVVector@@HPAV?$dataStack@H@@@Z 10051a40 f   waypoint.obj
 0001:00050a70       ?PlayerNearVector@@YAPAUedict_s@@VVector@@M@Z 10051a70 f   waypoint.obj
 0001:00050b50       ?ReadFromFile@CWaypointVisibilityTable@@QAEHXZ 10051b50 f   waypoint.obj
 0001:00050ca0       ?SaveToFile@CWaypointVisibilityTable@@QAEHXZ 10051ca0 f   waypoint.obj
 0001:00050da0       ?WaypointAdd@@YAXPAVCClient@@@Z 10051da0 f   waypoint.obj
 0001:00050df0       ?WaypointAddAiming@@YAXPAUedict_s@@@Z 10051df0 f   waypoint.obj
 0001:00050f10       ?WaypointAddOrigin@@YAHVVector@@HPAUedict_s@@HHH@Z 10051f10 f   waypoint.obj
 0001:000513c0       ?WaypointAddPath@@YAXFF@Z  100523c0 f   waypoint.obj
 0001:00051460       ?WaypointCreatePath@@YAXPAVCClient@@H@Z 10052460 f   waypoint.obj
 0001:00051580       ?WaypointDebug@@YAXXZ      10052580 f   waypoint.obj
 0001:000515b0       ?WaypointDelete@@YAXPAVCClient@@@Z 100525b0 f   waypoint.obj
 0001:000516b0       ?WaypointDeletePath@@YAXF@Z 100526b0 f   waypoint.obj
 0001:00051710       ?WaypointDeletePath@@YAXFF@Z 10052710 f   waypoint.obj
 0001:00051750       ?WaypointDistance@@YAMABVVector@@H@Z 10052750 f   waypoint.obj
 0001:000517d0       ?WaypointDrawBeam@@YAXPAUedict_s@@VVector@@1HHHHHHH@Z 100527d0 f   waypoint.obj
 0001:000518c0       ?WaypointDrawIndex@@YAXPAUedict_s@@H@Z 100528c0 f   waypoint.obj
 0001:00051dc0       ?WaypointFindNearest@@YAHPAUedict_s@@MH@Z 10052dc0 f   waypoint.obj
 0001:00051f80       ?WaypointFindNearest@@YAHVVector@@PAUedict_s@@MH@Z 10052f80 f   waypoint.obj
 0001:000520e0       ?WaypointFindNearestAiming@@YAHVVector@@@Z 100530e0 f   waypoint.obj
 0001:000521c0       ?WaypointFindNearestGoal@@YAHVVector@@PAUedict_s@@MHHPAV?$dataStack@H@@@Z 100531c0 f   waypoint.obj
 0001:00052300       ?WaypointFindPath@@YAHPAPAUpath@@PAHHH@Z 10053300 f   waypoint.obj
 0001:000523c0       ?WaypointFindRandomGoal@@YAHPAUedict_s@@HHPAV?$dataStack@H@@@Z 100533c0 f   waypoint.obj
 0001:000524d0       ?WaypointFindRandomGoal@@YAHPAUedict_s@@HPAV?$dataStack@H@@@Z 100534d0 f   waypoint.obj
 0001:000525d0       ?WaypointFindRandomGoal@@YAHVVector@@PAUedict_s@@MHHPAV?$dataStack@H@@@Z 100535d0 f   waypoint.obj
 0001:00052740       ?WaypointFindReachable@@YAHPAUedict_s@@MH@Z 10053740 f   waypoint.obj
 0001:00052940       ?WaypointFlags@@YAHH@Z     10053940 f   waypoint.obj
 0001:00052960       ?WaypointFlagsOnLadderOrFly@@YAHH@Z 10053960 f   waypoint.obj
 0001:00052980       ?WaypointFree@@YAXXZ       10053980 f   waypoint.obj
 0001:000529c0       ?WaypointInit@@YAXXZ       100539c0 f   waypoint.obj
 0001:00052a70       ?WaypointLoad@@YAHPAUedict_s@@@Z 10053a70 f   waypoint.obj
 0001:00052f90       ?WaypointOrigin@@YA?AVVector@@H@Z 10053f90 f   waypoint.obj
 0001:00052ff0       ?WaypointPrintInfo@@YAXPAUedict_s@@@Z 10053ff0 f   waypoint.obj
 0001:00053390       ?WaypointReachable@@YAHVVector@@0H@Z 10054390 f   waypoint.obj
 0001:00053780       ?WaypointRemovePath@@YAXPAVCClient@@H@Z 10054780 f   waypoint.obj
 0001:00053860       ?WaypointSave@@YAHHPAVCWaypointConversion@@@Z 10054860 f   waypoint.obj
 0001:00053b60       ?WorkOutVisibilityTable@CWaypointVisibilityTable@@QAEXH@Z 10054b60 f   waypoint.obj
 0001:00053cd0       ?convert@CWaypointConversion@@QAE?AVWAYPOINT@@PAV2@@Z 10054cd0 f i waypoint.obj
 0001:00053d70       ?getMaxMins@CWaypointLocations@@QAEXVVector@@AAH11111@Z 10054d70 f   waypoint.obj
 0001:00053e70       ?openWaypoint@CWaypointConversion@@QAEPAU_iobuf@@XZ 10054e70 f   waypoint.obj
 0001:00053ed8       _FindClose@4               10054ed8 f   kernel32:KERNEL32.dll
 0001:00053ede       _FindFirstFileA@8          10054ede f   kernel32:KERNEL32.dll
 0001:00053ee4       _FindNextFileA@8           10054ee4 f   kernel32:KERNEL32.dll
 0001:00053eea       _MessageBoxA@16            10054eea f   user32:USER32.dll
 0001:00053ef0       ??0bad_alloc@std@@QAE@ABV01@@Z 10054ef0 f i libcpmt:xthrow.obj
 0001:00053f0b       ??0bad_alloc@std@@QAE@XZ   10054f0b f i libcpmt:xthrow.obj
 0001:00053f23       ??0bad_function_call@std@@QAE@ABV01@@Z 10054f23 f i libcpmt:xthrow.obj
 0001:00053f3e       ??0bad_function_call@std@@QAE@XZ 10054f3e f i libcpmt:xthrow.obj
 0001:00053f4f       ??0exception@std@@QAE@ABV01@@Z 10054f4f f i libcpmt:xthrow.obj
 0001:00053f7b       ??0exception@std@@QAE@QBD@Z 10054f7b f i libcpmt:xthrow.obj
 0001:00053fb2       ??0exception@std@@QAE@QBDH@Z 10054fb2 f i libcpmt:xthrow.obj
 0001:00053fcf       ??0exception@std@@QAE@XZ   10054fcf f i libcpmt:xthrow.obj
 0001:00053fe0       ??0invalid_argument@std@@QAE@ABV01@@Z 10054fe0 f i libcpmt:xthrow.obj
 0001:00053ffb       ??0invalid_argument@std@@QAE@PBD@Z 10054ffb f i libcpmt:xthrow.obj
 0001:0005401c       ??0length_error@std@@QAE@ABV01@@Z 1005501c f i libcpmt:xthrow.obj
 0001:00054037       ??0length_error@std@@QAE@PBD@Z 10055037 f i libcpmt:xthrow.obj
 0001:00054058       ??0logic_error@std@@QAE@ABV01@@Z 10055058 f i libcpmt:xthrow.obj
 0001:00054073       ??0logic_error@std@@QAE@PBD@Z 10055073 f i libcpmt:xthrow.obj
 0001:00054094       ??0out_of_range@std@@QAE@ABV01@@Z 10055094 f i libcpmt:xthrow.obj
 0001:000540af       ??0out_of_range@std@@QAE@PBD@Z 100550af f i libcpmt:xthrow.obj
 0001:000540d0       ??0overflow_error@std@@QAE@ABV01@@Z 100550d0 f i libcpmt:xthrow.obj
 0001:000540eb       ??0overflow_error@std@@QAE@PBD@Z 100550eb f i libcpmt:xthrow.obj
 0001:0005410c       ??0regex_error@std@@QAE@ABV01@@Z 1005510c f i libcpmt:xthrow.obj
 0001:00054130       ??0regex_error@std@@QAE@W4error_type@regex_constants@1@@Z 10055130 f i libcpmt:xthrow.obj
 0001:00054160       ??0runtime_error@std@@QAE@ABV01@@Z 10055160 f i libcpmt:xthrow.obj
 0001:0005417b       ??0runtime_error@std@@QAE@PBD@Z 1005517b f i libcpmt:xthrow.obj
 0001:0005419c       ??1bad_alloc@std@@UAE@XZ   1005519c f i libcpmt:xthrow.obj
 0001:000541ad       ??1bad_function_call@std@@UAE@XZ 100551ad f i libcpmt:xthrow.obj
 0001:000541be       ??1exception@std@@UAE@XZ   100551be f i libcpmt:xthrow.obj
 0001:000541cf       ??1invalid_argument@std@@UAE@XZ 100551cf f i libcpmt:xthrow.obj
 0001:000541e0       ??1length_error@std@@UAE@XZ 100551e0 f i libcpmt:xthrow.obj
 0001:000541f1       ??1logic_error@std@@UAE@XZ 100551f1 f i libcpmt:xthrow.obj
 0001:00054202       ??1out_of_range@std@@UAE@XZ 10055202 f i libcpmt:xthrow.obj
 0001:00054213       ??1overflow_error@std@@UAE@XZ 10055213 f i libcpmt:xthrow.obj
 0001:00054224       ??1regex_error@std@@UAE@XZ 10055224 f i libcpmt:xthrow.obj
 0001:00054235       ??1runtime_error@std@@UAE@XZ 10055235 f i libcpmt:xthrow.obj
 0001:00054246       ??_Ebad_alloc@std@@UAEPAXI@Z 10055246 f i libcpmt:xthrow.obj
 0001:00054246       ??_Gbad_alloc@std@@UAEPAXI@Z 10055246 f i libcpmt:xthrow.obj
 0001:00054273       ??_Ebad_function_call@std@@UAEPAXI@Z 10055273 f i libcpmt:xthrow.obj
 0001:00054273       ??_Gbad_function_call@std@@UAEPAXI@Z 10055273 f i libcpmt:xthrow.obj
 0001:000542a0       ??_Eexception@std@@UAEPAXI@Z 100552a0 f i libcpmt:xthrow.obj
 0001:000542a0       ??_Gexception@std@@UAEPAXI@Z 100552a0 f i libcpmt:xthrow.obj
 0001:000542cd       ??_Ginvalid_argument@std@@UAEPAXI@Z 100552cd f i libcpmt:xthrow.obj
 0001:000542cd       ??_Einvalid_argument@std@@UAEPAXI@Z 100552cd f i libcpmt:xthrow.obj
 0001:000542fa       ??_Elength_error@std@@UAEPAXI@Z 100552fa f i libcpmt:xthrow.obj
 0001:000542fa       ??_Glength_error@std@@UAEPAXI@Z 100552fa f i libcpmt:xthrow.obj
 0001:00054327       ??_Elogic_error@std@@UAEPAXI@Z 10055327 f i libcpmt:xthrow.obj
 0001:00054327       ??_Glogic_error@std@@UAEPAXI@Z 10055327 f i libcpmt:xthrow.obj
 0001:00054354       ??_Gout_of_range@std@@UAEPAXI@Z 10055354 f i libcpmt:xthrow.obj
 0001:00054354       ??_Eout_of_range@std@@UAEPAXI@Z 10055354 f i libcpmt:xthrow.obj
 0001:00054381       ??_Eoverflow_error@std@@UAEPAXI@Z 10055381 f i libcpmt:xthrow.obj
 0001:00054381       ??_Goverflow_error@std@@UAEPAXI@Z 10055381 f i libcpmt:xthrow.obj
 0001:000543ae       ??_Gregex_error@std@@UAEPAXI@Z 100553ae f i libcpmt:xthrow.obj
 0001:000543ae       ??_Eregex_error@std@@UAEPAXI@Z 100553ae f i libcpmt:xthrow.obj
 0001:000543db       ??_Gruntime_error@std@@UAEPAXI@Z 100553db f i libcpmt:xthrow.obj
 0001:000543db       ??_Eruntime_error@std@@UAEPAXI@Z 100553db f i libcpmt:xthrow.obj
 0001:00054408       ?_Stringify@regex_error@std@@CAPBDW4error_type@regex_constants@2@@Z 10055408 f i libcpmt:xthrow.obj
 0001:000544c8       ?_Xbad_alloc@std@@YAXXZ    100554c8 f   libcpmt:xthrow.obj
 0001:000544e5       ?_Xbad_function_call@std@@YAXXZ 100554e5 f   libcpmt:xthrow.obj
 0001:00054502       ?_Xinvalid_argument@std@@YAXPBD@Z 10055502 f   libcpmt:xthrow.obj
 0001:00054522       ?_Xlength_error@std@@YAXPBD@Z 10055522 f   libcpmt:xthrow.obj
 0001:00054542       ?_Xout_of_range@std@@YAXPBD@Z 10055542 f   libcpmt:xthrow.obj
 0001:00054562       ?_Xoverflow_error@std@@YAXPBD@Z 10055562 f   libcpmt:xthrow.obj
 0001:00054582       ?_Xregex_error@std@@YAXW4error_type@regex_constants@1@@Z 10055582 f   libcpmt:xthrow.obj
 0001:000545a2       ?_Xruntime_error@std@@YAXPBD@Z 100555a2 f   libcpmt:xthrow.obj
 0001:000545c2       ?what@bad_function_call@std@@UBEPBDXZ 100555c2 f i libcpmt:xthrow.obj
 0001:000545c8       ?what@exception@std@@UBEPBDXZ 100555c8 f i libcpmt:xthrow.obj
 0001:000545d5       ??3@YAXPAXI@Z              100555d5 f   LIBCMT:delete_scalar_size.obj
 0001:000545e3       ??_U@YAPAXI@Z              100555e3 f   LIBCMT:new_array.obj
 0001:000545ec       @__security_check_cookie@4 100555ec f   LIBCMT:_secchk_.obj
 0001:000545fd       ??2@YAPAXI@Z               100555fd f   LIBCMT:new_scalar.obj
 0001:00054630       ??3@YAXPAX@Z               10055630 f   LIBCMT:delete_scalar.obj
 0001:0005465c       ??$__crt_fast_decode_pointer@P6GHPAU_RTL_CONDITION_VARIABLE@@PAU_RTL_CRITICAL_SECTION@@K@Z@@YAP6GHPAU_RTL_CONDITION_VARIABLE@@PAU_RTL_CRITICAL_SECTION@@K@ZQ6GH01K@Z@Z 1005565c f i LIBCMT:thread_safe_statics.obj
 0001:00054670       ??$__crt_fast_decode_pointer@P6GXPAU_RTL_CONDITION_VARIABLE@@@Z@@YAP6GXPAU_RTL_CONDITION_VARIABLE@@@ZQ6GX0@Z@Z 10055670 f i LIBCMT:thread_safe_statics.obj
 0001:00054684       ??$__crt_fast_encode_pointer@P6GHPAU_RTL_CONDITION_VARIABLE@@PAU_RTL_CRITICAL_SECTION@@K@Z@@YAP6GHPAU_RTL_CONDITION_VARIABLE@@PAU_RTL_CRITICAL_SECTION@@K@ZQ6GH01K@Z@Z 10055684 f i LIBCMT:thread_safe_statics.obj
 0001:000546a1       ??$__crt_fast_encode_pointer@P6GXPAU_RTL_CONDITION_VARIABLE@@@Z@@YAP6GXPAU_RTL_CONDITION_VARIABLE@@@ZQ6GX0@Z@Z 100556a1 f i LIBCMT:thread_safe_statics.obj
 0001:000546be       ?__crt_rotate_pointer_value@@YAIIH@Z 100556be f i LIBCMT:thread_safe_statics.obj
 0001:000547a7       __Init_thread_abort        100557a7 f   LIBCMT:thread_safe_statics.obj
 0001:000547c0       __Init_thread_footer       100557c0 f   LIBCMT:thread_safe_statics.obj
 0001:000547ff       __Init_thread_header       100557ff f   LIBCMT:thread_safe_statics.obj
 0001:00054845       __Init_thread_lock         10055845 f   LIBCMT:thread_safe_statics.obj
 0001:00054851       __Init_thread_notify       10055851 f   LIBCMT:thread_safe_statics.obj
 0001:00054892       __Init_thread_unlock       10055892 f   LIBCMT:thread_safe_statics.obj
 0001:0005489e       __Init_thread_wait         1005589e f   LIBCMT:thread_safe_statics.obj
 0001:00054903       ??1type_info@@UAE@XZ       10055903 f   LIBCMT:std_type_info_static.obj
 0001:0005490a       ??_Gtype_info@@UAEPAXI@Z   1005590a f i LIBCMT:std_type_info_static.obj
 0001:0005490a       ??_Etype_info@@UAEPAXI@Z   1005590a f i LIBCMT:std_type_info_static.obj
 0001:0005492d       ___raise_securityfailure   1005592d f   LIBCMT:gs_report.obj
 0001:00054955       ___report_gsfailure        10055955 f   LIBCMT:gs_report.obj
 0001:00054a50       ___report_rangecheckfailure 10055a50 f   LIBCMT:gs_report.obj
 0001:00054a5c       ___report_securityfailure  10055a5c f   LIBCMT:gs_report.obj
 0001:00054b2c       ___report_securityfailureEx 10055b2c f   LIBCMT:gs_report.obj
 0001:00054c42       ??_L@YGXPAXIHP6EX0@Z1@Z    10055c42 f   LIBCMT:ehvecctr.obj
 0001:00054c47       ??_L@YGXPAXIIP6EX0@Z1@Z    10055c47 f   LIBCMT:ehvecctr.obj
 0001:00054cb0       ??_M@YGXPAXIHP6EX0@Z@Z     10055cb0 f   LIBCMT:ehvecdtr.obj
 0001:00054cb5       ??_M@YGXPAXIIP6EX0@Z@Z     10055cb5 f   LIBCMT:ehvecdtr.obj
 0001:00054d48       ?__ArrayUnwind@@YGXPAXIIP6EX0@Z@Z 10055d48 f   LIBCMT:ehvecdtr.obj
 0001:00054db5       ??$__crt_fast_decode_pointer@PAP6AXXZ@@YAPAP6AXXZQAP6AXXZ@Z 10055db5 f i LIBCMT:utility.obj
 0001:00054dc9       ??$__crt_fast_encode_pointer@PAP6AXXZ@@YAPAP6AXXZQAP6AXXZ@Z 10055dc9 f i LIBCMT:utility.obj
 0001:00054de6       ?configure_argv@__scrt_narrow_argv_policy@@SAHXZ 10055de6 f i LIBCMT:utility.obj
 0001:00054e6a       _NtCurrentTeb              10055e6a f i LIBCMT:utility.obj
 0001:00054e71       ___scrt_acquire_startup_lock 10055e71 f   LIBCMT:utility.obj
 0001:00054ea6       ___scrt_dllmain_after_initialize_c 10055ea6 f   LIBCMT:utility.obj
 0001:00054ed1       ___scrt_dllmain_before_initialize_c 10055ed1 f   LIBCMT:utility.obj
 0001:00054edf       ___scrt_dllmain_crt_thread_attach 10055edf f   LIBCMT:utility.obj
 0001:00054efe       ___scrt_dllmain_crt_thread_detach 10055efe f   LIBCMT:utility.obj
 0001:00054f0b       ___scrt_dllmain_exception_filter 10055f0b f   LIBCMT:utility.obj
 0001:00054f3e       ___scrt_dllmain_uninitialize_c 10055f3e f   LIBCMT:utility.obj
 0001:00054f61       ___scrt_dllmain_uninitialize_critical 10055f61 f   LIBCMT:utility.obj
 0001:00054f6e       ___scrt_initialize_crt     10055f6e f   LIBCMT:utility.obj
 0001:00054fa7       ___scrt_initialize_onexit_tables 10055fa7 f   LIBCMT:utility.obj
 0001:00055051       ___scrt_is_nonwritable_in_current_image 10056051 f   LIBCMT:utility.obj
 0001:000550db       ___scrt_release_startup_lock 100560db f   LIBCMT:utility.obj
 0001:000550f8       ___scrt_uninitialize_crt   100560f8 f   LIBCMT:utility.obj
 0001:00055120       __onexit                   10056120 f   LIBCMT:utility.obj
 0001:0005515b       _at_quick_exit             1005615b f   LIBCMT:utility.obj
 0001:0005518c       _atexit                    1005618c f   LIBCMT:utility.obj
 0001:0005549b       __CRT_INIT@12              1005649b f   LIBCMT:dll_dllmain.obj
 0001:000554a4       __DllMainCRTStartup@12     100564a4 f   LIBCMT:dll_dllmain.obj
 0001:000554c7       ??0bad_alloc@std@@AAE@QBD@Z 100564c7 f i LIBCMT:throw_bad_alloc.obj
 0001:000554e4       ??0bad_array_new_length@std@@QAE@ABV01@@Z 100564e4 f i LIBCMT:throw_bad_alloc.obj
 0001:000554ff       ??0bad_array_new_length@std@@QAE@XZ 100564ff f i LIBCMT:throw_bad_alloc.obj
 0001:00055517       ??1bad_array_new_length@std@@UAE@XZ 10056517 f i LIBCMT:throw_bad_alloc.obj
 0001:00055528       ??_Ebad_array_new_length@std@@UAEPAXI@Z 10056528 f i LIBCMT:throw_bad_alloc.obj
 0001:00055528       ??_Gbad_array_new_length@std@@UAEPAXI@Z 10056528 f i LIBCMT:throw_bad_alloc.obj
 0001:00055555       ?__scrt_throw_std_bad_alloc@@YAXXZ 10056555 f   LIBCMT:throw_bad_alloc.obj
 0001:00055572       ?__scrt_throw_std_bad_array_new_length@@YAXXZ 10056572 f   LIBCMT:throw_bad_alloc.obj
 0001:0005558f       ___scrt_fastfail           1005658f f   LIBCMT:utility_desktop.obj
 0001:000556aa       ___scrt_get_show_window_mode 100566aa f   LIBCMT:utility_desktop.obj
 0001:000556dd       ___scrt_initialize_winrt   100566dd f   LIBCMT:utility_desktop.obj
 0001:000556e0       ___scrt_is_managed_app     100566e0 f   LIBCMT:utility_desktop.obj
 0001:00055724       ___scrt_set_unhandled_exception_filter 10056724 f   LIBCMT:utility_desktop.obj
 0001:00055730       ___scrt_unhandled_exception_filter@4 10056730 f   LIBCMT:utility_desktop.obj
 0001:00055771       __crt_debugger_hook        10056771 f   LIBCMT:utility_desktop.obj
 0001:00055779       @_guard_check_icall@4      10056779 f i LIBCMT:checkcfg.obj
 0001:00055780       __SEH_prolog4              10056780 f   LIBCMT:_sehprolg4_.obj
 0001:000557c6       __SEH_epilog4              100567c6 f   LIBCMT:_sehprolg4_.obj
 0001:000557db       ___isa_available_init      100567db f   LIBCMT:_cpu_disp_.obj
 0001:0005597a       __get_startup_argv_mode    1005697a f   LIBCMT:argv_mode.obj
 0001:0005597e       ___scrt_is_ucrt_dll_in_use 1005697e f   LIBCMT:ucrt_detection.obj
 0001:0005598a       ___security_init_cookie    1005698a f   LIBCMT:gs_support.obj
 0001:00055a26       ?__scrt_initialize_type_info@@YAXXZ 10056a26 f   LIBCMT:tncleanup.obj
 0001:00055a32       ?__scrt_uninitialize_type_info@@YAXXZ 10056a32 f   LIBCMT:tncleanup.obj
 0001:00055a3e       ___scrt_initialize_default_local_stdio_options 10056a3e f   LIBCMT:default_local_stdio_options.obj
 0001:00055a5b       ___scrt_get_dyn_tls_init_callback 10056a5b f   LIBCMT:dyn_tls_init.obj
 0001:00055a61       __RTC_Initialize           10056a61 f   LIBCMT:_initsect_.obj
 0001:00055a8c       __RTC_Terminate            10056a8c f   LIBCMT:_initsect_.obj
 0001:00055ab7       @_guard_check_icall_nop@4  10056ab7 f i LIBCMT:guard_support.obj
 0001:00055ab8       __guard_icall_checks_enforced 10056ab8 f i LIBCMT:guard_support.obj
 0001:00055ad0       _memcpy                    10056ad0 f   libvcruntime:memcpy.obj
 0001:00056050       _memset                    10057050 f   libvcruntime:memset.obj
 0001:000561aa       ??$__crt_fast_decode_pointer@P6AXXZ@@YAP6AXXZQ6AXXZ@Z 100571aa f i libvcruntime:purevirt.obj
 0001:000561be       ??$__crt_fast_encode_pointer@P6AXXZ@@YAP6AXXZQ6AXXZ@Z 100571be f i libvcruntime:purevirt.obj
 0001:000561db       ??$__crt_interlocked_exchange_pointer@$$A6AXXZP6AXXZ@@YAP6AXXZPDS6AXXZQ6AXXZ@Z 100571db f i libvcruntime:purevirt.obj
 0001:000561e8       ??$__crt_interlocked_read_pointer@$$A6AXXZ@@YAP6AXXZPDS6AXXZ@Z 100571e8 f i libvcruntime:purevirt.obj
 0001:000561f2       ?__crt_interlocked_read_32@@YAHPDH@Z 100571f2 f i libvcruntime:purevirt.obj
 0001:000561fc       __get_purecall_handler     100571fc f   libvcruntime:purevirt.obj
 0001:00056211       __purecall                 10057211 f   libvcruntime:purevirt.obj
 0001:0005622c       __set_purecall_handler     1005722c f   libvcruntime:purevirt.obj
 0001:00056260       _memmove                   10057260 f   libvcruntime:memmove.obj
 0001:000567e0       _strstr                    100577e0 f   libvcruntime:strstr.obj
 0001:00056a43       __CxxThrowException@8      10057a43 f   libvcruntime:throw.obj
 0001:00056ab1       ?_CallCatchBlock2@@YAPAXPAUEHRegistrationNode@@PBU_s_FuncInfo@@PAXHK@Z 10057ab1 f   libvcruntime:trnsctrl.obj
 0001:00056b11       ?_CallSETranslator@@YAHPAUEHExceptionRecord@@PAUEHRegistrationNode@@PAX2PBU_s_FuncInfo@@H1@Z 10057b11 f   libvcruntime:trnsctrl.obj
 0001:00056bee       ?_GetRangeOfTrysToCheck@@YAPBU_s_TryBlockMapEntry@@PBU_s_FuncInfo@@HHPAI1@Z 10057bee f   libvcruntime:trnsctrl.obj
 0001:00056c66       ?_JumpToContinuation@@YGXPAXPAUEHRegistrationNode@@@Z 10057c66 f   libvcruntime:trnsctrl.obj
 0001:00056c98       ?_UnwindNestedFrames@@YGXPAUEHRegistrationNode@@PAUEHExceptionRecord@@@Z 10057c98 f   libvcruntime:trnsctrl.obj
 0001:00056ced       __CatchGuardHandler        10057ced f   libvcruntime:trnsctrl.obj
 0001:00056d1e       __CreateFrameInfo          10057d1e f   libvcruntime:trnsctrl.obj
 0001:00056d42       __FindAndUnlinkFrame       10057d42 f   libvcruntime:trnsctrl.obj
 0001:00056d8c       __IsExceptionObjectToBeDestroyed 10057d8c f   libvcruntime:trnsctrl.obj
 0001:00056db2       __TranslatorGuardHandler   10057db2 f   libvcruntime:trnsctrl.obj
 0001:00056e51       ___CxxFrameHandler         10057e51 f   libvcruntime:trnsctrl.obj
 0001:00056e87       ___CxxFrameHandler2        10057e87 f   libvcruntime:trnsctrl.obj
 0001:00056ebd       ___CxxFrameHandler3        10057ebd f   libvcruntime:trnsctrl.obj
 0001:00056ef3       ___CxxLongjmpUnwind@4      10057ef3 f   libvcruntime:trnsctrl.obj
 0001:00056f18       ___DestructExceptionObject 10057f18 f   libvcruntime:frame.obj
 0001:00056fac       ??0bad_exception@std@@QAE@ABV01@@Z 10057fac f i libvcruntime:frame.obj
 0001:00056fc7       ??0bad_exception@std@@QAE@XZ 10057fc7 f i libvcruntime:frame.obj
 0001:00056fdf       ??1bad_exception@std@@UAE@XZ 10057fdf f i libvcruntime:frame.obj
 0001:00056ff0       ??8type_info@@QBE_NABV0@@Z 10057ff0 f i libvcruntime:frame.obj
 0001:0005700e       ??_Gbad_exception@std@@UAEPAXI@Z 1005800e f i libvcruntime:frame.obj
 0001:0005700e       ??_Ebad_exception@std@@UAEPAXI@Z 1005800e f i libvcruntime:frame.obj
 0001:00057854       ?_CallMemberFunction0@@YGXQAX0@Z 10058854 f i libvcruntime:frame.obj
 0001:0005785b       ?_CallMemberFunction1@@YGXQAX00@Z 1005885b f i libvcruntime:frame.obj
 0001:00057862       ?_CallMemberFunction2@@YGXQAX00H@Z 10058862 f i libvcruntime:frame.obj
 0001:00057869       ?_ValidateExecute@@YA_NP6GHXZ@Z 10058869 f i libvcruntime:frame.obj
 0001:00057875       ?_ValidateRead@@YA_NPBXI@Z 10058875 f i libvcruntime:frame.obj
 0001:00057881       ?_ValidateWrite@@YA_NPAXI@Z 10058881 f i libvcruntime:frame.obj
 0001:0005788d       ?raw_name@type_info@@QBEPBDXZ 1005888d f i libvcruntime:frame.obj
 0001:00057891       __SetWinRTOutOfMemoryExceptionCallback 10058891 f   libvcruntime:frame.obj
 0001:0005789e       ___AdjustPointer           1005889e f   libvcruntime:frame.obj
 0001:000578c3       ___BuildCatchObject        100588c3 f   libvcruntime:frame.obj
 0001:00057952       ___BuildCatchObjectHelper  10058952 f   libvcruntime:frame.obj
 0001:00057a80       ___CxxDetectRethrow        10058a80 f   libvcruntime:frame.obj
 0001:00057acc       ___CxxExceptionFilter      10058acc f   libvcruntime:frame.obj
 0001:00057c18       ___CxxQueryExceptionSize   10058c18 f   libvcruntime:frame.obj
 0001:00057c1c       ___CxxRegisterExceptionObject 10058c1c f   libvcruntime:frame.obj
 0001:00057cbe       ___CxxUnregisterExceptionObject 10058cbe f   libvcruntime:frame.obj
 0001:00057dce       ___FrameUnwindFilter       10058dce f   libvcruntime:frame.obj
 0001:00057e13       ___FrameUnwindToState      10058e13 f   libvcruntime:frame.obj
 0001:00057edb       ___GetPlatformExceptionInfo 10058edb f   libvcruntime:frame.obj
 0001:00057f29       ___InternalCxxFrameHandler 10058f29 f   libvcruntime:frame.obj
 0001:00058025       ___TypeMatch               10059025 f   libvcruntime:frame.obj
 0001:000580b3       ___current_exception       100590b3 f   libvcruntime:frame.obj
 0001:000580bc       ___current_exception_context 100590bc f   libvcruntime:frame.obj
 0001:000580c5       ___processing_throw        100590c5 f   libvcruntime:frame.obj
 0001:000580ce       ___std_terminate           100590ce f   libvcruntime:frame.obj
 0001:000580d3       ___uncaught_exception      100590d3 f   libvcruntime:frame.obj
 0001:000580df       ___uncaught_exceptions     100590df f   libvcruntime:frame.obj
 0001:000580ef       __is_exception_typeof      100590ef f   libvcruntime:frame.obj
 0001:00058193       ??$?RD@__crt_public_free_policy@@QBEXQBD@Z 10059193 f i libvcruntime:std_exception.obj
 0001:000581a3       ??0?$__crt_unique_heap_ptr@DU__crt_public_free_policy@@@@QAE@QAD@Z 100591a3 f i libvcruntime:std_exception.obj
 0001:000581b1       ??1?$__crt_unique_heap_ptr@DU__crt_public_free_policy@@@@QAE@XZ 100591b1 f i libvcruntime:std_exception.obj
 0001:000581c1       ??B?$__crt_unique_heap_ptr@DU__crt_public_free_policy@@@@QBE_NXZ 100591c1 f i libvcruntime:std_exception.obj
 0001:000581c8       ?detach@?$__crt_unique_heap_ptr@DU__crt_public_free_policy@@@@QAEPADXZ 100591c8 f i libvcruntime:std_exception.obj
 0001:000581ce       ?get@?$__crt_unique_heap_ptr@DU__crt_public_free_policy@@@@QBEPADXZ 100591ce f i libvcruntime:std_exception.obj
 0001:000581d1       ?is_valid@?$__crt_unique_heap_ptr@DU__crt_public_free_policy@@@@QBE_NXZ 100591d1 f i libvcruntime:std_exception.obj
 0001:000581d8       ?release@?$__crt_unique_heap_ptr@DU__crt_public_free_policy@@@@QAEXXZ 100591d8 f i libvcruntime:std_exception.obj
 0001:000581e8       ___std_exception_copy      100591e8 f   libvcruntime:std_exception.obj
 0001:0005824b       ___std_exception_destroy   1005924b f   libvcruntime:std_exception.obj
 0001:0005826a       ??$?BX@__crt_fast_encoded_nullptr_t@@QBEPAXXZ 1005926a f i libvcruntime:winapi_downlevel.obj
 0001:00058282       ??$__crt_fast_decode_pointer@PAX@@YAPAXQAX@Z 10059282 f i libvcruntime:winapi_downlevel.obj
 0001:00058296       ??$__crt_fast_encode_pointer@PAX@@YAPAXQAX@Z 10059296 f i libvcruntime:winapi_downlevel.obj
 0001:000582b3       ??$__crt_interlocked_exchange_pointer@UHINSTANCE__@@PAU1@@@YAPAUHINSTANCE__@@PDSAU0@QAU0@@Z 100592b3 f i libvcruntime:winapi_downlevel.obj
 0001:000582c0       ??$__crt_interlocked_exchange_pointer@UHINSTANCE__@@PAX@@YAPAUHINSTANCE__@@PDSAU0@QAX@Z 100592c0 f i libvcruntime:winapi_downlevel.obj
 0001:000582cd       ??$__crt_interlocked_exchange_pointer@XPAX@@YAPAXPDSAXQAX@Z 100592cd f i libvcruntime:winapi_downlevel.obj
 0001:000582da       ??$__crt_interlocked_read_pointer@UHINSTANCE__@@@@YAPAUHINSTANCE__@@PDSAU0@@Z 100592da f i libvcruntime:winapi_downlevel.obj
 0001:000582e4       ??$__crt_interlocked_read_pointer@X@@YAPAXPDSAX@Z 100592e4 f i libvcruntime:winapi_downlevel.obj
 0001:000582ee       ?__crt_fast_encode_pointer@@YA?AU__crt_fast_encoded_nullptr_t@@$$T@Z 100592ee f i libvcruntime:winapi_downlevel.obj
 0001:00058597       ___vcrt_FlsAlloc           10059597 f   libvcruntime:winapi_downlevel.obj
 0001:000585d1       ___vcrt_FlsFree            100595d1 f   libvcruntime:winapi_downlevel.obj
 0001:0005860b       ___vcrt_FlsGetValue        1005960b f   libvcruntime:winapi_downlevel.obj
 0001:00058645       ___vcrt_FlsSetValue        10059645 f   libvcruntime:winapi_downlevel.obj
 0001:00058682       ___vcrt_InitializeCriticalSectionEx 10059682 f   libvcruntime:winapi_downlevel.obj
 0001:000586c8       ___vcrt_initialize_winapi_thunks 100596c8 f   libvcruntime:winapi_downlevel.obj
 0001:00058702       ___vcrt_uninitialize_winapi_thunks 10059702 f   libvcruntime:winapi_downlevel.obj
 0001:00058780       __except_handler4          10059780 f   libvcruntime:_chandler4_.obj
 0001:000588e6       ___vcrt_initialize         100598e6 f   libvcruntime:initialization.obj
 0001:0005890f       ___vcrt_thread_attach      1005990f f   libvcruntime:initialization.obj
 0001:0005891a       ___vcrt_thread_detach      1005991a f   libvcruntime:initialization.obj
 0001:00058925       ___vcrt_uninitialize       10059925 f   libvcruntime:initialization.obj
 0001:00058944       ___vcrt_uninitialize_critical 10059944 f   libvcruntime:initialization.obj
 0001:0005895b       ??$?RD@__crt_internal_free_policy@@QBEXQBD@Z 1005995b f i libvcruntime:std_type_info.obj
 0001:0005896b       ??$?RX@__crt_internal_free_policy@@QBEXQBX@Z 1005996b f i libvcruntime:std_type_info.obj
 0001:0005897b       ??$__crt_interlocked_compare_exchange_pointer@$$CBDPAD$$T@@YAPBDPDSBDQAD$$T@Z 1005997b f i libvcruntime:std_type_info.obj
 0001:0005898d       ??$__crt_interlocked_read_pointer@$$CBD@@YAPBDPDSBD@Z 1005998d f i libvcruntime:std_type_info.obj
 0001:00058997       ??0?$__crt_unique_heap_ptr@DU__crt_internal_free_policy@@@@QAE@QAD@Z 10059997 f i libvcruntime:std_type_info.obj
 0001:000589a5       ??0?$__crt_unique_heap_ptr@XU__crt_internal_free_policy@@@@QAE@QAX@Z 100599a5 f i libvcruntime:std_type_info.obj
 0001:000589b3       ??1?$__crt_unique_heap_ptr@DU__crt_internal_free_policy@@@@QAE@XZ 100599b3 f i libvcruntime:std_type_info.obj
 0001:000589c3       ??1?$__crt_unique_heap_ptr@XU__crt_internal_free_policy@@@@QAE@XZ 100599c3 f i libvcruntime:std_type_info.obj
 0001:000589df       ??B?$__crt_unique_heap_ptr@DU__crt_internal_free_policy@@@@QBE_NXZ 100599df f i libvcruntime:std_type_info.obj
 0001:000589e6       ??B?$__crt_unique_heap_ptr@XU__crt_internal_free_policy@@@@QBE_NXZ 100599e6 f i libvcruntime:std_type_info.obj
 0001:00058a0d       ?detach@?$__crt_unique_heap_ptr@XU__crt_internal_free_policy@@@@QAEPAXXZ 10059a0d f i libvcruntime:std_type_info.obj
 0001:00058a13       ?get@?$__crt_unique_heap_ptr@DU__crt_internal_free_policy@@@@QBEPADXZ 10059a13 f i libvcruntime:std_type_info.obj
 0001:00058a16       ?get@?$__crt_unique_heap_ptr@XU__crt_internal_free_policy@@@@QBEPAXXZ 10059a16 f i libvcruntime:std_type_info.obj
 0001:00058a19       ?is_valid@?$__crt_unique_heap_ptr@DU__crt_internal_free_policy@@@@QBE_NXZ 10059a19 f i libvcruntime:std_type_info.obj
 0001:00058a20       ?is_valid@?$__crt_unique_heap_ptr@XU__crt_internal_free_policy@@@@QBE_NXZ 10059a20 f i libvcruntime:std_type_info.obj
 0001:00058a27       ?release@?$__crt_unique_heap_ptr@DU__crt_internal_free_policy@@@@QAEXXZ 10059a27 f i libvcruntime:std_type_info.obj
 0001:00058a37       ?release@?$__crt_unique_heap_ptr@XU__crt_internal_free_policy@@@@QAEXXZ 10059a37 f i libvcruntime:std_type_info.obj
 0001:00058a47       ___std_type_info_compare   10059a47 f   libvcruntime:std_type_info.obj
 0001:00058a83       ___std_type_info_destroy_list 10059a83 f   libvcruntime:std_type_info.obj
 0001:00058aa6       ___std_type_info_hash      10059aa6 f   libvcruntime:std_type_info.obj
 0001:00058acc       ___std_type_info_name      10059acc f   libvcruntime:std_type_info.obj
 0001:00058b91       ??$?B$$A6AXXZ@__crt_fast_encoded_nullptr_t@@QBEP6AXXZXZ 10059b91 f i libvcruntime:purevirt_data.obj
 0001:00058ba9       ___vcrt_initialize_pure_virtual_call_handler 10059ba9 f   libvcruntime:purevirt_data.obj
 0001:00058bd0       _strchr                    10059bd0 f   libvcruntime:strchr.obj
 0001:00058c3e       ___from_strstr_to_strchr   10059c3e     libvcruntime:strchr.obj
 0001:00058cfb       ??$?RU__vcrt_ptd@@@__crt_internal_free_policy@@QBEXQBU__vcrt_ptd@@@Z 10059cfb f i libvcruntime:per_thread_data.obj
 0001:00058d0b       ??0?$__crt_unique_heap_ptr@U__vcrt_ptd@@U__crt_internal_free_policy@@@@QAE@QAU__vcrt_ptd@@@Z 10059d0b f i libvcruntime:per_thread_data.obj
 0001:00058d28       ??1?$__crt_unique_heap_ptr@U__vcrt_ptd@@U__crt_internal_free_policy@@@@QAE@XZ 10059d28 f i libvcruntime:per_thread_data.obj
 0001:00058d41       ??B?$__crt_unique_heap_ptr@U__vcrt_ptd@@U__crt_internal_free_policy@@@@QBE_NXZ 10059d41 f i libvcruntime:per_thread_data.obj
 0001:00058d48       ?detach@?$__crt_unique_heap_ptr@U__vcrt_ptd@@U__crt_internal_free_policy@@@@QAEPAU__vcrt_ptd@@XZ 10059d48 f i libvcruntime:per_thread_data.obj
 0001:00058d4e       ?get@?$__crt_unique_heap_ptr@U__vcrt_ptd@@U__crt_internal_free_policy@@@@QBEPAU__vcrt_ptd@@XZ 10059d4e f i libvcruntime:per_thread_data.obj
 0001:00058d51       ?is_valid@?$__crt_unique_heap_ptr@U__vcrt_ptd@@U__crt_internal_free_policy@@@@QBE_NXZ 10059d51 f i libvcruntime:per_thread_data.obj
 0001:00058d58       ?release@?$__crt_unique_heap_ptr@U__vcrt_ptd@@U__crt_internal_free_policy@@@@QAEXXZ 10059d58 f i libvcruntime:per_thread_data.obj
 0001:00058d82       ___vcrt_freefls@4          10059d82 f   libvcruntime:per_thread_data.obj
 0001:00058d9e       ___vcrt_freeptd            10059d9e f   libvcruntime:per_thread_data.obj
 0001:00058dd4       ___vcrt_getptd             10059dd4 f   libvcruntime:per_thread_data.obj
 0001:00058de2       ___vcrt_getptd_noexit      10059de2 f   libvcruntime:per_thread_data.obj
 0001:00058e74       ___vcrt_getptd_noinit      10059e74 f   libvcruntime:per_thread_data.obj
 0001:00058eab       ___vcrt_initialize_ptd     10059eab f   libvcruntime:per_thread_data.obj
 0001:00058ede       ___vcrt_uninitialize_ptd   10059ede f   libvcruntime:per_thread_data.obj
 0001:00058f00       __CallSettingFrame@12      10059f00 f   libvcruntime:lowhelpr.obj
 0001:00058f27       __NLG_Return               10059f27     libvcruntime:lowhelpr.obj
 0001:00058f4c       _ReadNoFence               10059f4c f i libvcruntime:jbcxrval.obj
 0001:00058f56       _ReadPointerNoFence        10059f56 f i libvcruntime:jbcxrval.obj
 0001:00058f60       ___except_validate_context_record 10059f60 f   libvcruntime:jbcxrval.obj
 0001:00058f90       ___except_validate_jump_buffer 10059f90 f   libvcruntime:jbcxrval.obj
 0001:00058fd1       __get_unexpected           10059fd1 f   libvcruntime:unexpected.obj
 0001:00058fe3       _set_unexpected            10059fe3 f   libvcruntime:unexpected.obj
 0001:00059001       _unexpected                1005a001 f   libvcruntime:unexpected.obj
 0001:00059020       __local_unwind4            1005a020 f   libvcruntime:_exsup4_.obj
 0001:000590f6       __seh_longjmp_unwind4@4    1005a0f6 f   libvcruntime:_exsup4_.obj
 0001:0005911e       @_EH4_CallFilterFunc@8     1005a11e f   libvcruntime:_exsup4_.obj
 0001:00059135       @_EH4_TransferToHandler@8  1005a135 f   libvcruntime:_exsup4_.obj
 0001:0005914e       @_EH4_GlobalUnwind2@8      1005a14e f   libvcruntime:_exsup4_.obj
 0001:00059167       @_EH4_LocalUnwind@16       1005a167 f   libvcruntime:_exsup4_.obj
 0001:0005917e       ___vcrt_initialize_locks   1005a17e f   libvcruntime:locks.obj
 0001:000591ba       ___vcrt_lock               1005a1ba f   libvcruntime:locks.obj
 0001:000591cf       ___vcrt_uninitialize_locks 1005a1cf f   libvcruntime:locks.obj
 0001:000591fe       ___vcrt_unlock             1005a1fe f   libvcruntime:locks.obj
 0001:00059213       ??0Block@_HeapManager@@QAE@XZ 1005a213 f i libvcruntime:undname.obj
 0001:00059219       ??0DName@@QAE@AAPBDD@Z     1005a219 f   libvcruntime:undname.obj
 0001:000592cb       ??0DName@@QAE@ABV0@@Z      1005a2cb f i libvcruntime:undname.obj
 0001:000592e1       ??0DName@@QAE@D@Z          1005a2e1 f   libvcruntime:undname.obj
 0001:00059306       ??0DName@@QAE@PAV0@@Z      1005a306 f   libvcruntime:undname.obj
 0001:0005934f       ??0DName@@QAE@PBD@Z        1005a34f f   libvcruntime:undname.obj
 0001:00059382       ??0DName@@QAE@W4DNameStatus@@@Z 1005a382 f   libvcruntime:undname.obj
 0001:000593c2       ??0DName@@QAE@XZ           1005a3c2 f i libvcruntime:undname.obj
 0001:000593cc       ??0DName@@QAE@_J@Z         1005a3cc f   libvcruntime:undname.obj
 0001:0005945a       ??0DName@@QAE@_K@Z         1005a45a f   libvcruntime:undname.obj
 0001:000594c2       ??0DNameNode@@IAE@XZ       1005a4c2 f   libvcruntime:undname.obj
 0001:000594cb       ??0DNameStatusNode@@AAE@W4DNameStatus@@@Z 1005a4cb f   libvcruntime:undname.obj
 0001:000594ee       ??0Replicator@@QAE@XZ      1005a4ee f i libvcruntime:undname.obj
 0001:000594f4       ??0UnDecorator@@QAE@PADPBDHP6APADJ@ZK@Z 1005a4f4 f i libvcruntime:undname.obj
 0001:0005955d       ??0charNode@@QAE@D@Z       1005a55d f   libvcruntime:undname.obj
 0001:00059572       ??0pDNameNode@@QAE@PAVDName@@@Z 1005a572 f   libvcruntime:undname.obj
 0001:0005959a       ??0pairNode@@QAE@PAVDNameNode@@0@Z 1005a59a f   libvcruntime:undname.obj
 0001:000595b9       ??0pcharNode@@QAE@PBDH@Z   1005a5b9 f   libvcruntime:undname.obj
 0001:00059612       ??2@YAPAXIAAV_HeapManager@@H@Z 1005a612 f i libvcruntime:undname.obj
 0001:00059627       ??4DName@@QAEAAV0@ABV0@@Z  1005a627 f   libvcruntime:undname.obj
 0001:0005963d       ??4DName@@QAEAAV0@D@Z      1005a63d f i libvcruntime:undname.obj
 0001:00059662       ??4DName@@QAEAAV0@PAV0@@Z  1005a662 f   libvcruntime:undname.obj
 0001:000596a4       ??4DName@@QAEAAV0@PBD@Z    1005a6a4 f   libvcruntime:undname.obj
 0001:000596cf       ??4DName@@QAEAAV0@W4DNameStatus@@@Z 1005a6cf f   libvcruntime:undname.obj
 0001:00059701       ??AReplicator@@QBE?AVDName@@H@Z 1005a701 f   libvcruntime:undname.obj
 0001:00059747       ??BUnDecorator@@QAEPADXZ   1005a747 f i libvcruntime:undname.obj
 0001:000598ae       ??H@YA?AVDName@@DABV0@@Z   1005a8ae f i libvcruntime:undname.obj
 0001:000598d2       ??H@YA?AVDName@@PBDABV0@@Z 1005a8d2 f i libvcruntime:undname.obj
 0001:000598f6       ??H@YA?AVDName@@W4DNameStatus@@ABV0@@Z 1005a8f6 f i libvcruntime:undname.obj
 0001:0005991a       ??HDName@@QBE?AV0@ABV0@@Z  1005a91a f   libvcruntime:undname.obj
 0001:0005993c       ??HDName@@QBE?AV0@D@Z      1005a93c f   libvcruntime:undname.obj
 0001:0005995e       ??HDName@@QBE?AV0@PAV0@@Z  1005a95e f   libvcruntime:undname.obj
 0001:00059980       ??HDName@@QBE?AV0@PBD@Z    1005a980 f   libvcruntime:undname.obj
 0001:000599a2       ??HDName@@QBE?AV0@W4DNameStatus@@@Z 1005a9a2 f   libvcruntime:undname.obj
 0001:000599c4       ??YDName@@QAEAAV0@ABV0@@Z  1005a9c4 f   libvcruntime:undname.obj
 0001:00059a05       ??YDName@@QAEAAV0@D@Z      1005aa05 f   libvcruntime:undname.obj
 0001:00059a55       ??YDName@@QAEAAV0@PAV0@@Z  1005aa55 f   libvcruntime:undname.obj
 0001:00059aba       ??YDName@@QAEAAV0@PBD@Z    1005aaba f   libvcruntime:undname.obj
 0001:00059b1b       ??YDName@@QAEAAV0@W4DNameStatus@@@Z 1005ab1b f   libvcruntime:undname.obj
 0001:00059b5b       ??YReplicator@@QAEAAV0@ABVDName@@@Z 1005ab5b f   libvcruntime:undname.obj
 0001:00059ba5       ??_5DName@@QAEAAV0@ABV0@@Z 1005aba5 f   libvcruntime:undname.obj
 0001:00059bc1       ?Constructor@_HeapManager@@QAEXP6APAXI@ZP6AXPAX@Z@Z 1005abc1 f i libvcruntime:undname.obj
 0001:00059bde       ?Destructor@_HeapManager@@QAEXXZ 1005abde f i libvcruntime:undname.obj
 0001:00059c17       ?UScore@UnDecorator@@SAPBDW4Tokens@@@Z 1005ac17 f   libvcruntime:undname.obj
 0001:00059c34       ?append@DName@@AAEXPAVDNameNode@@@Z 1005ac34 f   libvcruntime:undname.obj
 0001:00059c7a       ?composeDeclaration@UnDecorator@@CA?AVDName@@ABV2@@Z 1005ac7a f i libvcruntime:undname.obj
 0001:0005a94a       ?doAccessSpecifiers@UnDecorator@@SAHXZ 1005b94a f i libvcruntime:undname.obj
 0001:0005a958       ?doAllocationLanguage@UnDecorator@@SAHXZ 1005b958 f i libvcruntime:undname.obj
 0001:0005a966       ?doAllocationModel@UnDecorator@@SAHXZ 1005b966 f i libvcruntime:undname.obj
 0001:0005a974       ?doEcsu@UnDecorator@@SAHXZ 1005b974 f i libvcruntime:undname.obj
 0001:0005a982       ?doEllipsis@UnDecorator@@SAHXZ 1005b982 f i libvcruntime:undname.obj
 0001:0005a990       ?doFunctionReturns@UnDecorator@@SAHXZ 1005b990 f i libvcruntime:undname.obj
 0001:0005a99e       ?doMSKeywords@UnDecorator@@SAHXZ 1005b99e f i libvcruntime:undname.obj
 0001:0005a9ab       ?doMemberTypes@UnDecorator@@SAHXZ 1005b9ab f i libvcruntime:undname.obj
 0001:0005a9b9       ?doNameOnly@UnDecorator@@SAHXZ 1005b9b9 f i libvcruntime:undname.obj
 0001:0005a9c4       ?doNoIdentCharCheck@UnDecorator@@SAHXZ 1005b9c4 f i libvcruntime:undname.obj
 0001:0005a9cf       ?doPchar@DName@@AAEXPBDH@Z 1005b9cf f   libvcruntime:undname.obj
 0001:0005aa55       ?doPtr64@UnDecorator@@SAHXZ 1005ba55 f i libvcruntime:undname.obj
 0001:0005aa63       ?doRestrictionSpec@UnDecorator@@SAHXZ 1005ba63 f i libvcruntime:undname.obj
 0001:0005aa71       ?doThisTypes@UnDecorator@@SAHXZ 1005ba71 f i libvcruntime:undname.obj
 0001:0005aa83       ?doThrowTypes@UnDecorator@@SAHXZ 1005ba83 f i libvcruntime:undname.obj
 0001:0005aa91       ?doTypeOnly@UnDecorator@@SAHXZ 1005ba91 f i libvcruntime:undname.obj
 0001:0005aa9c       ?doUnderScore@UnDecorator@@SAHXZ 1005ba9c f i libvcruntime:undname.obj
 0001:0005aaa7       ?getArgumentList@UnDecorator@@CA?AVDName@@XZ 1005baa7 f   libvcruntime:undname.obj
 0001:0005aba6       ?getArgumentTypes@UnDecorator@@CA?AVDName@@XZ 1005bba6 f   libvcruntime:undname.obj
 0001:0005ac8a       ?getArrayType@UnDecorator@@CA?AVDName@@ABV2@@Z 1005bc8a f i libvcruntime:undname.obj
 0001:0005ae7f       ?getBasedType@UnDecorator@@CA?AVDName@@XZ 1005be7f f   libvcruntime:undname.obj
 0001:0005af19       ?getBasicDataType@UnDecorator@@CA?AVDName@@ABV2@@Z 1005bf19 f   libvcruntime:undname.obj
 0001:0005b310       ?getCallIndex@UnDecorator@@CA?AVDName@@XZ 1005c310 f i libvcruntime:undname.obj
 0001:0005b324       ?getCallingConvention@UnDecorator@@CA?AVDName@@XZ 1005c324 f   libvcruntime:undname.obj
 0001:0005b3e5       ?getDataIndirectType@UnDecorator@@CA?AVDName@@ABV2@PBD0H@Z 1005c3e5 f   libvcruntime:undname.obj
 0001:0005b9f8       ?getDataIndirectType@UnDecorator@@CA?AVDName@@XZ 1005c9f8 f i libvcruntime:undname.obj
 0001:0005ba2c       ?getDataType@UnDecorator@@CA?AVDName@@PAV2@@Z 1005ca2c f   libvcruntime:undname.obj
 0001:0005bafa       ?getDecoratedName@UnDecorator@@CA?AVDName@@XZ 1005cafa f   libvcruntime:undname.obj
 0001:0005bd4e       ?getDimension@UnDecorator@@CA?AVDName@@_N@Z 1005cd4e f   libvcruntime:undname.obj
 0001:0005be91       ?getDispatchTarget@UnDecorator@@CA?AVDName@@XZ 1005ce91 f   libvcruntime:undname.obj
 0001:0005bee6       ?getDisplacement@UnDecorator@@CA?AVDName@@XZ 1005cee6 f i libvcruntime:undname.obj
 0001:0005befa       ?getECSUDataType@UnDecorator@@CA?AVDName@@XZ 1005cefa f   libvcruntime:undname.obj
 0001:0005c012       ?getECSUName@UnDecorator@@CA?AVDName@@XZ 1005d012 f i libvcruntime:undname.obj
 0001:0005c023       ?getEnumType@UnDecorator@@CA?AVDName@@XZ 1005d023 f i libvcruntime:undname.obj
 0001:0005c117       ?getExtendedDataIndirectType@UnDecorator@@CA?AVDName@@AAPBDAA_NH@Z 1005d117 f   libvcruntime:undname.obj
 0001:0005c2d6       ?getExternalDataType@UnDecorator@@CA?AVDName@@ABV2@@Z 1005d2d6 f i libvcruntime:undname.obj
 0001:0005c348       ?getFunctionIndirectType@UnDecorator@@CA?AVDName@@ABV2@@Z 1005d348 f   libvcruntime:undname.obj
 0001:0005c763       ?getGuardNumber@UnDecorator@@CA?AVDName@@XZ 1005d763 f i libvcruntime:undname.obj
 0001:0005c777       ?getLastChar@DName@@QBEDXZ 1005d777 f i libvcruntime:undname.obj
 0001:0005c796       ?getLastChar@DNameStatusNode@@UBEDXZ 1005d796 f i libvcruntime:undname.obj
 0001:0005c7a2       ?getLastChar@charNode@@UBEDXZ 1005d7a2 f i libvcruntime:undname.obj
 0001:0005c7a6       ?getLastChar@pDNameNode@@UBEDXZ 1005d7a6 f i libvcruntime:undname.obj
 0001:0005c7b4       ?getLastChar@pairNode@@UBEDXZ 1005d7b4 f i libvcruntime:undname.obj
 0001:0005c7e7       ?getLastChar@pcharNode@@UBEDXZ 1005d7e7 f i libvcruntime:undname.obj
 0001:0005c7f9       ?getLexicalFrame@UnDecorator@@CA?AVDName@@XZ 1005d7f9 f i libvcruntime:undname.obj
 0001:0005c836       ?getMemory@_HeapManager@@QAEPAXIH@Z 1005d836 f   libvcruntime:undname.obj
 0001:0005c8c4       ?getNumberOfDimensions@UnDecorator@@CAHXZ 1005d8c4 f   libvcruntime:undname.obj
 0001:0005c925       ?getOperatorName@UnDecorator@@CA?AVDName@@_NPA_N@Z 1005d925 f i libvcruntime:undname.obj
 0001:0005cf61       ?getPointerType@UnDecorator@@CA?AVDName@@ABV2@0@Z 1005df61 f i libvcruntime:undname.obj
 0001:0005cf7f       ?getPointerTypeArray@UnDecorator@@CA?AVDName@@ABV2@0@Z 1005df7f f i libvcruntime:undname.obj
 0001:0005cfa0       ?getPrimaryDataType@UnDecorator@@CA?AVDName@@ABV2@@Z 1005dfa0 f   libvcruntime:undname.obj
 0001:0005d191       ?getPtrRefDataType@UnDecorator@@CA?AVDName@@ABV2@H@Z 1005e191 f   libvcruntime:undname.obj
 0001:0005d2c4       ?getPtrRefType@UnDecorator@@CA?AVDName@@ABV2@0PBD@Z 1005e2c4 f   libvcruntime:undname.obj
 0001:0005d3c0       ?getReferenceType@UnDecorator@@CA?AVDName@@ABV2@0PBD@Z 1005e3c0 f i libvcruntime:undname.obj
 0001:0005d3dc       ?getRestrictionSpec@UnDecorator@@CA?AVDName@@XZ 1005e3dc f   libvcruntime:undname.obj
 0001:0005d4bd       ?getReturnType@UnDecorator@@CA?AVDName@@PAV2@@Z 1005e4bd f   libvcruntime:undname.obj
 0001:0005d4ec       ?getScope@UnDecorator@@CA?AVDName@@XZ 1005e4ec f   libvcruntime:undname.obj
 0001:0005d89e       ?getScopedName@UnDecorator@@CA?AVDName@@XZ 1005e89e f   libvcruntime:undname.obj
 0001:0005d97a       ?getSignedDimension@UnDecorator@@CA?AVDName@@XZ 1005e97a f   libvcruntime:undname.obj
 0001:0005d9cd       ?getStorageConvention@UnDecorator@@CA?AVDName@@XZ 1005e9cd f i libvcruntime:undname.obj
 0001:0005d9de       ?getString@DName@@QBEPADPAD0@Z 1005e9de f i libvcruntime:undname.obj
 0001:0005da0a       ?getString@DName@@QBEPADPADH@Z 1005ea0a f i libvcruntime:undname.obj
 0001:0005da60       ?getString@DNameStatusNode@@UBEPADPAD0@Z 1005ea60 f i libvcruntime:undname.obj
 0001:0005da87       ?getString@charNode@@UBEPADPAD0@Z 1005ea87 f i libvcruntime:undname.obj
 0001:0005da9c       ?getString@pDNameNode@@UBEPADPAD0@Z 1005ea9c f i libvcruntime:undname.obj
 0001:0005dab3       ?getString@pairNode@@UBEPADPAD0@Z 1005eab3 f i libvcruntime:undname.obj
 0001:0005daf7       ?getString@pcharNode@@UBEPADPAD0@Z 1005eaf7 f i libvcruntime:undname.obj
 0001:0005db12       ?getStringEncoding@UnDecorator@@CA?AVDName@@PBDH@Z 1005eb12 f   libvcruntime:undname.obj
 0001:0005dbc1       ?getStringHelper@@YAPADPADPBD1H@Z 1005ebc1 f i libvcruntime:undname.obj
 0001:0005dbf8       ?getSymbolName@UnDecorator@@CA?AVDName@@XZ 1005ebf8 f i libvcruntime:undname.obj
 0001:0005dc40       ?getTemplateArgumentList@UnDecorator@@CA?AVDName@@XZ 1005ec40 f   libvcruntime:undname.obj
 0001:0005ded8       ?getTemplateConstant@UnDecorator@@CA?AVDName@@XZ 1005eed8 f   libvcruntime:undname.obj
 0001:0005e228       ?getTemplateName@UnDecorator@@CA?AVDName@@_N@Z 1005f228 f   libvcruntime:undname.obj
 0001:0005e37f       ?getThisType@UnDecorator@@CA?AVDName@@XZ 1005f37f f i libvcruntime:undname.obj
 0001:0005e3b4       ?getThrowTypes@UnDecorator@@CA?AVDName@@XZ 1005f3b4 f   libvcruntime:undname.obj
 0001:0005e436       ?getTypeEncoding@UnDecorator@@CAHXZ 1005f436 f i libvcruntime:undname.obj
 0001:0005e766       ?getVCallThunkType@UnDecorator@@CA?AVDName@@XZ 1005f766 f i libvcruntime:undname.obj
 0001:0005e7ad       ?getVbTableType@UnDecorator@@CA?AVDName@@ABV2@@Z 1005f7ad f i libvcruntime:undname.obj
 0001:0005e7c2       ?getVdispMapType@UnDecorator@@CA?AVDName@@ABV2@@Z 1005f7c2 f i libvcruntime:undname.obj
 0001:0005e818       ?getVfTableType@UnDecorator@@CA?AVDName@@ABV2@@Z 1005f818 f i libvcruntime:undname.obj
 0001:0005e97d       ?getZName@UnDecorator@@CA?AVDName@@_N0@Z 1005f97d f   libvcruntime:undname.obj
 0001:0005ebb5       ?haveTemplateParameters@UnDecorator@@SAHXZ 1005fbb5 f i libvcruntime:undname.obj
 0001:0005ebc0       ?isArray@DName@@QBEHXZ     1005fbc0 f i libvcruntime:undname.obj
 0001:0005ebca       ?isComArray@DName@@QBEHXZ  1005fbca f i libvcruntime:undname.obj
 0001:0005ebd4       ?isEmpty@DName@@QBEHXZ     1005fbd4 f i libvcruntime:undname.obj
 0001:0005ebdc       ?isFull@Replicator@@QBEHXZ 1005fbdc f i libvcruntime:undname.obj
 0001:0005ebe5       ?isNoTE@DName@@QBEHXZ      1005fbe5 f i libvcruntime:undname.obj
 0001:0005ebef       ?isPinPtr@DName@@QBEHXZ    1005fbef f i libvcruntime:undname.obj
 0001:0005ebf9       ?isPtrRef@DName@@QBEHXZ    1005fbf9 f i libvcruntime:undname.obj
 0001:0005ec03       ?isUDC@DName@@QBEHXZ       1005fc03 f i libvcruntime:undname.obj
 0001:0005ec14       ?isUDTThunk@DName@@QBEHXZ  1005fc14 f i libvcruntime:undname.obj
 0001:0005ec25       ?isVCallThunk@DName@@QBEHXZ 1005fc25 f i libvcruntime:undname.obj
 0001:0005ec2f       ?isValid@DName@@QBEHXZ     1005fc2f f i libvcruntime:undname.obj
 0001:0005ec39       ?length@DName@@QBEHXZ      1005fc39 f i libvcruntime:undname.obj
 0001:0005ec57       ?length@DNameStatusNode@@UBEHXZ 1005fc57 f i libvcruntime:undname.obj
 0001:0005ec5b       ?length@charNode@@UBEHXZ   1005fc5b f i libvcruntime:undname.obj
 0001:0005ec5f       ?length@pDNameNode@@UBEHXZ 1005fc5f f i libvcruntime:undname.obj
 0001:0005ec6d       ?length@pairNode@@UBEHXZ   1005fc6d f i libvcruntime:undname.obj
 0001:0005ecb7       ?length@pcharNode@@UBEHXZ  1005fcb7 f i libvcruntime:undname.obj
 0001:0005ecbb       ?make@DNameStatusNode@@SAPAV1@W4DNameStatus@@@Z 1005fcbb f i libvcruntime:undname.obj
 0001:0005ed41       ?setIsArray@DName@@QAEXXZ  1005fd41 f i libvcruntime:undname.obj
 0001:0005ed49       ?setIsComArray@DName@@QAEXXZ 1005fd49 f i libvcruntime:undname.obj
 0001:0005ed51       ?setIsNoTE@DName@@QAEXXZ   1005fd51 f i libvcruntime:undname.obj
 0001:0005ed59       ?setIsPinPtr@DName@@QAEXXZ 1005fd59 f i libvcruntime:undname.obj
 0001:0005ed61       ?setIsUDC@DName@@QAEXXZ    1005fd61 f i libvcruntime:undname.obj
 0001:0005ed6e       ?setIsVCallThunk@DName@@QAEXXZ 1005fd6e f i libvcruntime:undname.obj
 0001:0005ed76       ?setPtrRef@DName@@QAEAAV1@XZ 1005fd76 f i libvcruntime:undname.obj
 0001:0005ed80       ?status@DName@@QBE?AW4DNameStatus@@XZ 1005fd80 f i libvcruntime:undname.obj
 0001:0005edec       ___unDName                 1005fdec f   libvcruntime:undname.obj
 0001:0005ee81       ___unDNameEx               1005fe81 f   libvcruntime:undname.obj
 0001:0005ef16       __vsprintf_s_l             1005ff16 f i libvcruntime:undname.obj
 0001:0005ef43       _sprintf_s                 1005ff43 f i libvcruntime:undname.obj
 0001:0005ef60       __global_unwind2           1005ff60 f   libvcruntime:_exsup_.obj
 0001:0005efc5       __local_unwind2            1005ffc5 f   libvcruntime:_exsup_.obj
 0001:0005f049       __abnormal_termination     10060049 f   libvcruntime:_exsup_.obj
 0001:0005f06c       __NLG_Notify1              1006006c f   libvcruntime:_exsup_.obj
 0001:0005f075       __NLG_Notify               10060075 f   libvcruntime:_exsup_.obj
 0001:0005f08c       __NLG_Dispatch2            1006008c     libvcruntime:_exsup_.obj
 0001:0005f08c       __NLG_Dispatch             1006008c     libvcruntime:_exsup_.obj
 0001:0005f094       __NLG_Call                 10060094 f   libvcruntime:_exsup_.obj
 0001:0005f096       __NLG_Return2              10060096     libvcruntime:_exsup_.obj
 0001:0005f097       ??$__crt_interlocked_read@J@@YAJPDJ@Z 10060097 f i libucrt:fread.obj
 0001:0005f0a3       ??0__crt_stdio_stream@@QAE@QAU_iobuf@@@Z 100600a3 f i libucrt:fread.obj
 0001:0005f0b3       ??C__crt_stdio_stream@@QBEPAU__crt_stdio_stream_data@@XZ 100600b3 f i libucrt:fread.obj
 0001:0005f0b6       ?__acrt_stdio_reset_buffer@@YAXV__crt_stdio_stream@@@Z 100600b6 f i libucrt:fread.obj
 0001:0005f0cc       ?get_flags@__crt_stdio_stream@@QBEJXZ 100600cc f i libucrt:fread.obj
 0001:0005f0d2       ?has_any_buffer@__crt_stdio_stream@@QBE_NXZ 100600d2 f i libucrt:fread.obj
 0001:0005f0e0       ?has_any_of@__crt_stdio_stream@@QBE_NJ@Z 100600e0 f i libucrt:fread.obj
 0001:0005f0f4       ?public_stream@__crt_stdio_stream@@QBEPAU_iobuf@@XZ 100600f4 f i libucrt:fread.obj
 0001:0005f0f7       ?set_flags@__crt_stdio_stream@@QBE_NJ@Z 100600f7 f i libucrt:fread.obj
 0001:0005f11b       ?valid@__crt_stdio_stream@@QBE_NXZ 1006011b f i libucrt:fread.obj
 0001:0005f122       __fread_nolock             10060122 f   libucrt:fread.obj
 0001:0005f13f       __fread_nolock_s           1006013f f   libucrt:fread.obj
 0001:0005f318       _fread                     10060318 f   libucrt:fread.obj
 0001:0005f335       _fread_s                   10060335 f   libucrt:fread.obj
 0001:0005f508       ??0__acrt_stdio_temporary_buffering_guard@@QAE@QAU_iobuf@@@Z 10060508 f i libucrt:fwrite.obj
 0001:0005f526       ??1__acrt_stdio_temporary_buffering_guard@@QAE@XZ 10060526 f i libucrt:fwrite.obj
 0001:0005f58d       ?has_big_buffer@__crt_stdio_stream@@QBE_NXZ 1006058d f i libucrt:fwrite.obj
 0001:0005f598       __fwrite_nolock            10060598 f   libucrt:fwrite.obj
 0001:0005f713       _fwrite                    10060713 f   libucrt:fwrite.obj
 0001:0005f778       ??$?0ABV?$stream_output_adapter@D@__crt_stdio_output@@AB_KABQBDABQAU__crt_locale_pointers@@ABQAD@?$format_validation_base@DV?$stream_output_adapter@D@__crt_stdio_output@@@__crt_stdio_output@@IAE@ABV?$stream_output_adapter@D@1@AB_KABQBDABQAU__crt_locale_pointers@@ABQAD@Z 10060778 f i libucrt:output.obj
 0001:0005f79b       ??$?0ABV?$stream_output_adapter@D@__crt_stdio_output@@AB_KABQBDABQAU__crt_locale_pointers@@ABQAD@?$positional_parameter_base@DV?$stream_output_adapter@D@__crt_stdio_output@@@__crt_stdio_output@@IAE@ABV?$stream_output_adapter@D@1@AB_KABQBDABQAU__crt_locale_pointers@@ABQAD@Z 1006079b f i libucrt:output.obj
 0001:0005f7e3       ??$?0ABV?$stream_output_adapter@D@__crt_stdio_output@@AB_KABQBDABQAU__crt_locale_pointers@@ABQAD@?$standard_base@DV?$stream_output_adapter@D@__crt_stdio_output@@@__crt_stdio_output@@IAE@ABV?$stream_output_adapter@D@1@AB_KABQBDABQAU__crt_locale_pointers@@ABQAD@Z 100607e3 f i libucrt:output.obj
 0001:0005f818       ??$?0ABV?$stream_output_adapter@_W@__crt_stdio_output@@AB_KABQB_WABQAU__crt_locale_pointers@@ABQAD@?$format_validation_base@_WV?$stream_output_adapter@_W@__crt_stdio_output@@@__crt_stdio_output@@IAE@ABV?$stream_output_adapter@_W@1@AB_KABQB_WABQAU__crt_locale_pointers@@ABQAD@Z 10060818 f i libucrt:output.obj
 0001:0005f83b       ??$?0ABV?$stream_output_adapter@_W@__crt_stdio_output@@AB_KABQB_WABQAU__crt_locale_pointers@@ABQAD@?$positional_parameter_base@_WV?$stream_output_adapter@_W@__crt_stdio_output@@@__crt_stdio_output@@IAE@ABV?$stream_output_adapter@_W@1@AB_KABQB_WABQAU__crt_locale_pointers@@ABQAD@Z 1006083b f i libucrt:output.obj
 0001:0005f883       ??$?0ABV?$stream_output_adapter@_W@__crt_stdio_output@@AB_KABQB_WABQAU__crt_locale_pointers@@ABQAD@?$standard_base@_WV?$stream_output_adapter@_W@__crt_stdio_output@@@__crt_stdio_output@@IAE@ABV?$stream_output_adapter@_W@1@AB_KABQB_WABQAU__crt_locale_pointers@@ABQAD@Z 10060883 f i libucrt:output.obj
 0001:0005f8b8       ??$?0ABV?$string_output_adapter@D@__crt_stdio_output@@AB_KABQBDABQAU__crt_locale_pointers@@ABQAD@?$format_validation_base@DV?$string_output_adapter@D@__crt_stdio_output@@@__crt_stdio_output@@IAE@ABV?$string_output_adapter@D@1@AB_KABQBDABQAU__crt_locale_pointers@@ABQAD@Z 100608b8 f i libucrt:output.obj
 0001:0005f8db       ??$?0ABV?$string_output_adapter@D@__crt_stdio_output@@AB_KABQBDABQAU__crt_locale_pointers@@ABQAD@?$positional_parameter_base@DV?$string_output_adapter@D@__crt_stdio_output@@@__crt_stdio_output@@IAE@ABV?$string_output_adapter@D@1@AB_KABQBDABQAU__crt_locale_pointers@@ABQAD@Z 100608db f i libucrt:output.obj
 0001:0005f923       ??$?0ABV?$string_output_adapter@D@__crt_stdio_output@@AB_KABQBDABQAU__crt_locale_pointers@@ABQAD@?$standard_base@DV?$string_output_adapter@D@__crt_stdio_output@@@__crt_stdio_output@@IAE@ABV?$string_output_adapter@D@1@AB_KABQBDABQAU__crt_locale_pointers@@ABQAD@Z 10060923 f i libucrt:output.obj
 0001:0005f958       ??$?0ABV?$string_output_adapter@_W@__crt_stdio_output@@AB_KABQB_WABQAU__crt_locale_pointers@@ABQAD@?$format_validation_base@_WV?$string_output_adapter@_W@__crt_stdio_output@@@__crt_stdio_output@@IAE@ABV?$string_output_adapter@_W@1@AB_KABQB_WABQAU__crt_locale_pointers@@ABQAD@Z 10060958 f i libucrt:output.obj
 0001:0005f97b       ??$?0ABV?$string_output_adapter@_W@__crt_stdio_output@@AB_KABQB_WABQAU__crt_locale_pointers@@ABQAD@?$positional_parameter_base@_WV?$string_output_adapter@_W@__crt_stdio_output@@@__crt_stdio_output@@IAE@ABV?$string_output_adapter@_W@1@AB_KABQB_WABQAU__crt_locale_pointers@@ABQAD@Z 1006097b f i libucrt:output.obj
 0001:0005f9c3       ??$?0ABV?$string_output_adapter@_W@__crt_stdio_output@@AB_KABQB_WABQAU__crt_locale_pointers@@ABQAD@?$standard_base@_WV?$string_output_adapter@_W@__crt_stdio_output@@@__crt_stdio_output@@IAE@ABV?$string_output_adapter@_W@1@AB_KABQB_WABQAU__crt_locale_pointers@@ABQAD@Z 100609c3 f i libucrt:output.obj
 0001:00060baf       ??$count@D@formatting_buffer@__crt_stdio_output@@QBEIXZ 10061baf f i libucrt:output.obj
 0001:00060bc7       ??$count@_W@formatting_buffer@__crt_stdio_output@@QBEIXZ 10061bc7 f i libucrt:output.obj
 0001:00060be0       ??$data@D@formatting_buffer@__crt_stdio_output@@QAEPADXZ 10061be0 f i libucrt:output.obj
 0001:00060bed       ??$data@_W@formatting_buffer@__crt_stdio_output@@QAEPA_WXZ 10061bed f i libucrt:output.obj
 0001:00060bfa       ??$ensure_buffer_is_big_enough@D@formatting_buffer@__crt_stdio_output@@QAE_NI@Z 10061bfa f i libucrt:output.obj
 0001:00060c80       ??$extract_argument_from_va_list@C_J@?$positional_parameter_base@DV?$stream_output_adapter@D@__crt_stdio_output@@@__crt_stdio_output@@IAE_NAA_J@Z 10061c80 f i libucrt:output.obj
 0001:00060cff       ??$extract_argument_from_va_list@C_J@?$positional_parameter_base@DV?$string_output_adapter@D@__crt_stdio_output@@@__crt_stdio_output@@IAE_NAA_J@Z 10061cff f i libucrt:output.obj
 0001:00060d7e       ??$extract_argument_from_va_list@C_J@?$positional_parameter_base@_WV?$stream_output_adapter@_W@__crt_stdio_output@@@__crt_stdio_output@@IAE_NAA_J@Z 10061d7e f i libucrt:output.obj
 0001:00060dfd       ??$extract_argument_from_va_list@C_J@?$positional_parameter_base@_WV?$string_output_adapter@_W@__crt_stdio_output@@@__crt_stdio_output@@IAE_NAA_J@Z 10061dfd f i libucrt:output.obj
 0001:00060e7c       ??$extract_argument_from_va_list@C_J@?$standard_base@DV?$stream_output_adapter@D@__crt_stdio_output@@@__crt_stdio_output@@IAE_NAA_J@Z 10061e7c f i libucrt:output.obj
 0001:00060e9b       ??$extract_argument_from_va_list@C_J@?$standard_base@DV?$string_output_adapter@D@__crt_stdio_output@@@__crt_stdio_output@@IAE_NAA_J@Z 10061e9b f i libucrt:output.obj
 0001:00060eba       ??$extract_argument_from_va_list@C_J@?$standard_base@_WV?$stream_output_adapter@_W@__crt_stdio_output@@@__crt_stdio_output@@IAE_NAA_J@Z 10061eba f i libucrt:output.obj
 0001:00060ed9       ??$extract_argument_from_va_list@C_J@?$standard_base@_WV?$string_output_adapter@_W@__crt_stdio_output@@@__crt_stdio_output@@IAE_NAA_J@Z 10061ed9 f i libucrt:output.obj
 0001:00060ef8       ??$extract_argument_from_va_list@E_J@?$positional_parameter_base@DV?$stream_output_adapter@D@__crt_stdio_output@@@__crt_stdio_output@@IAE_NAA_J@Z 10061ef8 f i libucrt:output.obj
 0001:00060f77       ??$extract_argument_from_va_list@E_J@?$positional_parameter_base@DV?$string_output_adapter@D@__crt_stdio_output@@@__crt_stdio_output@@IAE_NAA_J@Z 10061f77 f i libucrt:output.obj
 0001:00060ff6       ??$extract_argument_from_va_list@E_J@?$positional_parameter_base@_WV?$stream_output_adapter@_W@__crt_stdio_output@@@__crt_stdio_output@@IAE_NAA_J@Z 10061ff6 f i libucrt:output.obj
 0001:00061075       ??$extract_argument_from_va_list@E_J@?$positional_parameter_base@_WV?$string_output_adapter@_W@__crt_stdio_output@@@__crt_stdio_output@@IAE_NAA_J@Z 10062075 f i libucrt:output.obj
 0001:000610f4       ??$extract_argument_from_va_list@E_J@?$standard_base@DV?$stream_output_adapter@D@__crt_stdio_output@@@__crt_stdio_output@@IAE_NAA_J@Z 100620f4 f i libucrt:output.obj
 0001:00061113       ??$extract_argument_from_va_list@E_J@?$standard_base@DV?$string_output_adapter@D@__crt_stdio_output@@@__crt_stdio_output@@IAE_NAA_J@Z 10062113 f i libucrt:output.obj
 0001:00061132       ??$extract_argument_from_va_list@E_J@?$standard_base@_WV?$stream_output_adapter@_W@__crt_stdio_output@@@__crt_stdio_output@@IAE_NAA_J@Z 10062132 f i libucrt:output.obj
 0001:00061151       ??$extract_argument_from_va_list@E_J@?$standard_base@_WV?$string_output_adapter@_W@__crt_stdio_output@@@__crt_stdio_output@@IAE_NAA_J@Z 10062151 f i libucrt:output.obj
 0001:00061170       ??$extract_argument_from_va_list@F_J@?$positional_parameter_base@DV?$stream_output_adapter@D@__crt_stdio_output@@@__crt_stdio_output@@IAE_NAA_J@Z 10062170 f i libucrt:output.obj
 0001:000611ef       ??$extract_argument_from_va_list@F_J@?$positional_parameter_base@DV?$string_output_adapter@D@__crt_stdio_output@@@__crt_stdio_output@@IAE_NAA_J@Z 100621ef f i libucrt:output.obj
 0001:0006126e       ??$extract_argument_from_va_list@F_J@?$positional_parameter_base@_WV?$stream_output_adapter@_W@__crt_stdio_output@@@__crt_stdio_output@@IAE_NAA_J@Z 1006226e f i libucrt:output.obj
 0001:000612ed       ??$extract_argument_from_va_list@F_J@?$positional_parameter_base@_WV?$string_output_adapter@_W@__crt_stdio_output@@@__crt_stdio_output@@IAE_NAA_J@Z 100622ed f i libucrt:output.obj
 0001:0006136c       ??$extract_argument_from_va_list@F_J@?$standard_base@DV?$stream_output_adapter@D@__crt_stdio_output@@@__crt_stdio_output@@IAE_NAA_J@Z 1006236c f i libucrt:output.obj
 0001:0006138b       ??$extract_argument_from_va_list@F_J@?$standard_base@DV?$string_output_adapter@D@__crt_stdio_output@@@__crt_stdio_output@@IAE_NAA_J@Z 1006238b f i libucrt:output.obj
 0001:000613aa       ??$extract_argument_from_va_list@F_J@?$standard_base@_WV?$stream_output_adapter@_W@__crt_stdio_output@@@__crt_stdio_output@@IAE_NAA_J@Z 100623aa f i libucrt:output.obj
 0001:000613c9       ??$extract_argument_from_va_list@F_J@?$standard_base@_WV?$string_output_adapter@_W@__crt_stdio_output@@@__crt_stdio_output@@IAE_NAA_J@Z 100623c9 f i libucrt:output.obj
 0001:000613e8       ??$extract_argument_from_va_list@GD@?$positional_parameter_base@DV?$stream_output_adapter@D@__crt_stdio_output@@@__crt_stdio_output@@IAE_NAAD@Z 100623e8 f i libucrt:output.obj
 0001:00061466       ??$extract_argument_from_va_list@GD@?$positional_parameter_base@DV?$string_output_adapter@D@__crt_stdio_output@@@__crt_stdio_output@@IAE_NAAD@Z 10062466 f i libucrt:output.obj
 0001:000614e4       ??$extract_argument_from_va_list@GD@?$standard_base@DV?$stream_output_adapter@D@__crt_stdio_output@@@__crt_stdio_output@@IAE_NAAD@Z 100624e4 f i libucrt:output.obj
 0001:000614fe       ??$extract_argument_from_va_list@GD@?$standard_base@DV?$string_output_adapter@D@__crt_stdio_output@@@__crt_stdio_output@@IAE_NAAD@Z 100624fe f i libucrt:output.obj
 0001:00061518       ??$extract_argument_from_va_list@G_J@?$positional_parameter_base@DV?$stream_output_adapter@D@__crt_stdio_output@@@__crt_stdio_output@@IAE_NAA_J@Z 10062518 f i libucrt:output.obj
 0001:00061597       ??$extract_argument_from_va_list@G_J@?$positional_parameter_base@DV?$string_output_adapter@D@__crt_stdio_output@@@__crt_stdio_output@@IAE_NAA_J@Z 10062597 f i libucrt:output.obj
 0001:00061616       ??$extract_argument_from_va_list@G_J@?$positional_parameter_base@_WV?$stream_output_adapter@_W@__crt_stdio_output@@@__crt_stdio_output@@IAE_NAA_J@Z 10062616 f i libucrt:output.obj
 0001:00061695       ??$extract_argument_from_va_list@G_J@?$positional_parameter_base@_WV?$string_output_adapter@_W@__crt_stdio_output@@@__crt_stdio_output@@IAE_NAA_J@Z 10062695 f i libucrt:output.obj
 0001:00061714       ??$extract_argument_from_va_list@G_J@?$standard_base@DV?$stream_output_adapter@D@__crt_stdio_output@@@__crt_stdio_output@@IAE_NAA_J@Z 10062714 f i libucrt:output.obj
 0001:00061733       ??$extract_argument_from_va_list@G_J@?$standard_base@DV?$string_output_adapter@D@__crt_stdio_output@@@__crt_stdio_output@@IAE_NAA_J@Z 10062733 f i libucrt:output.obj
 0001:00061752       ??$extract_argument_from_va_list@G_J@?$standard_base@_WV?$stream_output_adapter@_W@__crt_stdio_output@@@__crt_stdio_output@@IAE_NAA_J@Z 10062752 f i libucrt:output.obj
 0001:00061771       ??$extract_argument_from_va_list@G_J@?$standard_base@_WV?$string_output_adapter@_W@__crt_stdio_output@@@__crt_stdio_output@@IAE_NAA_J@Z 10062771 f i libucrt:output.obj
 0001:00061790       ??$extract_argument_from_va_list@H_J@?$positional_parameter_base@DV?$stream_output_adapter@D@__crt_stdio_output@@@__crt_stdio_output@@IAE_NAA_J@Z 10062790 f i libucrt:output.obj
 0001:0006180d       ??$extract_argument_from_va_list@H_J@?$positional_parameter_base@DV?$string_output_adapter@D@__crt_stdio_output@@@__crt_stdio_output@@IAE_NAA_J@Z 1006280d f i libucrt:output.obj
 0001:0006188a       ??$extract_argument_from_va_list@H_J@?$positional_parameter_base@_WV?$stream_output_adapter@_W@__crt_stdio_output@@@__crt_stdio_output@@IAE_NAA_J@Z 1006288a f i libucrt:output.obj
 0001:00061907       ??$extract_argument_from_va_list@H_J@?$positional_parameter_base@_WV?$string_output_adapter@_W@__crt_stdio_output@@@__crt_stdio_output@@IAE_NAA_J@Z 10062907 f i libucrt:output.obj
 0001:00061984       ??$extract_argument_from_va_list@H_J@?$standard_base@DV?$stream_output_adapter@D@__crt_stdio_output@@@__crt_stdio_output@@IAE_NAA_J@Z 10062984 f i libucrt:output.obj
 0001:000619a2       ??$extract_argument_from_va_list@H_J@?$standard_base@DV?$string_output_adapter@D@__crt_stdio_output@@@__crt_stdio_output@@IAE_NAA_J@Z 100629a2 f i libucrt:output.obj
 0001:000619c0       ??$extract_argument_from_va_list@H_J@?$standard_base@_WV?$stream_output_adapter@_W@__crt_stdio_output@@@__crt_stdio_output@@IAE_NAA_J@Z 100629c0 f i libucrt:output.obj
 0001:000619de       ??$extract_argument_from_va_list@H_J@?$standard_base@_WV?$string_output_adapter@_W@__crt_stdio_output@@@__crt_stdio_output@@IAE_NAA_J@Z 100629de f i libucrt:output.obj
 0001:000619fc       ??$extract_argument_from_va_list@I_J@?$positional_parameter_base@DV?$stream_output_adapter@D@__crt_stdio_output@@@__crt_stdio_output@@IAE_NAA_J@Z 100629fc f i libucrt:output.obj
 0001:00061a82       ??$extract_argument_from_va_list@I_J@?$positional_parameter_base@DV?$string_output_adapter@D@__crt_stdio_output@@@__crt_stdio_output@@IAE_NAA_J@Z 10062a82 f i libucrt:output.obj
 0001:00061b08       ??$extract_argument_from_va_list@I_J@?$positional_parameter_base@_WV?$stream_output_adapter@_W@__crt_stdio_output@@@__crt_stdio_output@@IAE_NAA_J@Z 10062b08 f i libucrt:output.obj
 0001:00061b8e       ??$extract_argument_from_va_list@I_J@?$positional_parameter_base@_WV?$string_output_adapter@_W@__crt_stdio_output@@@__crt_stdio_output@@IAE_NAA_J@Z 10062b8e f i libucrt:output.obj
 0001:00061c14       ??$extract_argument_from_va_list@I_J@?$standard_base@DV?$stream_output_adapter@D@__crt_stdio_output@@@__crt_stdio_output@@IAE_NAA_J@Z 10062c14 f i libucrt:output.obj
 0001:00061c32       ??$extract_argument_from_va_list@I_J@?$standard_base@DV?$string_output_adapter@D@__crt_stdio_output@@@__crt_stdio_output@@IAE_NAA_J@Z 10062c32 f i libucrt:output.obj
 0001:00061c50       ??$extract_argument_from_va_list@I_J@?$standard_base@_WV?$stream_output_adapter@_W@__crt_stdio_output@@@__crt_stdio_output@@IAE_NAA_J@Z 10062c50 f i libucrt:output.obj
 0001:00061c6e       ??$extract_argument_from_va_list@I_J@?$standard_base@_WV?$string_output_adapter@_W@__crt_stdio_output@@@__crt_stdio_output@@IAE_NAA_J@Z 10062c6e f i libucrt:output.obj
 0001:00061c8c       ??$extract_argument_from_va_list@PADPAD@?$positional_parameter_base@DV?$stream_output_adapter@D@__crt_stdio_output@@@__crt_stdio_output@@IAE_NAAPAD@Z 10062c8c f i libucrt:output.obj
 0001:00061d0a       ??$extract_argument_from_va_list@PADPAD@?$positional_parameter_base@DV?$string_output_adapter@D@__crt_stdio_output@@@__crt_stdio_output@@IAE_NAAPAD@Z 10062d0a f i libucrt:output.obj
 0001:00061d88       ??$extract_argument_from_va_list@PADPAD@?$positional_parameter_base@_WV?$stream_output_adapter@_W@__crt_stdio_output@@@__crt_stdio_output@@IAE_NAAPAD@Z 10062d88 f i libucrt:output.obj
 0001:00061e06       ??$extract_argument_from_va_list@PADPAD@?$positional_parameter_base@_WV?$string_output_adapter@_W@__crt_stdio_output@@@__crt_stdio_output@@IAE_NAAPAD@Z 10062e06 f i libucrt:output.obj
 0001:00061e84       ??$extract_argument_from_va_list@PADPAD@?$standard_base@DV?$stream_output_adapter@D@__crt_stdio_output@@@__crt_stdio_output@@IAE_NAAPAD@Z 10062e84 f i libucrt:output.obj
 0001:00061e9e       ??$extract_argument_from_va_list@PADPAD@?$standard_base@DV?$string_output_adapter@D@__crt_stdio_output@@@__crt_stdio_output@@IAE_NAAPAD@Z 10062e9e f i libucrt:output.obj
 0001:00061eb8       ??$extract_argument_from_va_list@PADPAD@?$standard_base@_WV?$stream_output_adapter@_W@__crt_stdio_output@@@__crt_stdio_output@@IAE_NAAPAD@Z 10062eb8 f i libucrt:output.obj
 0001:00061ed2       ??$extract_argument_from_va_list@PADPAD@?$standard_base@_WV?$string_output_adapter@_W@__crt_stdio_output@@@__crt_stdio_output@@IAE_NAAPAD@Z 10062ed2 f i libucrt:output.obj
 0001:0006221c       ??$extract_argument_from_va_list@PAXPAX@?$positional_parameter_base@DV?$stream_output_adapter@D@__crt_stdio_output@@@__crt_stdio_output@@IAE_NAAPAX@Z 1006321c f i libucrt:output.obj
 0001:0006229a       ??$extract_argument_from_va_list@PAXPAX@?$positional_parameter_base@DV?$string_output_adapter@D@__crt_stdio_output@@@__crt_stdio_output@@IAE_NAAPAX@Z 1006329a f i libucrt:output.obj
 0001:00062318       ??$extract_argument_from_va_list@PAXPAX@?$positional_parameter_base@_WV?$stream_output_adapter@_W@__crt_stdio_output@@@__crt_stdio_output@@IAE_NAAPAX@Z 10063318 f i libucrt:output.obj
 0001:00062396       ??$extract_argument_from_va_list@PAXPAX@?$positional_parameter_base@_WV?$string_output_adapter@_W@__crt_stdio_output@@@__crt_stdio_output@@IAE_NAAPAX@Z 10063396 f i libucrt:output.obj
 0001:00062414       ??$extract_argument_from_va_list@PAXPAX@?$standard_base@DV?$stream_output_adapter@D@__crt_stdio_output@@@__crt_stdio_output@@IAE_NAAPAX@Z 10063414 f i libucrt:output.obj
 0001:0006242e       ??$extract_argument_from_va_list@PAXPAX@?$standard_base@DV?$string_output_adapter@D@__crt_stdio_output@@@__crt_stdio_output@@IAE_NAAPAX@Z 1006342e f i libucrt:output.obj
 0001:00062448       ??$extract_argument_from_va_list@PAXPAX@?$standard_base@_WV?$stream_output_adapter@_W@__crt_stdio_output@@@__crt_stdio_output@@IAE_NAAPAX@Z 10063448 f i libucrt:output.obj
 0001:00062462       ??$extract_argument_from_va_list@PAXPAX@?$standard_base@_WV?$string_output_adapter@_W@__crt_stdio_output@@@__crt_stdio_output@@IAE_NAAPAX@Z 10063462 f i libucrt:output.obj
 0001:0006247c       ??$extract_argument_from_va_list@U_CRT_DOUBLE@@U1@@?$positional_parameter_base@DV?$stream_output_adapter@D@__crt_stdio_output@@@__crt_stdio_output@@IAE_NAAU_CRT_DOUBLE@@@Z 1006347c f i libucrt:output.obj
 0001:0006250a       ??$extract_argument_from_va_list@U_CRT_DOUBLE@@U1@@?$positional_parameter_base@DV?$string_output_adapter@D@__crt_stdio_output@@@__crt_stdio_output@@IAE_NAAU_CRT_DOUBLE@@@Z 1006350a f i libucrt:output.obj
 0001:00062598       ??$extract_argument_from_va_list@U_CRT_DOUBLE@@U1@@?$positional_parameter_base@_WV?$stream_output_adapter@_W@__crt_stdio_output@@@__crt_stdio_output@@IAE_NAAU_CRT_DOUBLE@@@Z 10063598 f i libucrt:output.obj
 0001:00062626       ??$extract_argument_from_va_list@U_CRT_DOUBLE@@U1@@?$positional_parameter_base@_WV?$string_output_adapter@_W@__crt_stdio_output@@@__crt_stdio_output@@IAE_NAAU_CRT_DOUBLE@@@Z 10063626 f i libucrt:output.obj
 0001:000626b4       ??$extract_argument_from_va_list@U_CRT_DOUBLE@@U1@@?$standard_base@DV?$stream_output_adapter@D@__crt_stdio_output@@@__crt_stdio_output@@IAE_NAAU_CRT_DOUBLE@@@Z 100636b4 f i libucrt:output.obj
 0001:000626d4       ??$extract_argument_from_va_list@U_CRT_DOUBLE@@U1@@?$standard_base@DV?$string_output_adapter@D@__crt_stdio_output@@@__crt_stdio_output@@IAE_NAAU_CRT_DOUBLE@@@Z 100636d4 f i libucrt:output.obj
 0001:000626f4       ??$extract_argument_from_va_list@U_CRT_DOUBLE@@U1@@?$standard_base@_WV?$stream_output_adapter@_W@__crt_stdio_output@@@__crt_stdio_output@@IAE_NAAU_CRT_DOUBLE@@@Z 100636f4 f i libucrt:output.obj
 0001:00062714       ??$extract_argument_from_va_list@U_CRT_DOUBLE@@U1@@?$standard_base@_WV?$string_output_adapter@_W@__crt_stdio_output@@@__crt_stdio_output@@IAE_NAAU_CRT_DOUBLE@@@Z 10063714 f i libucrt:output.obj
 0001:00062734       ??$extract_argument_from_va_list@_J_J@?$positional_parameter_base@DV?$stream_output_adapter@D@__crt_stdio_output@@@__crt_stdio_output@@IAE_NAA_J@Z 10063734 f i libucrt:output.obj
 0001:000627c2       ??$extract_argument_from_va_list@_J_J@?$positional_parameter_base@DV?$string_output_adapter@D@__crt_stdio_output@@@__crt_stdio_output@@IAE_NAA_J@Z 100637c2 f i libucrt:output.obj
 0001:00062850       ??$extract_argument_from_va_list@_J_J@?$positional_parameter_base@_WV?$stream_output_adapter@_W@__crt_stdio_output@@@__crt_stdio_output@@IAE_NAA_J@Z 10063850 f i libucrt:output.obj
 0001:000628de       ??$extract_argument_from_va_list@_J_J@?$positional_parameter_base@_WV?$string_output_adapter@_W@__crt_stdio_output@@@__crt_stdio_output@@IAE_NAA_J@Z 100638de f i libucrt:output.obj
 0001:0006296c       ??$extract_argument_from_va_list@_J_J@?$standard_base@DV?$stream_output_adapter@D@__crt_stdio_output@@@__crt_stdio_output@@IAE_NAA_J@Z 1006396c f i libucrt:output.obj
 0001:0006298c       ??$extract_argument_from_va_list@_J_J@?$standard_base@DV?$string_output_adapter@D@__crt_stdio_output@@@__crt_stdio_output@@IAE_NAA_J@Z 1006398c f i libucrt:output.obj
 0001:000629ac       ??$extract_argument_from_va_list@_J_J@?$standard_base@_WV?$stream_output_adapter@_W@__crt_stdio_output@@@__crt_stdio_output@@IAE_NAA_J@Z 100639ac f i libucrt:output.obj
 0001:000629cc       ??$extract_argument_from_va_list@_J_J@?$standard_base@_WV?$string_output_adapter@_W@__crt_stdio_output@@@__crt_stdio_output@@IAE_NAA_J@Z 100639cc f i libucrt:output.obj
 0001:000629ec       ??$extract_argument_from_va_list@_K_J@?$positional_parameter_base@DV?$stream_output_adapter@D@__crt_stdio_output@@@__crt_stdio_output@@IAE_NAA_J@Z 100639ec f i libucrt:output.obj
 0001:00062a7a       ??$extract_argument_from_va_list@_K_J@?$positional_parameter_base@DV?$string_output_adapter@D@__crt_stdio_output@@@__crt_stdio_output@@IAE_NAA_J@Z 10063a7a f i libucrt:output.obj
 0001:00062b08       ??$extract_argument_from_va_list@_K_J@?$positional_parameter_base@_WV?$stream_output_adapter@_W@__crt_stdio_output@@@__crt_stdio_output@@IAE_NAA_J@Z 10063b08 f i libucrt:output.obj
 0001:00062b96       ??$extract_argument_from_va_list@_K_J@?$positional_parameter_base@_WV?$string_output_adapter@_W@__crt_stdio_output@@@__crt_stdio_output@@IAE_NAA_J@Z 10063b96 f i libucrt:output.obj
 0001:00062c24       ??$extract_argument_from_va_list@_K_J@?$standard_base@DV?$stream_output_adapter@D@__crt_stdio_output@@@__crt_stdio_output@@IAE_NAA_J@Z 10063c24 f i libucrt:output.obj
 0001:00062c44       ??$extract_argument_from_va_list@_K_J@?$standard_base@DV?$string_output_adapter@D@__crt_stdio_output@@@__crt_stdio_output@@IAE_NAA_J@Z 10063c44 f i libucrt:output.obj
 0001:00062c64       ??$extract_argument_from_va_list@_K_J@?$standard_base@_WV?$stream_output_adapter@_W@__crt_stdio_output@@@__crt_stdio_output@@IAE_NAA_J@Z 10063c64 f i libucrt:output.obj
 0001:00062c84       ??$extract_argument_from_va_list@_K_J@?$standard_base@_WV?$string_output_adapter@_W@__crt_stdio_output@@@__crt_stdio_output@@IAE_NAA_J@Z 10063c84 f i libucrt:output.obj
 0001:00062ca4       ??$extract_argument_from_va_list@_W_W@?$positional_parameter_base@DV?$stream_output_adapter@D@__crt_stdio_output@@@__crt_stdio_output@@IAE_NAA_W@Z 10063ca4 f i libucrt:output.obj
 0001:00062d26       ??$extract_argument_from_va_list@_W_W@?$positional_parameter_base@DV?$string_output_adapter@D@__crt_stdio_output@@@__crt_stdio_output@@IAE_NAA_W@Z 10063d26 f i libucrt:output.obj
 0001:00062da8       ??$extract_argument_from_va_list@_W_W@?$positional_parameter_base@_WV?$stream_output_adapter@_W@__crt_stdio_output@@@__crt_stdio_output@@IAE_NAA_W@Z 10063da8 f i libucrt:output.obj
 0001:00062e2a       ??$extract_argument_from_va_list@_W_W@?$positional_parameter_base@_WV?$string_output_adapter@_W@__crt_stdio_output@@@__crt_stdio_output@@IAE_NAA_W@Z 10063e2a f i libucrt:output.obj
 0001:00062eac       ??$extract_argument_from_va_list@_W_W@?$standard_base@DV?$stream_output_adapter@D@__crt_stdio_output@@@__crt_stdio_output@@IAE_NAA_W@Z 10063eac f i libucrt:output.obj
 0001:00062ec8       ??$extract_argument_from_va_list@_W_W@?$standard_base@DV?$string_output_adapter@D@__crt_stdio_output@@@__crt_stdio_output@@IAE_NAA_W@Z 10063ec8 f i libucrt:output.obj
 0001:00062ee4       ??$extract_argument_from_va_list@_W_W@?$standard_base@_WV?$stream_output_adapter@_W@__crt_stdio_output@@@__crt_stdio_output@@IAE_NAA_W@Z 10063ee4 f i libucrt:output.obj
 0001:00062f00       ??$extract_argument_from_va_list@_W_W@?$standard_base@_WV?$string_output_adapter@_W@__crt_stdio_output@@@__crt_stdio_output@@IAE_NAA_W@Z 10063f00 f i libucrt:output.obj
 0001:00062f1c       ??$get_parameter_type@D@?$positional_parameter_base@DV?$stream_output_adapter@D@__crt_stdio_output@@@__crt_stdio_output@@CA?AW4parameter_type@01@PAD@Z 10063f1c f i libucrt:output.obj
 0001:00062f20       ??$get_parameter_type@D@?$positional_parameter_base@DV?$string_output_adapter@D@__crt_stdio_output@@@__crt_stdio_output@@CA?AW4parameter_type@01@PAD@Z 10063f20 f i libucrt:output.obj
 0001:00062f24       ??$get_parameter_type@D@?$positional_parameter_base@_WV?$stream_output_adapter@_W@__crt_stdio_output@@@__crt_stdio_output@@CA?AW4parameter_type@01@PAD@Z 10063f24 f i libucrt:output.obj
 0001:00062f28       ??$get_parameter_type@D@?$positional_parameter_base@_WV?$string_output_adapter@_W@__crt_stdio_output@@@__crt_stdio_output@@CA?AW4parameter_type@01@PAD@Z 10063f28 f i libucrt:output.obj
 0001:00062f3c       ??$get_parameter_type@X@?$positional_parameter_base@DV?$stream_output_adapter@D@__crt_stdio_output@@@__crt_stdio_output@@CA?AW4parameter_type@01@PAX@Z 10063f3c f i libucrt:output.obj
 0001:00062f40       ??$get_parameter_type@X@?$positional_parameter_base@DV?$string_output_adapter@D@__crt_stdio_output@@@__crt_stdio_output@@CA?AW4parameter_type@01@PAX@Z 10063f40 f i libucrt:output.obj
 0001:00062f44       ??$get_parameter_type@X@?$positional_parameter_base@_WV?$stream_output_adapter@_W@__crt_stdio_output@@@__crt_stdio_output@@CA?AW4parameter_type@01@PAX@Z 10063f44 f i libucrt:output.obj
 0001:00062f48       ??$get_parameter_type@X@?$positional_parameter_base@_WV?$string_output_adapter@_W@__crt_stdio_output@@@__crt_stdio_output@@CA?AW4parameter_type@01@PAX@Z 10063f48 f i libucrt:output.obj
 0001:00062f4c       ??$is_character_specifier@D@?$positional_parameter_base@DV?$stream_output_adapter@D@__crt_stdio_output@@@__crt_stdio_output@@CA_ND@Z 10063f4c f i libucrt:output.obj
 0001:00062f65       ??$is_character_specifier@D@?$positional_parameter_base@DV?$string_output_adapter@D@__crt_stdio_output@@@__crt_stdio_output@@CA_ND@Z 10063f65 f i libucrt:output.obj
 0001:00062f7e       ??$is_character_specifier@_W@?$positional_parameter_base@_WV?$stream_output_adapter@_W@__crt_stdio_output@@@__crt_stdio_output@@CA_N_W@Z 10063f7e f i libucrt:output.obj
 0001:00062f9a       ??$is_character_specifier@_W@?$positional_parameter_base@_WV?$string_output_adapter@_W@__crt_stdio_output@@@__crt_stdio_output@@CA_N_W@Z 10063f9a f i libucrt:output.obj
 0001:00062fb6       ??$is_integral_specifier@D@?$positional_parameter_base@DV?$stream_output_adapter@D@__crt_stdio_output@@@__crt_stdio_output@@CA_ND@Z 10063fb6 f i libucrt:output.obj
 0001:00062fe3       ??$is_integral_specifier@D@?$positional_parameter_base@DV?$string_output_adapter@D@__crt_stdio_output@@@__crt_stdio_output@@CA_ND@Z 10063fe3 f i libucrt:output.obj
 0001:00063010       ??$is_integral_specifier@_W@?$positional_parameter_base@_WV?$stream_output_adapter@_W@__crt_stdio_output@@@__crt_stdio_output@@CA_N_W@Z 10064010 f i libucrt:output.obj
 0001:0006304c       ??$is_integral_specifier@_W@?$positional_parameter_base@_WV?$string_output_adapter@_W@__crt_stdio_output@@@__crt_stdio_output@@CA_N_W@Z 1006404c f i libucrt:output.obj
 0001:00063088       ??$is_pointer_specifier@D@?$positional_parameter_base@DV?$stream_output_adapter@D@__crt_stdio_output@@@__crt_stdio_output@@CA_ND@Z 10064088 f i libucrt:output.obj
 0001:00063096       ??$is_pointer_specifier@D@?$positional_parameter_base@DV?$string_output_adapter@D@__crt_stdio_output@@@__crt_stdio_output@@CA_ND@Z 10064096 f i libucrt:output.obj
 0001:000630a4       ??$is_pointer_specifier@_W@?$positional_parameter_base@_WV?$stream_output_adapter@_W@__crt_stdio_output@@@__crt_stdio_output@@CA_N_W@Z 100640a4 f i libucrt:output.obj
 0001:000630b3       ??$is_pointer_specifier@_W@?$positional_parameter_base@_WV?$string_output_adapter@_W@__crt_stdio_output@@@__crt_stdio_output@@CA_N_W@Z 100640b3 f i libucrt:output.obj
 0001:000630c2       ??$is_string_specifier@D@?$positional_parameter_base@DV?$stream_output_adapter@D@__crt_stdio_output@@@__crt_stdio_output@@CA_ND@Z 100640c2 f i libucrt:output.obj
 0001:000630db       ??$is_string_specifier@D@?$positional_parameter_base@DV?$string_output_adapter@D@__crt_stdio_output@@@__crt_stdio_output@@CA_ND@Z 100640db f i libucrt:output.obj
 0001:000630f4       ??$is_string_specifier@_W@?$positional_parameter_base@_WV?$stream_output_adapter@_W@__crt_stdio_output@@@__crt_stdio_output@@CA_N_W@Z 100640f4 f i libucrt:output.obj
 0001:00063110       ??$is_string_specifier@_W@?$positional_parameter_base@_WV?$string_output_adapter@_W@__crt_stdio_output@@@__crt_stdio_output@@CA_N_W@Z 10064110 f i libucrt:output.obj
 0001:0006312c       ??$is_wide_character_specifier@D@__crt_stdio_output@@YA_N_KDW4length_modifier@0@@Z 1006412c f i libucrt:output.obj
 0001:00063166       ??$is_wide_character_specifier@_W@__crt_stdio_output@@YA_N_K_WW4length_modifier@0@@Z 10064166 f i libucrt:output.obj
 0001:000631b2       ??$peek_va_arg@C@__crt_stdio_output@@YACPAD@Z 100641b2 f i libucrt:output.obj
 0001:000631be       ??$peek_va_arg@E@__crt_stdio_output@@YAEPAD@Z 100641be f i libucrt:output.obj
 0001:000631ca       ??$peek_va_arg@F@__crt_stdio_output@@YAFPAD@Z 100641ca f i libucrt:output.obj
 0001:000631d7       ??$peek_va_arg@G@__crt_stdio_output@@YAGPAD@Z 100641d7 f i libucrt:output.obj
 0001:000631e4       ??$peek_va_arg@H@__crt_stdio_output@@YAHPAD@Z 100641e4 f i libucrt:output.obj
 0001:000631f0       ??$peek_va_arg@I@__crt_stdio_output@@YAIPAD@Z 100641f0 f i libucrt:output.obj
 0001:000631fc       ??$peek_va_arg@PAD@__crt_stdio_output@@YAPADPAD@Z 100641fc f i libucrt:output.obj
 0001:00063238       ??$peek_va_arg@PAX@__crt_stdio_output@@YAPAXPAD@Z 10064238 f i libucrt:output.obj
 0001:00063244       ??$peek_va_arg@U_CRT_DOUBLE@@@__crt_stdio_output@@YA?AU_CRT_DOUBLE@@PAD@Z 10064244 f i libucrt:output.obj
 0001:00063253       ??$peek_va_arg@_J@__crt_stdio_output@@YA_JPAD@Z 10064253 f i libucrt:output.obj
 0001:00063262       ??$peek_va_arg@_K@__crt_stdio_output@@YA_KPAD@Z 10064262 f i libucrt:output.obj
 0001:00063271       ??$peek_va_arg@_W@__crt_stdio_output@@YA_WPAD@Z 10064271 f i libucrt:output.obj
 0001:0006327e       ??$puttc_nolock@ABDPAU_iobuf@@@?$__crt_char_traits@D@@SAHABD$$QAPAU_iobuf@@@Z 1006427e f i libucrt:output.obj
 0001:00063298       ??$puttc_nolock@AB_WPAU_iobuf@@@?$__crt_char_traits@_W@@SAGAB_W$$QAPAU_iobuf@@@Z 10064298 f i libucrt:output.obj
 0001:000632b2       ??$read_va_arg@C@__crt_stdio_output@@YACAAPAD@Z 100642b2 f i libucrt:output.obj
 0001:000632c4       ??$read_va_arg@E@__crt_stdio_output@@YAEAAPAD@Z 100642c4 f i libucrt:output.obj
 0001:000632d6       ??$read_va_arg@F@__crt_stdio_output@@YAFAAPAD@Z 100642d6 f i libucrt:output.obj
 0001:000632e9       ??$read_va_arg@G@__crt_stdio_output@@YAGAAPAD@Z 100642e9 f i libucrt:output.obj
 0001:000632fc       ??$read_va_arg@H@__crt_stdio_output@@YAHAAPAD@Z 100642fc f i libucrt:output.obj
 0001:0006330e       ??$read_va_arg@I@__crt_stdio_output@@YAIAAPAD@Z 1006430e f i libucrt:output.obj
 0001:00063320       ??$read_va_arg@PAD@__crt_stdio_output@@YAPADAAPAD@Z 10064320 f i libucrt:output.obj
 0001:0006340a       ??$read_va_arg@PAX@__crt_stdio_output@@YAPAXAAPAD@Z 1006440a f i libucrt:output.obj
 0001:0006341c       ??$read_va_arg@U_CRT_DOUBLE@@@__crt_stdio_output@@YA?AU_CRT_DOUBLE@@AAPAD@Z 1006441c f i libucrt:output.obj
 0001:00063432       ??$read_va_arg@_J@__crt_stdio_output@@YA_JAAPAD@Z 10064432 f i libucrt:output.obj
 0001:00063447       ??$read_va_arg@_K@__crt_stdio_output@@YA_KAAPAD@Z 10064447 f i libucrt:output.obj
 0001:0006345c       ??$read_va_arg@_W@__crt_stdio_output@@YA_WAAPAD@Z 1006445c f i libucrt:output.obj
 0001:0006346f       ??$scratch_count@D@formatting_buffer@__crt_stdio_output@@QBEIXZ 1006446f f i libucrt:output.obj
 0001:00063474       ??$scratch_data@D@formatting_buffer@__crt_stdio_output@@QAEPADXZ 10064474 f i libucrt:output.obj
 0001:00063492       ??$tcstol@AAPBDPAPADH@?$__crt_char_traits@D@@SAJAAPBD$$QAPAPAD$$QAH@Z 10064492 f i libucrt:output.obj
 0001:000634b0       ??$tcstol@AAPB_WPAPA_WH@?$__crt_char_traits@_W@@SAJAAPB_W$$QAPAPA_W$$QAH@Z 100644b0 f i libucrt:output.obj
 0001:000634ce       ??$tcstol@PBDPAPADH@?$__crt_char_traits@D@@SAJ$$QAPBD$$QAPAPAD$$QAH@Z 100644ce f i libucrt:output.obj
 0001:000634ec       ??$tcstol@PB_WPAPA_WH@?$__crt_char_traits@_W@@SAJ$$QAPB_W$$QAPAPA_W$$QAH@Z 100644ec f i libucrt:output.obj
 0001:0006350a       ??$type_case_integer_parse_into_buffer@I@?$output_processor@DV?$stream_output_adapter@D@__crt_stdio_output@@V?$format_validation_base@DV?$stream_output_adapter@D@__crt_stdio_output@@@2@@__crt_stdio_output@@AAEXII_N@Z 1006450a f i libucrt:output.obj
 0001:0006357c       ??$type_case_integer_parse_into_buffer@I@?$output_processor@DV?$stream_output_adapter@D@__crt_stdio_output@@V?$positional_parameter_base@DV?$stream_output_adapter@D@__crt_stdio_output@@@2@@__crt_stdio_output@@AAEXII_N@Z 1006457c f i libucrt:output.obj
 0001:000635ee       ??$type_case_integer_parse_into_buffer@I@?$output_processor@DV?$stream_output_adapter@D@__crt_stdio_output@@V?$standard_base@DV?$stream_output_adapter@D@__crt_stdio_output@@@2@@__crt_stdio_output@@AAEXII_N@Z 100645ee f i libucrt:output.obj
 0001:00063660       ??$type_case_integer_parse_into_buffer@I@?$output_processor@DV?$string_output_adapter@D@__crt_stdio_output@@V?$format_validation_base@DV?$string_output_adapter@D@__crt_stdio_output@@@2@@__crt_stdio_output@@AAEXII_N@Z 10064660 f i libucrt:output.obj
 0001:000636d2       ??$type_case_integer_parse_into_buffer@I@?$output_processor@DV?$string_output_adapter@D@__crt_stdio_output@@V?$positional_parameter_base@DV?$string_output_adapter@D@__crt_stdio_output@@@2@@__crt_stdio_output@@AAEXII_N@Z 100646d2 f i libucrt:output.obj
 0001:00063744       ??$type_case_integer_parse_into_buffer@I@?$output_processor@DV?$string_output_adapter@D@__crt_stdio_output@@V?$standard_base@DV?$string_output_adapter@D@__crt_stdio_output@@@2@@__crt_stdio_output@@AAEXII_N@Z 10064744 f i libucrt:output.obj
 0001:000637b6       ??$type_case_integer_parse_into_buffer@I@?$output_processor@_WV?$stream_output_adapter@_W@__crt_stdio_output@@V?$format_validation_base@_WV?$stream_output_adapter@_W@__crt_stdio_output@@@2@@__crt_stdio_output@@AAEXII_N@Z 100647b6 f i libucrt:output.obj
 0001:0006383c       ??$type_case_integer_parse_into_buffer@I@?$output_processor@_WV?$stream_output_adapter@_W@__crt_stdio_output@@V?$positional_parameter_base@_WV?$stream_output_adapter@_W@__crt_stdio_output@@@2@@__crt_stdio_output@@AAEXII_N@Z 1006483c f i libucrt:output.obj
 0001:000638c2       ??$type_case_integer_parse_into_buffer@I@?$output_processor@_WV?$stream_output_adapter@_W@__crt_stdio_output@@V?$standard_base@_WV?$stream_output_adapter@_W@__crt_stdio_output@@@2@@__crt_stdio_output@@AAEXII_N@Z 100648c2 f i libucrt:output.obj
 0001:00063948       ??$type_case_integer_parse_into_buffer@I@?$output_processor@_WV?$string_output_adapter@_W@__crt_stdio_output@@V?$format_validation_base@_WV?$string_output_adapter@_W@__crt_stdio_output@@@2@@__crt_stdio_output@@AAEXII_N@Z 10064948 f i libucrt:output.obj
 0001:000639ce       ??$type_case_integer_parse_into_buffer@I@?$output_processor@_WV?$string_output_adapter@_W@__crt_stdio_output@@V?$positional_parameter_base@_WV?$string_output_adapter@_W@__crt_stdio_output@@@2@@__crt_stdio_output@@AAEXII_N@Z 100649ce f i libucrt:output.obj
 0001:00063a54       ??$type_case_integer_parse_into_buffer@I@?$output_processor@_WV?$string_output_adapter@_W@__crt_stdio_output@@V?$standard_base@_WV?$string_output_adapter@_W@__crt_stdio_output@@@2@@__crt_stdio_output@@AAEXII_N@Z 10064a54 f i libucrt:output.obj
 0001:00063ada       ??$type_case_integer_parse_into_buffer@_K@?$output_processor@DV?$stream_output_adapter@D@__crt_stdio_output@@V?$format_validation_base@DV?$stream_output_adapter@D@__crt_stdio_output@@@2@@__crt_stdio_output@@AAEX_KI_N@Z 10064ada f i libucrt:output.obj
 0001:00063b61       ??$type_case_integer_parse_into_buffer@_K@?$output_processor@DV?$stream_output_adapter@D@__crt_stdio_output@@V?$positional_parameter_base@DV?$stream_output_adapter@D@__crt_stdio_output@@@2@@__crt_stdio_output@@AAEX_KI_N@Z 10064b61 f i libucrt:output.obj
 0001:00063be8       ??$type_case_integer_parse_into_buffer@_K@?$output_processor@DV?$stream_output_adapter@D@__crt_stdio_output@@V?$standard_base@DV?$stream_output_adapter@D@__crt_stdio_output@@@2@@__crt_stdio_output@@AAEX_KI_N@Z 10064be8 f i libucrt:output.obj
 0001:00063c6f       ??$type_case_integer_parse_into_buffer@_K@?$output_processor@DV?$string_output_adapter@D@__crt_stdio_output@@V?$format_validation_base@DV?$string_output_adapter@D@__crt_stdio_output@@@2@@__crt_stdio_output@@AAEX_KI_N@Z 10064c6f f i libucrt:output.obj
 0001:00063cf6       ??$type_case_integer_parse_into_buffer@_K@?$output_processor@DV?$string_output_adapter@D@__crt_stdio_output@@V?$positional_parameter_base@DV?$string_output_adapter@D@__crt_stdio_output@@@2@@__crt_stdio_output@@AAEX_KI_N@Z 10064cf6 f i libucrt:output.obj
 0001:00063d7d       ??$type_case_integer_parse_into_buffer@_K@?$output_processor@DV?$string_output_adapter@D@__crt_stdio_output@@V?$standard_base@DV?$string_output_adapter@D@__crt_stdio_output@@@2@@__crt_stdio_output@@AAEX_KI_N@Z 10064d7d f i libucrt:output.obj
 0001:00063e04       ??$type_case_integer_parse_into_buffer@_K@?$output_processor@_WV?$stream_output_adapter@_W@__crt_stdio_output@@V?$format_validation_base@_WV?$stream_output_adapter@_W@__crt_stdio_output@@@2@@__crt_stdio_output@@AAEX_KI_N@Z 10064e04 f i libucrt:output.obj
 0001:00063e9f       ??$type_case_integer_parse_into_buffer@_K@?$output_processor@_WV?$stream_output_adapter@_W@__crt_stdio_output@@V?$positional_parameter_base@_WV?$stream_output_adapter@_W@__crt_stdio_output@@@2@@__crt_stdio_output@@AAEX_KI_N@Z 10064e9f f i libucrt:output.obj
 0001:00063f3a       ??$type_case_integer_parse_into_buffer@_K@?$output_processor@_WV?$stream_output_adapter@_W@__crt_stdio_output@@V?$standard_base@_WV?$stream_output_adapter@_W@__crt_stdio_output@@@2@@__crt_stdio_output@@AAEX_KI_N@Z 10064f3a f i libucrt:output.obj
 0001:00063fd5       ??$type_case_integer_parse_into_buffer@_K@?$output_processor@_WV?$string_output_adapter@_W@__crt_stdio_output@@V?$format_validation_base@_WV?$string_output_adapter@_W@__crt_stdio_output@@@2@@__crt_stdio_output@@AAEX_KI_N@Z 10064fd5 f i libucrt:output.obj
 0001:00064070       ??$type_case_integer_parse_into_buffer@_K@?$output_processor@_WV?$string_output_adapter@_W@__crt_stdio_output@@V?$positional_parameter_base@_WV?$string_output_adapter@_W@__crt_stdio_output@@@2@@__crt_stdio_output@@AAEX_KI_N@Z 10065070 f i libucrt:output.obj
 0001:0006410b       ??$type_case_integer_parse_into_buffer@_K@?$output_processor@_WV?$string_output_adapter@_W@__crt_stdio_output@@V?$standard_base@_WV?$string_output_adapter@_W@__crt_stdio_output@@@2@@__crt_stdio_output@@AAEX_KI_N@Z 1006510b f i libucrt:output.obj
 0001:000641a6       ??$write_multiple_characters@V?$stream_output_adapter@D@__crt_stdio_output@@D@__crt_stdio_output@@YAXABV?$stream_output_adapter@D@0@DHQAH@Z 100651a6 f i libucrt:output.obj
 0001:000641dc       ??$write_multiple_characters@V?$stream_output_adapter@_W@__crt_stdio_output@@D@__crt_stdio_output@@YAXABV?$stream_output_adapter@_W@0@DHQAH@Z 100651dc f i libucrt:output.obj
 0001:00064217       ??$write_multiple_characters@V?$string_output_adapter@D@__crt_stdio_output@@D@__crt_stdio_output@@YAXABV?$string_output_adapter@D@0@DHQAH@Z 10065217 f i libucrt:output.obj
 0001:00064243       ??$write_multiple_characters@V?$string_output_adapter@_W@__crt_stdio_output@@D@__crt_stdio_output@@YAXABV?$string_output_adapter@_W@0@DHQAH@Z 10065243 f i libucrt:output.obj
 0001:0006443c       ??0?$common_data@D@__crt_stdio_output@@IAE@XZ 1006543c f i libucrt:output.obj
 0001:00064483       ??0?$common_data@_W@__crt_stdio_output@@IAE@XZ 10065483 f i libucrt:output.obj
 0001:000644cf       ??0?$output_adapter_data@DV?$stream_output_adapter@D@__crt_stdio_output@@@__crt_stdio_output@@IAE@ABV?$stream_output_adapter@D@1@_KQBDQAU__crt_locale_pointers@@QAD@Z 100654cf f i libucrt:output.obj
 0001:0006450b       ??0?$output_adapter_data@DV?$string_output_adapter@D@__crt_stdio_output@@@__crt_stdio_output@@IAE@ABV?$string_output_adapter@D@1@_KQBDQAU__crt_locale_pointers@@QAD@Z 1006550b f i libucrt:output.obj
 0001:00064547       ??0?$output_adapter_data@_WV?$stream_output_adapter@_W@__crt_stdio_output@@@__crt_stdio_output@@IAE@ABV?$stream_output_adapter@_W@1@_KQB_WQAU__crt_locale_pointers@@QAD@Z 10065547 f i libucrt:output.obj
 0001:00064583       ??0?$output_adapter_data@_WV?$string_output_adapter@_W@__crt_stdio_output@@@__crt_stdio_output@@IAE@ABV?$string_output_adapter@_W@1@_KQB_WQAU__crt_locale_pointers@@QAD@Z 10065583 f i libucrt:output.obj
 0001:000645bf       ??0?$output_processor@DV?$stream_output_adapter@D@__crt_stdio_output@@V?$format_validation_base@DV?$stream_output_adapter@D@__crt_stdio_output@@@2@@__crt_stdio_output@@QAE@ABV?$stream_output_adapter@D@1@_KQBDQAU__crt_locale_pointers@@QAD@Z 100655bf f i libucrt:output.obj
 0001:000645ec       ??0?$output_processor@DV?$stream_output_adapter@D@__crt_stdio_output@@V?$positional_parameter_base@DV?$stream_output_adapter@D@__crt_stdio_output@@@2@@__crt_stdio_output@@QAE@ABV?$stream_output_adapter@D@1@_KQBDQAU__crt_locale_pointers@@QAD@Z 100655ec f i libucrt:output.obj
 0001:00064613       ??0?$output_processor@DV?$stream_output_adapter@D@__crt_stdio_output@@V?$standard_base@DV?$stream_output_adapter@D@__crt_stdio_output@@@2@@__crt_stdio_output@@QAE@ABV?$stream_output_adapter@D@1@_KQBDQAU__crt_locale_pointers@@QAD@Z 10065613 f i libucrt:output.obj
 0001:00064640       ??0?$output_processor@DV?$string_output_adapter@D@__crt_stdio_output@@V?$format_validation_base@DV?$string_output_adapter@D@__crt_stdio_output@@@2@@__crt_stdio_output@@QAE@ABV?$string_output_adapter@D@1@_KQBDQAU__crt_locale_pointers@@QAD@Z 10065640 f i libucrt:output.obj
 0001:0006466d       ??0?$output_processor@DV?$string_output_adapter@D@__crt_stdio_output@@V?$positional_parameter_base@DV?$string_output_adapter@D@__crt_stdio_output@@@2@@__crt_stdio_output@@QAE@ABV?$string_output_adapter@D@1@_KQBDQAU__crt_locale_pointers@@QAD@Z 1006566d f i libucrt:output.obj
 0001:00064694       ??0?$output_processor@DV?$string_output_adapter@D@__crt_stdio_output@@V?$standard_base@DV?$string_output_adapter@D@__crt_stdio_output@@@2@@__crt_stdio_output@@QAE@ABV?$string_output_adapter@D@1@_KQBDQAU__crt_locale_pointers@@QAD@Z 10065694 f i libucrt:output.obj
 0001:000646c1       ??0?$output_processor@_WV?$stream_output_adapter@_W@__crt_stdio_output@@V?$format_validation_base@_WV?$stream_output_adapter@_W@__crt_stdio_output@@@2@@__crt_stdio_output@@QAE@ABV?$stream_output_adapter@_W@1@_KQB_WQAU__crt_locale_pointers@@QAD@Z 100656c1 f i libucrt:output.obj
 0001:000646ee       ??0?$output_processor@_WV?$stream_output_adapter@_W@__crt_stdio_output@@V?$positional_parameter_base@_WV?$stream_output_adapter@_W@__crt_stdio_output@@@2@@__crt_stdio_output@@QAE@ABV?$stream_output_adapter@_W@1@_KQB_WQAU__crt_locale_pointers@@QAD@Z 100656ee f i libucrt:output.obj
 0001:00064715       ??0?$output_processor@_WV?$stream_output_adapter@_W@__crt_stdio_output@@V?$standard_base@_WV?$stream_output_adapter@_W@__crt_stdio_output@@@2@@__crt_stdio_output@@QAE@ABV?$stream_output_adapter@_W@1@_KQB_WQAU__crt_locale_pointers@@QAD@Z 10065715 f i libucrt:output.obj
 0001:00064742       ??0?$output_processor@_WV?$string_output_adapter@_W@__crt_stdio_output@@V?$format_validation_base@_WV?$string_output_adapter@_W@__crt_stdio_output@@@2@@__crt_stdio_output@@QAE@ABV?$string_output_adapter@_W@1@_KQB_WQAU__crt_locale_pointers@@QAD@Z 10065742 f i libucrt:output.obj
 0001:0006476f       ??0?$output_processor@_WV?$string_output_adapter@_W@__crt_stdio_output@@V?$positional_parameter_base@_WV?$string_output_adapter@_W@__crt_stdio_output@@@2@@__crt_stdio_output@@QAE@ABV?$string_output_adapter@_W@1@_KQB_WQAU__crt_locale_pointers@@QAD@Z 1006576f f i libucrt:output.obj
 0001:00064796       ??0?$output_processor@_WV?$string_output_adapter@_W@__crt_stdio_output@@V?$standard_base@_WV?$string_output_adapter@_W@__crt_stdio_output@@@2@@__crt_stdio_output@@QAE@ABV?$string_output_adapter@_W@1@_KQB_WQAU__crt_locale_pointers@@QAD@Z 10065796 f i libucrt:output.obj
 0001:000647c3       ??0?$stream_output_adapter@D@__crt_stdio_output@@QAE@QAU_iobuf@@@Z 100657c3 f i libucrt:output.obj
 0001:000647d3       ??0?$stream_output_adapter@_W@__crt_stdio_output@@QAE@QAU_iobuf@@@Z 100657d3 f i libucrt:output.obj
 0001:000647e3       ??0?$string_output_adapter@D@__crt_stdio_output@@QAE@QAU?$string_output_adapter_context@D@1@@Z 100657e3 f i libucrt:output.obj
 0001:000647f3       ??0?$string_output_adapter@_W@__crt_stdio_output@@QAE@QAU?$string_output_adapter_context@_W@1@@Z 100657f3 f i libucrt:output.obj
 0001:00064803       ??0_LocaleUpdate@@QAE@QAU__crt_locale_pointers@@@Z 10065803 f i libucrt:output.obj
 0001:00064886       ??0__crt_deferred_errno_cache@@QAE@XZ 10065886 f i libucrt:output.obj
 0001:0006488c       ??0__crt_errno_guard@@QAE@QAH@Z 1006588c f i libucrt:output.obj
 0001:000648a4       ??0formatting_buffer@__crt_stdio_output@@QAE@XZ 100658a4 f i libucrt:output.obj
 0001:000648b5       ??1?$common_data@D@__crt_stdio_output@@QAE@XZ 100658b5 f i libucrt:output.obj
 0001:000648bd       ??1?$common_data@_W@__crt_stdio_output@@QAE@XZ 100658bd f i libucrt:output.obj
 0001:000648c5       ??1?$format_validation_base@DV?$stream_output_adapter@D@__crt_stdio_output@@@__crt_stdio_output@@QAE@XZ 100658c5 f i libucrt:output.obj
 0001:000648cd       ??1?$format_validation_base@DV?$string_output_adapter@D@__crt_stdio_output@@@__crt_stdio_output@@QAE@XZ 100658cd f i libucrt:output.obj
 0001:000648d5       ??1?$format_validation_base@_WV?$stream_output_adapter@_W@__crt_stdio_output@@@__crt_stdio_output@@QAE@XZ 100658d5 f i libucrt:output.obj
 0001:000648dd       ??1?$format_validation_base@_WV?$string_output_adapter@_W@__crt_stdio_output@@@__crt_stdio_output@@QAE@XZ 100658dd f i libucrt:output.obj
 0001:000648e5       ??1?$output_adapter_data@DV?$stream_output_adapter@D@__crt_stdio_output@@@__crt_stdio_output@@QAE@XZ 100658e5 f i libucrt:output.obj
 0001:000648ed       ??1?$output_adapter_data@DV?$string_output_adapter@D@__crt_stdio_output@@@__crt_stdio_output@@QAE@XZ 100658ed f i libucrt:output.obj
 0001:000648f5       ??1?$output_adapter_data@_WV?$stream_output_adapter@_W@__crt_stdio_output@@@__crt_stdio_output@@QAE@XZ 100658f5 f i libucrt:output.obj
 0001:000648fd       ??1?$output_adapter_data@_WV?$string_output_adapter@_W@__crt_stdio_output@@@__crt_stdio_output@@QAE@XZ 100658fd f i libucrt:output.obj
 0001:00064905       ??1?$output_processor@DV?$stream_output_adapter@D@__crt_stdio_output@@V?$format_validation_base@DV?$stream_output_adapter@D@__crt_stdio_output@@@2@@__crt_stdio_output@@QAE@XZ 10065905 f i libucrt:output.obj
 0001:0006490d       ??1?$output_processor@DV?$stream_output_adapter@D@__crt_stdio_output@@V?$positional_parameter_base@DV?$stream_output_adapter@D@__crt_stdio_output@@@2@@__crt_stdio_output@@QAE@XZ 1006590d f i libucrt:output.obj
 0001:00064915       ??1?$output_processor@DV?$stream_output_adapter@D@__crt_stdio_output@@V?$standard_base@DV?$stream_output_adapter@D@__crt_stdio_output@@@2@@__crt_stdio_output@@QAE@XZ 10065915 f i libucrt:output.obj
 0001:0006491d       ??1?$output_processor@DV?$string_output_adapter@D@__crt_stdio_output@@V?$format_validation_base@DV?$string_output_adapter@D@__crt_stdio_output@@@2@@__crt_stdio_output@@QAE@XZ 1006591d f i libucrt:output.obj
 0001:00064925       ??1?$output_processor@DV?$string_output_adapter@D@__crt_stdio_output@@V?$positional_parameter_base@DV?$string_output_adapter@D@__crt_stdio_output@@@2@@__crt_stdio_output@@QAE@XZ 10065925 f i libucrt:output.obj
 0001:0006492d       ??1?$output_processor@DV?$string_output_adapter@D@__crt_stdio_output@@V?$standard_base@DV?$string_output_adapter@D@__crt_stdio_output@@@2@@__crt_stdio_output@@QAE@XZ 1006592d f i libucrt:output.obj
 0001:00064935       ??1?$output_processor@_WV?$stream_output_adapter@_W@__crt_stdio_output@@V?$format_validation_base@_WV?$stream_output_adapter@_W@__crt_stdio_output@@@2@@__crt_stdio_output@@QAE@XZ 10065935 f i libucrt:output.obj
 0001:0006493d       ??1?$output_processor@_WV?$stream_output_adapter@_W@__crt_stdio_output@@V?$positional_parameter_base@_WV?$stream_output_adapter@_W@__crt_stdio_output@@@2@@__crt_stdio_output@@QAE@XZ 1006593d f i libucrt:output.obj
 0001:00064945       ??1?$output_processor@_WV?$stream_output_adapter@_W@__crt_stdio_output@@V?$standard_base@_WV?$stream_output_adapter@_W@__crt_stdio_output@@@2@@__crt_stdio_output@@QAE@XZ 10065945 f i libucrt:output.obj
 0001:0006494d       ??1?$output_processor@_WV?$string_output_adapter@_W@__crt_stdio_output@@V?$format_validation_base@_WV?$string_output_adapter@_W@__crt_stdio_output@@@2@@__crt_stdio_output@@QAE@XZ 1006594d f i libucrt:output.obj
 0001:00064955       ??1?$output_processor@_WV?$string_output_adapter@_W@__crt_stdio_output@@V?$positional_parameter_base@_WV?$string_output_adapter@_W@__crt_stdio_output@@@2@@__crt_stdio_output@@QAE@XZ 10065955 f i libucrt:output.obj
 0001:0006495d       ??1?$output_processor@_WV?$string_output_adapter@_W@__crt_stdio_output@@V?$standard_base@_WV?$string_output_adapter@_W@__crt_stdio_output@@@2@@__crt_stdio_output@@QAE@XZ 1006595d f i libucrt:output.obj
 0001:00064965       ??1?$positional_parameter_base@DV?$stream_output_adapter@D@__crt_stdio_output@@@__crt_stdio_output@@QAE@XZ 10065965 f i libucrt:output.obj
 0001:0006496d       ??1?$positional_parameter_base@DV?$string_output_adapter@D@__crt_stdio_output@@@__crt_stdio_output@@QAE@XZ 1006596d f i libucrt:output.obj
 0001:00064975       ??1?$positional_parameter_base@_WV?$stream_output_adapter@_W@__crt_stdio_output@@@__crt_stdio_output@@QAE@XZ 10065975 f i libucrt:output.obj
 0001:0006497d       ??1?$positional_parameter_base@_WV?$string_output_adapter@_W@__crt_stdio_output@@@__crt_stdio_output@@QAE@XZ 1006597d f i libucrt:output.obj
 0001:00064985       ??1?$standard_base@DV?$stream_output_adapter@D@__crt_stdio_output@@@__crt_stdio_output@@QAE@XZ 10065985 f i libucrt:output.obj
 0001:0006498d       ??1?$standard_base@DV?$string_output_adapter@D@__crt_stdio_output@@@__crt_stdio_output@@QAE@XZ 1006598d f i libucrt:output.obj
 0001:00064995       ??1?$standard_base@_WV?$stream_output_adapter@_W@__crt_stdio_output@@@__crt_stdio_output@@QAE@XZ 10065995 f i libucrt:output.obj
 0001:0006499d       ??1?$standard_base@_WV?$string_output_adapter@_W@__crt_stdio_output@@@__crt_stdio_output@@QAE@XZ 1006599d f i libucrt:output.obj
 0001:000649a5       ??1_LocaleUpdate@@QAE@XZ   100659a5 f i libucrt:output.obj
 0001:000649b5       ??1__crt_errno_guard@@QAE@XZ 100659b5 f i libucrt:output.obj
 0001:000649c6       ??1formatting_buffer@__crt_stdio_output@@QAE@XZ 100659c6 f i libucrt:output.obj
 0001:000649e0       ??4?$__crt_unique_heap_ptr@DU__crt_internal_free_policy@@@@QAEAAV0@$$QAV0@@Z 100659e0 f i libucrt:output.obj
 0001:00064f60       ?GetLocaleT@_LocaleUpdate@@QAEPAU__crt_locale_pointers@@XZ 10065f60 f i libucrt:output.obj
 0001:00064f64       ?adjust_hexit@?$output_processor@DV?$stream_output_adapter@D@__crt_stdio_output@@V?$format_validation_base@DV?$stream_output_adapter@D@__crt_stdio_output@@@2@@__crt_stdio_output@@CADH_N@Z 10065f64 f i libucrt:output.obj
 0001:00064f82       ?adjust_hexit@?$output_processor@DV?$stream_output_adapter@D@__crt_stdio_output@@V?$positional_parameter_base@DV?$stream_output_adapter@D@__crt_stdio_output@@@2@@__crt_stdio_output@@CADH_N@Z 10065f82 f i libucrt:output.obj
 0001:00064fa0       ?adjust_hexit@?$output_processor@DV?$stream_output_adapter@D@__crt_stdio_output@@V?$standard_base@DV?$stream_output_adapter@D@__crt_stdio_output@@@2@@__crt_stdio_output@@CADH_N@Z 10065fa0 f i libucrt:output.obj
 0001:00064fbe       ?adjust_hexit@?$output_processor@DV?$string_output_adapter@D@__crt_stdio_output@@V?$format_validation_base@DV?$string_output_adapter@D@__crt_stdio_output@@@2@@__crt_stdio_output@@CADH_N@Z 10065fbe f i libucrt:output.obj
 0001:00064fdc       ?adjust_hexit@?$output_processor@DV?$string_output_adapter@D@__crt_stdio_output@@V?$positional_parameter_base@DV?$string_output_adapter@D@__crt_stdio_output@@@2@@__crt_stdio_output@@CADH_N@Z 10065fdc f i libucrt:output.obj
 0001:00064ffa       ?adjust_hexit@?$output_processor@DV?$string_output_adapter@D@__crt_stdio_output@@V?$standard_base@DV?$string_output_adapter@D@__crt_stdio_output@@@2@@__crt_stdio_output@@CADH_N@Z 10065ffa f i libucrt:output.obj
 0001:00065018       ?adjust_hexit@?$output_processor@_WV?$stream_output_adapter@_W@__crt_stdio_output@@V?$format_validation_base@_WV?$stream_output_adapter@_W@__crt_stdio_output@@@2@@__crt_stdio_output@@CADH_N@Z 10066018 f i libucrt:output.obj
 0001:00065036       ?adjust_hexit@?$output_processor@_WV?$stream_output_adapter@_W@__crt_stdio_output@@V?$positional_parameter_base@_WV?$stream_output_adapter@_W@__crt_stdio_output@@@2@@__crt_stdio_output@@CADH_N@Z 10066036 f i libucrt:output.obj
 0001:00065054       ?adjust_hexit@?$output_processor@_WV?$stream_output_adapter@_W@__crt_stdio_output@@V?$standard_base@_WV?$stream_output_adapter@_W@__crt_stdio_output@@@2@@__crt_stdio_output@@CADH_N@Z 10066054 f i libucrt:output.obj
 0001:00065072       ?adjust_hexit@?$output_processor@_WV?$string_output_adapter@_W@__crt_stdio_output@@V?$format_validation_base@_WV?$string_output_adapter@_W@__crt_stdio_output@@@2@@__crt_stdio_output@@CADH_N@Z 10066072 f i libucrt:output.obj
 0001:00065090       ?adjust_hexit@?$output_processor@_WV?$string_output_adapter@_W@__crt_stdio_output@@V?$positional_parameter_base@_WV?$string_output_adapter@_W@__crt_stdio_output@@@2@@__crt_stdio_output@@CADH_N@Z 10066090 f i libucrt:output.obj
 0001:000650ae       ?adjust_hexit@?$output_processor@_WV?$string_output_adapter@_W@__crt_stdio_output@@V?$standard_base@_WV?$string_output_adapter@_W@__crt_stdio_output@@@2@@__crt_stdio_output@@CADH_N@Z 100660ae f i libucrt:output.obj
 0001:000650cc       ?advance_to_next_pass@?$positional_parameter_base@DV?$stream_output_adapter@D@__crt_stdio_output@@@__crt_stdio_output@@IAE_NXZ 100660cc f i libucrt:output.obj
 0001:00065118       ?advance_to_next_pass@?$positional_parameter_base@DV?$string_output_adapter@D@__crt_stdio_output@@@__crt_stdio_output@@IAE_NXZ 10066118 f i libucrt:output.obj
 0001:00065164       ?advance_to_next_pass@?$positional_parameter_base@_WV?$stream_output_adapter@_W@__crt_stdio_output@@@__crt_stdio_output@@IAE_NXZ 10066164 f i libucrt:output.obj
 0001:000651b0       ?advance_to_next_pass@?$positional_parameter_base@_WV?$string_output_adapter@_W@__crt_stdio_output@@@__crt_stdio_output@@IAE_NXZ 100661b0 f i libucrt:output.obj
 0001:000651fc       ?advance_to_next_pass@?$standard_base@DV?$stream_output_adapter@D@__crt_stdio_output@@@__crt_stdio_output@@IAE_NXZ 100661fc f i libucrt:output.obj
 0001:0006520d       ?advance_to_next_pass@?$standard_base@DV?$string_output_adapter@D@__crt_stdio_output@@@__crt_stdio_output@@IAE_NXZ 1006620d f i libucrt:output.obj
 0001:0006521e       ?advance_to_next_pass@?$standard_base@_WV?$stream_output_adapter@_W@__crt_stdio_output@@@__crt_stdio_output@@IAE_NXZ 1006621e f i libucrt:output.obj
 0001:0006522f       ?advance_to_next_pass@?$standard_base@_WV?$string_output_adapter@_W@__crt_stdio_output@@@__crt_stdio_output@@IAE_NXZ 1006622f f i libucrt:output.obj
 0001:00065240       ?crop_zeroes@__crt_stdio_output@@YAXPADQAU__crt_locale_pointers@@@Z 10066240 f i libucrt:output.obj
 0001:00065297       ?find_next_state@?$output_processor@DV?$stream_output_adapter@D@__crt_stdio_output@@V?$format_validation_base@DV?$stream_output_adapter@D@__crt_stdio_output@@@2@@__crt_stdio_output@@ABE?AW4state@2@DW432@@Z 10066297 f i libucrt:output.obj
 0001:000652cc       ?find_next_state@?$output_processor@DV?$stream_output_adapter@D@__crt_stdio_output@@V?$positional_parameter_base@DV?$stream_output_adapter@D@__crt_stdio_output@@@2@@__crt_stdio_output@@ABE?AW4state@2@DW432@@Z 100662cc f i libucrt:output.obj
 0001:00065301       ?find_next_state@?$output_processor@DV?$stream_output_adapter@D@__crt_stdio_output@@V?$standard_base@DV?$stream_output_adapter@D@__crt_stdio_output@@@2@@__crt_stdio_output@@ABE?AW4state@2@DW432@@Z 10066301 f i libucrt:output.obj
 0001:00065333       ?find_next_state@?$output_processor@DV?$string_output_adapter@D@__crt_stdio_output@@V?$format_validation_base@DV?$string_output_adapter@D@__crt_stdio_output@@@2@@__crt_stdio_output@@ABE?AW4state@2@DW432@@Z 10066333 f i libucrt:output.obj
 0001:00065368       ?find_next_state@?$output_processor@DV?$string_output_adapter@D@__crt_stdio_output@@V?$positional_parameter_base@DV?$string_output_adapter@D@__crt_stdio_output@@@2@@__crt_stdio_output@@ABE?AW4state@2@DW432@@Z 10066368 f i libucrt:output.obj
 0001:0006539d       ?find_next_state@?$output_processor@DV?$string_output_adapter@D@__crt_stdio_output@@V?$standard_base@DV?$string_output_adapter@D@__crt_stdio_output@@@2@@__crt_stdio_output@@ABE?AW4state@2@DW432@@Z 1006639d f i libucrt:output.obj
 0001:000653cf       ?find_next_state@?$output_processor@_WV?$stream_output_adapter@_W@__crt_stdio_output@@V?$format_validation_base@_WV?$stream_output_adapter@_W@__crt_stdio_output@@@2@@__crt_stdio_output@@ABE?AW4state@2@_WW432@@Z 100663cf f i libucrt:output.obj
 0001:00065406       ?find_next_state@?$output_processor@_WV?$stream_output_adapter@_W@__crt_stdio_output@@V?$positional_parameter_base@_WV?$stream_output_adapter@_W@__crt_stdio_output@@@2@@__crt_stdio_output@@ABE?AW4state@2@_WW432@@Z 10066406 f i libucrt:output.obj
 0001:0006543d       ?find_next_state@?$output_processor@_WV?$stream_output_adapter@_W@__crt_stdio_output@@V?$standard_base@_WV?$stream_output_adapter@_W@__crt_stdio_output@@@2@@__crt_stdio_output@@ABE?AW4state@2@_WW432@@Z 1006643d f i libucrt:output.obj
 0001:00065471       ?find_next_state@?$output_processor@_WV?$string_output_adapter@_W@__crt_stdio_output@@V?$format_validation_base@_WV?$string_output_adapter@_W@__crt_stdio_output@@@2@@__crt_stdio_output@@ABE?AW4state@2@_WW432@@Z 10066471 f i libucrt:output.obj
 0001:000654a8       ?find_next_state@?$output_processor@_WV?$string_output_adapter@_W@__crt_stdio_output@@V?$positional_parameter_base@_WV?$string_output_adapter@_W@__crt_stdio_output@@@2@@__crt_stdio_output@@ABE?AW4state@2@_WW432@@Z 100664a8 f i libucrt:output.obj
 0001:000654df       ?find_next_state@?$output_processor@_WV?$string_output_adapter@_W@__crt_stdio_output@@V?$standard_base@_WV?$string_output_adapter@_W@__crt_stdio_output@@@2@@__crt_stdio_output@@ABE?AW4state@2@_WW432@@Z 100664df f i libucrt:output.obj
 0001:00065513       ?force_decimal_point@__crt_stdio_output@@YAXPADQAU__crt_locale_pointers@@@Z 10066513 f i libucrt:output.obj
 0001:0006556f       ?get@__crt_deferred_errno_cache@@QAEAAHXZ 1006656f f i libucrt:output.obj
 0001:00065584       ?get_parameter_type@?$positional_parameter_base@DV?$stream_output_adapter@D@__crt_stdio_output@@@__crt_stdio_output@@CA?AW4parameter_type@12@F@Z 10066584 f i libucrt:output.obj
 0001:00065588       ?get_parameter_type@?$positional_parameter_base@DV?$stream_output_adapter@D@__crt_stdio_output@@@__crt_stdio_output@@CA?AW4parameter_type@12@G@Z 10066588 f i libucrt:output.obj
 0001:0006558c       ?get_parameter_type@?$positional_parameter_base@DV?$stream_output_adapter@D@__crt_stdio_output@@@__crt_stdio_output@@CA?AW4parameter_type@12@H@Z 1006658c f i libucrt:output.obj
 0001:00065590       ?get_parameter_type@?$positional_parameter_base@DV?$stream_output_adapter@D@__crt_stdio_output@@@__crt_stdio_output@@CA?AW4parameter_type@12@I@Z 10066590 f i libucrt:output.obj
 0001:00065594       ?get_parameter_type@?$positional_parameter_base@DV?$stream_output_adapter@D@__crt_stdio_output@@@__crt_stdio_output@@CA?AW4parameter_type@12@U_CRT_DOUBLE@@@Z 10066594 f i libucrt:output.obj
 0001:00065598       ?get_parameter_type@?$positional_parameter_base@DV?$stream_output_adapter@D@__crt_stdio_output@@@__crt_stdio_output@@CA?AW4parameter_type@12@_J@Z 10066598 f i libucrt:output.obj
 0001:0006559c       ?get_parameter_type@?$positional_parameter_base@DV?$stream_output_adapter@D@__crt_stdio_output@@@__crt_stdio_output@@CA?AW4parameter_type@12@_K@Z 1006659c f i libucrt:output.obj
 0001:000655a0       ?get_parameter_type@?$positional_parameter_base@DV?$stream_output_adapter@D@__crt_stdio_output@@@__crt_stdio_output@@CA?AW4parameter_type@12@_W@Z 100665a0 f i libucrt:output.obj
 0001:000655a4       ?get_parameter_type@?$positional_parameter_base@DV?$string_output_adapter@D@__crt_stdio_output@@@__crt_stdio_output@@CA?AW4parameter_type@12@F@Z 100665a4 f i libucrt:output.obj
 0001:000655a8       ?get_parameter_type@?$positional_parameter_base@DV?$string_output_adapter@D@__crt_stdio_output@@@__crt_stdio_output@@CA?AW4parameter_type@12@G@Z 100665a8 f i libucrt:output.obj
 0001:000655ac       ?get_parameter_type@?$positional_parameter_base@DV?$string_output_adapter@D@__crt_stdio_output@@@__crt_stdio_output@@CA?AW4parameter_type@12@H@Z 100665ac f i libucrt:output.obj
 0001:000655b0       ?get_parameter_type@?$positional_parameter_base@DV?$string_output_adapter@D@__crt_stdio_output@@@__crt_stdio_output@@CA?AW4parameter_type@12@I@Z 100665b0 f i libucrt:output.obj
 0001:000655b4       ?get_parameter_type@?$positional_parameter_base@DV?$string_output_adapter@D@__crt_stdio_output@@@__crt_stdio_output@@CA?AW4parameter_type@12@U_CRT_DOUBLE@@@Z 100665b4 f i libucrt:output.obj
 0001:000655b8       ?get_parameter_type@?$positional_parameter_base@DV?$string_output_adapter@D@__crt_stdio_output@@@__crt_stdio_output@@CA?AW4parameter_type@12@_J@Z 100665b8 f i libucrt:output.obj
 0001:000655bc       ?get_parameter_type@?$positional_parameter_base@DV?$string_output_adapter@D@__crt_stdio_output@@@__crt_stdio_output@@CA?AW4parameter_type@12@_K@Z 100665bc f i libucrt:output.obj
 0001:000655c0       ?get_parameter_type@?$positional_parameter_base@DV?$string_output_adapter@D@__crt_stdio_output@@@__crt_stdio_output@@CA?AW4parameter_type@12@_W@Z 100665c0 f i libucrt:output.obj
 0001:000655c4       ?get_parameter_type@?$positional_parameter_base@_WV?$stream_output_adapter@_W@__crt_stdio_output@@@__crt_stdio_output@@CA?AW4parameter_type@12@F@Z 100665c4 f i libucrt:output.obj
 0001:000655c8       ?get_parameter_type@?$positional_parameter_base@_WV?$stream_output_adapter@_W@__crt_stdio_output@@@__crt_stdio_output@@CA?AW4parameter_type@12@G@Z 100665c8 f i libucrt:output.obj
 0001:000655cc       ?get_parameter_type@?$positional_parameter_base@_WV?$stream_output_adapter@_W@__crt_stdio_output@@@__crt_stdio_output@@CA?AW4parameter_type@12@H@Z 100665cc f i libucrt:output.obj
 0001:000655d0       ?get_parameter_type@?$positional_parameter_base@_WV?$stream_output_adapter@_W@__crt_stdio_output@@@__crt_stdio_output@@CA?AW4parameter_type@12@I@Z 100665d0 f i libucrt:output.obj
 0001:000655d4       ?get_parameter_type@?$positional_parameter_base@_WV?$stream_output_adapter@_W@__crt_stdio_output@@@__crt_stdio_output@@CA?AW4parameter_type@12@U_CRT_DOUBLE@@@Z 100665d4 f i libucrt:output.obj
 0001:000655d8       ?get_parameter_type@?$positional_parameter_base@_WV?$stream_output_adapter@_W@__crt_stdio_output@@@__crt_stdio_output@@CA?AW4parameter_type@12@_J@Z 100665d8 f i libucrt:output.obj
 0001:000655dc       ?get_parameter_type@?$positional_parameter_base@_WV?$stream_output_adapter@_W@__crt_stdio_output@@@__crt_stdio_output@@CA?AW4parameter_type@12@_K@Z 100665dc f i libucrt:output.obj
 0001:000655e0       ?get_parameter_type@?$positional_parameter_base@_WV?$stream_output_adapter@_W@__crt_stdio_output@@@__crt_stdio_output@@CA?AW4parameter_type@12@_W@Z 100665e0 f i libucrt:output.obj
 0001:000655e4       ?get_parameter_type@?$positional_parameter_base@_WV?$string_output_adapter@_W@__crt_stdio_output@@@__crt_stdio_output@@CA?AW4parameter_type@12@F@Z 100665e4 f i libucrt:output.obj
 0001:000655e8       ?get_parameter_type@?$positional_parameter_base@_WV?$string_output_adapter@_W@__crt_stdio_output@@@__crt_stdio_output@@CA?AW4parameter_type@12@G@Z 100665e8 f i libucrt:output.obj
 0001:000655ec       ?get_parameter_type@?$positional_parameter_base@_WV?$string_output_adapter@_W@__crt_stdio_output@@@__crt_stdio_output@@CA?AW4parameter_type@12@H@Z 100665ec f i libucrt:output.obj
 0001:000655f0       ?get_parameter_type@?$positional_parameter_base@_WV?$string_output_adapter@_W@__crt_stdio_output@@@__crt_stdio_output@@CA?AW4parameter_type@12@I@Z 100665f0 f i libucrt:output.obj
 0001:000655f4       ?get_parameter_type@?$positional_parameter_base@_WV?$string_output_adapter@_W@__crt_stdio_output@@@__crt_stdio_output@@CA?AW4parameter_type@12@U_CRT_DOUBLE@@@Z 100665f4 f i libucrt:output.obj
 0001:000655f8       ?get_parameter_type@?$positional_parameter_base@_WV?$string_output_adapter@_W@__crt_stdio_output@@@__crt_stdio_output@@CA?AW4parameter_type@12@_J@Z 100665f8 f i libucrt:output.obj
 0001:000655fc       ?get_parameter_type@?$positional_parameter_base@_WV?$string_output_adapter@_W@__crt_stdio_output@@@__crt_stdio_output@@CA?AW4parameter_type@12@_K@Z 100665fc f i libucrt:output.obj
 0001:00065600       ?get_parameter_type@?$positional_parameter_base@_WV?$string_output_adapter@_W@__crt_stdio_output@@@__crt_stdio_output@@CA?AW4parameter_type@12@_W@Z 10066600 f i libucrt:output.obj
 0001:00065604       ?has_flag@?$output_processor@DV?$stream_output_adapter@D@__crt_stdio_output@@V?$format_validation_base@DV?$stream_output_adapter@D@__crt_stdio_output@@@2@@__crt_stdio_output@@ABE_NI@Z 10066604 f i libucrt:output.obj
 0001:00065616       ?has_flag@?$output_processor@DV?$stream_output_adapter@D@__crt_stdio_output@@V?$positional_parameter_base@DV?$stream_output_adapter@D@__crt_stdio_output@@@2@@__crt_stdio_output@@ABE_NI@Z 10066616 f i libucrt:output.obj
 0001:00065628       ?has_flag@?$output_processor@DV?$stream_output_adapter@D@__crt_stdio_output@@V?$standard_base@DV?$stream_output_adapter@D@__crt_stdio_output@@@2@@__crt_stdio_output@@ABE_NI@Z 10066628 f i libucrt:output.obj
 0001:0006563a       ?has_flag@?$output_processor@DV?$string_output_adapter@D@__crt_stdio_output@@V?$format_validation_base@DV?$string_output_adapter@D@__crt_stdio_output@@@2@@__crt_stdio_output@@ABE_NI@Z 1006663a f i libucrt:output.obj
 0001:0006564c       ?has_flag@?$output_processor@DV?$string_output_adapter@D@__crt_stdio_output@@V?$positional_parameter_base@DV?$string_output_adapter@D@__crt_stdio_output@@@2@@__crt_stdio_output@@ABE_NI@Z 1006664c f i libucrt:output.obj
 0001:0006565e       ?has_flag@?$output_processor@DV?$string_output_adapter@D@__crt_stdio_output@@V?$standard_base@DV?$string_output_adapter@D@__crt_stdio_output@@@2@@__crt_stdio_output@@ABE_NI@Z 1006665e f i libucrt:output.obj
 0001:00065670       ?has_flag@?$output_processor@_WV?$stream_output_adapter@_W@__crt_stdio_output@@V?$format_validation_base@_WV?$stream_output_adapter@_W@__crt_stdio_output@@@2@@__crt_stdio_output@@ABE_NI@Z 10066670 f i libucrt:output.obj
 0001:00065682       ?has_flag@?$output_processor@_WV?$stream_output_adapter@_W@__crt_stdio_output@@V?$positional_parameter_base@_WV?$stream_output_adapter@_W@__crt_stdio_output@@@2@@__crt_stdio_output@@ABE_NI@Z 10066682 f i libucrt:output.obj
 0001:00065694       ?has_flag@?$output_processor@_WV?$stream_output_adapter@_W@__crt_stdio_output@@V?$standard_base@_WV?$stream_output_adapter@_W@__crt_stdio_output@@@2@@__crt_stdio_output@@ABE_NI@Z 10066694 f i libucrt:output.obj
 0001:000656a6       ?has_flag@?$output_processor@_WV?$string_output_adapter@_W@__crt_stdio_output@@V?$format_validation_base@_WV?$string_output_adapter@_W@__crt_stdio_output@@@2@@__crt_stdio_output@@ABE_NI@Z 100666a6 f i libucrt:output.obj
 0001:000656b8       ?has_flag@?$output_processor@_WV?$string_output_adapter@_W@__crt_stdio_output@@V?$positional_parameter_base@_WV?$string_output_adapter@_W@__crt_stdio_output@@@2@@__crt_stdio_output@@ABE_NI@Z 100666b8 f i libucrt:output.obj
 0001:000656ca       ?has_flag@?$output_processor@_WV?$string_output_adapter@_W@__crt_stdio_output@@V?$standard_base@_WV?$string_output_adapter@_W@__crt_stdio_output@@@2@@__crt_stdio_output@@ABE_NI@Z 100666ca f i libucrt:output.obj
 0001:000656dc       ?is_positional_parameter_reappearance_consistent@?$positional_parameter_base@DV?$stream_output_adapter@D@__crt_stdio_output@@@__crt_stdio_output@@AAE_NABUparameter_data@12@W4parameter_type@12@DW4length_modifier@2@@Z 100666dc f i libucrt:output.obj
 0001:00065807       ?is_positional_parameter_reappearance_consistent@?$positional_parameter_base@DV?$string_output_adapter@D@__crt_stdio_output@@@__crt_stdio_output@@AAE_NABUparameter_data@12@W4parameter_type@12@DW4length_modifier@2@@Z 10066807 f i libucrt:output.obj
 0001:00065932       ?is_positional_parameter_reappearance_consistent@?$positional_parameter_base@_WV?$stream_output_adapter@_W@__crt_stdio_output@@@__crt_stdio_output@@AAE_NABUparameter_data@12@W4parameter_type@12@_WW4length_modifier@2@@Z 10066932 f i libucrt:output.obj
 0001:00065a54       ?is_positional_parameter_reappearance_consistent@?$positional_parameter_base@_WV?$string_output_adapter@_W@__crt_stdio_output@@@__crt_stdio_output@@AAE_NABUparameter_data@12@W4parameter_type@12@_WW4length_modifier@2@@Z 10066a54 f i libucrt:output.obj
 0001:00065b76       ?is_string_backed@__crt_stdio_stream@@QBE_NXZ 10066b76 f i libucrt:output.obj
 0001:00065b82       ?narrow_null_string@?$output_processor@DV?$stream_output_adapter@D@__crt_stdio_output@@V?$format_validation_base@DV?$stream_output_adapter@D@__crt_stdio_output@@@2@@__crt_stdio_output@@CAPADXZ 10066b82 f i libucrt:output.obj
 0001:00065b88       ?narrow_null_string@?$output_processor@DV?$stream_output_adapter@D@__crt_stdio_output@@V?$positional_parameter_base@DV?$stream_output_adapter@D@__crt_stdio_output@@@2@@__crt_stdio_output@@CAPADXZ 10066b88 f i libucrt:output.obj
 0001:00065b8e       ?narrow_null_string@?$output_processor@DV?$stream_output_adapter@D@__crt_stdio_output@@V?$standard_base@DV?$stream_output_adapter@D@__crt_stdio_output@@@2@@__crt_stdio_output@@CAPADXZ 10066b8e f i libucrt:output.obj
 0001:00065b94       ?narrow_null_string@?$output_processor@DV?$string_output_adapter@D@__crt_stdio_output@@V?$format_validation_base@DV?$string_output_adapter@D@__crt_stdio_output@@@2@@__crt_stdio_output@@CAPADXZ 10066b94 f i libucrt:output.obj
 0001:00065b9a       ?narrow_null_string@?$output_processor@DV?$string_output_adapter@D@__crt_stdio_output@@V?$positional_parameter_base@DV?$string_output_adapter@D@__crt_stdio_output@@@2@@__crt_stdio_output@@CAPADXZ 10066b9a f i libucrt:output.obj
 0001:00065ba0       ?narrow_null_string@?$output_processor@DV?$string_output_adapter@D@__crt_stdio_output@@V?$standard_base@DV?$string_output_adapter@D@__crt_stdio_output@@@2@@__crt_stdio_output@@CAPADXZ 10066ba0 f i libucrt:output.obj
 0001:00065ba6       ?narrow_null_string@?$output_processor@_WV?$stream_output_adapter@_W@__crt_stdio_output@@V?$format_validation_base@_WV?$stream_output_adapter@_W@__crt_stdio_output@@@2@@__crt_stdio_output@@CAPADXZ 10066ba6 f i libucrt:output.obj
 0001:00065bac       ?narrow_null_string@?$output_processor@_WV?$stream_output_adapter@_W@__crt_stdio_output@@V?$positional_parameter_base@_WV?$stream_output_adapter@_W@__crt_stdio_output@@@2@@__crt_stdio_output@@CAPADXZ 10066bac f i libucrt:output.obj
 0001:00065bb2       ?narrow_null_string@?$output_processor@_WV?$stream_output_adapter@_W@__crt_stdio_output@@V?$standard_base@_WV?$stream_output_adapter@_W@__crt_stdio_output@@@2@@__crt_stdio_output@@CAPADXZ 10066bb2 f i libucrt:output.obj
 0001:00065bb8       ?narrow_null_string@?$output_processor@_WV?$string_output_adapter@_W@__crt_stdio_output@@V?$format_validation_base@_WV?$string_output_adapter@_W@__crt_stdio_output@@@2@@__crt_stdio_output@@CAPADXZ 10066bb8 f i libucrt:output.obj
 0001:00065bbe       ?narrow_null_string@?$output_processor@_WV?$string_output_adapter@_W@__crt_stdio_output@@V?$positional_parameter_base@_WV?$string_output_adapter@_W@__crt_stdio_output@@@2@@__crt_stdio_output@@CAPADXZ 10066bbe f i libucrt:output.obj
 0001:00065bc4       ?narrow_null_string@?$output_processor@_WV?$string_output_adapter@_W@__crt_stdio_output@@V?$standard_base@_WV?$string_output_adapter@_W@__crt_stdio_output@@@2@@__crt_stdio_output@@CAPADXZ 10066bc4 f i libucrt:output.obj
 0001:00065bca       ?parse_int_from_format_string@?$output_processor@DV?$stream_output_adapter@D@__crt_stdio_output@@V?$format_validation_base@DV?$stream_output_adapter@D@__crt_stdio_output@@@2@@__crt_stdio_output@@AAE_NQAH@Z 10066bca f i libucrt:output.obj
 0001:00065c42       ?parse_int_from_format_string@?$output_processor@DV?$stream_output_adapter@D@__crt_stdio_output@@V?$positional_parameter_base@DV?$stream_output_adapter@D@__crt_stdio_output@@@2@@__crt_stdio_output@@AAE_NQAH@Z 10066c42 f i libucrt:output.obj
 0001:00065cba       ?parse_int_from_format_string@?$output_processor@DV?$stream_output_adapter@D@__crt_stdio_output@@V?$standard_base@DV?$stream_output_adapter@D@__crt_stdio_output@@@2@@__crt_stdio_output@@AAE_NQAH@Z 10066cba f i libucrt:output.obj
 0001:00065d32       ?parse_int_from_format_string@?$output_processor@DV?$string_output_adapter@D@__crt_stdio_output@@V?$format_validation_base@DV?$string_output_adapter@D@__crt_stdio_output@@@2@@__crt_stdio_output@@AAE_NQAH@Z 10066d32 f i libucrt:output.obj
 0001:00065daa       ?parse_int_from_format_string@?$output_processor@DV?$string_output_adapter@D@__crt_stdio_output@@V?$positional_parameter_base@DV?$string_output_adapter@D@__crt_stdio_output@@@2@@__crt_stdio_output@@AAE_NQAH@Z 10066daa f i libucrt:output.obj
 0001:00065e22       ?parse_int_from_format_string@?$output_processor@DV?$string_output_adapter@D@__crt_stdio_output@@V?$standard_base@DV?$string_output_adapter@D@__crt_stdio_output@@@2@@__crt_stdio_output@@AAE_NQAH@Z 10066e22 f i libucrt:output.obj
 0001:00065e9a       ?parse_int_from_format_string@?$output_processor@_WV?$stream_output_adapter@_W@__crt_stdio_output@@V?$format_validation_base@_WV?$stream_output_adapter@_W@__crt_stdio_output@@@2@@__crt_stdio_output@@AAE_NQAH@Z 10066e9a f i libucrt:output.obj
 0001:00065f14       ?parse_int_from_format_string@?$output_processor@_WV?$stream_output_adapter@_W@__crt_stdio_output@@V?$positional_parameter_base@_WV?$stream_output_adapter@_W@__crt_stdio_output@@@2@@__crt_stdio_output@@AAE_NQAH@Z 10066f14 f i libucrt:output.obj
 0001:00065f8e       ?parse_int_from_format_string@?$output_processor@_WV?$stream_output_adapter@_W@__crt_stdio_output@@V?$standard_base@_WV?$stream_output_adapter@_W@__crt_stdio_output@@@2@@__crt_stdio_output@@AAE_NQAH@Z 10066f8e f i libucrt:output.obj
 0001:00066008       ?parse_int_from_format_string@?$output_processor@_WV?$string_output_adapter@_W@__crt_stdio_output@@V?$format_validation_base@_WV?$string_output_adapter@_W@__crt_stdio_output@@@2@@__crt_stdio_output@@AAE_NQAH@Z 10067008 f i libucrt:output.obj
 0001:00066082       ?parse_int_from_format_string@?$output_processor@_WV?$string_output_adapter@_W@__crt_stdio_output@@V?$positional_parameter_base@_WV?$string_output_adapter@_W@__crt_stdio_output@@@2@@__crt_stdio_output@@AAE_NQAH@Z 10067082 f i libucrt:output.obj
 0001:000660fc       ?parse_int_from_format_string@?$output_processor@_WV?$string_output_adapter@_W@__crt_stdio_output@@V?$standard_base@_WV?$string_output_adapter@_W@__crt_stdio_output@@@2@@__crt_stdio_output@@AAE_NQAH@Z 100670fc f i libucrt:output.obj
 0001:00066176       ?process@?$output_processor@DV?$stream_output_adapter@D@__crt_stdio_output@@V?$format_validation_base@DV?$stream_output_adapter@D@__crt_stdio_output@@@2@@__crt_stdio_output@@QAEHXZ 10067176 f i libucrt:output.obj
 0001:0006629e       ?process@?$output_processor@DV?$stream_output_adapter@D@__crt_stdio_output@@V?$positional_parameter_base@DV?$stream_output_adapter@D@__crt_stdio_output@@@2@@__crt_stdio_output@@QAEHXZ 1006729e f i libucrt:output.obj
 0001:000663fa       ?process@?$output_processor@DV?$stream_output_adapter@D@__crt_stdio_output@@V?$standard_base@DV?$stream_output_adapter@D@__crt_stdio_output@@@2@@__crt_stdio_output@@QAEHXZ 100673fa f i libucrt:output.obj
 0001:00066516       ?process@?$output_processor@DV?$string_output_adapter@D@__crt_stdio_output@@V?$format_validation_base@DV?$string_output_adapter@D@__crt_stdio_output@@@2@@__crt_stdio_output@@QAEHXZ 10067516 f i libucrt:output.obj
 0001:0006663e       ?process@?$output_processor@DV?$string_output_adapter@D@__crt_stdio_output@@V?$positional_parameter_base@DV?$string_output_adapter@D@__crt_stdio_output@@@2@@__crt_stdio_output@@QAEHXZ 1006763e f i libucrt:output.obj
 0001:0006679a       ?process@?$output_processor@DV?$string_output_adapter@D@__crt_stdio_output@@V?$standard_base@DV?$string_output_adapter@D@__crt_stdio_output@@@2@@__crt_stdio_output@@QAEHXZ 1006779a f i libucrt:output.obj
 0001:000668b6       ?process@?$output_processor@_WV?$stream_output_adapter@_W@__crt_stdio_output@@V?$format_validation_base@_WV?$stream_output_adapter@_W@__crt_stdio_output@@@2@@__crt_stdio_output@@QAEHXZ 100678b6 f i libucrt:output.obj
 0001:000669e6       ?process@?$output_processor@_WV?$stream_output_adapter@_W@__crt_stdio_output@@V?$positional_parameter_base@_WV?$stream_output_adapter@_W@__crt_stdio_output@@@2@@__crt_stdio_output@@QAEHXZ 100679e6 f i libucrt:output.obj
 0001:00066b46       ?process@?$output_processor@_WV?$stream_output_adapter@_W@__crt_stdio_output@@V?$standard_base@_WV?$stream_output_adapter@_W@__crt_stdio_output@@@2@@__crt_stdio_output@@QAEHXZ 10067b46 f i libucrt:output.obj
 0001:00066c66       ?process@?$output_processor@_WV?$string_output_adapter@_W@__crt_stdio_output@@V?$format_validation_base@_WV?$string_output_adapter@_W@__crt_stdio_output@@@2@@__crt_stdio_output@@QAEHXZ 10067c66 f i libucrt:output.obj
 0001:00066d96       ?process@?$output_processor@_WV?$string_output_adapter@_W@__crt_stdio_output@@V?$positional_parameter_base@_WV?$string_output_adapter@_W@__crt_stdio_output@@@2@@__crt_stdio_output@@QAEHXZ 10067d96 f i libucrt:output.obj
 0001:00066ef8       ?process@?$output_processor@_WV?$string_output_adapter@_W@__crt_stdio_output@@V?$standard_base@_WV?$string_output_adapter@_W@__crt_stdio_output@@@2@@__crt_stdio_output@@QAEHXZ 10067ef8 f i libucrt:output.obj
 0001:00067018       ?set_flag@?$output_processor@DV?$stream_output_adapter@D@__crt_stdio_output@@V?$format_validation_base@DV?$stream_output_adapter@D@__crt_stdio_output@@@2@@__crt_stdio_output@@AAEXI@Z 10068018 f i libucrt:output.obj
 0001:00067027       ?set_flag@?$output_processor@DV?$stream_output_adapter@D@__crt_stdio_output@@V?$positional_parameter_base@DV?$stream_output_adapter@D@__crt_stdio_output@@@2@@__crt_stdio_output@@AAEXI@Z 10068027 f i libucrt:output.obj
 0001:00067036       ?set_flag@?$output_processor@DV?$stream_output_adapter@D@__crt_stdio_output@@V?$standard_base@DV?$stream_output_adapter@D@__crt_stdio_output@@@2@@__crt_stdio_output@@AAEXI@Z 10068036 f i libucrt:output.obj
 0001:00067045       ?set_flag@?$output_processor@DV?$string_output_adapter@D@__crt_stdio_output@@V?$format_validation_base@DV?$string_output_adapter@D@__crt_stdio_output@@@2@@__crt_stdio_output@@AAEXI@Z 10068045 f i libucrt:output.obj
 0001:00067054       ?set_flag@?$output_processor@DV?$string_output_adapter@D@__crt_stdio_output@@V?$positional_parameter_base@DV?$string_output_adapter@D@__crt_stdio_output@@@2@@__crt_stdio_output@@AAEXI@Z 10068054 f i libucrt:output.obj
 0001:00067063       ?set_flag@?$output_processor@DV?$string_output_adapter@D@__crt_stdio_output@@V?$standard_base@DV?$string_output_adapter@D@__crt_stdio_output@@@2@@__crt_stdio_output@@AAEXI@Z 10068063 f i libucrt:output.obj
 0001:00067072       ?set_flag@?$output_processor@_WV?$stream_output_adapter@_W@__crt_stdio_output@@V?$format_validation_base@_WV?$stream_output_adapter@_W@__crt_stdio_output@@@2@@__crt_stdio_output@@AAEXI@Z 10068072 f i libucrt:output.obj
 0001:00067081       ?set_flag@?$output_processor@_WV?$stream_output_adapter@_W@__crt_stdio_output@@V?$positional_parameter_base@_WV?$stream_output_adapter@_W@__crt_stdio_output@@@2@@__crt_stdio_output@@AAEXI@Z 10068081 f i libucrt:output.obj
 0001:00067090       ?set_flag@?$output_processor@_WV?$stream_output_adapter@_W@__crt_stdio_output@@V?$standard_base@_WV?$stream_output_adapter@_W@__crt_stdio_output@@@2@@__crt_stdio_output@@AAEXI@Z 10068090 f i libucrt:output.obj
 0001:0006709f       ?set_flag@?$output_processor@_WV?$string_output_adapter@_W@__crt_stdio_output@@V?$format_validation_base@_WV?$string_output_adapter@_W@__crt_stdio_output@@@2@@__crt_stdio_output@@AAEXI@Z 1006809f f i libucrt:output.obj
 0001:000670ae       ?set_flag@?$output_processor@_WV?$string_output_adapter@_W@__crt_stdio_output@@V?$positional_parameter_base@_WV?$string_output_adapter@_W@__crt_stdio_output@@@2@@__crt_stdio_output@@AAEXI@Z 100680ae f i libucrt:output.obj
 0001:000670bd       ?set_flag@?$output_processor@_WV?$string_output_adapter@_W@__crt_stdio_output@@V?$standard_base@_WV?$string_output_adapter@_W@__crt_stdio_output@@@2@@__crt_stdio_output@@AAEXI@Z 100680bd f i libucrt:output.obj
 0001:000670cc       ?should_format@?$positional_parameter_base@DV?$stream_output_adapter@D@__crt_stdio_output@@@__crt_stdio_output@@IAE_NXZ 100680cc f i libucrt:output.obj
 0001:000670e2       ?should_format@?$positional_parameter_base@DV?$string_output_adapter@D@__crt_stdio_output@@@__crt_stdio_output@@IAE_NXZ 100680e2 f i libucrt:output.obj
 0001:000670f8       ?should_format@?$positional_parameter_base@_WV?$stream_output_adapter@_W@__crt_stdio_output@@@__crt_stdio_output@@IAE_NXZ 100680f8 f i libucrt:output.obj
 0001:0006710e       ?should_format@?$positional_parameter_base@_WV?$string_output_adapter@_W@__crt_stdio_output@@@__crt_stdio_output@@IAE_NXZ 1006810e f i libucrt:output.obj
 0001:00067124       ?should_format@?$standard_base@DV?$stream_output_adapter@D@__crt_stdio_output@@@__crt_stdio_output@@IAE_NXZ 10068124 f i libucrt:output.obj
 0001:00067127       ?should_format@?$standard_base@DV?$string_output_adapter@D@__crt_stdio_output@@@__crt_stdio_output@@IAE_NXZ 10068127 f i libucrt:output.obj
 0001:0006712a       ?should_format@?$standard_base@_WV?$stream_output_adapter@_W@__crt_stdio_output@@@__crt_stdio_output@@IAE_NXZ 1006812a f i libucrt:output.obj
 0001:0006712d       ?should_format@?$standard_base@_WV?$string_output_adapter@_W@__crt_stdio_output@@@__crt_stdio_output@@IAE_NXZ 1006812d f i libucrt:output.obj
 0001:00067130       ?should_skip_normal_state_processing@?$positional_parameter_base@DV?$stream_output_adapter@D@__crt_stdio_output@@@__crt_stdio_output@@IAE_NXZ 10068130 f i libucrt:output.obj
 0001:00067158       ?should_skip_normal_state_processing@?$positional_parameter_base@DV?$string_output_adapter@D@__crt_stdio_output@@@__crt_stdio_output@@IAE_NXZ 10068158 f i libucrt:output.obj
 0001:00067180       ?should_skip_normal_state_processing@?$positional_parameter_base@_WV?$stream_output_adapter@_W@__crt_stdio_output@@@__crt_stdio_output@@IAE_NXZ 10068180 f i libucrt:output.obj
 0001:000671a8       ?should_skip_normal_state_processing@?$positional_parameter_base@_WV?$string_output_adapter@_W@__crt_stdio_output@@@__crt_stdio_output@@IAE_NXZ 100681a8 f i libucrt:output.obj
 0001:000671d0       ?should_skip_normal_state_processing@?$standard_base@DV?$stream_output_adapter@D@__crt_stdio_output@@@__crt_stdio_output@@IAE_NXZ 100681d0 f i libucrt:output.obj
 0001:000671d3       ?should_skip_normal_state_processing@?$standard_base@DV?$string_output_adapter@D@__crt_stdio_output@@@__crt_stdio_output@@IAE_NXZ 100681d3 f i libucrt:output.obj
 0001:000671d6       ?should_skip_normal_state_processing@?$standard_base@_WV?$stream_output_adapter@_W@__crt_stdio_output@@@__crt_stdio_output@@IAE_NXZ 100681d6 f i libucrt:output.obj
 0001:000671d9       ?should_skip_normal_state_processing@?$standard_base@_WV?$string_output_adapter@_W@__crt_stdio_output@@@__crt_stdio_output@@IAE_NXZ 100681d9 f i libucrt:output.obj
 0001:000671dc       ?should_skip_type_state_output@?$positional_parameter_base@DV?$stream_output_adapter@D@__crt_stdio_output@@@__crt_stdio_output@@IBE_NXZ 100681dc f i libucrt:output.obj
 0001:000671f3       ?should_skip_type_state_output@?$positional_parameter_base@DV?$string_output_adapter@D@__crt_stdio_output@@@__crt_stdio_output@@IBE_NXZ 100681f3 f i libucrt:output.obj
 0001:0006720a       ?should_skip_type_state_output@?$positional_parameter_base@_WV?$stream_output_adapter@_W@__crt_stdio_output@@@__crt_stdio_output@@IBE_NXZ 1006820a f i libucrt:output.obj
 0001:00067221       ?should_skip_type_state_output@?$positional_parameter_base@_WV?$string_output_adapter@_W@__crt_stdio_output@@@__crt_stdio_output@@IBE_NXZ 10068221 f i libucrt:output.obj
 0001:00067238       ?should_skip_type_state_output@?$standard_base@DV?$stream_output_adapter@D@__crt_stdio_output@@@__crt_stdio_output@@IBE_NXZ 10068238 f i libucrt:output.obj
 0001:0006723b       ?should_skip_type_state_output@?$standard_base@DV?$string_output_adapter@D@__crt_stdio_output@@@__crt_stdio_output@@IBE_NXZ 1006823b f i libucrt:output.obj
 0001:0006723e       ?should_skip_type_state_output@?$standard_base@_WV?$stream_output_adapter@_W@__crt_stdio_output@@@__crt_stdio_output@@IBE_NXZ 1006823e f i libucrt:output.obj
 0001:00067241       ?should_skip_type_state_output@?$standard_base@_WV?$string_output_adapter@_W@__crt_stdio_output@@@__crt_stdio_output@@IBE_NXZ 10068241 f i libucrt:output.obj
 0001:00067244       ?state_case_dot@?$output_processor@DV?$stream_output_adapter@D@__crt_stdio_output@@V?$format_validation_base@DV?$stream_output_adapter@D@__crt_stdio_output@@@2@@__crt_stdio_output@@AAE_NXZ 10068244 f i libucrt:output.obj
 0001:0006724b       ?state_case_dot@?$output_processor@DV?$stream_output_adapter@D@__crt_stdio_output@@V?$positional_parameter_base@DV?$stream_output_adapter@D@__crt_stdio_output@@@2@@__crt_stdio_output@@AAE_NXZ 1006824b f i libucrt:output.obj
 0001:00067252       ?state_case_dot@?$output_processor@DV?$stream_output_adapter@D@__crt_stdio_output@@V?$standard_base@DV?$stream_output_adapter@D@__crt_stdio_output@@@2@@__crt_stdio_output@@AAE_NXZ 10068252 f i libucrt:output.obj
 0001:00067259       ?state_case_dot@?$output_processor@DV?$string_output_adapter@D@__crt_stdio_output@@V?$format_validation_base@DV?$string_output_adapter@D@__crt_stdio_output@@@2@@__crt_stdio_output@@AAE_NXZ 10068259 f i libucrt:output.obj
 0001:00067260       ?state_case_dot@?$output_processor@DV?$string_output_adapter@D@__crt_stdio_output@@V?$positional_parameter_base@DV?$string_output_adapter@D@__crt_stdio_output@@@2@@__crt_stdio_output@@AAE_NXZ 10068260 f i libucrt:output.obj
 0001:00067267       ?state_case_dot@?$output_processor@DV?$string_output_adapter@D@__crt_stdio_output@@V?$standard_base@DV?$string_output_adapter@D@__crt_stdio_output@@@2@@__crt_stdio_output@@AAE_NXZ 10068267 f i libucrt:output.obj
 0001:0006726e       ?state_case_dot@?$output_processor@_WV?$stream_output_adapter@_W@__crt_stdio_output@@V?$format_validation_base@_WV?$stream_output_adapter@_W@__crt_stdio_output@@@2@@__crt_stdio_output@@AAE_NXZ 1006826e f i libucrt:output.obj
 0001:00067275       ?state_case_dot@?$output_processor@_WV?$stream_output_adapter@_W@__crt_stdio_output@@V?$positional_parameter_base@_WV?$stream_output_adapter@_W@__crt_stdio_output@@@2@@__crt_stdio_output@@AAE_NXZ 10068275 f i libucrt:output.obj
 0001:0006727c       ?state_case_dot@?$output_processor@_WV?$stream_output_adapter@_W@__crt_stdio_output@@V?$standard_base@_WV?$stream_output_adapter@_W@__crt_stdio_output@@@2@@__crt_stdio_output@@AAE_NXZ 1006827c f i libucrt:output.obj
 0001:00067283       ?state_case_dot@?$output_processor@_WV?$string_output_adapter@_W@__crt_stdio_output@@V?$format_validation_base@_WV?$string_output_adapter@_W@__crt_stdio_output@@@2@@__crt_stdio_output@@AAE_NXZ 10068283 f i libucrt:output.obj
 0001:0006728a       ?state_case_dot@?$output_processor@_WV?$string_output_adapter@_W@__crt_stdio_output@@V?$positional_parameter_base@_WV?$string_output_adapter@_W@__crt_stdio_output@@@2@@__crt_stdio_output@@AAE_NXZ 1006828a f i libucrt:output.obj
 0001:00067291       ?state_case_dot@?$output_processor@_WV?$string_output_adapter@_W@__crt_stdio_output@@V?$standard_base@_WV?$string_output_adapter@_W@__crt_stdio_output@@@2@@__crt_stdio_output@@AAE_NXZ 10068291 f i libucrt:output.obj
 0001:00067298       ?state_case_flag@?$output_processor@DV?$stream_output_adapter@D@__crt_stdio_output@@V?$format_validation_base@DV?$stream_output_adapter@D@__crt_stdio_output@@@2@@__crt_stdio_output@@AAE_NXZ 10068298 f i libucrt:output.obj
 0001:000672d5       ?state_case_flag@?$output_processor@DV?$stream_output_adapter@D@__crt_stdio_output@@V?$positional_parameter_base@DV?$stream_output_adapter@D@__crt_stdio_output@@@2@@__crt_stdio_output@@AAE_NXZ 100682d5 f i libucrt:output.obj
 0001:00067312       ?state_case_flag@?$output_processor@DV?$stream_output_adapter@D@__crt_stdio_output@@V?$standard_base@DV?$stream_output_adapter@D@__crt_stdio_output@@@2@@__crt_stdio_output@@AAE_NXZ 10068312 f i libucrt:output.obj
 0001:0006734f       ?state_case_flag@?$output_processor@DV?$string_output_adapter@D@__crt_stdio_output@@V?$format_validation_base@DV?$string_output_adapter@D@__crt_stdio_output@@@2@@__crt_stdio_output@@AAE_NXZ 1006834f f i libucrt:output.obj
 0001:0006738c       ?state_case_flag@?$output_processor@DV?$string_output_adapter@D@__crt_stdio_output@@V?$positional_parameter_base@DV?$string_output_adapter@D@__crt_stdio_output@@@2@@__crt_stdio_output@@AAE_NXZ 1006838c f i libucrt:output.obj
 0001:000673c9       ?state_case_flag@?$output_processor@DV?$string_output_adapter@D@__crt_stdio_output@@V?$standard_base@DV?$string_output_adapter@D@__crt_stdio_output@@@2@@__crt_stdio_output@@AAE_NXZ 100683c9 f i libucrt:output.obj
 0001:00067406       ?state_case_flag@?$output_processor@_WV?$stream_output_adapter@_W@__crt_stdio_output@@V?$format_validation_base@_WV?$stream_output_adapter@_W@__crt_stdio_output@@@2@@__crt_stdio_output@@AAE_NXZ 10068406 f i libucrt:output.obj
 0001:00067443       ?state_case_flag@?$output_processor@_WV?$stream_output_adapter@_W@__crt_stdio_output@@V?$positional_parameter_base@_WV?$stream_output_adapter@_W@__crt_stdio_output@@@2@@__crt_stdio_output@@AAE_NXZ 10068443 f i libucrt:output.obj
 0001:00067480       ?state_case_flag@?$output_processor@_WV?$stream_output_adapter@_W@__crt_stdio_output@@V?$standard_base@_WV?$stream_output_adapter@_W@__crt_stdio_output@@@2@@__crt_stdio_output@@AAE_NXZ 10068480 f i libucrt:output.obj
 0001:000674bd       ?state_case_flag@?$output_processor@_WV?$string_output_adapter@_W@__crt_stdio_output@@V?$format_validation_base@_WV?$string_output_adapter@_W@__crt_stdio_output@@@2@@__crt_stdio_output@@AAE_NXZ 100684bd f i libucrt:output.obj
 0001:000674fa       ?state_case_flag@?$output_processor@_WV?$string_output_adapter@_W@__crt_stdio_output@@V?$positional_parameter_base@_WV?$string_output_adapter@_W@__crt_stdio_output@@@2@@__crt_stdio_output@@AAE_NXZ 100684fa f i libucrt:output.obj
 0001:00067537       ?state_case_flag@?$output_processor@_WV?$string_output_adapter@_W@__crt_stdio_output@@V?$standard_base@_WV?$string_output_adapter@_W@__crt_stdio_output@@@2@@__crt_stdio_output@@AAE_NXZ 10068537 f i libucrt:output.obj
 0001:00067574       ?state_case_normal@?$output_processor@DV?$stream_output_adapter@D@__crt_stdio_output@@V?$format_validation_base@DV?$stream_output_adapter@D@__crt_stdio_output@@@2@@__crt_stdio_output@@AAE_NXZ 10068574 f i libucrt:output.obj
 0001:00067593       ?state_case_normal@?$output_processor@DV?$stream_output_adapter@D@__crt_stdio_output@@V?$positional_parameter_base@DV?$stream_output_adapter@D@__crt_stdio_output@@@2@@__crt_stdio_output@@AAE_NXZ 10068593 f i libucrt:output.obj
 0001:000675c4       ?state_case_normal@?$output_processor@DV?$stream_output_adapter@D@__crt_stdio_output@@V?$standard_base@DV?$stream_output_adapter@D@__crt_stdio_output@@@2@@__crt_stdio_output@@AAE_NXZ 100685c4 f i libucrt:output.obj
 0001:000675e3       ?state_case_normal@?$output_processor@DV?$string_output_adapter@D@__crt_stdio_output@@V?$format_validation_base@DV?$string_output_adapter@D@__crt_stdio_output@@@2@@__crt_stdio_output@@AAE_NXZ 100685e3 f i libucrt:output.obj
 0001:00067602       ?state_case_normal@?$output_processor@DV?$string_output_adapter@D@__crt_stdio_output@@V?$positional_parameter_base@DV?$string_output_adapter@D@__crt_stdio_output@@@2@@__crt_stdio_output@@AAE_NXZ 10068602 f i libucrt:output.obj
 0001:00067633       ?state_case_normal@?$output_processor@DV?$string_output_adapter@D@__crt_stdio_output@@V?$standard_base@DV?$string_output_adapter@D@__crt_stdio_output@@@2@@__crt_stdio_output@@AAE_NXZ 10068633 f i libucrt:output.obj
 0001:00067652       ?state_case_normal@?$output_processor@_WV?$stream_output_adapter@_W@__crt_stdio_output@@V?$format_validation_base@_WV?$stream_output_adapter@_W@__crt_stdio_output@@@2@@__crt_stdio_output@@AAE_NXZ 10068652 f i libucrt:output.obj
 0001:00067671       ?state_case_normal@?$output_processor@_WV?$stream_output_adapter@_W@__crt_stdio_output@@V?$positional_parameter_base@_WV?$stream_output_adapter@_W@__crt_stdio_output@@@2@@__crt_stdio_output@@AAE_NXZ 10068671 f i libucrt:output.obj
 0001:000676a2       ?state_case_normal@?$output_processor@_WV?$stream_output_adapter@_W@__crt_stdio_output@@V?$standard_base@_WV?$stream_output_adapter@_W@__crt_stdio_output@@@2@@__crt_stdio_output@@AAE_NXZ 100686a2 f i libucrt:output.obj
 0001:000676c1       ?state_case_normal@?$output_processor@_WV?$string_output_adapter@_W@__crt_stdio_output@@V?$format_validation_base@_WV?$string_output_adapter@_W@__crt_stdio_output@@@2@@__crt_stdio_output@@AAE_NXZ 100686c1 f i libucrt:output.obj
 0001:000676e0       ?state_case_normal@?$output_processor@_WV?$string_output_adapter@_W@__crt_stdio_output@@V?$positional_parameter_base@_WV?$string_output_adapter@_W@__crt_stdio_output@@@2@@__crt_stdio_output@@AAE_NXZ 100686e0 f i libucrt:output.obj
 0001:00067711       ?state_case_normal@?$output_processor@_WV?$string_output_adapter@_W@__crt_stdio_output@@V?$standard_base@_WV?$string_output_adapter@_W@__crt_stdio_output@@@2@@__crt_stdio_output@@AAE_NXZ 10068711 f i libucrt:output.obj
 0001:00067730       ?state_case_normal_common@?$output_processor@DV?$stream_output_adapter@D@__crt_stdio_output@@V?$format_validation_base@DV?$stream_output_adapter@D@__crt_stdio_output@@@2@@__crt_stdio_output@@AAE_NXZ 10068730 f i libucrt:output.obj
 0001:0006776c       ?state_case_normal_common@?$output_processor@DV?$stream_output_adapter@D@__crt_stdio_output@@V?$positional_parameter_base@DV?$stream_output_adapter@D@__crt_stdio_output@@@2@@__crt_stdio_output@@AAE_NXZ 1006876c f i libucrt:output.obj
 0001:000677a8       ?state_case_normal_common@?$output_processor@DV?$stream_output_adapter@D@__crt_stdio_output@@V?$standard_base@DV?$stream_output_adapter@D@__crt_stdio_output@@@2@@__crt_stdio_output@@AAE_NXZ 100687a8 f i libucrt:output.obj
 0001:000677e4       ?state_case_normal_common@?$output_processor@DV?$string_output_adapter@D@__crt_stdio_output@@V?$format_validation_base@DV?$string_output_adapter@D@__crt_stdio_output@@@2@@__crt_stdio_output@@AAE_NXZ 100687e4 f i libucrt:output.obj
 0001:0006780e       ?state_case_normal_common@?$output_processor@DV?$string_output_adapter@D@__crt_stdio_output@@V?$positional_parameter_base@DV?$string_output_adapter@D@__crt_stdio_output@@@2@@__crt_stdio_output@@AAE_NXZ 1006880e f i libucrt:output.obj
 0001:00067838       ?state_case_normal_common@?$output_processor@DV?$string_output_adapter@D@__crt_stdio_output@@V?$standard_base@DV?$string_output_adapter@D@__crt_stdio_output@@@2@@__crt_stdio_output@@AAE_NXZ 10068838 f i libucrt:output.obj
 0001:00067862       ?state_case_normal_common@?$output_processor@_WV?$stream_output_adapter@_W@__crt_stdio_output@@V?$format_validation_base@_WV?$stream_output_adapter@_W@__crt_stdio_output@@@2@@__crt_stdio_output@@AAE_NXZ 10068862 f i libucrt:output.obj
 0001:0006788c       ?state_case_normal_common@?$output_processor@_WV?$stream_output_adapter@_W@__crt_stdio_output@@V?$positional_parameter_base@_WV?$stream_output_adapter@_W@__crt_stdio_output@@@2@@__crt_stdio_output@@AAE_NXZ 1006888c f i libucrt:output.obj
 0001:000678b6       ?state_case_normal_common@?$output_processor@_WV?$stream_output_adapter@_W@__crt_stdio_output@@V?$standard_base@_WV?$stream_output_adapter@_W@__crt_stdio_output@@@2@@__crt_stdio_output@@AAE_NXZ 100688b6 f i libucrt:output.obj
 0001:000678e0       ?state_case_normal_common@?$output_processor@_WV?$string_output_adapter@_W@__crt_stdio_output@@V?$format_validation_base@_WV?$string_output_adapter@_W@__crt_stdio_output@@@2@@__crt_stdio_output@@AAE_NXZ 100688e0 f i libucrt:output.obj
 0001:000678fb       ?state_case_normal_common@?$output_processor@_WV?$string_output_adapter@_W@__crt_stdio_output@@V?$positional_parameter_base@_WV?$string_output_adapter@_W@__crt_stdio_output@@@2@@__crt_stdio_output@@AAE_NXZ 100688fb f i libucrt:output.obj
 0001:00067916       ?state_case_normal_common@?$output_processor@_WV?$string_output_adapter@_W@__crt_stdio_output@@V?$standard_base@_WV?$string_output_adapter@_W@__crt_stdio_output@@@2@@__crt_stdio_output@@AAE_NXZ 10068916 f i libucrt:output.obj
 0001:00067931       ?state_case_normal_tchar@?$output_processor@DV?$stream_output_adapter@D@__crt_stdio_output@@V?$format_validation_base@DV?$stream_output_adapter@D@__crt_stdio_output@@@2@@__crt_stdio_output@@AAE_ND@Z 10068931 f i libucrt:output.obj
 0001:000679a2       ?state_case_normal_tchar@?$output_processor@DV?$stream_output_adapter@D@__crt_stdio_output@@V?$positional_parameter_base@DV?$stream_output_adapter@D@__crt_stdio_output@@@2@@__crt_stdio_output@@AAE_ND@Z 100689a2 f i libucrt:output.obj
 0001:00067a13       ?state_case_normal_tchar@?$output_processor@DV?$stream_output_adapter@D@__crt_stdio_output@@V?$standard_base@DV?$stream_output_adapter@D@__crt_stdio_output@@@2@@__crt_stdio_output@@AAE_ND@Z 10068a13 f i libucrt:output.obj
 0001:00067a84       ?state_case_normal_tchar@?$output_processor@DV?$string_output_adapter@D@__crt_stdio_output@@V?$format_validation_base@DV?$string_output_adapter@D@__crt_stdio_output@@@2@@__crt_stdio_output@@AAE_ND@Z 10068a84 f i libucrt:output.obj
 0001:00067ae0       ?state_case_normal_tchar@?$output_processor@DV?$string_output_adapter@D@__crt_stdio_output@@V?$positional_parameter_base@DV?$string_output_adapter@D@__crt_stdio_output@@@2@@__crt_stdio_output@@AAE_ND@Z 10068ae0 f i libucrt:output.obj
 0001:00067b3c       ?state_case_normal_tchar@?$output_processor@DV?$string_output_adapter@D@__crt_stdio_output@@V?$standard_base@DV?$string_output_adapter@D@__crt_stdio_output@@@2@@__crt_stdio_output@@AAE_ND@Z 10068b3c f i libucrt:output.obj
 0001:00067b98       ?state_case_normal_tchar@?$output_processor@_WV?$stream_output_adapter@_W@__crt_stdio_output@@V?$format_validation_base@_WV?$stream_output_adapter@_W@__crt_stdio_output@@@2@@__crt_stdio_output@@AAE_N_W@Z 10068b98 f i libucrt:output.obj
 0001:00067ba1       ?state_case_normal_tchar@?$output_processor@_WV?$stream_output_adapter@_W@__crt_stdio_output@@V?$positional_parameter_base@_WV?$stream_output_adapter@_W@__crt_stdio_output@@@2@@__crt_stdio_output@@AAE_N_W@Z 10068ba1 f i libucrt:output.obj
 0001:00067baa       ?state_case_normal_tchar@?$output_processor@_WV?$stream_output_adapter@_W@__crt_stdio_output@@V?$standard_base@_WV?$stream_output_adapter@_W@__crt_stdio_output@@@2@@__crt_stdio_output@@AAE_N_W@Z 10068baa f i libucrt:output.obj
 0001:00067bb3       ?state_case_normal_tchar@?$output_processor@_WV?$string_output_adapter@_W@__crt_stdio_output@@V?$format_validation_base@_WV?$string_output_adapter@_W@__crt_stdio_output@@@2@@__crt_stdio_output@@AAE_N_W@Z 10068bb3 f i libucrt:output.obj
 0001:00067bbc       ?state_case_normal_tchar@?$output_processor@_WV?$string_output_adapter@_W@__crt_stdio_output@@V?$positional_parameter_base@_WV?$string_output_adapter@_W@__crt_stdio_output@@@2@@__crt_stdio_output@@AAE_N_W@Z 10068bbc f i libucrt:output.obj
 0001:00067bc5       ?state_case_normal_tchar@?$output_processor@_WV?$string_output_adapter@_W@__crt_stdio_output@@V?$standard_base@_WV?$string_output_adapter@_W@__crt_stdio_output@@@2@@__crt_stdio_output@@AAE_N_W@Z 10068bc5 f i libucrt:output.obj
 0001:00067bce       ?state_case_percent@?$output_processor@DV?$stream_output_adapter@D@__crt_stdio_output@@V?$format_validation_base@DV?$stream_output_adapter@D@__crt_stdio_output@@@2@@__crt_stdio_output@@AAE_NXZ 10068bce f i libucrt:output.obj
 0001:00067be6       ?state_case_percent@?$output_processor@DV?$stream_output_adapter@D@__crt_stdio_output@@V?$positional_parameter_base@DV?$stream_output_adapter@D@__crt_stdio_output@@@2@@__crt_stdio_output@@AAE_NXZ 10068be6 f i libucrt:output.obj
 0001:00067bfe       ?state_case_percent@?$output_processor@DV?$stream_output_adapter@D@__crt_stdio_output@@V?$standard_base@DV?$stream_output_adapter@D@__crt_stdio_output@@@2@@__crt_stdio_output@@AAE_NXZ 10068bfe f i libucrt:output.obj
 0001:00067c16       ?state_case_percent@?$output_processor@DV?$string_output_adapter@D@__crt_stdio_output@@V?$format_validation_base@DV?$string_output_adapter@D@__crt_stdio_output@@@2@@__crt_stdio_output@@AAE_NXZ 10068c16 f i libucrt:output.obj
 0001:00067c2e       ?state_case_percent@?$output_processor@DV?$string_output_adapter@D@__crt_stdio_output@@V?$positional_parameter_base@DV?$string_output_adapter@D@__crt_stdio_output@@@2@@__crt_stdio_output@@AAE_NXZ 10068c2e f i libucrt:output.obj
 0001:00067c46       ?state_case_percent@?$output_processor@DV?$string_output_adapter@D@__crt_stdio_output@@V?$standard_base@DV?$string_output_adapter@D@__crt_stdio_output@@@2@@__crt_stdio_output@@AAE_NXZ 10068c46 f i libucrt:output.obj
 0001:00067c5e       ?state_case_percent@?$output_processor@_WV?$stream_output_adapter@_W@__crt_stdio_output@@V?$format_validation_base@_WV?$stream_output_adapter@_W@__crt_stdio_output@@@2@@__crt_stdio_output@@AAE_NXZ 10068c5e f i libucrt:output.obj
 0001:00067c76       ?state_case_percent@?$output_processor@_WV?$stream_output_adapter@_W@__crt_stdio_output@@V?$positional_parameter_base@_WV?$stream_output_adapter@_W@__crt_stdio_output@@@2@@__crt_stdio_output@@AAE_NXZ 10068c76 f i libucrt:output.obj
 0001:00067c8e       ?state_case_percent@?$output_processor@_WV?$stream_output_adapter@_W@__crt_stdio_output@@V?$standard_base@_WV?$stream_output_adapter@_W@__crt_stdio_output@@@2@@__crt_stdio_output@@AAE_NXZ 10068c8e f i libucrt:output.obj
 0001:00067ca6       ?state_case_percent@?$output_processor@_WV?$string_output_adapter@_W@__crt_stdio_output@@V?$format_validation_base@_WV?$string_output_adapter@_W@__crt_stdio_output@@@2@@__crt_stdio_output@@AAE_NXZ 10068ca6 f i libucrt:output.obj
 0001:00067cbe       ?state_case_percent@?$output_processor@_WV?$string_output_adapter@_W@__crt_stdio_output@@V?$positional_parameter_base@_WV?$string_output_adapter@_W@__crt_stdio_output@@@2@@__crt_stdio_output@@AAE_NXZ 10068cbe f i libucrt:output.obj
 0001:00067cd6       ?state_case_percent@?$output_processor@_WV?$string_output_adapter@_W@__crt_stdio_output@@V?$standard_base@_WV?$string_output_adapter@_W@__crt_stdio_output@@@2@@__crt_stdio_output@@AAE_NXZ 10068cd6 f i libucrt:output.obj
 0001:00067cee       ?state_case_precision@?$output_processor@DV?$stream_output_adapter@D@__crt_stdio_output@@V?$format_validation_base@DV?$stream_output_adapter@D@__crt_stdio_output@@@2@@__crt_stdio_output@@AAE_NXZ 10068cee f i libucrt:output.obj
 0001:00067d16       ?state_case_precision@?$output_processor@DV?$stream_output_adapter@D@__crt_stdio_output@@V?$positional_parameter_base@DV?$stream_output_adapter@D@__crt_stdio_output@@@2@@__crt_stdio_output@@AAE_NXZ 10068d16 f i libucrt:output.obj
 0001:00067d50       ?state_case_precision@?$output_processor@DV?$stream_output_adapter@D@__crt_stdio_output@@V?$standard_base@DV?$stream_output_adapter@D@__crt_stdio_output@@@2@@__crt_stdio_output@@AAE_NXZ 10068d50 f i libucrt:output.obj
 0001:00067d78       ?state_case_precision@?$output_processor@DV?$string_output_adapter@D@__crt_stdio_output@@V?$format_validation_base@DV?$string_output_adapter@D@__crt_stdio_output@@@2@@__crt_stdio_output@@AAE_NXZ 10068d78 f i libucrt:output.obj
 0001:00067da0       ?state_case_precision@?$output_processor@DV?$string_output_adapter@D@__crt_stdio_output@@V?$positional_parameter_base@DV?$string_output_adapter@D@__crt_stdio_output@@@2@@__crt_stdio_output@@AAE_NXZ 10068da0 f i libucrt:output.obj
 0001:00067dda       ?state_case_precision@?$output_processor@DV?$string_output_adapter@D@__crt_stdio_output@@V?$standard_base@DV?$string_output_adapter@D@__crt_stdio_output@@@2@@__crt_stdio_output@@AAE_NXZ 10068dda f i libucrt:output.obj
 0001:00067e02       ?state_case_precision@?$output_processor@_WV?$stream_output_adapter@_W@__crt_stdio_output@@V?$format_validation_base@_WV?$stream_output_adapter@_W@__crt_stdio_output@@@2@@__crt_stdio_output@@AAE_NXZ 10068e02 f i libucrt:output.obj
 0001:00067e2b       ?state_case_precision@?$output_processor@_WV?$stream_output_adapter@_W@__crt_stdio_output@@V?$positional_parameter_base@_WV?$stream_output_adapter@_W@__crt_stdio_output@@@2@@__crt_stdio_output@@AAE_NXZ 10068e2b f i libucrt:output.obj
 0001:00067e66       ?state_case_precision@?$output_processor@_WV?$stream_output_adapter@_W@__crt_stdio_output@@V?$standard_base@_WV?$stream_output_adapter@_W@__crt_stdio_output@@@2@@__crt_stdio_output@@AAE_NXZ 10068e66 f i libucrt:output.obj
 0001:00067e8f       ?state_case_precision@?$output_processor@_WV?$string_output_adapter@_W@__crt_stdio_output@@V?$format_validation_base@_WV?$string_output_adapter@_W@__crt_stdio_output@@@2@@__crt_stdio_output@@AAE_NXZ 10068e8f f i libucrt:output.obj
 0001:00067eb8       ?state_case_precision@?$output_processor@_WV?$string_output_adapter@_W@__crt_stdio_output@@V?$positional_parameter_base@_WV?$string_output_adapter@_W@__crt_stdio_output@@@2@@__crt_stdio_output@@AAE_NXZ 10068eb8 f i libucrt:output.obj
 0001:00067ef3       ?state_case_precision@?$output_processor@_WV?$string_output_adapter@_W@__crt_stdio_output@@V?$standard_base@_WV?$string_output_adapter@_W@__crt_stdio_output@@@2@@__crt_stdio_output@@AAE_NXZ 10068ef3 f i libucrt:output.obj
 0001:00067f1c       ?state_case_size@?$output_processor@DV?$stream_output_adapter@D@__crt_stdio_output@@V?$format_validation_base@DV?$stream_output_adapter@D@__crt_stdio_output@@@2@@__crt_stdio_output@@AAE_NXZ 10068f1c f i libucrt:output.obj
 0001:00068085       ?state_case_size@?$output_processor@DV?$stream_output_adapter@D@__crt_stdio_output@@V?$positional_parameter_base@DV?$stream_output_adapter@D@__crt_stdio_output@@@2@@__crt_stdio_output@@AAE_NXZ 10069085 f i libucrt:output.obj
 0001:000681ee       ?state_case_size@?$output_processor@DV?$stream_output_adapter@D@__crt_stdio_output@@V?$standard_base@DV?$stream_output_adapter@D@__crt_stdio_output@@@2@@__crt_stdio_output@@AAE_NXZ 100691ee f i libucrt:output.obj
 0001:00068357       ?state_case_size@?$output_processor@DV?$string_output_adapter@D@__crt_stdio_output@@V?$format_validation_base@DV?$string_output_adapter@D@__crt_stdio_output@@@2@@__crt_stdio_output@@AAE_NXZ 10069357 f i libucrt:output.obj
 0001:000684c0       ?state_case_size@?$output_processor@DV?$string_output_adapter@D@__crt_stdio_output@@V?$positional_parameter_base@DV?$string_output_adapter@D@__crt_stdio_output@@@2@@__crt_stdio_output@@AAE_NXZ 100694c0 f i libucrt:output.obj
 0001:00068629       ?state_case_size@?$output_processor@DV?$string_output_adapter@D@__crt_stdio_output@@V?$standard_base@DV?$string_output_adapter@D@__crt_stdio_output@@@2@@__crt_stdio_output@@AAE_NXZ 10069629 f i libucrt:output.obj
 0001:00068792       ?state_case_size@?$output_processor@_WV?$stream_output_adapter@_W@__crt_stdio_output@@V?$format_validation_base@_WV?$stream_output_adapter@_W@__crt_stdio_output@@@2@@__crt_stdio_output@@AAE_NXZ 10069792 f i libucrt:output.obj
 0001:0006890e       ?state_case_size@?$output_processor@_WV?$stream_output_adapter@_W@__crt_stdio_output@@V?$positional_parameter_base@_WV?$stream_output_adapter@_W@__crt_stdio_output@@@2@@__crt_stdio_output@@AAE_NXZ 1006990e f i libucrt:output.obj
 0001:00068a8a       ?state_case_size@?$output_processor@_WV?$stream_output_adapter@_W@__crt_stdio_output@@V?$standard_base@_WV?$stream_output_adapter@_W@__crt_stdio_output@@@2@@__crt_stdio_output@@AAE_NXZ 10069a8a f i libucrt:output.obj
 0001:00068c06       ?state_case_size@?$output_processor@_WV?$string_output_adapter@_W@__crt_stdio_output@@V?$format_validation_base@_WV?$string_output_adapter@_W@__crt_stdio_output@@@2@@__crt_stdio_output@@AAE_NXZ 10069c06 f i libucrt:output.obj
 0001:00068d82       ?state_case_size@?$output_processor@_WV?$string_output_adapter@_W@__crt_stdio_output@@V?$positional_parameter_base@_WV?$string_output_adapter@_W@__crt_stdio_output@@@2@@__crt_stdio_output@@AAE_NXZ 10069d82 f i libucrt:output.obj
 0001:00068efe       ?state_case_size@?$output_processor@_WV?$string_output_adapter@_W@__crt_stdio_output@@V?$standard_base@_WV?$string_output_adapter@_W@__crt_stdio_output@@@2@@__crt_stdio_output@@AAE_NXZ 10069efe f i libucrt:output.obj
 0001:0006907a       ?state_case_type@?$output_processor@DV?$stream_output_adapter@D@__crt_stdio_output@@V?$format_validation_base@DV?$stream_output_adapter@D@__crt_stdio_output@@@2@@__crt_stdio_output@@AAE_NXZ 1006a07a f i libucrt:output.obj
 0001:000692aa       ?state_case_type@?$output_processor@DV?$stream_output_adapter@D@__crt_stdio_output@@V?$positional_parameter_base@DV?$stream_output_adapter@D@__crt_stdio_output@@@2@@__crt_stdio_output@@AAE_NXZ 1006a2aa f i libucrt:output.obj
 0001:000694e5       ?state_case_type@?$output_processor@DV?$stream_output_adapter@D@__crt_stdio_output@@V?$standard_base@DV?$stream_output_adapter@D@__crt_stdio_output@@@2@@__crt_stdio_output@@AAE_NXZ 1006a4e5 f i libucrt:output.obj
 0001:00069715       ?state_case_type@?$output_processor@DV?$string_output_adapter@D@__crt_stdio_output@@V?$format_validation_base@DV?$string_output_adapter@D@__crt_stdio_output@@@2@@__crt_stdio_output@@AAE_NXZ 1006a715 f i libucrt:output.obj
 0001:00069945       ?state_case_type@?$output_processor@DV?$string_output_adapter@D@__crt_stdio_output@@V?$positional_parameter_base@DV?$string_output_adapter@D@__crt_stdio_output@@@2@@__crt_stdio_output@@AAE_NXZ 1006a945 f i libucrt:output.obj
 0001:00069b80       ?state_case_type@?$output_processor@DV?$string_output_adapter@D@__crt_stdio_output@@V?$standard_base@DV?$string_output_adapter@D@__crt_stdio_output@@@2@@__crt_stdio_output@@AAE_NXZ 1006ab80 f i libucrt:output.obj
 0001:00069db0       ?state_case_type@?$output_processor@_WV?$stream_output_adapter@_W@__crt_stdio_output@@V?$format_validation_base@_WV?$stream_output_adapter@_W@__crt_stdio_output@@@2@@__crt_stdio_output@@AAE_NXZ 1006adb0 f i libucrt:output.obj
 0001:0006a01a       ?state_case_type@?$output_processor@_WV?$stream_output_adapter@_W@__crt_stdio_output@@V?$positional_parameter_base@_WV?$stream_output_adapter@_W@__crt_stdio_output@@@2@@__crt_stdio_output@@AAE_NXZ 1006b01a f i libucrt:output.obj
 0001:0006a293       ?state_case_type@?$output_processor@_WV?$stream_output_adapter@_W@__crt_stdio_output@@V?$standard_base@_WV?$stream_output_adapter@_W@__crt_stdio_output@@@2@@__crt_stdio_output@@AAE_NXZ 1006b293 f i libucrt:output.obj
 0001:0006a4fd       ?state_case_type@?$output_processor@_WV?$string_output_adapter@_W@__crt_stdio_output@@V?$format_validation_base@_WV?$string_output_adapter@_W@__crt_stdio_output@@@2@@__crt_stdio_output@@AAE_NXZ 1006b4fd f i libucrt:output.obj
 0001:0006a767       ?state_case_type@?$output_processor@_WV?$string_output_adapter@_W@__crt_stdio_output@@V?$positional_parameter_base@_WV?$string_output_adapter@_W@__crt_stdio_output@@@2@@__crt_stdio_output@@AAE_NXZ 1006b767 f i libucrt:output.obj
 0001:0006a9e0       ?state_case_type@?$output_processor@_WV?$string_output_adapter@_W@__crt_stdio_output@@V?$standard_base@_WV?$string_output_adapter@_W@__crt_stdio_output@@@2@@__crt_stdio_output@@AAE_NXZ 1006b9e0 f i libucrt:output.obj
 0001:0006ac4a       ?state_case_width@?$output_processor@DV?$stream_output_adapter@D@__crt_stdio_output@@V?$format_validation_base@DV?$stream_output_adapter@D@__crt_stdio_output@@@2@@__crt_stdio_output@@AAE_NXZ 1006bc4a f i libucrt:output.obj
 0001:0006ac75       ?state_case_width@?$output_processor@DV?$stream_output_adapter@D@__crt_stdio_output@@V?$positional_parameter_base@DV?$stream_output_adapter@D@__crt_stdio_output@@@2@@__crt_stdio_output@@AAE_NXZ 1006bc75 f i libucrt:output.obj
 0001:0006acb5       ?state_case_width@?$output_processor@DV?$stream_output_adapter@D@__crt_stdio_output@@V?$standard_base@DV?$stream_output_adapter@D@__crt_stdio_output@@@2@@__crt_stdio_output@@AAE_NXZ 1006bcb5 f i libucrt:output.obj
 0001:0006ace0       ?state_case_width@?$output_processor@DV?$string_output_adapter@D@__crt_stdio_output@@V?$format_validation_base@DV?$string_output_adapter@D@__crt_stdio_output@@@2@@__crt_stdio_output@@AAE_NXZ 1006bce0 f i libucrt:output.obj
 0001:0006ad0b       ?state_case_width@?$output_processor@DV?$string_output_adapter@D@__crt_stdio_output@@V?$positional_parameter_base@DV?$string_output_adapter@D@__crt_stdio_output@@@2@@__crt_stdio_output@@AAE_NXZ 1006bd0b f i libucrt:output.obj
 0001:0006ad4b       ?state_case_width@?$output_processor@DV?$string_output_adapter@D@__crt_stdio_output@@V?$standard_base@DV?$string_output_adapter@D@__crt_stdio_output@@@2@@__crt_stdio_output@@AAE_NXZ 1006bd4b f i libucrt:output.obj
 0001:0006ad76       ?state_case_width@?$output_processor@_WV?$stream_output_adapter@_W@__crt_stdio_output@@V?$format_validation_base@_WV?$stream_output_adapter@_W@__crt_stdio_output@@@2@@__crt_stdio_output@@AAE_NXZ 1006bd76 f i libucrt:output.obj
 0001:0006ada2       ?state_case_width@?$output_processor@_WV?$stream_output_adapter@_W@__crt_stdio_output@@V?$positional_parameter_base@_WV?$stream_output_adapter@_W@__crt_stdio_output@@@2@@__crt_stdio_output@@AAE_NXZ 1006bda2 f i libucrt:output.obj
 0001:0006ade3       ?state_case_width@?$output_processor@_WV?$stream_output_adapter@_W@__crt_stdio_output@@V?$standard_base@_WV?$stream_output_adapter@_W@__crt_stdio_output@@@2@@__crt_stdio_output@@AAE_NXZ 1006bde3 f i libucrt:output.obj
 0001:0006ae0f       ?state_case_width@?$output_processor@_WV?$string_output_adapter@_W@__crt_stdio_output@@V?$format_validation_base@_WV?$string_output_adapter@_W@__crt_stdio_output@@@2@@__crt_stdio_output@@AAE_NXZ 1006be0f f i libucrt:output.obj
 0001:0006ae3b       ?state_case_width@?$output_processor@_WV?$string_output_adapter@_W@__crt_stdio_output@@V?$positional_parameter_base@_WV?$string_output_adapter@_W@__crt_stdio_output@@@2@@__crt_stdio_output@@AAE_NXZ 1006be3b f i libucrt:output.obj
 0001:0006ae7c       ?state_case_width@?$output_processor@_WV?$string_output_adapter@_W@__crt_stdio_output@@V?$standard_base@_WV?$string_output_adapter@_W@__crt_stdio_output@@@2@@__crt_stdio_output@@AAE_NXZ 1006be7c f i libucrt:output.obj
 0001:0006aea8       ?state_count@?$format_validation_base@DV?$stream_output_adapter@D@__crt_stdio_output@@@__crt_stdio_output@@KAIXZ 1006bea8 f i libucrt:output.obj
 0001:0006aeac       ?state_count@?$format_validation_base@DV?$string_output_adapter@D@__crt_stdio_output@@@__crt_stdio_output@@KAIXZ 1006beac f i libucrt:output.obj
 0001:0006aeb0       ?state_count@?$format_validation_base@_WV?$stream_output_adapter@_W@__crt_stdio_output@@@__crt_stdio_output@@KAIXZ 1006beb0 f i libucrt:output.obj
 0001:0006aeb4       ?state_count@?$format_validation_base@_WV?$string_output_adapter@_W@__crt_stdio_output@@@__crt_stdio_output@@KAIXZ 1006beb4 f i libucrt:output.obj
 0001:0006aeb8       ?state_count@?$standard_base@DV?$stream_output_adapter@D@__crt_stdio_output@@@__crt_stdio_output@@KAIXZ 1006beb8 f i libucrt:output.obj
 0001:0006aebc       ?state_count@?$standard_base@DV?$string_output_adapter@D@__crt_stdio_output@@@__crt_stdio_output@@KAIXZ 1006bebc f i libucrt:output.obj
 0001:0006aec0       ?state_count@?$standard_base@_WV?$stream_output_adapter@_W@__crt_stdio_output@@@__crt_stdio_output@@KAIXZ 1006bec0 f i libucrt:output.obj
 0001:0006aec4       ?state_count@?$standard_base@_WV?$string_output_adapter@_W@__crt_stdio_output@@@__crt_stdio_output@@KAIXZ 1006bec4 f i libucrt:output.obj
 0001:0006aec8       ?state_transition_table@?$format_validation_base@DV?$stream_output_adapter@D@__crt_stdio_output@@@__crt_stdio_output@@KAPBEXZ 1006bec8 f i libucrt:output.obj
 0001:0006aece       ?state_transition_table@?$format_validation_base@DV?$string_output_adapter@D@__crt_stdio_output@@@__crt_stdio_output@@KAPBEXZ 1006bece f i libucrt:output.obj
 0001:0006aed4       ?state_transition_table@?$format_validation_base@_WV?$stream_output_adapter@_W@__crt_stdio_output@@@__crt_stdio_output@@KAPBEXZ 1006bed4 f i libucrt:output.obj
 0001:0006aeda       ?state_transition_table@?$format_validation_base@_WV?$string_output_adapter@_W@__crt_stdio_output@@@__crt_stdio_output@@KAPBEXZ 1006beda f i libucrt:output.obj
 0001:0006aee0       ?state_transition_table@?$standard_base@DV?$stream_output_adapter@D@__crt_stdio_output@@@__crt_stdio_output@@KAPBEXZ 1006bee0 f i libucrt:output.obj
 0001:0006aee6       ?state_transition_table@?$standard_base@DV?$string_output_adapter@D@__crt_stdio_output@@@__crt_stdio_output@@KAPBEXZ 1006bee6 f i libucrt:output.obj
 0001:0006aeec       ?state_transition_table@?$standard_base@_WV?$stream_output_adapter@_W@__crt_stdio_output@@@__crt_stdio_output@@KAPBEXZ 1006beec f i libucrt:output.obj
 0001:0006aef2       ?state_transition_table@?$standard_base@_WV?$string_output_adapter@_W@__crt_stdio_output@@@__crt_stdio_output@@KAPBEXZ 1006bef2 f i libucrt:output.obj
 0001:0006aef8       ?tchar_string@?$common_data@D@__crt_stdio_output@@IAEAAPADD@Z 1006bef8 f i libucrt:output.obj
 0001:0006aefe       ?tchar_string@?$common_data@D@__crt_stdio_output@@IAEAAPADXZ 1006befe f i libucrt:output.obj
 0001:0006af02       ?tchar_string@?$common_data@_W@__crt_stdio_output@@IAEAAPA_WXZ 1006bf02 f i libucrt:output.obj
 0001:0006af06       ?tchar_string@?$common_data@_W@__crt_stdio_output@@IAEAAPA_W_W@Z 1006bf06 f i libucrt:output.obj
 0001:0006af0c       ?to_integer_size@__crt_stdio_output@@YAIW4length_modifier@1@@Z 1006bf0c f i libucrt:output.obj
 0001:0006af68       ?type_case_X@?$output_processor@DV?$stream_output_adapter@D@__crt_stdio_output@@V?$format_validation_base@DV?$stream_output_adapter@D@__crt_stdio_output@@@2@@__crt_stdio_output@@AAE_NXZ 1006bf68 f i libucrt:output.obj
 0001:0006af72       ?type_case_X@?$output_processor@DV?$stream_output_adapter@D@__crt_stdio_output@@V?$positional_parameter_base@DV?$stream_output_adapter@D@__crt_stdio_output@@@2@@__crt_stdio_output@@AAE_NXZ 1006bf72 f i libucrt:output.obj
 0001:0006af7c       ?type_case_X@?$output_processor@DV?$stream_output_adapter@D@__crt_stdio_output@@V?$standard_base@DV?$stream_output_adapter@D@__crt_stdio_output@@@2@@__crt_stdio_output@@AAE_NXZ 1006bf7c f i libucrt:output.obj
 0001:0006af86       ?type_case_X@?$output_processor@DV?$string_output_adapter@D@__crt_stdio_output@@V?$format_validation_base@DV?$string_output_adapter@D@__crt_stdio_output@@@2@@__crt_stdio_output@@AAE_NXZ 1006bf86 f i libucrt:output.obj
 0001:0006af90       ?type_case_X@?$output_processor@DV?$string_output_adapter@D@__crt_stdio_output@@V?$positional_parameter_base@DV?$string_output_adapter@D@__crt_stdio_output@@@2@@__crt_stdio_output@@AAE_NXZ 1006bf90 f i libucrt:output.obj
 0001:0006af9a       ?type_case_X@?$output_processor@DV?$string_output_adapter@D@__crt_stdio_output@@V?$standard_base@DV?$string_output_adapter@D@__crt_stdio_output@@@2@@__crt_stdio_output@@AAE_NXZ 1006bf9a f i libucrt:output.obj
 0001:0006afa4       ?type_case_X@?$output_processor@_WV?$stream_output_adapter@_W@__crt_stdio_output@@V?$format_validation_base@_WV?$stream_output_adapter@_W@__crt_stdio_output@@@2@@__crt_stdio_output@@AAE_NXZ 1006bfa4 f i libucrt:output.obj
 0001:0006afae       ?type_case_X@?$output_processor@_WV?$stream_output_adapter@_W@__crt_stdio_output@@V?$positional_parameter_base@_WV?$stream_output_adapter@_W@__crt_stdio_output@@@2@@__crt_stdio_output@@AAE_NXZ 1006bfae f i libucrt:output.obj
 0001:0006afb8       ?type_case_X@?$output_processor@_WV?$stream_output_adapter@_W@__crt_stdio_output@@V?$standard_base@_WV?$stream_output_adapter@_W@__crt_stdio_output@@@2@@__crt_stdio_output@@AAE_NXZ 1006bfb8 f i libucrt:output.obj
 0001:0006afc2       ?type_case_X@?$output_processor@_WV?$string_output_adapter@_W@__crt_stdio_output@@V?$format_validation_base@_WV?$string_output_adapter@_W@__crt_stdio_output@@@2@@__crt_stdio_output@@AAE_NXZ 1006bfc2 f i libucrt:output.obj
 0001:0006afcc       ?type_case_X@?$output_processor@_WV?$string_output_adapter@_W@__crt_stdio_output@@V?$positional_parameter_base@_WV?$string_output_adapter@_W@__crt_stdio_output@@@2@@__crt_stdio_output@@AAE_NXZ 1006bfcc f i libucrt:output.obj
 0001:0006afd6       ?type_case_X@?$output_processor@_WV?$string_output_adapter@_W@__crt_stdio_output@@V?$standard_base@_WV?$string_output_adapter@_W@__crt_stdio_output@@@2@@__crt_stdio_output@@AAE_NXZ 1006bfd6 f i libucrt:output.obj
 0001:0006afe0       ?type_case_Z@?$output_processor@DV?$stream_output_adapter@D@__crt_stdio_output@@V?$format_validation_base@DV?$stream_output_adapter@D@__crt_stdio_output@@@2@@__crt_stdio_output@@AAE_NXZ 1006bfe0 f i libucrt:output.obj
 0001:0006b043       ?type_case_Z@?$output_processor@DV?$stream_output_adapter@D@__crt_stdio_output@@V?$positional_parameter_base@DV?$stream_output_adapter@D@__crt_stdio_output@@@2@@__crt_stdio_output@@AAE_NXZ 1006c043 f i libucrt:output.obj
 0001:0006b0c2       ?type_case_Z@?$output_processor@DV?$stream_output_adapter@D@__crt_stdio_output@@V?$standard_base@DV?$stream_output_adapter@D@__crt_stdio_output@@@2@@__crt_stdio_output@@AAE_NXZ 1006c0c2 f i libucrt:output.obj
 0001:0006b125       ?type_case_Z@?$output_processor@DV?$string_output_adapter@D@__crt_stdio_output@@V?$format_validation_base@DV?$string_output_adapter@D@__crt_stdio_output@@@2@@__crt_stdio_output@@AAE_NXZ 1006c125 f i libucrt:output.obj
 0001:0006b188       ?type_case_Z@?$output_processor@DV?$string_output_adapter@D@__crt_stdio_output@@V?$positional_parameter_base@DV?$string_output_adapter@D@__crt_stdio_output@@@2@@__crt_stdio_output@@AAE_NXZ 1006c188 f i libucrt:output.obj
 0001:0006b207       ?type_case_Z@?$output_processor@DV?$string_output_adapter@D@__crt_stdio_output@@V?$standard_base@DV?$string_output_adapter@D@__crt_stdio_output@@@2@@__crt_stdio_output@@AAE_NXZ 1006c207 f i libucrt:output.obj
 0001:0006b26a       ?type_case_Z@?$output_processor@_WV?$stream_output_adapter@_W@__crt_stdio_output@@V?$format_validation_base@_WV?$stream_output_adapter@_W@__crt_stdio_output@@@2@@__crt_stdio_output@@AAE_NXZ 1006c26a f i libucrt:output.obj
 0001:0006b2cd       ?type_case_Z@?$output_processor@_WV?$stream_output_adapter@_W@__crt_stdio_output@@V?$positional_parameter_base@_WV?$stream_output_adapter@_W@__crt_stdio_output@@@2@@__crt_stdio_output@@AAE_NXZ 1006c2cd f i libucrt:output.obj
 0001:0006b34c       ?type_case_Z@?$output_processor@_WV?$stream_output_adapter@_W@__crt_stdio_output@@V?$standard_base@_WV?$stream_output_adapter@_W@__crt_stdio_output@@@2@@__crt_stdio_output@@AAE_NXZ 1006c34c f i libucrt:output.obj
 0001:0006b3af       ?type_case_Z@?$output_processor@_WV?$string_output_adapter@_W@__crt_stdio_output@@V?$format_validation_base@_WV?$string_output_adapter@_W@__crt_stdio_output@@@2@@__crt_stdio_output@@AAE_NXZ 1006c3af f i libucrt:output.obj
 0001:0006b412       ?type_case_Z@?$output_processor@_WV?$string_output_adapter@_W@__crt_stdio_output@@V?$positional_parameter_base@_WV?$string_output_adapter@_W@__crt_stdio_output@@@2@@__crt_stdio_output@@AAE_NXZ 1006c412 f i libucrt:output.obj
 0001:0006b491       ?type_case_Z@?$output_processor@_WV?$string_output_adapter@_W@__crt_stdio_output@@V?$standard_base@_WV?$string_output_adapter@_W@__crt_stdio_output@@@2@@__crt_stdio_output@@AAE_NXZ 1006c491 f i libucrt:output.obj
 0001:0006b4f4       ?type_case_a@?$output_processor@DV?$stream_output_adapter@D@__crt_stdio_output@@V?$format_validation_base@DV?$stream_output_adapter@D@__crt_stdio_output@@@2@@__crt_stdio_output@@AAE_NXZ 1006c4f4 f i libucrt:output.obj
 0001:0006b652       ?type_case_a@?$output_processor@DV?$stream_output_adapter@D@__crt_stdio_output@@V?$positional_parameter_base@DV?$stream_output_adapter@D@__crt_stdio_output@@@2@@__crt_stdio_output@@AAE_NXZ 1006c652 f i libucrt:output.obj
 0001:0006b7cf       ?type_case_a@?$output_processor@DV?$stream_output_adapter@D@__crt_stdio_output@@V?$standard_base@DV?$stream_output_adapter@D@__crt_stdio_output@@@2@@__crt_stdio_output@@AAE_NXZ 1006c7cf f i libucrt:output.obj
 0001:0006b92d       ?type_case_a@?$output_processor@DV?$string_output_adapter@D@__crt_stdio_output@@V?$format_validation_base@DV?$string_output_adapter@D@__crt_stdio_output@@@2@@__crt_stdio_output@@AAE_NXZ 1006c92d f i libucrt:output.obj
 0001:0006ba8b       ?type_case_a@?$output_processor@DV?$string_output_adapter@D@__crt_stdio_output@@V?$positional_parameter_base@DV?$string_output_adapter@D@__crt_stdio_output@@@2@@__crt_stdio_output@@AAE_NXZ 1006ca8b f i libucrt:output.obj
 0001:0006bc08       ?type_case_a@?$output_processor@DV?$string_output_adapter@D@__crt_stdio_output@@V?$standard_base@DV?$string_output_adapter@D@__crt_stdio_output@@@2@@__crt_stdio_output@@AAE_NXZ 1006cc08 f i libucrt:output.obj
 0001:0006bd66       ?type_case_a@?$output_processor@_WV?$stream_output_adapter@_W@__crt_stdio_output@@V?$format_validation_base@_WV?$stream_output_adapter@_W@__crt_stdio_output@@@2@@__crt_stdio_output@@AAE_NXZ 1006cd66 f i libucrt:output.obj
 0001:0006bedc       ?type_case_a@?$output_processor@_WV?$stream_output_adapter@_W@__crt_stdio_output@@V?$positional_parameter_base@_WV?$stream_output_adapter@_W@__crt_stdio_output@@@2@@__crt_stdio_output@@AAE_NXZ 1006cedc f i libucrt:output.obj
 0001:0006c071       ?type_case_a@?$output_processor@_WV?$stream_output_adapter@_W@__crt_stdio_output@@V?$standard_base@_WV?$stream_output_adapter@_W@__crt_stdio_output@@@2@@__crt_stdio_output@@AAE_NXZ 1006d071 f i libucrt:output.obj
 0001:0006c1e7       ?type_case_a@?$output_processor@_WV?$string_output_adapter@_W@__crt_stdio_output@@V?$format_validation_base@_WV?$string_output_adapter@_W@__crt_stdio_output@@@2@@__crt_stdio_output@@AAE_NXZ 1006d1e7 f i libucrt:output.obj
 0001:0006c35d       ?type_case_a@?$output_processor@_WV?$string_output_adapter@_W@__crt_stdio_output@@V?$positional_parameter_base@_WV?$string_output_adapter@_W@__crt_stdio_output@@@2@@__crt_stdio_output@@AAE_NXZ 1006d35d f i libucrt:output.obj
 0001:0006c4f2       ?type_case_a@?$output_processor@_WV?$string_output_adapter@_W@__crt_stdio_output@@V?$standard_base@_WV?$string_output_adapter@_W@__crt_stdio_output@@@2@@__crt_stdio_output@@AAE_NXZ 1006d4f2 f i libucrt:output.obj
 0001:0006c668       ?type_case_c@?$output_processor@DV?$stream_output_adapter@D@__crt_stdio_output@@V?$format_validation_base@DV?$stream_output_adapter@D@__crt_stdio_output@@@2@@__crt_stdio_output@@AAE_NXZ 1006d668 f i libucrt:output.obj
 0001:0006c670       ?type_case_c@?$output_processor@DV?$stream_output_adapter@D@__crt_stdio_output@@V?$positional_parameter_base@DV?$stream_output_adapter@D@__crt_stdio_output@@@2@@__crt_stdio_output@@AAE_NXZ 1006d670 f i libucrt:output.obj
 0001:0006c678       ?type_case_c@?$output_processor@DV?$stream_output_adapter@D@__crt_stdio_output@@V?$standard_base@DV?$stream_output_adapter@D@__crt_stdio_output@@@2@@__crt_stdio_output@@AAE_NXZ 1006d678 f i libucrt:output.obj
 0001:0006c680       ?type_case_c@?$output_processor@DV?$string_output_adapter@D@__crt_stdio_output@@V?$format_validation_base@DV?$string_output_adapter@D@__crt_stdio_output@@@2@@__crt_stdio_output@@AAE_NXZ 1006d680 f i libucrt:output.obj
 0001:0006c688       ?type_case_c@?$output_processor@DV?$string_output_adapter@D@__crt_stdio_output@@V?$positional_parameter_base@DV?$string_output_adapter@D@__crt_stdio_output@@@2@@__crt_stdio_output@@AAE_NXZ 1006d688 f i libucrt:output.obj
 0001:0006c690       ?type_case_c@?$output_processor@DV?$string_output_adapter@D@__crt_stdio_output@@V?$standard_base@DV?$string_output_adapter@D@__crt_stdio_output@@@2@@__crt_stdio_output@@AAE_NXZ 1006d690 f i libucrt:output.obj
 0001:0006c698       ?type_case_c@?$output_processor@_WV?$stream_output_adapter@_W@__crt_stdio_output@@V?$format_validation_base@_WV?$stream_output_adapter@_W@__crt_stdio_output@@@2@@__crt_stdio_output@@AAE_NXZ 1006d698 f i libucrt:output.obj
 0001:0006c6a0       ?type_case_c@?$output_processor@_WV?$stream_output_adapter@_W@__crt_stdio_output@@V?$positional_parameter_base@_WV?$stream_output_adapter@_W@__crt_stdio_output@@@2@@__crt_stdio_output@@AAE_NXZ 1006d6a0 f i libucrt:output.obj
 0001:0006c6a8       ?type_case_c@?$output_processor@_WV?$stream_output_adapter@_W@__crt_stdio_output@@V?$standard_base@_WV?$stream_output_adapter@_W@__crt_stdio_output@@@2@@__crt_stdio_output@@AAE_NXZ 1006d6a8 f i libucrt:output.obj
 0001:0006c6b0       ?type_case_c@?$output_processor@_WV?$string_output_adapter@_W@__crt_stdio_output@@V?$format_validation_base@_WV?$string_output_adapter@_W@__crt_stdio_output@@@2@@__crt_stdio_output@@AAE_NXZ 1006d6b0 f i libucrt:output.obj
 0001:0006c6b8       ?type_case_c@?$output_processor@_WV?$string_output_adapter@_W@__crt_stdio_output@@V?$positional_parameter_base@_WV?$string_output_adapter@_W@__crt_stdio_output@@@2@@__crt_stdio_output@@AAE_NXZ 1006d6b8 f i libucrt:output.obj
 0001:0006c6c0       ?type_case_c@?$output_processor@_WV?$string_output_adapter@_W@__crt_stdio_output@@V?$standard_base@_WV?$string_output_adapter@_W@__crt_stdio_output@@@2@@__crt_stdio_output@@AAE_NXZ 1006d6c0 f i libucrt:output.obj
 0001:0006c6c8       ?type_case_c_tchar@?$output_processor@DV?$stream_output_adapter@D@__crt_stdio_output@@V?$format_validation_base@DV?$stream_output_adapter@D@__crt_stdio_output@@@2@@__crt_stdio_output@@AAE_ND@Z 1006d6c8 f i libucrt:output.obj
 0001:0006c758       ?type_case_c_tchar@?$output_processor@DV?$stream_output_adapter@D@__crt_stdio_output@@V?$positional_parameter_base@DV?$stream_output_adapter@D@__crt_stdio_output@@@2@@__crt_stdio_output@@AAE_ND@Z 1006d758 f i libucrt:output.obj
 0001:0006c818       ?type_case_c_tchar@?$output_processor@DV?$stream_output_adapter@D@__crt_stdio_output@@V?$standard_base@DV?$stream_output_adapter@D@__crt_stdio_output@@@2@@__crt_stdio_output@@AAE_ND@Z 1006d818 f i libucrt:output.obj
 0001:0006c8a8       ?type_case_c_tchar@?$output_processor@DV?$string_output_adapter@D@__crt_stdio_output@@V?$format_validation_base@DV?$string_output_adapter@D@__crt_stdio_output@@@2@@__crt_stdio_output@@AAE_ND@Z 1006d8a8 f i libucrt:output.obj
 0001:0006c938       ?type_case_c_tchar@?$output_processor@DV?$string_output_adapter@D@__crt_stdio_output@@V?$positional_parameter_base@DV?$string_output_adapter@D@__crt_stdio_output@@@2@@__crt_stdio_output@@AAE_ND@Z 1006d938 f i libucrt:output.obj
 0001:0006c9f8       ?type_case_c_tchar@?$output_processor@DV?$string_output_adapter@D@__crt_stdio_output@@V?$standard_base@DV?$string_output_adapter@D@__crt_stdio_output@@@2@@__crt_stdio_output@@AAE_ND@Z 1006d9f8 f i libucrt:output.obj
 0001:0006ca88       ?type_case_c_tchar@?$output_processor@_WV?$stream_output_adapter@_W@__crt_stdio_output@@V?$format_validation_base@_WV?$stream_output_adapter@_W@__crt_stdio_output@@@2@@__crt_stdio_output@@AAE_N_W@Z 1006da88 f i libucrt:output.obj
 0001:0006cb20       ?type_case_c_tchar@?$output_processor@_WV?$stream_output_adapter@_W@__crt_stdio_output@@V?$positional_parameter_base@_WV?$stream_output_adapter@_W@__crt_stdio_output@@@2@@__crt_stdio_output@@AAE_N_W@Z 1006db20 f i libucrt:output.obj
 0001:0006cbcf       ?type_case_c_tchar@?$output_processor@_WV?$stream_output_adapter@_W@__crt_stdio_output@@V?$standard_base@_WV?$stream_output_adapter@_W@__crt_stdio_output@@@2@@__crt_stdio_output@@AAE_N_W@Z 1006dbcf f i libucrt:output.obj
 0001:0006cc67       ?type_case_c_tchar@?$output_processor@_WV?$string_output_adapter@_W@__crt_stdio_output@@V?$format_validation_base@_WV?$string_output_adapter@_W@__crt_stdio_output@@@2@@__crt_stdio_output@@AAE_N_W@Z 1006dc67 f i libucrt:output.obj
 0001:0006ccff       ?type_case_c_tchar@?$output_processor@_WV?$string_output_adapter@_W@__crt_stdio_output@@V?$positional_parameter_base@_WV?$string_output_adapter@_W@__crt_stdio_output@@@2@@__crt_stdio_output@@AAE_N_W@Z 1006dcff f i libucrt:output.obj
 0001:0006cdae       ?type_case_c_tchar@?$output_processor@_WV?$string_output_adapter@_W@__crt_stdio_output@@V?$standard_base@_WV?$string_output_adapter@_W@__crt_stdio_output@@@2@@__crt_stdio_output@@AAE_N_W@Z 1006ddae f i libucrt:output.obj
 0001:0006ce46       ?type_case_d@?$output_processor@DV?$stream_output_adapter@D@__crt_stdio_output@@V?$format_validation_base@DV?$stream_output_adapter@D@__crt_stdio_output@@@2@@__crt_stdio_output@@AAE_NXZ 1006de46 f i libucrt:output.obj
 0001:0006ce54       ?type_case_d@?$output_processor@DV?$stream_output_adapter@D@__crt_stdio_output@@V?$positional_parameter_base@DV?$stream_output_adapter@D@__crt_stdio_output@@@2@@__crt_stdio_output@@AAE_NXZ 1006de54 f i libucrt:output.obj
 0001:0006ce62       ?type_case_d@?$output_processor@DV?$stream_output_adapter@D@__crt_stdio_output@@V?$standard_base@DV?$stream_output_adapter@D@__crt_stdio_output@@@2@@__crt_stdio_output@@AAE_NXZ 1006de62 f i libucrt:output.obj
 0001:0006ce70       ?type_case_d@?$output_processor@DV?$string_output_adapter@D@__crt_stdio_output@@V?$format_validation_base@DV?$string_output_adapter@D@__crt_stdio_output@@@2@@__crt_stdio_output@@AAE_NXZ 1006de70 f i libucrt:output.obj
 0001:0006ce7e       ?type_case_d@?$output_processor@DV?$string_output_adapter@D@__crt_stdio_output@@V?$positional_parameter_base@DV?$string_output_adapter@D@__crt_stdio_output@@@2@@__crt_stdio_output@@AAE_NXZ 1006de7e f i libucrt:output.obj
 0001:0006ce8c       ?type_case_d@?$output_processor@DV?$string_output_adapter@D@__crt_stdio_output@@V?$standard_base@DV?$string_output_adapter@D@__crt_stdio_output@@@2@@__crt_stdio_output@@AAE_NXZ 1006de8c f i libucrt:output.obj
 0001:0006ce9a       ?type_case_d@?$output_processor@_WV?$stream_output_adapter@_W@__crt_stdio_output@@V?$format_validation_base@_WV?$stream_output_adapter@_W@__crt_stdio_output@@@2@@__crt_stdio_output@@AAE_NXZ 1006de9a f i libucrt:output.obj
 0001:0006cea8       ?type_case_d@?$output_processor@_WV?$stream_output_adapter@_W@__crt_stdio_output@@V?$positional_parameter_base@_WV?$stream_output_adapter@_W@__crt_stdio_output@@@2@@__crt_stdio_output@@AAE_NXZ 1006dea8 f i libucrt:output.obj
 0001:0006ceb6       ?type_case_d@?$output_processor@_WV?$stream_output_adapter@_W@__crt_stdio_output@@V?$standard_base@_WV?$stream_output_adapter@_W@__crt_stdio_output@@@2@@__crt_stdio_output@@AAE_NXZ 1006deb6 f i libucrt:output.obj
 0001:0006cec4       ?type_case_d@?$output_processor@_WV?$string_output_adapter@_W@__crt_stdio_output@@V?$format_validation_base@_WV?$string_output_adapter@_W@__crt_stdio_output@@@2@@__crt_stdio_output@@AAE_NXZ 1006dec4 f i libucrt:output.obj
 0001:0006ced2       ?type_case_d@?$output_processor@_WV?$string_output_adapter@_W@__crt_stdio_output@@V?$positional_parameter_base@_WV?$string_output_adapter@_W@__crt_stdio_output@@@2@@__crt_stdio_output@@AAE_NXZ 1006ded2 f i libucrt:output.obj
 0001:0006cee0       ?type_case_d@?$output_processor@_WV?$string_output_adapter@_W@__crt_stdio_output@@V?$standard_base@_WV?$string_output_adapter@_W@__crt_stdio_output@@@2@@__crt_stdio_output@@AAE_NXZ 1006dee0 f i libucrt:output.obj
 0001:0006ceee       ?type_case_integer@?$output_processor@DV?$stream_output_adapter@D@__crt_stdio_output@@V?$format_validation_base@DV?$stream_output_adapter@D@__crt_stdio_output@@@2@@__crt_stdio_output@@AAE_NI_N@Z 1006deee f i libucrt:output.obj
 0001:0006d03c       ?type_case_integer@?$output_processor@DV?$stream_output_adapter@D@__crt_stdio_output@@V?$positional_parameter_base@DV?$stream_output_adapter@D@__crt_stdio_output@@@2@@__crt_stdio_output@@AAE_NI_N@Z 1006e03c f i libucrt:output.obj
 0001:0006d1be       ?type_case_integer@?$output_processor@DV?$stream_output_adapter@D@__crt_stdio_output@@V?$standard_base@DV?$stream_output_adapter@D@__crt_stdio_output@@@2@@__crt_stdio_output@@AAE_NI_N@Z 1006e1be f i libucrt:output.obj
 0001:0006d30c       ?type_case_integer@?$output_processor@DV?$string_output_adapter@D@__crt_stdio_output@@V?$format_validation_base@DV?$string_output_adapter@D@__crt_stdio_output@@@2@@__crt_stdio_output@@AAE_NI_N@Z 1006e30c f i libucrt:output.obj
 0001:0006d45a       ?type_case_integer@?$output_processor@DV?$string_output_adapter@D@__crt_stdio_output@@V?$positional_parameter_base@DV?$string_output_adapter@D@__crt_stdio_output@@@2@@__crt_stdio_output@@AAE_NI_N@Z 1006e45a f i libucrt:output.obj
 0001:0006d5dc       ?type_case_integer@?$output_processor@DV?$string_output_adapter@D@__crt_stdio_output@@V?$standard_base@DV?$string_output_adapter@D@__crt_stdio_output@@@2@@__crt_stdio_output@@AAE_NI_N@Z 1006e5dc f i libucrt:output.obj
 0001:0006d72a       ?type_case_integer@?$output_processor@_WV?$stream_output_adapter@_W@__crt_stdio_output@@V?$format_validation_base@_WV?$stream_output_adapter@_W@__crt_stdio_output@@@2@@__crt_stdio_output@@AAE_NI_N@Z 1006e72a f i libucrt:output.obj
 0001:0006d87c       ?type_case_integer@?$output_processor@_WV?$stream_output_adapter@_W@__crt_stdio_output@@V?$positional_parameter_base@_WV?$stream_output_adapter@_W@__crt_stdio_output@@@2@@__crt_stdio_output@@AAE_NI_N@Z 1006e87c f i libucrt:output.obj
 0001:0006da02       ?type_case_integer@?$output_processor@_WV?$stream_output_adapter@_W@__crt_stdio_output@@V?$standard_base@_WV?$stream_output_adapter@_W@__crt_stdio_output@@@2@@__crt_stdio_output@@AAE_NI_N@Z 1006ea02 f i libucrt:output.obj
 0001:0006db54       ?type_case_integer@?$output_processor@_WV?$string_output_adapter@_W@__crt_stdio_output@@V?$format_validation_base@_WV?$string_output_adapter@_W@__crt_stdio_output@@@2@@__crt_stdio_output@@AAE_NI_N@Z 1006eb54 f i libucrt:output.obj
 0001:0006dca6       ?type_case_integer@?$output_processor@_WV?$string_output_adapter@_W@__crt_stdio_output@@V?$positional_parameter_base@_WV?$string_output_adapter@_W@__crt_stdio_output@@@2@@__crt_stdio_output@@AAE_NI_N@Z 1006eca6 f i libucrt:output.obj
 0001:0006de2c       ?type_case_integer@?$output_processor@_WV?$string_output_adapter@_W@__crt_stdio_output@@V?$standard_base@_WV?$string_output_adapter@_W@__crt_stdio_output@@@2@@__crt_stdio_output@@AAE_NI_N@Z 1006ee2c f i libucrt:output.obj
 0001:0006df7e       ?type_case_n@?$output_processor@DV?$stream_output_adapter@D@__crt_stdio_output@@V?$format_validation_base@DV?$stream_output_adapter@D@__crt_stdio_output@@@2@@__crt_stdio_output@@AAE_NXZ 1006ef7e f i libucrt:output.obj
 0001:0006dff2       ?type_case_n@?$output_processor@DV?$stream_output_adapter@D@__crt_stdio_output@@V?$positional_parameter_base@DV?$stream_output_adapter@D@__crt_stdio_output@@@2@@__crt_stdio_output@@AAE_NXZ 1006eff2 f i libucrt:output.obj
 0001:0006e08b       ?type_case_n@?$output_processor@DV?$stream_output_adapter@D@__crt_stdio_output@@V?$standard_base@DV?$stream_output_adapter@D@__crt_stdio_output@@@2@@__crt_stdio_output@@AAE_NXZ 1006f08b f i libucrt:output.obj
 0001:0006e0ff       ?type_case_n@?$output_processor@DV?$string_output_adapter@D@__crt_stdio_output@@V?$format_validation_base@DV?$string_output_adapter@D@__crt_stdio_output@@@2@@__crt_stdio_output@@AAE_NXZ 1006f0ff f i libucrt:output.obj
 0001:0006e173       ?type_case_n@?$output_processor@DV?$string_output_adapter@D@__crt_stdio_output@@V?$positional_parameter_base@DV?$string_output_adapter@D@__crt_stdio_output@@@2@@__crt_stdio_output@@AAE_NXZ 1006f173 f i libucrt:output.obj
 0001:0006e20c       ?type_case_n@?$output_processor@DV?$string_output_adapter@D@__crt_stdio_output@@V?$standard_base@DV?$string_output_adapter@D@__crt_stdio_output@@@2@@__crt_stdio_output@@AAE_NXZ 1006f20c f i libucrt:output.obj
 0001:0006e280       ?type_case_n@?$output_processor@_WV?$stream_output_adapter@_W@__crt_stdio_output@@V?$format_validation_base@_WV?$stream_output_adapter@_W@__crt_stdio_output@@@2@@__crt_stdio_output@@AAE_NXZ 1006f280 f i libucrt:output.obj
 0001:0006e2f4       ?type_case_n@?$output_processor@_WV?$stream_output_adapter@_W@__crt_stdio_output@@V?$positional_parameter_base@_WV?$stream_output_adapter@_W@__crt_stdio_output@@@2@@__crt_stdio_output@@AAE_NXZ 1006f2f4 f i libucrt:output.obj
 0001:0006e38d       ?type_case_n@?$output_processor@_WV?$stream_output_adapter@_W@__crt_stdio_output@@V?$standard_base@_WV?$stream_output_adapter@_W@__crt_stdio_output@@@2@@__crt_stdio_output@@AAE_NXZ 1006f38d f i libucrt:output.obj
 0001:0006e401       ?type_case_n@?$output_processor@_WV?$string_output_adapter@_W@__crt_stdio_output@@V?$format_validation_base@_WV?$string_output_adapter@_W@__crt_stdio_output@@@2@@__crt_stdio_output@@AAE_NXZ 1006f401 f i libucrt:output.obj
 0001:0006e475       ?type_case_n@?$output_processor@_WV?$string_output_adapter@_W@__crt_stdio_output@@V?$positional_parameter_base@_WV?$string_output_adapter@_W@__crt_stdio_output@@@2@@__crt_stdio_output@@AAE_NXZ 1006f475 f i libucrt:output.obj
 0001:0006e50e       ?type_case_n@?$output_processor@_WV?$string_output_adapter@_W@__crt_stdio_output@@V?$standard_base@_WV?$string_output_adapter@_W@__crt_stdio_output@@@2@@__crt_stdio_output@@AAE_NXZ 1006f50e f i libucrt:output.obj
 0001:0006e582       ?type_case_o@?$output_processor@DV?$stream_output_adapter@D@__crt_stdio_output@@V?$format_validation_base@DV?$stream_output_adapter@D@__crt_stdio_output@@@2@@__crt_stdio_output@@AAE_NXZ 1006f582 f i libucrt:output.obj
 0001:0006e5a1       ?type_case_o@?$output_processor@DV?$stream_output_adapter@D@__crt_stdio_output@@V?$positional_parameter_base@DV?$stream_output_adapter@D@__crt_stdio_output@@@2@@__crt_stdio_output@@AAE_NXZ 1006f5a1 f i libucrt:output.obj
 0001:0006e5c0       ?type_case_o@?$output_processor@DV?$stream_output_adapter@D@__crt_stdio_output@@V?$standard_base@DV?$stream_output_adapter@D@__crt_stdio_output@@@2@@__crt_stdio_output@@AAE_NXZ 1006f5c0 f i libucrt:output.obj
 0001:0006e5df       ?type_case_o@?$output_processor@DV?$string_output_adapter@D@__crt_stdio_output@@V?$format_validation_base@DV?$string_output_adapter@D@__crt_stdio_output@@@2@@__crt_stdio_output@@AAE_NXZ 1006f5df f i libucrt:output.obj
 0001:0006e5fe       ?type_case_o@?$output_processor@DV?$string_output_adapter@D@__crt_stdio_output@@V?$positional_parameter_base@DV?$string_output_adapter@D@__crt_stdio_output@@@2@@__crt_stdio_output@@AAE_NXZ 1006f5fe f i libucrt:output.obj
 0001:0006e61d       ?type_case_o@?$output_processor@DV?$string_output_adapter@D@__crt_stdio_output@@V?$standard_base@DV?$string_output_adapter@D@__crt_stdio_output@@@2@@__crt_stdio_output@@AAE_NXZ 1006f61d f i libucrt:output.obj
 0001:0006e63c       ?type_case_o@?$output_processor@_WV?$stream_output_adapter@_W@__crt_stdio_output@@V?$format_validation_base@_WV?$stream_output_adapter@_W@__crt_stdio_output@@@2@@__crt_stdio_output@@AAE_NXZ 1006f63c f i libucrt:output.obj
 0001:0006e65b       ?type_case_o@?$output_processor@_WV?$stream_output_adapter@_W@__crt_stdio_output@@V?$positional_parameter_base@_WV?$stream_output_adapter@_W@__crt_stdio_output@@@2@@__crt_stdio_output@@AAE_NXZ 1006f65b f i libucrt:output.obj
 0001:0006e67a       ?type_case_o@?$output_processor@_WV?$stream_output_adapter@_W@__crt_stdio_output@@V?$standard_base@_WV?$stream_output_adapter@_W@__crt_stdio_output@@@2@@__crt_stdio_output@@AAE_NXZ 1006f67a f i libucrt:output.obj
 0001:0006e699       ?type_case_o@?$output_processor@_WV?$string_output_adapter@_W@__crt_stdio_output@@V?$format_validation_base@_WV?$string_output_adapter@_W@__crt_stdio_output@@@2@@__crt_stdio_output@@AAE_NXZ 1006f699 f i libucrt:output.obj
 0001:0006e6b8       ?type_case_o@?$output_processor@_WV?$string_output_adapter@_W@__crt_stdio_output@@V?$positional_parameter_base@_WV?$string_output_adapter@_W@__crt_stdio_output@@@2@@__crt_stdio_output@@AAE_NXZ 1006f6b8 f i libucrt:output.obj
 0001:0006e6d7       ?type_case_o@?$output_processor@_WV?$string_output_adapter@_W@__crt_stdio_output@@V?$standard_base@_WV?$string_output_adapter@_W@__crt_stdio_output@@@2@@__crt_stdio_output@@AAE_NXZ 1006f6d7 f i libucrt:output.obj
 0001:0006e6f6       ?type_case_p@?$output_processor@DV?$stream_output_adapter@D@__crt_stdio_output@@V?$format_validation_base@DV?$stream_output_adapter@D@__crt_stdio_output@@@2@@__crt_stdio_output@@AAE_NXZ 1006f6f6 f i libucrt:output.obj
 0001:0006e70e       ?type_case_p@?$output_processor@DV?$stream_output_adapter@D@__crt_stdio_output@@V?$positional_parameter_base@DV?$stream_output_adapter@D@__crt_stdio_output@@@2@@__crt_stdio_output@@AAE_NXZ 1006f70e f i libucrt:output.obj
 0001:0006e726       ?type_case_p@?$output_processor@DV?$stream_output_adapter@D@__crt_stdio_output@@V?$standard_base@DV?$stream_output_adapter@D@__crt_stdio_output@@@2@@__crt_stdio_output@@AAE_NXZ 1006f726 f i libucrt:output.obj
 0001:0006e73e       ?type_case_p@?$output_processor@DV?$string_output_adapter@D@__crt_stdio_output@@V?$format_validation_base@DV?$string_output_adapter@D@__crt_stdio_output@@@2@@__crt_stdio_output@@AAE_NXZ 1006f73e f i libucrt:output.obj
 0001:0006e756       ?type_case_p@?$output_processor@DV?$string_output_adapter@D@__crt_stdio_output@@V?$positional_parameter_base@DV?$string_output_adapter@D@__crt_stdio_output@@@2@@__crt_stdio_output@@AAE_NXZ 1006f756 f i libucrt:output.obj
 0001:0006e76e       ?type_case_p@?$output_processor@DV?$string_output_adapter@D@__crt_stdio_output@@V?$standard_base@DV?$string_output_adapter@D@__crt_stdio_output@@@2@@__crt_stdio_output@@AAE_NXZ 1006f76e f i libucrt:output.obj
 0001:0006e786       ?type_case_p@?$output_processor@_WV?$stream_output_adapter@_W@__crt_stdio_output@@V?$format_validation_base@_WV?$stream_output_adapter@_W@__crt_stdio_output@@@2@@__crt_stdio_output@@AAE_NXZ 1006f786 f i libucrt:output.obj
 0001:0006e79e       ?type_case_p@?$output_processor@_WV?$stream_output_adapter@_W@__crt_stdio_output@@V?$positional_parameter_base@_WV?$stream_output_adapter@_W@__crt_stdio_output@@@2@@__crt_stdio_output@@AAE_NXZ 1006f79e f i libucrt:output.obj
 0001:0006e7b6       ?type_case_p@?$output_processor@_WV?$stream_output_adapter@_W@__crt_stdio_output@@V?$standard_base@_WV?$stream_output_adapter@_W@__crt_stdio_output@@@2@@__crt_stdio_output@@AAE_NXZ 1006f7b6 f i libucrt:output.obj
 0001:0006e7ce       ?type_case_p@?$output_processor@_WV?$string_output_adapter@_W@__crt_stdio_output@@V?$format_validation_base@_WV?$string_output_adapter@_W@__crt_stdio_output@@@2@@__crt_stdio_output@@AAE_NXZ 1006f7ce f i libucrt:output.obj
 0001:0006e7e6       ?type_case_p@?$output_processor@_WV?$string_output_adapter@_W@__crt_stdio_output@@V?$positional_parameter_base@_WV?$string_output_adapter@_W@__crt_stdio_output@@@2@@__crt_stdio_output@@AAE_NXZ 1006f7e6 f i libucrt:output.obj
 0001:0006e7fe       ?type_case_p@?$output_processor@_WV?$string_output_adapter@_W@__crt_stdio_output@@V?$standard_base@_WV?$string_output_adapter@_W@__crt_stdio_output@@@2@@__crt_stdio_output@@AAE_NXZ 1006f7fe f i libucrt:output.obj
 0001:0006e816       ?type_case_s@?$output_processor@DV?$stream_output_adapter@D@__crt_stdio_output@@V?$format_validation_base@DV?$stream_output_adapter@D@__crt_stdio_output@@@2@@__crt_stdio_output@@AAE_NXZ 1006f816 f i libucrt:output.obj
 0001:0006e889       ?type_case_s@?$output_processor@DV?$stream_output_adapter@D@__crt_stdio_output@@V?$positional_parameter_base@DV?$stream_output_adapter@D@__crt_stdio_output@@@2@@__crt_stdio_output@@AAE_NXZ 1006f889 f i libucrt:output.obj
 0001:0006e905       ?type_case_s@?$output_processor@DV?$stream_output_adapter@D@__crt_stdio_output@@V?$standard_base@DV?$stream_output_adapter@D@__crt_stdio_output@@@2@@__crt_stdio_output@@AAE_NXZ 1006f905 f i libucrt:output.obj
 0001:0006e978       ?type_case_s@?$output_processor@DV?$string_output_adapter@D@__crt_stdio_output@@V?$format_validation_base@DV?$string_output_adapter@D@__crt_stdio_output@@@2@@__crt_stdio_output@@AAE_NXZ 1006f978 f i libucrt:output.obj
 0001:0006e9eb       ?type_case_s@?$output_processor@DV?$string_output_adapter@D@__crt_stdio_output@@V?$positional_parameter_base@DV?$string_output_adapter@D@__crt_stdio_output@@@2@@__crt_stdio_output@@AAE_NXZ 1006f9eb f i libucrt:output.obj
 0001:0006ea67       ?type_case_s@?$output_processor@DV?$string_output_adapter@D@__crt_stdio_output@@V?$standard_base@DV?$string_output_adapter@D@__crt_stdio_output@@@2@@__crt_stdio_output@@AAE_NXZ 1006fa67 f i libucrt:output.obj
 0001:0006eada       ?type_case_s@?$output_processor@_WV?$stream_output_adapter@_W@__crt_stdio_output@@V?$format_validation_base@_WV?$stream_output_adapter@_W@__crt_stdio_output@@@2@@__crt_stdio_output@@AAE_NXZ 1006fada f i libucrt:output.obj
 0001:0006eb4e       ?type_case_s@?$output_processor@_WV?$stream_output_adapter@_W@__crt_stdio_output@@V?$positional_parameter_base@_WV?$stream_output_adapter@_W@__crt_stdio_output@@@2@@__crt_stdio_output@@AAE_NXZ 1006fb4e f i libucrt:output.obj
 0001:0006ebcc       ?type_case_s@?$output_processor@_WV?$stream_output_adapter@_W@__crt_stdio_output@@V?$standard_base@_WV?$stream_output_adapter@_W@__crt_stdio_output@@@2@@__crt_stdio_output@@AAE_NXZ 1006fbcc f i libucrt:output.obj
 0001:0006ec40       ?type_case_s@?$output_processor@_WV?$string_output_adapter@_W@__crt_stdio_output@@V?$format_validation_base@_WV?$string_output_adapter@_W@__crt_stdio_output@@@2@@__crt_stdio_output@@AAE_NXZ 1006fc40 f i libucrt:output.obj
 0001:0006ecb4       ?type_case_s@?$output_processor@_WV?$string_output_adapter@_W@__crt_stdio_output@@V?$positional_parameter_base@_WV?$string_output_adapter@_W@__crt_stdio_output@@@2@@__crt_stdio_output@@AAE_NXZ 1006fcb4 f i libucrt:output.obj
 0001:0006ed32       ?type_case_s@?$output_processor@_WV?$string_output_adapter@_W@__crt_stdio_output@@V?$standard_base@_WV?$string_output_adapter@_W@__crt_stdio_output@@@2@@__crt_stdio_output@@AAE_NXZ 1006fd32 f i libucrt:output.obj
 0001:0006eda6       ?type_case_s_compute_narrow_string_length@?$output_processor@DV?$stream_output_adapter@D@__crt_stdio_output@@V?$format_validation_base@DV?$stream_output_adapter@D@__crt_stdio_output@@@2@@__crt_stdio_output@@ABEHHD@Z 1006fda6 f i libucrt:output.obj
 0001:0006edbc       ?type_case_s_compute_narrow_string_length@?$output_processor@DV?$stream_output_adapter@D@__crt_stdio_output@@V?$positional_parameter_base@DV?$stream_output_adapter@D@__crt_stdio_output@@@2@@__crt_stdio_output@@ABEHHD@Z 1006fdbc f i libucrt:output.obj
 0001:0006edd2       ?type_case_s_compute_narrow_string_length@?$output_processor@DV?$stream_output_adapter@D@__crt_stdio_output@@V?$standard_base@DV?$stream_output_adapter@D@__crt_stdio_output@@@2@@__crt_stdio_output@@ABEHHD@Z 1006fdd2 f i libucrt:output.obj
 0001:0006ede8       ?type_case_s_compute_narrow_string_length@?$output_processor@DV?$string_output_adapter@D@__crt_stdio_output@@V?$format_validation_base@DV?$string_output_adapter@D@__crt_stdio_output@@@2@@__crt_stdio_output@@ABEHHD@Z 1006fde8 f i libucrt:output.obj
 0001:0006edfe       ?type_case_s_compute_narrow_string_length@?$output_processor@DV?$string_output_adapter@D@__crt_stdio_output@@V?$positional_parameter_base@DV?$string_output_adapter@D@__crt_stdio_output@@@2@@__crt_stdio_output@@ABEHHD@Z 1006fdfe f i libucrt:output.obj
 0001:0006ee14       ?type_case_s_compute_narrow_string_length@?$output_processor@DV?$string_output_adapter@D@__crt_stdio_output@@V?$standard_base@DV?$string_output_adapter@D@__crt_stdio_output@@@2@@__crt_stdio_output@@ABEHHD@Z 1006fe14 f i libucrt:output.obj
 0001:0006ee2a       ?type_case_s_compute_narrow_string_length@?$output_processor@_WV?$stream_output_adapter@_W@__crt_stdio_output@@V?$format_validation_base@_WV?$stream_output_adapter@_W@__crt_stdio_output@@@2@@__crt_stdio_output@@ABEHH_W@Z 1006fe2a f i libucrt:output.obj
 0001:0006ee67       ?type_case_s_compute_narrow_string_length@?$output_processor@_WV?$stream_output_adapter@_W@__crt_stdio_output@@V?$positional_parameter_base@_WV?$stream_output_adapter@_W@__crt_stdio_output@@@2@@__crt_stdio_output@@ABEHH_W@Z 1006fe67 f i libucrt:output.obj
 0001:0006eea4       ?type_case_s_compute_narrow_string_length@?$output_processor@_WV?$stream_output_adapter@_W@__crt_stdio_output@@V?$standard_base@_WV?$stream_output_adapter@_W@__crt_stdio_output@@@2@@__crt_stdio_output@@ABEHH_W@Z 1006fea4 f i libucrt:output.obj
 0001:0006eee1       ?type_case_s_compute_narrow_string_length@?$output_processor@_WV?$string_output_adapter@_W@__crt_stdio_output@@V?$format_validation_base@_WV?$string_output_adapter@_W@__crt_stdio_output@@@2@@__crt_stdio_output@@ABEHH_W@Z 1006fee1 f i libucrt:output.obj
 0001:0006ef1e       ?type_case_s_compute_narrow_string_length@?$output_processor@_WV?$string_output_adapter@_W@__crt_stdio_output@@V?$positional_parameter_base@_WV?$string_output_adapter@_W@__crt_stdio_output@@@2@@__crt_stdio_output@@ABEHH_W@Z 1006ff1e f i libucrt:output.obj
 0001:0006ef5b       ?type_case_s_compute_narrow_string_length@?$output_processor@_WV?$string_output_adapter@_W@__crt_stdio_output@@V?$standard_base@_WV?$string_output_adapter@_W@__crt_stdio_output@@@2@@__crt_stdio_output@@ABEHH_W@Z 1006ff5b f i libucrt:output.obj
 0001:0006ef98       ?type_case_u@?$output_processor@DV?$stream_output_adapter@D@__crt_stdio_output@@V?$format_validation_base@DV?$stream_output_adapter@D@__crt_stdio_output@@@2@@__crt_stdio_output@@AAE_NXZ 1006ff98 f i libucrt:output.obj
 0001:0006efa2       ?type_case_u@?$output_processor@DV?$stream_output_adapter@D@__crt_stdio_output@@V?$positional_parameter_base@DV?$stream_output_adapter@D@__crt_stdio_output@@@2@@__crt_stdio_output@@AAE_NXZ 1006ffa2 f i libucrt:output.obj
 0001:0006efac       ?type_case_u@?$output_processor@DV?$stream_output_adapter@D@__crt_stdio_output@@V?$standard_base@DV?$stream_output_adapter@D@__crt_stdio_output@@@2@@__crt_stdio_output@@AAE_NXZ 1006ffac f i libucrt:output.obj
 0001:0006efb6       ?type_case_u@?$output_processor@DV?$string_output_adapter@D@__crt_stdio_output@@V?$format_validation_base@DV?$string_output_adapter@D@__crt_stdio_output@@@2@@__crt_stdio_output@@AAE_NXZ 1006ffb6 f i libucrt:output.obj
 0001:0006efc0       ?type_case_u@?$output_processor@DV?$string_output_adapter@D@__crt_stdio_output@@V?$positional_parameter_base@DV?$string_output_adapter@D@__crt_stdio_output@@@2@@__crt_stdio_output@@AAE_NXZ 1006ffc0 f i libucrt:output.obj
 0001:0006efca       ?type_case_u@?$output_processor@DV?$string_output_adapter@D@__crt_stdio_output@@V?$standard_base@DV?$string_output_adapter@D@__crt_stdio_output@@@2@@__crt_stdio_output@@AAE_NXZ 1006ffca f i libucrt:output.obj
 0001:0006efd4       ?type_case_u@?$output_processor@_WV?$stream_output_adapter@_W@__crt_stdio_output@@V?$format_validation_base@_WV?$stream_output_adapter@_W@__crt_stdio_output@@@2@@__crt_stdio_output@@AAE_NXZ 1006ffd4 f i libucrt:output.obj
 0001:0006efde       ?type_case_u@?$output_processor@_WV?$stream_output_adapter@_W@__crt_stdio_output@@V?$positional_parameter_base@_WV?$stream_output_adapter@_W@__crt_stdio_output@@@2@@__crt_stdio_output@@AAE_NXZ 1006ffde f i libucrt:output.obj
 0001:0006efe8       ?type_case_u@?$output_processor@_WV?$stream_output_adapter@_W@__crt_stdio_output@@V?$standard_base@_WV?$stream_output_adapter@_W@__crt_stdio_output@@@2@@__crt_stdio_output@@AAE_NXZ 1006ffe8 f i libucrt:output.obj
 0001:0006eff2       ?type_case_u@?$output_processor@_WV?$string_output_adapter@_W@__crt_stdio_output@@V?$format_validation_base@_WV?$string_output_adapter@_W@__crt_stdio_output@@@2@@__crt_stdio_output@@AAE_NXZ 1006fff2 f i libucrt:output.obj
 0001:0006effc       ?type_case_u@?$output_processor@_WV?$string_output_adapter@_W@__crt_stdio_output@@V?$positional_parameter_base@_WV?$string_output_adapter@_W@__crt_stdio_output@@@2@@__crt_stdio_output@@AAE_NXZ 1006fffc f i libucrt:output.obj
 0001:0006f006       ?type_case_u@?$output_processor@_WV?$string_output_adapter@_W@__crt_stdio_output@@V?$standard_base@_WV?$string_output_adapter@_W@__crt_stdio_output@@@2@@__crt_stdio_output@@AAE_NXZ 10070006 f i libucrt:output.obj
 0001:0006f010       ?type_case_x@?$output_processor@DV?$stream_output_adapter@D@__crt_stdio_output@@V?$format_validation_base@DV?$stream_output_adapter@D@__crt_stdio_output@@@2@@__crt_stdio_output@@AAE_NXZ 10070010 f i libucrt:output.obj
 0001:0006f01a       ?type_case_x@?$output_processor@DV?$stream_output_adapter@D@__crt_stdio_output@@V?$positional_parameter_base@DV?$stream_output_adapter@D@__crt_stdio_output@@@2@@__crt_stdio_output@@AAE_NXZ 1007001a f i libucrt:output.obj
 0001:0006f024       ?type_case_x@?$output_processor@DV?$stream_output_adapter@D@__crt_stdio_output@@V?$standard_base@DV?$stream_output_adapter@D@__crt_stdio_output@@@2@@__crt_stdio_output@@AAE_NXZ 10070024 f i libucrt:output.obj
 0001:0006f02e       ?type_case_x@?$output_processor@DV?$string_output_adapter@D@__crt_stdio_output@@V?$format_validation_base@DV?$string_output_adapter@D@__crt_stdio_output@@@2@@__crt_stdio_output@@AAE_NXZ 1007002e f i libucrt:output.obj
 0001:0006f038       ?type_case_x@?$output_processor@DV?$string_output_adapter@D@__crt_stdio_output@@V?$positional_parameter_base@DV?$string_output_adapter@D@__crt_stdio_output@@@2@@__crt_stdio_output@@AAE_NXZ 10070038 f i libucrt:output.obj
 0001:0006f042       ?type_case_x@?$output_processor@DV?$string_output_adapter@D@__crt_stdio_output@@V?$standard_base@DV?$string_output_adapter@D@__crt_stdio_output@@@2@@__crt_stdio_output@@AAE_NXZ 10070042 f i libucrt:output.obj
 0001:0006f04c       ?type_case_x@?$output_processor@_WV?$stream_output_adapter@_W@__crt_stdio_output@@V?$format_validation_base@_WV?$stream_output_adapter@_W@__crt_stdio_output@@@2@@__crt_stdio_output@@AAE_NXZ 1007004c f i libucrt:output.obj
 0001:0006f056       ?type_case_x@?$output_processor@_WV?$stream_output_adapter@_W@__crt_stdio_output@@V?$positional_parameter_base@_WV?$stream_output_adapter@_W@__crt_stdio_output@@@2@@__crt_stdio_output@@AAE_NXZ 10070056 f i libucrt:output.obj
 0001:0006f060       ?type_case_x@?$output_processor@_WV?$stream_output_adapter@_W@__crt_stdio_output@@V?$standard_base@_WV?$stream_output_adapter@_W@__crt_stdio_output@@@2@@__crt_stdio_output@@AAE_NXZ 10070060 f i libucrt:output.obj
 0001:0006f06a       ?type_case_x@?$output_processor@_WV?$string_output_adapter@_W@__crt_stdio_output@@V?$format_validation_base@_WV?$string_output_adapter@_W@__crt_stdio_output@@@2@@__crt_stdio_output@@AAE_NXZ 1007006a f i libucrt:output.obj
 0001:0006f074       ?type_case_x@?$output_processor@_WV?$string_output_adapter@_W@__crt_stdio_output@@V?$positional_parameter_base@_WV?$string_output_adapter@_W@__crt_stdio_output@@@2@@__crt_stdio_output@@AAE_NXZ 10070074 f i libucrt:output.obj
 0001:0006f07e       ?type_case_x@?$output_processor@_WV?$string_output_adapter@_W@__crt_stdio_output@@V?$standard_base@_WV?$string_output_adapter@_W@__crt_stdio_output@@@2@@__crt_stdio_output@@AAE_NXZ 1007007e f i libucrt:output.obj
 0001:0006f088       ?unset_flag@?$output_processor@DV?$stream_output_adapter@D@__crt_stdio_output@@V?$format_validation_base@DV?$stream_output_adapter@D@__crt_stdio_output@@@2@@__crt_stdio_output@@AAEXI@Z 10070088 f i libucrt:output.obj
 0001:0006f099       ?unset_flag@?$output_processor@DV?$stream_output_adapter@D@__crt_stdio_output@@V?$positional_parameter_base@DV?$stream_output_adapter@D@__crt_stdio_output@@@2@@__crt_stdio_output@@AAEXI@Z 10070099 f i libucrt:output.obj
 0001:0006f0aa       ?unset_flag@?$output_processor@DV?$stream_output_adapter@D@__crt_stdio_output@@V?$standard_base@DV?$stream_output_adapter@D@__crt_stdio_output@@@2@@__crt_stdio_output@@AAEXI@Z 100700aa f i libucrt:output.obj
 0001:0006f0bb       ?unset_flag@?$output_processor@DV?$string_output_adapter@D@__crt_stdio_output@@V?$format_validation_base@DV?$string_output_adapter@D@__crt_stdio_output@@@2@@__crt_stdio_output@@AAEXI@Z 100700bb f i libucrt:output.obj
 0001:0006f0cc       ?unset_flag@?$output_processor@DV?$string_output_adapter@D@__crt_stdio_output@@V?$positional_parameter_base@DV?$string_output_adapter@D@__crt_stdio_output@@@2@@__crt_stdio_output@@AAEXI@Z 100700cc f i libucrt:output.obj
 0001:0006f0dd       ?unset_flag@?$output_processor@DV?$string_output_adapter@D@__crt_stdio_output@@V?$standard_base@DV?$string_output_adapter@D@__crt_stdio_output@@@2@@__crt_stdio_output@@AAEXI@Z 100700dd f i libucrt:output.obj
 0001:0006f0ee       ?unset_flag@?$output_processor@_WV?$stream_output_adapter@_W@__crt_stdio_output@@V?$format_validation_base@_WV?$stream_output_adapter@_W@__crt_stdio_output@@@2@@__crt_stdio_output@@AAEXI@Z 100700ee f i libucrt:output.obj
 0001:0006f0ff       ?unset_flag@?$output_processor@_WV?$stream_output_adapter@_W@__crt_stdio_output@@V?$positional_parameter_base@_WV?$stream_output_adapter@_W@__crt_stdio_output@@@2@@__crt_stdio_output@@AAEXI@Z 100700ff f i libucrt:output.obj
 0001:0006f110       ?unset_flag@?$output_processor@_WV?$stream_output_adapter@_W@__crt_stdio_output@@V?$standard_base@_WV?$stream_output_adapter@_W@__crt_stdio_output@@@2@@__crt_stdio_output@@AAEXI@Z 10070110 f i libucrt:output.obj
 0001:0006f121       ?unset_flag@?$output_processor@_WV?$string_output_adapter@_W@__crt_stdio_output@@V?$format_validation_base@_WV?$string_output_adapter@_W@__crt_stdio_output@@@2@@__crt_stdio_output@@AAEXI@Z 10070121 f i libucrt:output.obj
 0001:0006f132       ?unset_flag@?$output_processor@_WV?$string_output_adapter@_W@__crt_stdio_output@@V?$positional_parameter_base@_WV?$string_output_adapter@_W@__crt_stdio_output@@@2@@__crt_stdio_output@@AAEXI@Z 10070132 f i libucrt:output.obj
 0001:0006f143       ?unset_flag@?$output_processor@_WV?$string_output_adapter@_W@__crt_stdio_output@@V?$standard_base@_WV?$string_output_adapter@_W@__crt_stdio_output@@@2@@__crt_stdio_output@@AAEXI@Z 10070143 f i libucrt:output.obj
 0001:0006f154       ?update_field_width@?$positional_parameter_base@DV?$stream_output_adapter@D@__crt_stdio_output@@@__crt_stdio_output@@IAE_NXZ 10070154 f i libucrt:output.obj
 0001:0006f20a       ?update_field_width@?$positional_parameter_base@DV?$string_output_adapter@D@__crt_stdio_output@@@__crt_stdio_output@@IAE_NXZ 1007020a f i libucrt:output.obj
 0001:0006f2c0       ?update_field_width@?$positional_parameter_base@_WV?$stream_output_adapter@_W@__crt_stdio_output@@@__crt_stdio_output@@IAE_NXZ 100702c0 f i libucrt:output.obj
 0001:0006f377       ?update_field_width@?$positional_parameter_base@_WV?$string_output_adapter@_W@__crt_stdio_output@@@__crt_stdio_output@@IAE_NXZ 10070377 f i libucrt:output.obj
 0001:0006f42e       ?update_field_width@?$standard_base@DV?$stream_output_adapter@D@__crt_stdio_output@@@__crt_stdio_output@@IAE_NXZ 1007042e f i libucrt:output.obj
 0001:0006f43e       ?update_field_width@?$standard_base@DV?$string_output_adapter@D@__crt_stdio_output@@@__crt_stdio_output@@IAE_NXZ 1007043e f i libucrt:output.obj
 0001:0006f44e       ?update_field_width@?$standard_base@_WV?$stream_output_adapter@_W@__crt_stdio_output@@@__crt_stdio_output@@IAE_NXZ 1007044e f i libucrt:output.obj
 0001:0006f45e       ?update_field_width@?$standard_base@_WV?$string_output_adapter@_W@__crt_stdio_output@@@__crt_stdio_output@@IAE_NXZ 1007045e f i libucrt:output.obj
 0001:0006f46e       ?update_precision@?$positional_parameter_base@DV?$stream_output_adapter@D@__crt_stdio_output@@@__crt_stdio_output@@IAE_NXZ 1007046e f i libucrt:output.obj
 0001:0006f524       ?update_precision@?$positional_parameter_base@DV?$string_output_adapter@D@__crt_stdio_output@@@__crt_stdio_output@@IAE_NXZ 10070524 f i libucrt:output.obj
 0001:0006f5da       ?update_precision@?$positional_parameter_base@_WV?$stream_output_adapter@_W@__crt_stdio_output@@@__crt_stdio_output@@IAE_NXZ 100705da f i libucrt:output.obj
 0001:0006f691       ?update_precision@?$positional_parameter_base@_WV?$string_output_adapter@_W@__crt_stdio_output@@@__crt_stdio_output@@IAE_NXZ 10070691 f i libucrt:output.obj
 0001:0006f748       ?update_precision@?$standard_base@DV?$stream_output_adapter@D@__crt_stdio_output@@@__crt_stdio_output@@IAE_NXZ 10070748 f i libucrt:output.obj
 0001:0006f758       ?update_precision@?$standard_base@DV?$string_output_adapter@D@__crt_stdio_output@@@__crt_stdio_output@@IAE_NXZ 10070758 f i libucrt:output.obj
 0001:0006f768       ?update_precision@?$standard_base@_WV?$stream_output_adapter@_W@__crt_stdio_output@@@__crt_stdio_output@@IAE_NXZ 10070768 f i libucrt:output.obj
 0001:0006f778       ?update_precision@?$standard_base@_WV?$string_output_adapter@_W@__crt_stdio_output@@@__crt_stdio_output@@IAE_NXZ 10070778 f i libucrt:output.obj
 0001:0006f788       ?validate@?$stream_output_adapter@D@__crt_stdio_output@@QBE_NXZ 10070788 f i libucrt:output.obj
 0001:0006f7a9       ?validate@?$stream_output_adapter@_W@__crt_stdio_output@@QBE_NXZ 100707a9 f i libucrt:output.obj
 0001:0006f7c4       ?validate@?$string_output_adapter@D@__crt_stdio_output@@QBE_NXZ 100707c4 f i libucrt:output.obj
 0001:0006f7df       ?validate@?$string_output_adapter@_W@__crt_stdio_output@@QBE_NXZ 100707df f i libucrt:output.obj
 0001:0006f7fa       ?validate_and_store_parameter_data@?$positional_parameter_base@DV?$stream_output_adapter@D@__crt_stdio_output@@@__crt_stdio_output@@AAE_NAAUparameter_data@12@W4parameter_type@12@DW4length_modifier@2@@Z 100707fa f i libucrt:output.obj
 0001:0006f845       ?validate_and_store_parameter_data@?$positional_parameter_base@DV?$string_output_adapter@D@__crt_stdio_output@@@__crt_stdio_output@@AAE_NAAUparameter_data@12@W4parameter_type@12@DW4length_modifier@2@@Z 10070845 f i libucrt:output.obj
 0001:0006f890       ?validate_and_store_parameter_data@?$positional_parameter_base@_WV?$stream_output_adapter@_W@__crt_stdio_output@@@__crt_stdio_output@@AAE_NAAUparameter_data@12@W4parameter_type@12@_WW4length_modifier@2@@Z 10070890 f i libucrt:output.obj
 0001:0006f8dd       ?validate_and_store_parameter_data@?$positional_parameter_base@_WV?$string_output_adapter@_W@__crt_stdio_output@@@__crt_stdio_output@@AAE_NAAUparameter_data@12@W4parameter_type@12@_WW4length_modifier@2@@Z 100708dd f i libucrt:output.obj
 0001:0006f92a       ?validate_and_update_state_at_beginning_of_format_character@?$positional_parameter_base@DV?$stream_output_adapter@D@__crt_stdio_output@@@__crt_stdio_output@@IAE_NXZ 1007092a f i libucrt:output.obj
 0001:0006fa22       ?validate_and_update_state_at_beginning_of_format_character@?$positional_parameter_base@DV?$string_output_adapter@D@__crt_stdio_output@@@__crt_stdio_output@@IAE_NXZ 10070a22 f i libucrt:output.obj
 0001:0006fb1a       ?validate_and_update_state_at_beginning_of_format_character@?$positional_parameter_base@_WV?$stream_output_adapter@_W@__crt_stdio_output@@@__crt_stdio_output@@IAE_NXZ 10070b1a f i libucrt:output.obj
 0001:0006fc1c       ?validate_and_update_state_at_beginning_of_format_character@?$positional_parameter_base@_WV?$string_output_adapter@_W@__crt_stdio_output@@@__crt_stdio_output@@IAE_NXZ 10070c1c f i libucrt:output.obj
 0001:0006fd1e       ?validate_and_update_state_at_beginning_of_format_character@?$standard_base@DV?$stream_output_adapter@D@__crt_stdio_output@@@__crt_stdio_output@@IAE_NXZ 10070d1e f i libucrt:output.obj
 0001:0006fd21       ?validate_and_update_state_at_beginning_of_format_character@?$standard_base@DV?$string_output_adapter@D@__crt_stdio_output@@@__crt_stdio_output@@IAE_NXZ 10070d21 f i libucrt:output.obj
 0001:0006fd24       ?validate_and_update_state_at_beginning_of_format_character@?$standard_base@_WV?$stream_output_adapter@_W@__crt_stdio_output@@@__crt_stdio_output@@IAE_NXZ 10070d24 f i libucrt:output.obj
 0001:0006fd27       ?validate_and_update_state_at_beginning_of_format_character@?$standard_base@_WV?$string_output_adapter@_W@__crt_stdio_output@@@__crt_stdio_output@@IAE_NXZ 10070d27 f i libucrt:output.obj
 0001:0006fd2a       ?validate_and_update_state_at_end_of_format_string@?$format_validation_base@DV?$stream_output_adapter@D@__crt_stdio_output@@@__crt_stdio_output@@IBE_NXZ 10070d2a f i libucrt:output.obj
 0001:0006fd4c       ?validate_and_update_state_at_end_of_format_string@?$format_validation_base@DV?$string_output_adapter@D@__crt_stdio_output@@@__crt_stdio_output@@IBE_NXZ 10070d4c f i libucrt:output.obj
 0001:0006fd6e       ?validate_and_update_state_at_end_of_format_string@?$format_validation_base@_WV?$stream_output_adapter@_W@__crt_stdio_output@@@__crt_stdio_output@@IBE_NXZ 10070d6e f i libucrt:output.obj
 0001:0006fd90       ?validate_and_update_state_at_end_of_format_string@?$format_validation_base@_WV?$string_output_adapter@_W@__crt_stdio_output@@@__crt_stdio_output@@IBE_NXZ 10070d90 f i libucrt:output.obj
 0001:0006fdb2       ?validate_and_update_state_at_end_of_format_string@?$positional_parameter_base@DV?$stream_output_adapter@D@__crt_stdio_output@@@__crt_stdio_output@@IAE_NXZ 10070db2 f i libucrt:output.obj
 0001:0006fe32       ?validate_and_update_state_at_end_of_format_string@?$positional_parameter_base@DV?$string_output_adapter@D@__crt_stdio_output@@@__crt_stdio_output@@IAE_NXZ 10070e32 f i libucrt:output.obj
 0001:0006feb2       ?validate_and_update_state_at_end_of_format_string@?$positional_parameter_base@_WV?$stream_output_adapter@_W@__crt_stdio_output@@@__crt_stdio_output@@IAE_NXZ 10070eb2 f i libucrt:output.obj
 0001:0006ff32       ?validate_and_update_state_at_end_of_format_string@?$positional_parameter_base@_WV?$string_output_adapter@_W@__crt_stdio_output@@@__crt_stdio_output@@IAE_NXZ 10070f32 f i libucrt:output.obj
 0001:0006ffb2       ?validate_and_update_state_at_end_of_format_string@?$standard_base@DV?$stream_output_adapter@D@__crt_stdio_output@@@__crt_stdio_output@@IBE_NXZ 10070fb2 f i libucrt:output.obj
 0001:0006ffb5       ?validate_and_update_state_at_end_of_format_string@?$standard_base@DV?$string_output_adapter@D@__crt_stdio_output@@@__crt_stdio_output@@IBE_NXZ 10070fb5 f i libucrt:output.obj
 0001:0006ffb8       ?validate_and_update_state_at_end_of_format_string@?$standard_base@_WV?$stream_output_adapter@_W@__crt_stdio_output@@@__crt_stdio_output@@IBE_NXZ 10070fb8 f i libucrt:output.obj
 0001:0006ffbb       ?validate_and_update_state_at_end_of_format_string@?$standard_base@_WV?$string_output_adapter@_W@__crt_stdio_output@@@__crt_stdio_output@@IBE_NXZ 10070fbb f i libucrt:output.obj
 0001:0006ffbe       ?validate_state_for_type_case_a@?$positional_parameter_base@DV?$stream_output_adapter@D@__crt_stdio_output@@@__crt_stdio_output@@IAE_NXZ 10070fbe f i libucrt:output.obj
 0001:00070011       ?validate_state_for_type_case_a@?$positional_parameter_base@DV?$string_output_adapter@D@__crt_stdio_output@@@__crt_stdio_output@@IAE_NXZ 10071011 f i libucrt:output.obj
 0001:00070064       ?validate_state_for_type_case_a@?$positional_parameter_base@_WV?$stream_output_adapter@_W@__crt_stdio_output@@@__crt_stdio_output@@IAE_NXZ 10071064 f i libucrt:output.obj
 0001:000700b7       ?validate_state_for_type_case_a@?$positional_parameter_base@_WV?$string_output_adapter@_W@__crt_stdio_output@@@__crt_stdio_output@@IAE_NXZ 100710b7 f i libucrt:output.obj
 0001:0007010a       ?validate_state_for_type_case_a@?$standard_base@DV?$stream_output_adapter@D@__crt_stdio_output@@@__crt_stdio_output@@IBE_NXZ 1007110a f i libucrt:output.obj
 0001:0007010d       ?validate_state_for_type_case_a@?$standard_base@DV?$string_output_adapter@D@__crt_stdio_output@@@__crt_stdio_output@@IBE_NXZ 1007110d f i libucrt:output.obj
 0001:00070110       ?validate_state_for_type_case_a@?$standard_base@_WV?$stream_output_adapter@_W@__crt_stdio_output@@@__crt_stdio_output@@IBE_NXZ 10071110 f i libucrt:output.obj
 0001:00070113       ?validate_state_for_type_case_a@?$standard_base@_WV?$string_output_adapter@_W@__crt_stdio_output@@@__crt_stdio_output@@IBE_NXZ 10071113 f i libucrt:output.obj
 0001:00070116       ?validate_stream_is_ansi_if_required@?$__acrt_stdio_char_traits@D@@SA_NQAU_iobuf@@@Z 10071116 f i libucrt:output.obj
 0001:00070198       ?validate_stream_is_ansi_if_required@?$__acrt_stdio_char_traits@_W@@SA_NQAU_iobuf@@@Z 10071198 f i libucrt:output.obj
 0001:0007019b       ?wide_null_string@?$output_processor@DV?$stream_output_adapter@D@__crt_stdio_output@@V?$format_validation_base@DV?$stream_output_adapter@D@__crt_stdio_output@@@2@@__crt_stdio_output@@CAPA_WXZ 1007119b f i libucrt:output.obj
 0001:000701a1       ?wide_null_string@?$output_processor@DV?$stream_output_adapter@D@__crt_stdio_output@@V?$positional_parameter_base@DV?$stream_output_adapter@D@__crt_stdio_output@@@2@@__crt_stdio_output@@CAPA_WXZ 100711a1 f i libucrt:output.obj
 0001:000701a7       ?wide_null_string@?$output_processor@DV?$stream_output_adapter@D@__crt_stdio_output@@V?$standard_base@DV?$stream_output_adapter@D@__crt_stdio_output@@@2@@__crt_stdio_output@@CAPA_WXZ 100711a7 f i libucrt:output.obj
 0001:000701ad       ?wide_null_string@?$output_processor@DV?$string_output_adapter@D@__crt_stdio_output@@V?$format_validation_base@DV?$string_output_adapter@D@__crt_stdio_output@@@2@@__crt_stdio_output@@CAPA_WXZ 100711ad f i libucrt:output.obj
 0001:000701b3       ?wide_null_string@?$output_processor@DV?$string_output_adapter@D@__crt_stdio_output@@V?$positional_parameter_base@DV?$string_output_adapter@D@__crt_stdio_output@@@2@@__crt_stdio_output@@CAPA_WXZ 100711b3 f i libucrt:output.obj
 0001:000701b9       ?wide_null_string@?$output_processor@DV?$string_output_adapter@D@__crt_stdio_output@@V?$standard_base@DV?$string_output_adapter@D@__crt_stdio_output@@@2@@__crt_stdio_output@@CAPA_WXZ 100711b9 f i libucrt:output.obj
 0001:000701bf       ?wide_null_string@?$output_processor@_WV?$stream_output_adapter@_W@__crt_stdio_output@@V?$format_validation_base@_WV?$stream_output_adapter@_W@__crt_stdio_output@@@2@@__crt_stdio_output@@CAPA_WXZ 100711bf f i libucrt:output.obj
 0001:000701c5       ?wide_null_string@?$output_processor@_WV?$stream_output_adapter@_W@__crt_stdio_output@@V?$positional_parameter_base@_WV?$stream_output_adapter@_W@__crt_stdio_output@@@2@@__crt_stdio_output@@CAPA_WXZ 100711c5 f i libucrt:output.obj
 0001:000701cb       ?wide_null_string@?$output_processor@_WV?$stream_output_adapter@_W@__crt_stdio_output@@V?$standard_base@_WV?$stream_output_adapter@_W@__crt_stdio_output@@@2@@__crt_stdio_output@@CAPA_WXZ 100711cb f i libucrt:output.obj
 0001:000701d1       ?wide_null_string@?$output_processor@_WV?$string_output_adapter@_W@__crt_stdio_output@@V?$format_validation_base@_WV?$string_output_adapter@_W@__crt_stdio_output@@@2@@__crt_stdio_output@@CAPA_WXZ 100711d1 f i libucrt:output.obj
 0001:000701d7       ?wide_null_string@?$output_processor@_WV?$string_output_adapter@_W@__crt_stdio_output@@V?$positional_parameter_base@_WV?$string_output_adapter@_W@__crt_stdio_output@@@2@@__crt_stdio_output@@CAPA_WXZ 100711d7 f i libucrt:output.obj
 0001:000701dd       ?wide_null_string@?$output_processor@_WV?$string_output_adapter@_W@__crt_stdio_output@@V?$standard_base@_WV?$string_output_adapter@_W@__crt_stdio_output@@@2@@__crt_stdio_output@@CAPA_WXZ 100711dd f i libucrt:output.obj
 0001:000701e3       ?write_character@?$output_adapter_common@DV?$stream_output_adapter@D@__crt_stdio_output@@@__crt_stdio_output@@QBEXDQAH@Z 100711e3 f i libucrt:output.obj
 0001:00070202       ?write_character@?$output_adapter_common@_WV?$stream_output_adapter@_W@__crt_stdio_output@@@__crt_stdio_output@@QBEX_WQAH@Z 10071202 f i libucrt:output.obj
 0001:00070221       ?write_character@?$string_output_adapter@D@__crt_stdio_output@@QBE_NDQAH@Z 10071221 f i libucrt:output.obj
 0001:00070263       ?write_character@?$string_output_adapter@_W@__crt_stdio_output@@QBE_N_WQAH@Z 10071263 f i libucrt:output.obj
 0001:000702a8       ?write_character_without_count_update@?$stream_output_adapter@D@__crt_stdio_output@@QBE_ND@Z 100712a8 f i libucrt:output.obj
 0001:000702df       ?write_character_without_count_update@?$stream_output_adapter@_W@__crt_stdio_output@@QBE_N_W@Z 100712df f i libucrt:output.obj
 0001:00070319       ?write_stored_string_tchar@?$output_processor@DV?$stream_output_adapter@D@__crt_stdio_output@@V?$format_validation_base@DV?$stream_output_adapter@D@__crt_stdio_output@@@2@@__crt_stdio_output@@AAE_ND@Z 10071319 f i libucrt:output.obj
 0001:000703c2       ?write_stored_string_tchar@?$output_processor@DV?$stream_output_adapter@D@__crt_stdio_output@@V?$positional_parameter_base@DV?$stream_output_adapter@D@__crt_stdio_output@@@2@@__crt_stdio_output@@AAE_ND@Z 100713c2 f i libucrt:output.obj
 0001:0007046b       ?write_stored_string_tchar@?$output_processor@DV?$stream_output_adapter@D@__crt_stdio_output@@V?$standard_base@DV?$stream_output_adapter@D@__crt_stdio_output@@@2@@__crt_stdio_output@@AAE_ND@Z 1007146b f i libucrt:output.obj
 0001:00070514       ?write_stored_string_tchar@?$output_processor@DV?$string_output_adapter@D@__crt_stdio_output@@V?$format_validation_base@DV?$string_output_adapter@D@__crt_stdio_output@@@2@@__crt_stdio_output@@AAE_ND@Z 10071514 f i libucrt:output.obj
 0001:000705bd       ?write_stored_string_tchar@?$output_processor@DV?$string_output_adapter@D@__crt_stdio_output@@V?$positional_parameter_base@DV?$string_output_adapter@D@__crt_stdio_output@@@2@@__crt_stdio_output@@AAE_ND@Z 100715bd f i libucrt:output.obj
 0001:00070666       ?write_stored_string_tchar@?$output_processor@DV?$string_output_adapter@D@__crt_stdio_output@@V?$standard_base@DV?$string_output_adapter@D@__crt_stdio_output@@@2@@__crt_stdio_output@@AAE_ND@Z 10071666 f i libucrt:output.obj
 0001:0007070f       ?write_stored_string_tchar@?$output_processor@_WV?$stream_output_adapter@_W@__crt_stdio_output@@V?$format_validation_base@_WV?$stream_output_adapter@_W@__crt_stdio_output@@@2@@__crt_stdio_output@@AAE_N_W@Z 1007170f f i libucrt:output.obj
 0001:000707a4       ?write_stored_string_tchar@?$output_processor@_WV?$stream_output_adapter@_W@__crt_stdio_output@@V?$positional_parameter_base@_WV?$stream_output_adapter@_W@__crt_stdio_output@@@2@@__crt_stdio_output@@AAE_N_W@Z 100717a4 f i libucrt:output.obj
 0001:00070839       ?write_stored_string_tchar@?$output_processor@_WV?$stream_output_adapter@_W@__crt_stdio_output@@V?$standard_base@_WV?$stream_output_adapter@_W@__crt_stdio_output@@@2@@__crt_stdio_output@@AAE_N_W@Z 10071839 f i libucrt:output.obj
 0001:000708ce       ?write_stored_string_tchar@?$output_processor@_WV?$string_output_adapter@_W@__crt_stdio_output@@V?$format_validation_base@_WV?$string_output_adapter@_W@__crt_stdio_output@@@2@@__crt_stdio_output@@AAE_N_W@Z 100718ce f i libucrt:output.obj
 0001:0007095a       ?write_stored_string_tchar@?$output_processor@_WV?$string_output_adapter@_W@__crt_stdio_output@@V?$positional_parameter_base@_WV?$string_output_adapter@_W@__crt_stdio_output@@@2@@__crt_stdio_output@@AAE_N_W@Z 1007195a f i libucrt:output.obj
 0001:000709e6       ?write_stored_string_tchar@?$output_processor@_WV?$string_output_adapter@_W@__crt_stdio_output@@V?$standard_base@_WV?$string_output_adapter@_W@__crt_stdio_output@@@2@@__crt_stdio_output@@AAE_N_W@Z 100719e6 f i libucrt:output.obj
 0001:00070a72       ?write_string@?$stream_output_adapter@D@__crt_stdio_output@@QBEXQBDHQAHAAV__crt_deferred_errno_cache@@@Z 10071a72 f i libucrt:output.obj
 0001:00070a9d       ?write_string@?$stream_output_adapter@_W@__crt_stdio_output@@QBEXQB_WHQAHAAV__crt_deferred_errno_cache@@@Z 10071a9d f i libucrt:output.obj
 0001:00070ac8       ?write_string@?$string_output_adapter@D@__crt_stdio_output@@QBEXQBDHQAHAAV__crt_deferred_errno_cache@@@Z 10071ac8 f i libucrt:output.obj
 0001:00070b2f       ?write_string@?$string_output_adapter@_W@__crt_stdio_output@@QBEXQB_WHQAHAAV__crt_deferred_errno_cache@@@Z 10071b2f f i libucrt:output.obj
 0001:00070ba2       ?write_string_impl@?$output_adapter_common@DV?$stream_output_adapter@D@__crt_stdio_output@@@__crt_stdio_output@@IBEXQBDHQAHAAV__crt_deferred_errno_cache@@@Z 10071ba2 f i libucrt:output.obj
 0001:00070c36       ?write_string_impl@?$output_adapter_common@_WV?$stream_output_adapter@_W@__crt_stdio_output@@@__crt_stdio_output@@IBEXQB_WHQAHAAV__crt_deferred_errno_cache@@@Z 10071c36 f i libucrt:output.obj
 0001:00070ccd       ___acrt_isleadbyte_l_noupdate 10071ccd f i libucrt:output.obj
 0001:00070ce8       ___acrt_locale_changed     10071ce8 f i libucrt:output.obj
 0001:00070cf4       ___stdio_common_vfprintf   10071cf4 f   libucrt:output.obj
 0001:00070d79       ___stdio_common_vfprintf_p 10071d79 f   libucrt:output.obj
 0001:00070dfe       ___stdio_common_vfprintf_s 10071dfe f   libucrt:output.obj
 0001:00070e83       ___stdio_common_vfwprintf  10071e83 f   libucrt:output.obj
 0001:00070f08       ___stdio_common_vfwprintf_p 10071f08 f   libucrt:output.obj
 0001:00070f8d       ___stdio_common_vfwprintf_s 10071f8d f   libucrt:output.obj
 0001:00071012       ___stdio_common_vsnprintf_s 10072012 f   libucrt:output.obj
 0001:00071039       ___stdio_common_vsnwprintf_s 10072039 f   libucrt:output.obj
 0001:00071060       ___stdio_common_vsprintf   10072060 f   libucrt:output.obj
 0001:00071084       ___stdio_common_vsprintf_p 10072084 f   libucrt:output.obj
 0001:000710a8       ___stdio_common_vsprintf_s 100720a8 f   libucrt:output.obj
 0001:000710cc       ___stdio_common_vswprintf  100720cc f   libucrt:output.obj
 0001:000710f0       ___stdio_common_vswprintf_p 100720f0 f   libucrt:output.obj
 0001:00071114       ___stdio_common_vswprintf_s 10072114 f   libucrt:output.obj
 0001:00071138       ??$__crt_fast_decode_pointer@P6AXPB_W00II@Z@@YAP6AXPB_W00II@ZQ6AX000II@Z@Z 10072138 f i libucrt:invalid_parameter.obj
 0001:0007114e       ??$__crt_fast_encode_pointer@P6AXPB_W00II@Z@@YAP6AXPB_W00II@ZQ6AX000II@Z@Z 1007214e f i libucrt:invalid_parameter.obj
 0001:0007116d       ??$initialize_from_array@$$BY00Q6AXPB_W00II@Z@?$dual_state_global@P6AXPB_W00II@Z@__crt_state_management@@QAAXAAY00Q6AXPB_W00II@Z@Z 1007216d f i libucrt:invalid_parameter.obj
 0001:0007117e       ?dangerous_get_state_array@?$dual_state_global@P6AXPB_W00II@Z@__crt_state_management@@QAEPAP6AXPB_W00II@ZXZ 1007217e f i libucrt:invalid_parameter.obj
 0001:00071181       ?get_current_state_index@__crt_state_management@@YAIXZ 10072181 f i libucrt:invalid_parameter.obj
 0001:00071184       ?value@?$dual_state_global@P6AXPB_W00II@Z@__crt_state_management@@QAEAAP6AXPB_W00II@ZXZ 10072184 f i libucrt:invalid_parameter.obj
 0001:00071187       ___acrt_call_reportfault   10072187 f   libucrt:invalid_parameter.obj
 0001:000712c2       ___acrt_initialize_invalid_parameter_handler 100722c2 f   libucrt:invalid_parameter.obj
 0001:000712d1       __get_invalid_parameter_handler 100722d1 f   libucrt:invalid_parameter.obj
 0001:000712e4       __get_thread_local_invalid_parameter_handler 100722e4 f   libucrt:invalid_parameter.obj
 0001:000712f5       __invalid_parameter        100722f5 f   libucrt:invalid_parameter.obj
 0001:00071370       __invalid_parameter_noinfo 10072370 f   libucrt:invalid_parameter.obj
 0001:00071380       __invalid_parameter_noinfo_noreturn 10072380 f   libucrt:invalid_parameter.obj
 0001:0007139d       __invoke_watson            1007239d f   libucrt:invalid_parameter.obj
 0001:000713d1       __set_invalid_parameter_handler 100723d1 f   libucrt:invalid_parameter.obj
 0001:00071401       __set_thread_local_invalid_parameter_handler 10072401 f   libucrt:invalid_parameter.obj
 0001:00071420       _strncmp                   10072420 f   libucrt:strncmp.obj
 0001:000714a0       _strncpy                   100724a0 f   libucrt:strncpy.obj
 0001:000715c4       ??$?RPAU__crt_stdio_stream_data@@@__crt_internal_free_policy@@QBEXQBQAU__crt_stdio_stream_data@@@Z 100725c4 f i libucrt:_file.obj
 0001:000715d6       ??0?$__crt_unique_heap_ptr@PAU__crt_stdio_stream_data@@U__crt_internal_free_policy@@@@QAE@QAPAU__crt_stdio_stream_data@@@Z 100725d6 f i libucrt:_file.obj
 0001:000715e6       ??1?$__crt_unique_heap_ptr@PAU__crt_stdio_stream_data@@U__crt_internal_free_policy@@@@QAE@XZ 100725e6 f i libucrt:_file.obj
 0001:000715f8       ?detach@?$__crt_unique_heap_ptr@PAU__crt_stdio_stream_data@@U__crt_internal_free_policy@@@@QAEPAPAU__crt_stdio_stream_data@@XZ 100725f8 f i libucrt:_file.obj
 0001:000715fe       ?release@?$__crt_unique_heap_ptr@PAU__crt_stdio_stream_data@@U__crt_internal_free_policy@@@@QAEXXZ 100725fe f i libucrt:_file.obj
 0001:00071610       ___acrt_initialize_stdio   10072610 f   libucrt:_file.obj
 0001:000716d8       ___acrt_iob_func           100726d8 f   libucrt:_file.obj
 0001:000716e8       ___acrt_uninitialize_stdio 100726e8 f   libucrt:_file.obj
 0001:00071734       __get_stream_buffer_pointers 10072734 f   libucrt:_file.obj
 0001:0007177a       __lock_file                1007277a f   libucrt:_file.obj
 0001:0007178e       __unlock_file              1007278e f   libucrt:_file.obj
 0001:000717a2       ?is_in_use@__crt_stdio_stream@@QBE_NXZ 100727a2 f i libucrt:fclose.obj
 0001:000717ae       __fclose_nolock            100727ae f   libucrt:fclose.obj
 0001:00071824       _fclose                    10072824 f   libucrt:fclose.obj
 0001:0007189d       ?eof@__crt_stdio_stream@@QBE_NXZ 1007289d f i libucrt:feoferr.obj
 0001:000718a9       ?error@__crt_stdio_stream@@QBE_NXZ 100728a9 f i libucrt:feoferr.obj
 0001:000718b5       _feof                      100728b5 f   libucrt:feoferr.obj
 0001:000718e0       _ferror                    100728e0 f   libucrt:feoferr.obj
 0001:00071af2       ??$open_file@ABQBDABQBDABHPAU_iobuf@@@?$__crt_char_traits@D@@SAPAU_iobuf@@ABQBD0ABH$$QAPAU1@@Z 10072af2 f i libucrt:fopen.obj
 0001:00071b15       ??$open_file@ABQB_WABQB_WABHPAU_iobuf@@@?$__crt_char_traits@_W@@SAPAU_iobuf@@ABQB_W0ABH$$QAPAU1@@Z 10072b15 f i libucrt:fopen.obj
 0001:00071b38       ?unlock@__crt_stdio_stream@@QBEXXZ 10072b38 f i libucrt:fopen.obj
 0001:00071b41       __fsopen                   10072b41 f   libucrt:fopen.obj
 0001:00071b4c       __wfopen                   10072b4c f   libucrt:fopen.obj
 0001:00071b63       __wfopen_s                 10072b63 f   libucrt:fopen.obj
 0001:00071baa       __wfsopen                  10072baa f   libucrt:fopen.obj
 0001:00071bb5       _fopen                     10072bb5 f   libucrt:fopen.obj
 0001:00071bcc       _fopen_s                   10072bcc f   libucrt:fopen.obj
 0001:00071c13       ??$?RE@__crt_internal_free_policy@@QBEXQBE@Z 10072c13 f i libucrt:input.obj
 0001:00071d17       ??$assemble_floating_point_ind@M@__crt_strtox@@YAXAAM@Z 10072d17 f i libucrt:input.obj
 0001:00071d27       ??$assemble_floating_point_ind@N@__crt_strtox@@YAXAAN@Z 10072d27 f i libucrt:input.obj
 0001:00071d56       ??$assemble_floating_point_infinity@M@__crt_strtox@@YAX_NAAM@Z 10072d56 f i libucrt:input.obj
 0001:00071d6f       ??$assemble_floating_point_infinity@N@__crt_strtox@@YAX_NAAN@Z 10072d6f f i libucrt:input.obj
 0001:00071daa       ??$assemble_floating_point_qnan@M@__crt_strtox@@YAX_NAAM@Z 10072daa f i libucrt:input.obj
 0001:00071dc3       ??$assemble_floating_point_qnan@N@__crt_strtox@@YAX_NAAN@Z 10072dc3 f i libucrt:input.obj
 0001:00071dfe       ??$assemble_floating_point_snan@M@__crt_strtox@@YAX_NAAM@Z 10072dfe f i libucrt:input.obj
 0001:00071e17       ??$assemble_floating_point_snan@N@__crt_strtox@@YAX_NAAN@Z 10072e17 f i libucrt:input.obj
 0001:00071e57       ??$assemble_floating_point_value_t@M@__crt_strtox@@YA?AW4SLD_STATUS@@_NH_KAAM@Z 10072e57 f i libucrt:input.obj
 0001:00071e87       ??$assemble_floating_point_value_t@N@__crt_strtox@@YA?AW4SLD_STATUS@@_NH_KAAN@Z 10072e87 f i libucrt:input.obj
 0001:00071ee0       ??$assemble_floating_point_zero@M@__crt_strtox@@YAX_NAAM@Z 10072ee0 f i libucrt:input.obj
 0001:00071ef3       ??$assemble_floating_point_zero@N@__crt_strtox@@YAX_NAAN@Z 10072ef3 f i libucrt:input.obj
 0001:0007214b       ??$convert_decimal_string_to_floating_type@M@__crt_strtox@@YA?AW4SLD_STATUS@@ABUfloating_point_string@0@AAM@Z 1007314b f i libucrt:input.obj
 0001:0007216e       ??$convert_decimal_string_to_floating_type@N@__crt_strtox@@YA?AW4SLD_STATUS@@ABUfloating_point_string@0@AAN@Z 1007316e f i libucrt:input.obj
 0001:00072191       ??$convert_hexadecimal_string_to_floating_type@M@__crt_strtox@@YA?AW4SLD_STATUS@@ABUfloating_point_string@0@AAM@Z 10073191 f i libucrt:input.obj
 0001:000721b4       ??$convert_hexadecimal_string_to_floating_type@N@__crt_strtox@@YA?AW4SLD_STATUS@@ABUfloating_point_string@0@AAN@Z 100731b4 f i libucrt:input.obj
 0001:000721d7       ??$fill_buffer@D@?$input_processor@DV?$stream_input_adapter@D@__crt_stdio_input@@@__crt_stdio_input@@CAXQADII@Z 100731d7 f i libucrt:input.obj
 0001:000721d8       ??$fill_buffer@D@?$input_processor@DV?$string_input_adapter@D@__crt_stdio_input@@@__crt_stdio_input@@CAXQADII@Z 100731d8 f i libucrt:input.obj
 0001:000721d9       ??$fill_buffer@D@?$input_processor@_WV?$stream_input_adapter@_W@__crt_stdio_input@@@__crt_stdio_input@@CAXQADII@Z 100731d9 f i libucrt:input.obj
 0001:000721da       ??$fill_buffer@D@?$input_processor@_WV?$string_input_adapter@_W@__crt_stdio_input@@@__crt_stdio_input@@CAXQADII@Z 100731da f i libucrt:input.obj
 0001:000721db       ??$fill_buffer@_W@?$input_processor@DV?$stream_input_adapter@D@__crt_stdio_input@@@__crt_stdio_input@@CAXQA_WII@Z 100731db f i libucrt:input.obj
 0001:000721dc       ??$fill_buffer@_W@?$input_processor@DV?$string_input_adapter@D@__crt_stdio_input@@@__crt_stdio_input@@CAXQA_WII@Z 100731dc f i libucrt:input.obj
 0001:000721dd       ??$fill_buffer@_W@?$input_processor@_WV?$stream_input_adapter@_W@__crt_stdio_input@@@__crt_stdio_input@@CAXQA_WII@Z 100731dd f i libucrt:input.obj
 0001:000721de       ??$fill_buffer@_W@?$input_processor@_WV?$string_input_adapter@_W@__crt_stdio_input@@@__crt_stdio_input@@CAXQA_WII@Z 100731de f i libucrt:input.obj
 0001:000721df       ??$getc_nolock@PAU_iobuf@@@?$__crt_char_traits@D@@SAH$$QAPAU_iobuf@@@Z 100731df f i libucrt:input.obj
 0001:000721f1       ??$getc_nolock@PAU_iobuf@@@?$__crt_char_traits@_W@@SAG$$QAPAU_iobuf@@@Z 100731f1 f i libucrt:input.obj
 0001:00072203       ??$is_overflow_condition@_K@__crt_strtox@@YA_NI_K@Z 10073203 f i libucrt:input.obj
 0001:00072244       ??$istspace@ABE@?$__crt_char_traits@D@@SAHABE@Z 10073244 f i libucrt:input.obj
 0001:00072258       ??$istspace@AB_W@?$__crt_char_traits@_W@@SAHAB_W@Z 10073258 f i libucrt:input.obj
 0001:0007226f       ??$make_input_adapter_character_source@V?$stream_input_adapter@D@__crt_stdio_input@@@__crt_strtox@@YA?AV?$input_adapter_character_source@V?$stream_input_adapter@D@__crt_stdio_input@@@0@QAV?$stream_input_adapter@D@__crt_stdio_input@@_KQA_N@Z 1007326f f i libucrt:input.obj
 0001:0007228d       ??$make_input_adapter_character_source@V?$stream_input_adapter@_W@__crt_stdio_input@@@__crt_strtox@@YA?AV?$input_adapter_character_source@V?$stream_input_adapter@_W@__crt_stdio_input@@@0@QAV?$stream_input_adapter@_W@__crt_stdio_input@@_KQA_N@Z 1007328d f i libucrt:input.obj
 0001:000722ab       ??$make_input_adapter_character_source@V?$string_input_adapter@D@__crt_stdio_input@@@__crt_strtox@@YA?AV?$input_adapter_character_source@V?$string_input_adapter@D@__crt_stdio_input@@@0@QAV?$string_input_adapter@D@__crt_stdio_input@@_KQA_N@Z 100732ab f i libucrt:input.obj
 0001:000722c9       ??$make_input_adapter_character_source@V?$string_input_adapter@_W@__crt_stdio_input@@@__crt_strtox@@YA?AV?$input_adapter_character_source@V?$string_input_adapter@_W@__crt_stdio_input@@@0@QAV?$string_input_adapter@_W@__crt_stdio_input@@_KQA_N@Z 100732c9 f i libucrt:input.obj
 0001:000722e7       ??$parse_floating_point@V?$input_adapter_character_source@V?$stream_input_adapter@D@__crt_stdio_input@@@__crt_strtox@@M@__crt_strtox@@YA?AW4SLD_STATUS@@QAU__crt_locale_pointers@@V?$input_adapter_character_source@V?$stream_input_adapter@D@__crt_stdio_input@@@0@QAM@Z 100732e7 f i libucrt:input.obj
 0001:00072362       ??$parse_floating_point@V?$input_adapter_character_source@V?$stream_input_adapter@D@__crt_stdio_input@@@__crt_strtox@@N@__crt_strtox@@YA?AW4SLD_STATUS@@QAU__crt_locale_pointers@@V?$input_adapter_character_source@V?$stream_input_adapter@D@__crt_stdio_input@@@0@QAN@Z 10073362 f i libucrt:input.obj
 0001:000723dd       ??$parse_floating_point@V?$input_adapter_character_source@V?$stream_input_adapter@_W@__crt_stdio_input@@@__crt_strtox@@M@__crt_strtox@@YA?AW4SLD_STATUS@@QAU__crt_locale_pointers@@V?$input_adapter_character_source@V?$stream_input_adapter@_W@__crt_stdio_input@@@0@QAM@Z 100733dd f i libucrt:input.obj
 0001:00072458       ??$parse_floating_point@V?$input_adapter_character_source@V?$stream_input_adapter@_W@__crt_stdio_input@@@__crt_strtox@@N@__crt_strtox@@YA?AW4SLD_STATUS@@QAU__crt_locale_pointers@@V?$input_adapter_character_source@V?$stream_input_adapter@_W@__crt_stdio_input@@@0@QAN@Z 10073458 f i libucrt:input.obj
 0001:000724d3       ??$parse_floating_point@V?$input_adapter_character_source@V?$string_input_adapter@D@__crt_stdio_input@@@__crt_strtox@@M@__crt_strtox@@YA?AW4SLD_STATUS@@QAU__crt_locale_pointers@@V?$input_adapter_character_source@V?$string_input_adapter@D@__crt_stdio_input@@@0@QAM@Z 100734d3 f i libucrt:input.obj
 0001:0007254e       ??$parse_floating_point@V?$input_adapter_character_source@V?$string_input_adapter@D@__crt_stdio_input@@@__crt_strtox@@N@__crt_strtox@@YA?AW4SLD_STATUS@@QAU__crt_locale_pointers@@V?$input_adapter_character_source@V?$string_input_adapter@D@__crt_stdio_input@@@0@QAN@Z 1007354e f i libucrt:input.obj
 0001:000725c9       ??$parse_floating_point@V?$input_adapter_character_source@V?$string_input_adapter@_W@__crt_stdio_input@@@__crt_strtox@@M@__crt_strtox@@YA?AW4SLD_STATUS@@QAU__crt_locale_pointers@@V?$input_adapter_character_source@V?$string_input_adapter@_W@__crt_stdio_input@@@0@QAM@Z 100735c9 f i libucrt:input.obj
 0001:00072644       ??$parse_floating_point@V?$input_adapter_character_source@V?$string_input_adapter@_W@__crt_stdio_input@@@__crt_strtox@@N@__crt_strtox@@YA?AW4SLD_STATUS@@QAU__crt_locale_pointers@@V?$input_adapter_character_source@V?$string_input_adapter@_W@__crt_stdio_input@@@0@QAN@Z 10073644 f i libucrt:input.obj
 0001:000726bf       ??$parse_floating_point_from_source@V?$input_adapter_character_source@V?$stream_input_adapter@D@__crt_stdio_input@@@__crt_strtox@@@__crt_strtox@@YA?AW4floating_point_parse_result@0@QAU__crt_locale_pointers@@AAV?$input_adapter_character_source@V?$stream_input_adapter@D@__crt_stdio_input@@@0@AAUfloating_point_string@0@@Z 100736bf f i libucrt:input.obj
 0001:00072b21       ??$parse_floating_point_from_source@V?$input_adapter_character_source@V?$stream_input_adapter@_W@__crt_stdio_input@@@__crt_strtox@@@__crt_strtox@@YA?AW4floating_point_parse_result@0@QAU__crt_locale_pointers@@AAV?$input_adapter_character_source@V?$stream_input_adapter@_W@__crt_stdio_input@@@0@AAUfloating_point_string@0@@Z 10073b21 f i libucrt:input.obj
 0001:00073964       ??$parse_floating_point_from_source@V?$input_adapter_character_source@V?$string_input_adapter@D@__crt_stdio_input@@@__crt_strtox@@@__crt_strtox@@YA?AW4floating_point_parse_result@0@QAU__crt_locale_pointers@@AAV?$input_adapter_character_source@V?$string_input_adapter@D@__crt_stdio_input@@@0@AAUfloating_point_string@0@@Z 10074964 f i libucrt:input.obj
 0001:00073dc6       ??$parse_floating_point_from_source@V?$input_adapter_character_source@V?$string_input_adapter@_W@__crt_stdio_input@@@__crt_strtox@@@__crt_strtox@@YA?AW4floating_point_parse_result@0@QAU__crt_locale_pointers@@AAV?$input_adapter_character_source@V?$string_input_adapter@_W@__crt_stdio_input@@@0@AAUfloating_point_string@0@@Z 10074dc6 f i libucrt:input.obj
 0001:00074c09       ??$parse_floating_point_possible_infinity@DV?$input_adapter_character_source@V?$stream_input_adapter@D@__crt_stdio_input@@@__crt_strtox@@_K@__crt_strtox@@YA?AW4floating_point_parse_result@0@AADAAV?$input_adapter_character_source@V?$stream_input_adapter@D@__crt_stdio_input@@@0@_K@Z 10075c09 f i libucrt:input.obj
 0001:00074cca       ??$parse_floating_point_possible_infinity@DV?$input_adapter_character_source@V?$string_input_adapter@D@__crt_stdio_input@@@__crt_strtox@@_K@__crt_strtox@@YA?AW4floating_point_parse_result@0@AADAAV?$input_adapter_character_source@V?$string_input_adapter@D@__crt_stdio_input@@@0@_K@Z 10075cca f i libucrt:input.obj
 0001:00074d8b       ??$parse_floating_point_possible_infinity@_WV?$input_adapter_character_source@V?$stream_input_adapter@_W@__crt_stdio_input@@@__crt_strtox@@_K@__crt_strtox@@YA?AW4floating_point_parse_result@0@AA_WAAV?$input_adapter_character_source@V?$stream_input_adapter@_W@__crt_stdio_input@@@0@_K@Z 10075d8b f i libucrt:input.obj
 0001:00074e5a       ??$parse_floating_point_possible_infinity@_WV?$input_adapter_character_source@V?$string_input_adapter@_W@__crt_stdio_input@@@__crt_strtox@@_K@__crt_strtox@@YA?AW4floating_point_parse_result@0@AA_WAAV?$input_adapter_character_source@V?$string_input_adapter@_W@__crt_stdio_input@@@0@_K@Z 10075e5a f i libucrt:input.obj
 0001:00074f29       ??$parse_floating_point_possible_nan@DV?$input_adapter_character_source@V?$stream_input_adapter@D@__crt_stdio_input@@@__crt_strtox@@_K@__crt_strtox@@YA?AW4floating_point_parse_result@0@AADAAV?$input_adapter_character_source@V?$stream_input_adapter@D@__crt_stdio_input@@@0@_K@Z 10075f29 f i libucrt:input.obj
 0001:0007503b       ??$parse_floating_point_possible_nan@DV?$input_adapter_character_source@V?$string_input_adapter@D@__crt_stdio_input@@@__crt_strtox@@_K@__crt_strtox@@YA?AW4floating_point_parse_result@0@AADAAV?$input_adapter_character_source@V?$string_input_adapter@D@__crt_stdio_input@@@0@_K@Z 1007603b f i libucrt:input.obj
 0001:0007514d       ??$parse_floating_point_possible_nan@_WV?$input_adapter_character_source@V?$stream_input_adapter@_W@__crt_stdio_input@@@__crt_strtox@@_K@__crt_strtox@@YA?AW4floating_point_parse_result@0@AA_WAAV?$input_adapter_character_source@V?$stream_input_adapter@_W@__crt_stdio_input@@@0@_K@Z 1007614d f i libucrt:input.obj
 0001:00075279       ??$parse_floating_point_possible_nan@_WV?$input_adapter_character_source@V?$string_input_adapter@_W@__crt_stdio_input@@@__crt_strtox@@_K@__crt_strtox@@YA?AW4floating_point_parse_result@0@AA_WAAV?$input_adapter_character_source@V?$string_input_adapter@_W@__crt_stdio_input@@@0@_K@Z 10076279 f i libucrt:input.obj
 0001:000753a5       ??$parse_floating_point_possible_nan_is_ind@DV?$input_adapter_character_source@V?$stream_input_adapter@D@__crt_stdio_input@@@__crt_strtox@@@__crt_strtox@@YA_NAADAAV?$input_adapter_character_source@V?$stream_input_adapter@D@__crt_stdio_input@@@0@@Z 100763a5 f i libucrt:input.obj
 0001:000753df       ??$parse_floating_point_possible_nan_is_ind@DV?$input_adapter_character_source@V?$string_input_adapter@D@__crt_stdio_input@@@__crt_strtox@@@__crt_strtox@@YA_NAADAAV?$input_adapter_character_source@V?$string_input_adapter@D@__crt_stdio_input@@@0@@Z 100763df f i libucrt:input.obj
 0001:00075419       ??$parse_floating_point_possible_nan_is_ind@_WV?$input_adapter_character_source@V?$stream_input_adapter@_W@__crt_stdio_input@@@__crt_strtox@@@__crt_strtox@@YA_NAA_WAAV?$input_adapter_character_source@V?$stream_input_adapter@_W@__crt_stdio_input@@@0@@Z 10076419 f i libucrt:input.obj
 0001:00075459       ??$parse_floating_point_possible_nan_is_ind@_WV?$input_adapter_character_source@V?$string_input_adapter@_W@__crt_stdio_input@@@__crt_strtox@@@__crt_strtox@@YA_NAA_WAAV?$input_adapter_character_source@V?$string_input_adapter@_W@__crt_stdio_input@@@0@@Z 10076459 f i libucrt:input.obj
 0001:00075499       ??$parse_floating_point_possible_nan_is_snan@DV?$input_adapter_character_source@V?$stream_input_adapter@D@__crt_stdio_input@@@__crt_strtox@@@__crt_strtox@@YA_NAADAAV?$input_adapter_character_source@V?$stream_input_adapter@D@__crt_stdio_input@@@0@@Z 10076499 f i libucrt:input.obj
 0001:000754d3       ??$parse_floating_point_possible_nan_is_snan@DV?$input_adapter_character_source@V?$string_input_adapter@D@__crt_stdio_input@@@__crt_strtox@@@__crt_strtox@@YA_NAADAAV?$input_adapter_character_source@V?$string_input_adapter@D@__crt_stdio_input@@@0@@Z 100764d3 f i libucrt:input.obj
 0001:0007550d       ??$parse_floating_point_possible_nan_is_snan@_WV?$input_adapter_character_source@V?$stream_input_adapter@_W@__crt_stdio_input@@@__crt_strtox@@@__crt_strtox@@YA_NAA_WAAV?$input_adapter_character_source@V?$stream_input_adapter@_W@__crt_stdio_input@@@0@@Z 1007650d f i libucrt:input.obj
 0001:0007554d       ??$parse_floating_point_possible_nan_is_snan@_WV?$input_adapter_character_source@V?$string_input_adapter@_W@__crt_stdio_input@@@__crt_strtox@@@__crt_strtox@@YA_NAA_WAAV?$input_adapter_character_source@V?$string_input_adapter@_W@__crt_stdio_input@@@0@@Z 1007654d f i libucrt:input.obj
 0001:0007558d       ??$parse_floating_point_write_result@M@__crt_strtox@@YA?AW4SLD_STATUS@@W4floating_point_parse_result@0@ABUfloating_point_string@0@QAM@Z 1007658d f i libucrt:input.obj
 0001:0007569d       ??$parse_floating_point_write_result@N@__crt_strtox@@YA?AW4SLD_STATUS@@W4floating_point_parse_result@0@ABUfloating_point_string@0@QAN@Z 1007669d f i libucrt:input.obj
 0001:000757a1       ??$parse_integer@_KV?$input_adapter_character_source@V?$stream_input_adapter@D@__crt_stdio_input@@@__crt_strtox@@@__crt_strtox@@YA_KQAU__crt_locale_pointers@@V?$input_adapter_character_source@V?$stream_input_adapter@D@__crt_stdio_input@@@0@H_N@Z 100767a1 f i libucrt:input.obj
 0001:00075a58       ??$parse_integer@_KV?$input_adapter_character_source@V?$stream_input_adapter@_W@__crt_stdio_input@@@__crt_strtox@@@__crt_strtox@@YA_KQAU__crt_locale_pointers@@V?$input_adapter_character_source@V?$stream_input_adapter@_W@__crt_stdio_input@@@0@H_N@Z 10076a58 f i libucrt:input.obj
 0001:00076050       ??$parse_integer@_KV?$input_adapter_character_source@V?$string_input_adapter@D@__crt_stdio_input@@@__crt_strtox@@@__crt_strtox@@YA_KQAU__crt_locale_pointers@@V?$input_adapter_character_source@V?$string_input_adapter@D@__crt_stdio_input@@@0@H_N@Z 10077050 f i libucrt:input.obj
 0001:00076307       ??$parse_integer@_KV?$input_adapter_character_source@V?$string_input_adapter@_W@__crt_stdio_input@@@__crt_strtox@@@__crt_strtox@@YA_KQAU__crt_locale_pointers@@V?$input_adapter_character_source@V?$string_input_adapter@_W@__crt_stdio_input@@@0@H_N@Z 10077307 f i libucrt:input.obj
 0001:000768ff       ??$parse_next_characters_from_source@DV?$input_adapter_character_source@V?$stream_input_adapter@D@__crt_stdio_input@@@__crt_strtox@@@__crt_strtox@@YA_NQBD0IAADAAV?$input_adapter_character_source@V?$stream_input_adapter@D@__crt_stdio_input@@@0@@Z 100778ff f i libucrt:input.obj
 0001:00076943       ??$parse_next_characters_from_source@DV?$input_adapter_character_source@V?$string_input_adapter@D@__crt_stdio_input@@@__crt_strtox@@@__crt_strtox@@YA_NQBD0IAADAAV?$input_adapter_character_source@V?$string_input_adapter@D@__crt_stdio_input@@@0@@Z 10077943 f i libucrt:input.obj
 0001:00076987       ??$parse_next_characters_from_source@_WV?$input_adapter_character_source@V?$stream_input_adapter@_W@__crt_stdio_input@@@__crt_strtox@@@__crt_strtox@@YA_NQB_W0IAA_WAAV?$input_adapter_character_source@V?$stream_input_adapter@_W@__crt_stdio_input@@@0@@Z 10077987 f i libucrt:input.obj
 0001:000769d1       ??$parse_next_characters_from_source@_WV?$input_adapter_character_source@V?$string_input_adapter@_W@__crt_stdio_input@@@__crt_strtox@@@__crt_strtox@@YA_NQB_W0IAA_WAAV?$input_adapter_character_source@V?$string_input_adapter@_W@__crt_stdio_input@@@0@@Z 100779d1 f i libucrt:input.obj
 0001:00076a1b       ??$process_floating_point_specifier_t@M@?$input_processor@DV?$stream_input_adapter@D@__crt_stdio_input@@@__crt_stdio_input@@AAE_NXZ 10077a1b f i libucrt:input.obj
 0001:00076a83       ??$process_floating_point_specifier_t@M@?$input_processor@DV?$string_input_adapter@D@__crt_stdio_input@@@__crt_stdio_input@@AAE_NXZ 10077a83 f i libucrt:input.obj
 0001:00076aeb       ??$process_floating_point_specifier_t@M@?$input_processor@_WV?$stream_input_adapter@_W@__crt_stdio_input@@@__crt_stdio_input@@AAE_NXZ 10077aeb f i libucrt:input.obj
 0001:00076b53       ??$process_floating_point_specifier_t@M@?$input_processor@_WV?$string_input_adapter@_W@__crt_stdio_input@@@__crt_stdio_input@@AAE_NXZ 10077b53 f i libucrt:input.obj
 0001:00076bbb       ??$process_floating_point_specifier_t@N@?$input_processor@DV?$stream_input_adapter@D@__crt_stdio_input@@@__crt_stdio_input@@AAE_NXZ 10077bbb f i libucrt:input.obj
 0001:00076c23       ??$process_floating_point_specifier_t@N@?$input_processor@DV?$string_input_adapter@D@__crt_stdio_input@@@__crt_stdio_input@@AAE_NXZ 10077c23 f i libucrt:input.obj
 0001:00076c8b       ??$process_floating_point_specifier_t@N@?$input_processor@_WV?$stream_input_adapter@_W@__crt_stdio_input@@@__crt_stdio_input@@AAE_NXZ 10077c8b f i libucrt:input.obj
 0001:00076cf3       ??$process_floating_point_specifier_t@N@?$input_processor@_WV?$string_input_adapter@_W@__crt_stdio_input@@@__crt_stdio_input@@AAE_NXZ 10077cf3 f i libucrt:input.obj
 0001:00076d5b       ??$process_string_specifier_tchar@D@?$input_processor@DV?$stream_input_adapter@D@__crt_stdio_input@@@__crt_stdio_input@@AAE_NW4conversion_mode@1@D@Z 10077d5b f i libucrt:input.obj
 0001:00076ecc       ??$process_string_specifier_tchar@D@?$input_processor@DV?$string_input_adapter@D@__crt_stdio_input@@@__crt_stdio_input@@AAE_NW4conversion_mode@1@D@Z 10077ecc f i libucrt:input.obj
 0001:0007702b       ??$process_string_specifier_tchar@D@?$input_processor@_WV?$stream_input_adapter@_W@__crt_stdio_input@@@__crt_stdio_input@@AAE_NW4conversion_mode@1@D@Z 1007802b f i libucrt:input.obj
 0001:00077193       ??$process_string_specifier_tchar@D@?$input_processor@_WV?$string_input_adapter@_W@__crt_stdio_input@@@__crt_stdio_input@@AAE_NW4conversion_mode@1@D@Z 10078193 f i libucrt:input.obj
 0001:000772fb       ??$process_string_specifier_tchar@_W@?$input_processor@DV?$stream_input_adapter@D@__crt_stdio_input@@@__crt_stdio_input@@AAE_NW4conversion_mode@1@_W@Z 100782fb f i libucrt:input.obj
 0001:00077476       ??$process_string_specifier_tchar@_W@?$input_processor@DV?$string_input_adapter@D@__crt_stdio_input@@@__crt_stdio_input@@AAE_NW4conversion_mode@1@_W@Z 10078476 f i libucrt:input.obj
 0001:000775df       ??$process_string_specifier_tchar@_W@?$input_processor@_WV?$stream_input_adapter@_W@__crt_stdio_input@@@__crt_stdio_input@@AAE_NW4conversion_mode@1@_W@Z 100785df f i libucrt:input.obj
 0001:00077748       ??$process_string_specifier_tchar@_W@?$input_processor@_WV?$string_input_adapter@_W@__crt_stdio_input@@@__crt_stdio_input@@AAE_NW4conversion_mode@1@_W@Z 10078748 f i libucrt:input.obj
 0001:000778b1       ??$reset_buffer@D@?$input_processor@DV?$stream_input_adapter@D@__crt_stdio_input@@@__crt_stdio_input@@CAXQADI@Z 100788b1 f i libucrt:input.obj
 0001:000778c4       ??$reset_buffer@D@?$input_processor@DV?$string_input_adapter@D@__crt_stdio_input@@@__crt_stdio_input@@CAXQADI@Z 100788c4 f i libucrt:input.obj
 0001:000778d7       ??$reset_buffer@D@?$input_processor@_WV?$stream_input_adapter@_W@__crt_stdio_input@@@__crt_stdio_input@@CAXQADI@Z 100788d7 f i libucrt:input.obj
 0001:000778ea       ??$reset_buffer@D@?$input_processor@_WV?$string_input_adapter@_W@__crt_stdio_input@@@__crt_stdio_input@@CAXQADI@Z 100788ea f i libucrt:input.obj
 0001:000778fd       ??$reset_buffer@_W@?$input_processor@DV?$stream_input_adapter@D@__crt_stdio_input@@@__crt_stdio_input@@CAXQA_WI@Z 100788fd f i libucrt:input.obj
 0001:00077912       ??$reset_buffer@_W@?$input_processor@DV?$string_input_adapter@D@__crt_stdio_input@@@__crt_stdio_input@@CAXQA_WI@Z 10078912 f i libucrt:input.obj
 0001:00077927       ??$reset_buffer@_W@?$input_processor@_WV?$stream_input_adapter@_W@__crt_stdio_input@@@__crt_stdio_input@@CAXQA_WI@Z 10078927 f i libucrt:input.obj
 0001:0007793c       ??$reset_buffer@_W@?$input_processor@_WV?$string_input_adapter@_W@__crt_stdio_input@@@__crt_stdio_input@@CAXQA_WI@Z 1007893c f i libucrt:input.obj
 0001:00077951       ??$skip_whitespace@Vstream_input_adapter@__crt_stdio_input@@D@__crt_stdio_input@@YAHAAV?$stream_input_adapter@D@0@QAU__crt_locale_pointers@@@Z 10078951 f i libucrt:input.obj
 0001:00077988       ??$skip_whitespace@Vstream_input_adapter@__crt_stdio_input@@_W@__crt_stdio_input@@YAGAAV?$stream_input_adapter@_W@0@QAU__crt_locale_pointers@@@Z 10078988 f i libucrt:input.obj
 0001:000779b7       ??$skip_whitespace@Vstring_input_adapter@__crt_stdio_input@@D@__crt_stdio_input@@YAHAAV?$string_input_adapter@D@0@QAU__crt_locale_pointers@@@Z 100789b7 f i libucrt:input.obj
 0001:000779e6       ??$skip_whitespace@Vstring_input_adapter@__crt_stdio_input@@_W@__crt_stdio_input@@YAGAAV?$string_input_adapter@_W@0@QAU__crt_locale_pointers@@@Z 100789e6 f i libucrt:input.obj
 0001:00077a15       ??$tcsnlen@ABQBDABI@?$__crt_char_traits@D@@SAIABQBDABI@Z 10078a15 f i libucrt:input.obj
 0001:00077a2d       ??$tcsnlen@ABQB_WABI@?$__crt_char_traits@_W@@SAIABQB_WABI@Z 10078a2d f i libucrt:input.obj
 0001:00077a45       ??$tcstoull@AAPB_WPAPA_WH@?$__crt_char_traits@_W@@SA_KAAPB_W$$QAPAPA_W$$QAH@Z 10078a45 f i libucrt:input.obj
 0001:00077a63       ??$tcstoull@PBDPAPADH@?$__crt_char_traits@D@@SA_K$$QAPBD$$QAPAPAD$$QAH@Z 10078a63 f i libucrt:input.obj
 0001:00077a81       ??$ungettc_nolock@ABGPAU_iobuf@@@?$__crt_char_traits@_W@@SAGABG$$QAPAU_iobuf@@@Z 10078a81 f i libucrt:input.obj
 0001:00077a9b       ??$ungettc_nolock@ABHPAU_iobuf@@@?$__crt_char_traits@D@@SAHABH$$QAPAU_iobuf@@@Z 10078a9b f i libucrt:input.obj
 0001:00077ab3       ??$write_floating_point@M@?$input_processor@DV?$stream_input_adapter@D@__crt_stdio_input@@@__crt_stdio_input@@AAE_NABM@Z 10078ab3 f i libucrt:input.obj
 0001:00077ae7       ??$write_floating_point@M@?$input_processor@DV?$string_input_adapter@D@__crt_stdio_input@@@__crt_stdio_input@@AAE_NABM@Z 10078ae7 f i libucrt:input.obj
 0001:00077b1b       ??$write_floating_point@M@?$input_processor@_WV?$stream_input_adapter@_W@__crt_stdio_input@@@__crt_stdio_input@@AAE_NABM@Z 10078b1b f i libucrt:input.obj
 0001:00077b4f       ??$write_floating_point@M@?$input_processor@_WV?$string_input_adapter@_W@__crt_stdio_input@@@__crt_stdio_input@@AAE_NABM@Z 10078b4f f i libucrt:input.obj
 0001:00077b83       ??$write_floating_point@N@?$input_processor@DV?$stream_input_adapter@D@__crt_stdio_input@@@__crt_stdio_input@@AAE_NABN@Z 10078b83 f i libucrt:input.obj
 0001:00077bbd       ??$write_floating_point@N@?$input_processor@DV?$string_input_adapter@D@__crt_stdio_input@@@__crt_stdio_input@@AAE_NABN@Z 10078bbd f i libucrt:input.obj
 0001:00077bf7       ??$write_floating_point@N@?$input_processor@_WV?$stream_input_adapter@_W@__crt_stdio_input@@@__crt_stdio_input@@AAE_NABN@Z 10078bf7 f i libucrt:input.obj
 0001:00077c31       ??$write_floating_point@N@?$input_processor@_WV?$string_input_adapter@_W@__crt_stdio_input@@@__crt_stdio_input@@AAE_NABN@Z 10078c31 f i libucrt:input.obj
 0001:00077e53       ??0?$__crt_unique_heap_ptr@EU__crt_internal_free_policy@@@@QAE@QAE@Z 10078e53 f i libucrt:input.obj
 0001:00077e63       ??0?$format_string_parser@D@__crt_stdio_input@@QAE@_KQBE@Z 10078e63 f i libucrt:input.obj
 0001:00077ead       ??0?$format_string_parser@_W@__crt_stdio_input@@QAE@_KQB_W@Z 10078ead f i libucrt:input.obj
 0001:00077eeb       ??0?$input_adapter_character_source@V?$stream_input_adapter@D@__crt_stdio_input@@@__crt_strtox@@QAE@QAV?$stream_input_adapter@D@__crt_stdio_input@@_KQA_N@Z 10078eeb f i libucrt:input.obj
 0001:00077f1c       ??0?$input_adapter_character_source@V?$stream_input_adapter@_W@__crt_stdio_input@@@__crt_strtox@@QAE@QAV?$stream_input_adapter@_W@__crt_stdio_input@@_KQA_N@Z 10078f1c f i libucrt:input.obj
 0001:00077f4d       ??0?$input_adapter_character_source@V?$string_input_adapter@D@__crt_stdio_input@@@__crt_strtox@@QAE@QAV?$string_input_adapter@D@__crt_stdio_input@@_KQA_N@Z 10078f4d f i libucrt:input.obj
 0001:00077f7e       ??0?$input_adapter_character_source@V?$string_input_adapter@_W@__crt_stdio_input@@@__crt_strtox@@QAE@QAV?$string_input_adapter@_W@__crt_stdio_input@@_KQA_N@Z 10078f7e f i libucrt:input.obj
 0001:00077faf       ??0?$input_processor@DV?$stream_input_adapter@D@__crt_stdio_input@@@__crt_stdio_input@@QAE@ABV?$stream_input_adapter@D@1@_KQBDQAU__crt_locale_pointers@@QAD@Z 10078faf f i libucrt:input.obj
 0001:00077ff8       ??0?$input_processor@DV?$string_input_adapter@D@__crt_stdio_input@@@__crt_stdio_input@@QAE@ABV?$string_input_adapter@D@1@_KQBDQAU__crt_locale_pointers@@QAD@Z 10078ff8 f i libucrt:input.obj
 0001:0007803c       ??0?$input_processor@_WV?$stream_input_adapter@_W@__crt_stdio_input@@@__crt_stdio_input@@QAE@ABV?$stream_input_adapter@_W@1@_KQB_WQAU__crt_locale_pointers@@QAD@Z 1007903c f i libucrt:input.obj
 0001:00078085       ??0?$input_processor@_WV?$string_input_adapter@_W@__crt_stdio_input@@@__crt_stdio_input@@QAE@ABV?$string_input_adapter@_W@1@_KQB_WQAU__crt_locale_pointers@@QAD@Z 10079085 f i libucrt:input.obj
 0001:000780c9       ??0?$scanset_buffer@E@__crt_stdio_input@@QAE@XZ 100790c9 f i libucrt:input.obj
 0001:000780db       ??0?$scanset_buffer@_W@__crt_stdio_input@@QAE@XZ 100790db f i libucrt:input.obj
 0001:000780e1       ??0?$scanset_storage@$00@__crt_stdio_input@@QAE@XZ 100790e1 f i libucrt:input.obj
 0001:000780f3       ??0?$scanset_storage@$01@__crt_stdio_input@@QAE@XZ 100790f3 f i libucrt:input.obj
 0001:000780f9       ??0?$stream_input_adapter@D@__crt_stdio_input@@QAE@QAU_iobuf@@@Z 100790f9 f i libucrt:input.obj
 0001:0007810d       ??0?$stream_input_adapter@_W@__crt_stdio_input@@QAE@QAU_iobuf@@@Z 1007910d f i libucrt:input.obj
 0001:00078121       ??0?$string_input_adapter@D@__crt_stdio_input@@QAE@QBDI@Z 10079121 f i libucrt:input.obj
 0001:0007813c       ??0?$string_input_adapter@_W@__crt_stdio_input@@QAE@QB_WI@Z 1007913c f i libucrt:input.obj
 0001:00078160       ??0big_integer@__crt_strtox@@QAE@ABU01@@Z 10079160 f i libucrt:input.obj
 0001:000781a0       ??0big_integer@__crt_strtox@@QAE@XZ 100791a0 f i libucrt:input.obj
 0001:000781a9       ??0floating_point_value@__crt_strtox@@QAE@QAM@Z 100791a9 f i libucrt:input.obj
 0001:000781bd       ??0floating_point_value@__crt_strtox@@QAE@QAN@Z 100791bd f i libucrt:input.obj
 0001:000781d1       ??1?$__crt_unique_heap_ptr@EU__crt_internal_free_policy@@@@QAE@XZ 100791d1 f i libucrt:input.obj
 0001:000781e3       ??1?$format_string_parser@_W@__crt_stdio_input@@QAE@XZ 100791e3 f i libucrt:input.obj
 0001:000781f7       ??1?$input_adapter_character_source@V?$stream_input_adapter@D@__crt_stdio_input@@@__crt_strtox@@QAE@XZ 100791f7 f i libucrt:input.obj
 0001:00078209       ??1?$input_adapter_character_source@V?$stream_input_adapter@_W@__crt_stdio_input@@@__crt_strtox@@QAE@XZ 10079209 f i libucrt:input.obj
 0001:0007821b       ??1?$input_adapter_character_source@V?$string_input_adapter@D@__crt_stdio_input@@@__crt_strtox@@QAE@XZ 1007921b f i libucrt:input.obj
 0001:0007822d       ??1?$input_adapter_character_source@V?$string_input_adapter@_W@__crt_stdio_input@@@__crt_strtox@@QAE@XZ 1007922d f i libucrt:input.obj
 0001:0007823f       ??1?$input_processor@_WV?$stream_input_adapter@_W@__crt_stdio_input@@@__crt_stdio_input@@QAE@XZ 1007923f f i libucrt:input.obj
 0001:00078253       ??1?$input_processor@_WV?$string_input_adapter@_W@__crt_stdio_input@@@__crt_stdio_input@@QAE@XZ 10079253 f i libucrt:input.obj
 0001:00078267       ??1?$scanset_buffer@_W@__crt_stdio_input@@QAE@XZ 10079267 f i libucrt:input.obj
 0001:00078279       ??1?$scanset_storage@$01@__crt_stdio_input@@QAE@XZ 10079279 f i libucrt:input.obj
 0001:0007828b       ??4?$__crt_unique_heap_ptr@EU__crt_internal_free_policy@@@@QAEAAV0@$$QAV0@@Z 1007928b f i libucrt:input.obj
 0001:000782b0       ??4big_integer@__crt_strtox@@QAEAAU01@ABU01@@Z 100792b0 f i libucrt:input.obj
 0001:000782e1       ??B?$__crt_unique_heap_ptr@EU__crt_internal_free_policy@@@@QBE_NXZ 100792e1 f i libucrt:input.obj
 0001:000782f0       ??M__crt_strtox@@YA_NABUbig_integer@0@0@Z 100792f0 f i libucrt:input.obj
 0001:0007866d       ?accumulate_decimal_digits_into_big_integer@__crt_strtox@@YAXQBE0AAUbig_integer@1@@Z 1007966d f i libucrt:input.obj
 0001:00078c90       ?add@__crt_strtox@@YA_NAAUbig_integer@1@I@Z 10079c90 f i libucrt:input.obj
 0001:00078d10       ?add_carry@__crt_strtox@@YAIAAIII@Z 10079d10 f i libucrt:input.obj
 0001:00078d30       ?add_multiply_carry@__crt_strtox@@YAIAAIIII@Z 10079d30 f i libucrt:input.obj
 0001:00078d4f       ?advance@?$format_string_parser@D@__crt_stdio_input@@QAE_NXZ 10079d4f f i libucrt:input.obj
 0001:00078e6f       ?advance@?$format_string_parser@_W@__crt_stdio_input@@QAE_NXZ 10079e6f f i libucrt:input.obj
 0001:00078f76       ?as_double@floating_point_value@__crt_strtox@@QBEAANXZ 10079f76 f i libucrt:input.obj
 0001:00078f9b       ?as_float@floating_point_value@__crt_strtox@@QBEAAMXZ 10079f9b f i libucrt:input.obj
 0001:00078fc0       ?assemble_floating_point_infinity@__crt_strtox@@YAX_NABVfloating_point_value@1@@Z 10079fc0 f i libucrt:input.obj
 0001:00078ff6       ?assemble_floating_point_value@__crt_strtox@@YA?AW4SLD_STATUS@@_KH_N1ABVfloating_point_value@1@@Z 10079ff6 f i libucrt:input.obj
 0001:0007934d       ?assemble_floating_point_value_from_big_integer@__crt_strtox@@YA?AW4SLD_STATUS@@ABUbig_integer@1@I_N1ABVfloating_point_value@1@@Z 1007a34d f i libucrt:input.obj
 0001:000794dd       ?assemble_floating_point_zero@__crt_strtox@@YAX_NABVfloating_point_value@1@@Z 1007a4dd f i libucrt:input.obj
 0001:00079510       ?bit_scan_reverse@__crt_strtox@@YAIABUbig_integer@1@@Z 1007a510 f i libucrt:input.obj
 0001:00079550       ?bit_scan_reverse@__crt_strtox@@YAII@Z 1007a550 f i libucrt:input.obj
 0001:00079570       ?bit_scan_reverse@__crt_strtox@@YAI_K@Z 1007a570 f i libucrt:input.obj
 0001:000795b7       ?characters_read@?$stream_input_adapter@D@__crt_stdio_input@@QBEIXZ 1007a5b7 f i libucrt:input.obj
 0001:000795bb       ?characters_read@?$stream_input_adapter@_W@__crt_stdio_input@@QBEIXZ 1007a5bb f i libucrt:input.obj
 0001:000795bf       ?characters_read@?$string_input_adapter@D@__crt_stdio_input@@QBEIXZ 1007a5bf f i libucrt:input.obj
 0001:000795c5       ?characters_read@?$string_input_adapter@_W@__crt_stdio_input@@QBEIXZ 1007a5c5 f i libucrt:input.obj
 0001:000795cd       ?convert_decimal_string_to_floating_type_common@__crt_strtox@@YA?AW4SLD_STATUS@@ABUfloating_point_string@1@ABVfloating_point_value@1@@Z 1007a5cd f i libucrt:input.obj
 0001:0007b335       ?convert_hexadecimal_string_to_floating_type_common@__crt_strtox@@YA?AW4SLD_STATUS@@ABUfloating_point_string@1@ABVfloating_point_value@1@@Z 1007c335 f i libucrt:input.obj
 0001:0007b3f0       ?count_sequential_high_zeroes@__crt_strtox@@YAII@Z 1007c3f0 f i libucrt:input.obj
 0001:0007b40b       ?data@?$scanset_storage@$00@__crt_stdio_input@@QBEPAEXZ 1007c40b f i libucrt:input.obj
 0001:0007b40e       ?data@?$scanset_storage@$01@__crt_stdio_input@@QBEPAEXZ 1007c40e f i libucrt:input.obj
 0001:0007b448       ?denormal_mantissa_mask@floating_point_value@__crt_strtox@@QBE_KXZ 1007c448 f i libucrt:input.obj
 0001:0007b460       ?divide@__crt_strtox@@YA_KAAUbig_integer@1@ABU21@@Z 1007c460 f i libucrt:input.obj
 0001:0007b90e       ?error_code@?$format_string_parser@D@__crt_stdio_input@@QBEHXZ 1007c90e f i libucrt:input.obj
 0001:0007b912       ?error_code@?$format_string_parser@_W@__crt_stdio_input@@QBEHXZ 1007c912 f i libucrt:input.obj
 0001:0007b916       ?exponent_bias@floating_point_value@__crt_strtox@@QBEHXZ 1007c916 f i libucrt:input.obj
 0001:0007b928       ?get@?$__crt_unique_heap_ptr@EU__crt_internal_free_policy@@@@QBEPAEXZ 1007c928 f i libucrt:input.obj
 0001:0007b92b       ?get@?$input_adapter_character_source@V?$stream_input_adapter@D@__crt_stdio_input@@@__crt_strtox@@QAEDXZ 1007c92b f i libucrt:input.obj
 0001:0007b964       ?get@?$input_adapter_character_source@V?$stream_input_adapter@_W@__crt_stdio_input@@@__crt_strtox@@QAE_WXZ 1007c964 f i libucrt:input.obj
 0001:0007b99d       ?get@?$input_adapter_character_source@V?$string_input_adapter@D@__crt_stdio_input@@@__crt_strtox@@QAEDXZ 1007c99d f i libucrt:input.obj
 0001:0007b9d7       ?get@?$input_adapter_character_source@V?$string_input_adapter@_W@__crt_stdio_input@@@__crt_strtox@@QAE_WXZ 1007c9d7 f i libucrt:input.obj
 0001:0007ba10       ?get@?$stream_input_adapter@D@__crt_stdio_input@@QAEHXZ 1007ca10 f i libucrt:input.obj
 0001:0007ba27       ?get@?$stream_input_adapter@_W@__crt_stdio_input@@QAEGXZ 1007ca27 f i libucrt:input.obj
 0001:0007ba46       ?get@?$string_input_adapter@D@__crt_stdio_input@@QAEHXZ 1007ca46 f i libucrt:input.obj
 0001:0007ba5c       ?get@?$string_input_adapter@_W@__crt_stdio_input@@QAEGXZ 1007ca5c f i libucrt:input.obj
 0001:0007ba76       ?invert@?$scanset_buffer@E@__crt_stdio_input@@QAEXXZ 1007ca76 f i libucrt:input.obj
 0001:0007ba94       ?invert@?$scanset_buffer@_W@__crt_stdio_input@@QAEXXZ 1007ca94 f i libucrt:input.obj
 0001:0007babc       ?is_character_allowed_in_string@?$input_processor@DV?$stream_input_adapter@D@__crt_stdio_input@@@__crt_stdio_input@@ABE_NW4conversion_mode@2@H@Z 1007cabc f i libucrt:input.obj
 0001:0007bb0e       ?is_character_allowed_in_string@?$input_processor@DV?$string_input_adapter@D@__crt_stdio_input@@@__crt_stdio_input@@ABE_NW4conversion_mode@2@H@Z 1007cb0e f i libucrt:input.obj
 0001:0007bb60       ?is_character_allowed_in_string@?$input_processor@_WV?$stream_input_adapter@_W@__crt_stdio_input@@@__crt_stdio_input@@ABE_NW4conversion_mode@2@G@Z 1007cb60 f i libucrt:input.obj
 0001:0007bbad       ?is_character_allowed_in_string@?$input_processor@_WV?$string_input_adapter@_W@__crt_stdio_input@@@__crt_stdio_input@@ABE_NW4conversion_mode@2@G@Z 1007cbad f i libucrt:input.obj
 0001:0007bbfa       ?is_digit_or_nondigit@__crt_strtox@@YA_NH@Z 1007cbfa f i libucrt:input.obj
 0001:0007bc26       ?is_double@floating_point_value@__crt_strtox@@QBE_NXZ 1007cc26 f i libucrt:input.obj
 0001:0007bc2a       ?is_length_valid@__crt_stdio_input@@YA_NW4conversion_mode@1@W4length_modifier@1@@Z 1007cc2a f i libucrt:input.obj
 0001:0007bc43       ?is_space@__crt_strtox@@YA_NDQAU__crt_locale_pointers@@@Z 1007cc43 f i libucrt:input.obj
 0001:0007bc62       ?is_space@__crt_strtox@@YA_N_WPAU__crt_locale_pointers@@@Z 1007cc62 f i libucrt:input.obj
 0001:0007bc7b       ?is_usable@?$scanset_buffer@E@__crt_stdio_input@@QAE_NXZ 1007cc7b f i libucrt:input.obj
 0001:0007bc81       ?is_usable@?$scanset_buffer@_W@__crt_stdio_input@@QAE_NXZ 1007cc81 f i libucrt:input.obj
 0001:0007bc8d       ?is_valid@?$__crt_unique_heap_ptr@EU__crt_internal_free_policy@@@@QBE_NXZ 1007cc8d f i libucrt:input.obj
 0001:0007bc94       ?kind@?$format_string_parser@D@__crt_stdio_input@@QBE?AW4format_directive_kind@2@XZ 1007cc94 f i libucrt:input.obj
 0001:0007bc98       ?kind@?$format_string_parser@_W@__crt_stdio_input@@QBE?AW4format_directive_kind@2@XZ 1007cc98 f i libucrt:input.obj
 0001:0007bc9c       ?length@?$format_string_parser@D@__crt_stdio_input@@QBEIXZ 1007cc9c f i libucrt:input.obj
 0001:0007bcdd       ?length@?$format_string_parser@_W@__crt_stdio_input@@QBEIXZ 1007ccdd f i libucrt:input.obj
 0001:0007bd1e       ?literal_character_lead@?$format_string_parser@D@__crt_stdio_input@@QBEEXZ 1007cd1e f i libucrt:input.obj
 0001:0007bd22       ?literal_character_lead@?$format_string_parser@_W@__crt_stdio_input@@QBE_WXZ 1007cd22 f i libucrt:input.obj
 0001:0007bd27       ?literal_character_trail@?$format_string_parser@D@__crt_stdio_input@@QBEEXZ 1007cd27 f i libucrt:input.obj
 0001:0007bd30       ?make_big_integer@__crt_strtox@@YA?AUbig_integer@1@_K@Z 1007cd30 f i libucrt:input.obj
 0001:0007bd50       ?mantissa_bits@floating_point_value@__crt_strtox@@QBEHXZ 1007cd50 f i libucrt:input.obj
 0001:0007bd60       ?maximum_binary_exponent@floating_point_value@__crt_strtox@@QBEHXZ 1007cd60 f i libucrt:input.obj
 0001:0007bd72       ?maximum_signed_value@__crt_strtox@@YA_J_K@Z 1007cd72 f i libucrt:input.obj
 0001:0007bd7b       ?minimum_binary_exponent@floating_point_value@__crt_strtox@@QBEHXZ 1007cd7b f i libucrt:input.obj
 0001:0007bd8d       ?minimum_signed_value@__crt_strtox@@YA_J_K@Z 1007cd8d f i libucrt:input.obj
 0001:0007bd95       ?mode@?$format_string_parser@D@__crt_stdio_input@@QBE?AW4conversion_mode@2@XZ 1007cd95 f i libucrt:input.obj
 0001:0007bd99       ?mode@?$format_string_parser@_W@__crt_stdio_input@@QBE?AW4conversion_mode@2@XZ 1007cd99 f i libucrt:input.obj
 0001:0007bda0       ?multiply@__crt_strtox@@YA_NAAUbig_integer@1@ABU21@@Z 1007cda0 f i libucrt:input.obj
 0001:0007c150       ?multiply@__crt_strtox@@YA_NAAUbig_integer@1@I@Z 1007d150 f i libucrt:input.obj
 0001:0007c220       ?multiply_64_32@__crt_strtox@@YA_K_KI@Z 1007d220 f i libucrt:input.obj
 0001:0007c240       ?multiply_by_power_of_ten@__crt_strtox@@YA_NAAUbig_integer@1@I@Z 1007d240 f i libucrt:input.obj
 0001:0007c7e0       ?multiply_core@__crt_strtox@@YAIQAIII@Z 1007d7e0 f i libucrt:input.obj
 0001:0007c81e       ?normal_mantissa_mask@floating_point_value@__crt_strtox@@QBE_KXZ 1007d81e f i libucrt:input.obj
 0001:0007c835       ?parse_digit@__crt_strtox@@YAID@Z 1007d835 f i libucrt:input.obj
 0001:0007c86f       ?parse_digit@__crt_strtox@@YAI_W@Z 1007d86f f i libucrt:input.obj
 0001:0007ca53       ?process@?$input_processor@DV?$stream_input_adapter@D@__crt_stdio_input@@@__crt_stdio_input@@QAEHXZ 1007da53 f i libucrt:input.obj
 0001:0007cae3       ?process@?$input_processor@DV?$string_input_adapter@D@__crt_stdio_input@@@__crt_stdio_input@@QAEHXZ 1007dae3 f i libucrt:input.obj
 0001:0007cb6c       ?process@?$input_processor@_WV?$stream_input_adapter@_W@__crt_stdio_input@@@__crt_stdio_input@@QAEHXZ 1007db6c f i libucrt:input.obj
 0001:0007cbfe       ?process@?$input_processor@_WV?$string_input_adapter@_W@__crt_stdio_input@@@__crt_stdio_input@@QAEHXZ 1007dbfe f i libucrt:input.obj
 0001:0007cc90       ?process_character_count_specifier@?$input_processor@DV?$stream_input_adapter@D@__crt_stdio_input@@@__crt_stdio_input@@AAE_NXZ 1007dc90 f i libucrt:input.obj
 0001:0007cca4       ?process_character_count_specifier@?$input_processor@DV?$string_input_adapter@D@__crt_stdio_input@@@__crt_stdio_input@@AAE_NXZ 1007dca4 f i libucrt:input.obj
 0001:0007ccbc       ?process_character_count_specifier@?$input_processor@_WV?$stream_input_adapter@_W@__crt_stdio_input@@@__crt_stdio_input@@AAE_NXZ 1007dcbc f i libucrt:input.obj
 0001:0007ccd0       ?process_character_count_specifier@?$input_processor@_WV?$string_input_adapter@_W@__crt_stdio_input@@@__crt_stdio_input@@AAE_NXZ 1007dcd0 f i libucrt:input.obj
 0001:0007ccea       ?process_conversion_specifier@?$input_processor@DV?$stream_input_adapter@D@__crt_stdio_input@@@__crt_stdio_input@@AAE_NXZ 1007dcea f i libucrt:input.obj
 0001:0007cd5e       ?process_conversion_specifier@?$input_processor@DV?$string_input_adapter@D@__crt_stdio_input@@@__crt_stdio_input@@AAE_NXZ 1007dd5e f i libucrt:input.obj
 0001:0007cdd2       ?process_conversion_specifier@?$input_processor@_WV?$stream_input_adapter@_W@__crt_stdio_input@@@__crt_stdio_input@@AAE_NXZ 1007ddd2 f i libucrt:input.obj
 0001:0007ce46       ?process_conversion_specifier@?$input_processor@_WV?$string_input_adapter@_W@__crt_stdio_input@@@__crt_stdio_input@@AAE_NXZ 1007de46 f i libucrt:input.obj
 0001:0007ceba       ?process_floating_point_specifier@?$input_processor@DV?$stream_input_adapter@D@__crt_stdio_input@@@__crt_stdio_input@@AAE_NXZ 1007deba f i libucrt:input.obj
 0001:0007ceea       ?process_floating_point_specifier@?$input_processor@DV?$string_input_adapter@D@__crt_stdio_input@@@__crt_stdio_input@@AAE_NXZ 1007deea f i libucrt:input.obj
 0001:0007cf1a       ?process_floating_point_specifier@?$input_processor@_WV?$stream_input_adapter@_W@__crt_stdio_input@@@__crt_stdio_input@@AAE_NXZ 1007df1a f i libucrt:input.obj
 0001:0007cf4a       ?process_floating_point_specifier@?$input_processor@_WV?$string_input_adapter@_W@__crt_stdio_input@@@__crt_stdio_input@@AAE_NXZ 1007df4a f i libucrt:input.obj
 0001:0007cf7a       ?process_integer_specifier@?$input_processor@DV?$stream_input_adapter@D@__crt_stdio_input@@@__crt_stdio_input@@AAE_NI_N@Z 1007df7a f i libucrt:input.obj
 0001:0007cfde       ?process_integer_specifier@?$input_processor@DV?$string_input_adapter@D@__crt_stdio_input@@@__crt_stdio_input@@AAE_NI_N@Z 1007dfde f i libucrt:input.obj
 0001:0007d042       ?process_integer_specifier@?$input_processor@_WV?$stream_input_adapter@_W@__crt_stdio_input@@@__crt_stdio_input@@AAE_NI_N@Z 1007e042 f i libucrt:input.obj
 0001:0007d0a6       ?process_integer_specifier@?$input_processor@_WV?$string_input_adapter@_W@__crt_stdio_input@@@__crt_stdio_input@@AAE_NI_N@Z 1007e0a6 f i libucrt:input.obj
 0001:0007d10a       ?process_literal_character@?$input_processor@DV?$stream_input_adapter@D@__crt_stdio_input@@@__crt_stdio_input@@AAE_NXZ 1007e10a f i libucrt:input.obj
 0001:0007d140       ?process_literal_character@?$input_processor@DV?$string_input_adapter@D@__crt_stdio_input@@@__crt_stdio_input@@AAE_NXZ 1007e140 f i libucrt:input.obj
 0001:0007d176       ?process_literal_character@?$input_processor@_WV?$stream_input_adapter@_W@__crt_stdio_input@@@__crt_stdio_input@@AAE_NXZ 1007e176 f i libucrt:input.obj
 0001:0007d1ab       ?process_literal_character@?$input_processor@_WV?$string_input_adapter@_W@__crt_stdio_input@@@__crt_stdio_input@@AAE_NXZ 1007e1ab f i libucrt:input.obj
 0001:0007d1e0       ?process_literal_character_tchar@?$input_processor@DV?$stream_input_adapter@D@__crt_stdio_input@@@__crt_stdio_input@@AAE_ND@Z 1007e1e0 f i libucrt:input.obj
 0001:0007d23b       ?process_literal_character_tchar@?$input_processor@DV?$string_input_adapter@D@__crt_stdio_input@@@__crt_stdio_input@@AAE_ND@Z 1007e23b f i libucrt:input.obj
 0001:0007d28d       ?process_literal_character_tchar@?$input_processor@_WV?$stream_input_adapter@_W@__crt_stdio_input@@@__crt_stdio_input@@AAE_N_W@Z 1007e28d f i libucrt:input.obj
 0001:0007d292       ?process_literal_character_tchar@?$input_processor@_WV?$string_input_adapter@_W@__crt_stdio_input@@@__crt_stdio_input@@AAE_N_W@Z 1007e292 f i libucrt:input.obj
 0001:0007d297       ?process_state@?$input_processor@DV?$stream_input_adapter@D@__crt_stdio_input@@@__crt_stdio_input@@AAE_NXZ 1007e297 f i libucrt:input.obj
 0001:0007d2d9       ?process_state@?$input_processor@DV?$string_input_adapter@D@__crt_stdio_input@@@__crt_stdio_input@@AAE_NXZ 1007e2d9 f i libucrt:input.obj
 0001:0007d31b       ?process_state@?$input_processor@_WV?$stream_input_adapter@_W@__crt_stdio_input@@@__crt_stdio_input@@AAE_NXZ 1007e31b f i libucrt:input.obj
 0001:0007d35d       ?process_state@?$input_processor@_WV?$string_input_adapter@_W@__crt_stdio_input@@@__crt_stdio_input@@AAE_NXZ 1007e35d f i libucrt:input.obj
 0001:0007d39f       ?process_string_specifier@?$input_processor@DV?$stream_input_adapter@D@__crt_stdio_input@@@__crt_stdio_input@@AAE_NW4conversion_mode@2@@Z 1007e39f f i libucrt:input.obj
 0001:0007d3e7       ?process_string_specifier@?$input_processor@DV?$string_input_adapter@D@__crt_stdio_input@@@__crt_stdio_input@@AAE_NW4conversion_mode@2@@Z 1007e3e7 f i libucrt:input.obj
 0001:0007d42f       ?process_string_specifier@?$input_processor@_WV?$stream_input_adapter@_W@__crt_stdio_input@@@__crt_stdio_input@@AAE_NW4conversion_mode@2@@Z 1007e42f f i libucrt:input.obj
 0001:0007d477       ?process_string_specifier@?$input_processor@_WV?$string_input_adapter@_W@__crt_stdio_input@@@__crt_stdio_input@@AAE_NW4conversion_mode@2@@Z 1007e477 f i libucrt:input.obj
 0001:0007d4bf       ?process_whitespace@?$input_processor@DV?$stream_input_adapter@D@__crt_stdio_input@@@__crt_stdio_input@@AAE_NXZ 1007e4bf f i libucrt:input.obj
 0001:0007d4dc       ?process_whitespace@?$input_processor@DV?$string_input_adapter@D@__crt_stdio_input@@@__crt_stdio_input@@AAE_NXZ 1007e4dc f i libucrt:input.obj
 0001:0007d4f9       ?process_whitespace@?$input_processor@_WV?$stream_input_adapter@_W@__crt_stdio_input@@@__crt_stdio_input@@AAE_NXZ 1007e4f9 f i libucrt:input.obj
 0001:0007d519       ?process_whitespace@?$input_processor@_WV?$string_input_adapter@_W@__crt_stdio_input@@@__crt_stdio_input@@AAE_NXZ 1007e519 f i libucrt:input.obj
 0001:0007d539       ?release@?$__crt_unique_heap_ptr@EU__crt_internal_free_policy@@@@QAEXXZ 1007e539 f i libucrt:input.obj
 0001:0007d54b       ?reset@?$scanset_buffer@E@__crt_stdio_input@@QAEXXZ 1007e54b f i libucrt:input.obj
 0001:0007d55d       ?reset@?$scanset_buffer@_W@__crt_stdio_input@@QAEXXZ 1007e55d f i libucrt:input.obj
 0001:0007d577       ?reset_token_state@?$format_string_parser@D@__crt_stdio_input@@AAEXXZ 1007e577 f i libucrt:input.obj
 0001:0007d593       ?reset_token_state@?$format_string_parser@_W@__crt_stdio_input@@AAEXXZ 1007e593 f i libucrt:input.obj
 0001:0007d5b0       ?reset_token_state_for_error@?$format_string_parser@D@__crt_stdio_input@@AAEXH@Z 1007e5b0 f i libucrt:input.obj
 0001:0007d5da       ?reset_token_state_for_error@?$format_string_parser@_W@__crt_stdio_input@@AAEXH@Z 1007e5da f i libucrt:input.obj
 0001:0007d605       ?restore_state@?$input_adapter_character_source@V?$stream_input_adapter@D@__crt_stdio_input@@@__crt_strtox@@QAE_N_K@Z 1007e605 f i libucrt:input.obj
 0001:0007d62a       ?restore_state@?$input_adapter_character_source@V?$stream_input_adapter@_W@__crt_stdio_input@@@__crt_strtox@@QAE_N_K@Z 1007e62a f i libucrt:input.obj
 0001:0007d64f       ?restore_state@?$input_adapter_character_source@V?$string_input_adapter@D@__crt_stdio_input@@@__crt_strtox@@QAE_N_K@Z 1007e64f f i libucrt:input.obj
 0001:0007d674       ?restore_state@?$input_adapter_character_source@V?$string_input_adapter@_W@__crt_stdio_input@@@__crt_strtox@@QAE_N_K@Z 1007e674 f i libucrt:input.obj
 0001:0007d699       ?right_shift_with_rounding@__crt_strtox@@YA_K_N_KI0@Z 1007e699 f i libucrt:input.obj
 0001:0007d77c       ?save_state@?$input_adapter_character_source@V?$stream_input_adapter@D@__crt_stdio_input@@@__crt_strtox@@QBE_KXZ 1007e77c f i libucrt:input.obj
 0001:0007d783       ?save_state@?$input_adapter_character_source@V?$stream_input_adapter@_W@__crt_stdio_input@@@__crt_strtox@@QBE_KXZ 1007e783 f i libucrt:input.obj
 0001:0007d78a       ?save_state@?$input_adapter_character_source@V?$string_input_adapter@D@__crt_stdio_input@@@__crt_strtox@@QBE_KXZ 1007e78a f i libucrt:input.obj
 0001:0007d791       ?save_state@?$input_adapter_character_source@V?$string_input_adapter@_W@__crt_stdio_input@@@__crt_strtox@@QBE_KXZ 1007e791 f i libucrt:input.obj
 0001:0007d798       ?scan_conversion_specifier@?$format_string_parser@D@__crt_stdio_input@@AAE_NXZ 1007e798 f i libucrt:input.obj
 0001:0007d908       ?scan_conversion_specifier@?$format_string_parser@_W@__crt_stdio_input@@AAE_NXZ 1007e908 f i libucrt:input.obj
 0001:0007da59       ?scan_optional_assignment_suppressor@?$format_string_parser@D@__crt_stdio_input@@AAEXXZ 1007ea59 f i libucrt:input.obj
 0001:0007da6a       ?scan_optional_assignment_suppressor@?$format_string_parser@_W@__crt_stdio_input@@AAEXXZ 1007ea6a f i libucrt:input.obj
 0001:0007da7e       ?scan_optional_field_width@?$format_string_parser@D@__crt_stdio_input@@AAE_NXZ 1007ea7e f i libucrt:input.obj
 0001:0007db1d       ?scan_optional_field_width@?$format_string_parser@_W@__crt_stdio_input@@AAE_NXZ 1007eb1d f i libucrt:input.obj
 0001:0007dd49       ?scan_optional_length_modifier@?$format_string_parser@D@__crt_stdio_input@@AAEXXZ 1007ed49 f i libucrt:input.obj
 0001:0007de69       ?scan_optional_length_modifier@?$format_string_parser@_W@__crt_stdio_input@@AAEXXZ 1007ee69 f i libucrt:input.obj
 0001:0007df9a       ?scan_optional_literal_character_trail_bytes_tchar@?$format_string_parser@D@__crt_stdio_input@@AAE_ND@Z 1007ef9a f i libucrt:input.obj
 0001:0007dfec       ?scan_optional_literal_character_trail_bytes_tchar@?$format_string_parser@_W@__crt_stdio_input@@AAE_N_W@Z 1007efec f i libucrt:input.obj
 0001:0007dff1       ?scan_optional_wide_modifier@?$format_string_parser@D@__crt_stdio_input@@AAEXXZ 1007eff1 f i libucrt:input.obj
 0001:0007e00f       ?scan_optional_wide_modifier@?$format_string_parser@_W@__crt_stdio_input@@AAEXXZ 1007f00f f i libucrt:input.obj
 0001:0007e039       ?scan_scanset_range@?$format_string_parser@D@__crt_stdio_input@@AAE_NXZ 1007f039 f i libucrt:input.obj
 0001:0007e147       ?scan_scanset_range@?$format_string_parser@_W@__crt_stdio_input@@AAE_NXZ 1007f147 f i libucrt:input.obj
 0001:0007e25f       ?scanset@?$format_string_parser@D@__crt_stdio_input@@QBEABV?$scanset_buffer@E@2@XZ 1007f25f f i libucrt:input.obj
 0001:0007e263       ?scanset@?$format_string_parser@_W@__crt_stdio_input@@QBEABV?$scanset_buffer@_W@2@XZ 1007f263 f i libucrt:input.obj
 0001:0007e267       ?secure_buffers@?$input_processor@DV?$stream_input_adapter@D@__crt_stdio_input@@@__crt_stdio_input@@ABE_NXZ 1007f267 f i libucrt:input.obj
 0001:0007e278       ?secure_buffers@?$input_processor@DV?$string_input_adapter@D@__crt_stdio_input@@@__crt_stdio_input@@ABE_NXZ 1007f278 f i libucrt:input.obj
 0001:0007e289       ?secure_buffers@?$input_processor@_WV?$stream_input_adapter@_W@__crt_stdio_input@@@__crt_stdio_input@@ABE_NXZ 1007f289 f i libucrt:input.obj
 0001:0007e29a       ?secure_buffers@?$input_processor@_WV?$string_input_adapter@_W@__crt_stdio_input@@@__crt_stdio_input@@ABE_NXZ 1007f29a f i libucrt:input.obj
 0001:0007e2ab       ?set@?$scanset_buffer@E@__crt_stdio_input@@QAEXE@Z 1007f2ab f i libucrt:input.obj
 0001:0007e2cc       ?set@?$scanset_buffer@_W@__crt_stdio_input@@QAEX_W@Z 1007f2cc f i libucrt:input.obj
 0001:0007e2f2       ?set_wide_for_c_s_or_scanset@?$format_string_parser@D@__crt_stdio_input@@AAEXXZ 1007f2f2 f i libucrt:input.obj
 0001:0007e312       ?set_wide_for_c_s_or_scanset@?$format_string_parser@_W@__crt_stdio_input@@AAEXXZ 1007f312 f i libucrt:input.obj
 0001:0007e340       ?shift_left@__crt_strtox@@YA_NAAUbig_integer@1@I@Z 1007f340 f i libucrt:input.obj
 0001:0007e49e       ?should_default_to_wide@?$format_string_parser@D@__crt_stdio_input@@AAE_NE@Z 1007f49e f i libucrt:input.obj
 0001:0007e4b9       ?should_default_to_wide@?$format_string_parser@_W@__crt_stdio_input@@AAE_N_W@Z 1007f4b9 f i libucrt:input.obj
 0001:0007e4ec       ?should_round_up@__crt_strtox@@YA_N_N000@Z 1007f4ec f i libucrt:input.obj
 0001:0007e540       ?size@?$scanset_storage@$00@__crt_stdio_input@@QBEIXZ 1007f540 f i libucrt:input.obj
 0001:0007e544       ?size@?$scanset_storage@$01@__crt_stdio_input@@QBEIXZ 1007f544 f i libucrt:input.obj
 0001:0007e54a       ?suppress_assignment@?$format_string_parser@D@__crt_stdio_input@@QBE_NXZ 1007f54a f i libucrt:input.obj
 0001:0007e54e       ?suppress_assignment@?$format_string_parser@_W@__crt_stdio_input@@QBE_NXZ 1007f54e f i libucrt:input.obj
 0001:0007e552       ?test@?$scanset_buffer@E@__crt_stdio_input@@QBE_NE@Z 1007f552 f i libucrt:input.obj
 0001:0007e576       ?test@?$scanset_buffer@_W@__crt_stdio_input@@QBE_N_W@Z 1007f576 f i libucrt:input.obj
 0001:0007e5a1       ?to_floating_point_length@__crt_stdio_input@@YAIW4length_modifier@1@@Z 1007f5a1 f i libucrt:input.obj
 0001:0007e5c4       ?to_integer_length@__crt_stdio_input@@YAIW4length_modifier@1@@Z 1007f5c4 f i libucrt:input.obj
 0001:0007e61c       ?unget@?$input_adapter_character_source@V?$stream_input_adapter@D@__crt_stdio_input@@@__crt_strtox@@QAEXD@Z 1007f61c f i libucrt:input.obj
 0001:0007e65d       ?unget@?$input_adapter_character_source@V?$stream_input_adapter@_W@__crt_stdio_input@@@__crt_strtox@@QAEX_W@Z 1007f65d f i libucrt:input.obj
 0001:0007e6a2       ?unget@?$input_adapter_character_source@V?$string_input_adapter@D@__crt_stdio_input@@@__crt_strtox@@QAEXD@Z 1007f6a2 f i libucrt:input.obj
 0001:0007e6e3       ?unget@?$input_adapter_character_source@V?$string_input_adapter@_W@__crt_stdio_input@@@__crt_strtox@@QAEX_W@Z 1007f6e3 f i libucrt:input.obj
 0001:0007e728       ?unget@?$stream_input_adapter@D@__crt_stdio_input@@QAEXH@Z 1007f728 f i libucrt:input.obj
 0001:0007e746       ?unget@?$stream_input_adapter@_W@__crt_stdio_input@@QAEXG@Z 1007f746 f i libucrt:input.obj
 0001:0007e769       ?unget@?$string_input_adapter@D@__crt_stdio_input@@QAEXH@Z 1007f769 f i libucrt:input.obj
 0001:0007e788       ?unget@?$string_input_adapter@_W@__crt_stdio_input@@QAEXG@Z 1007f788 f i libucrt:input.obj
 0001:0007e7ae       ?validate@?$format_string_parser@D@__crt_stdio_input@@QBE_NXZ 1007f7ae f i libucrt:input.obj
 0001:0007e7ca       ?validate@?$format_string_parser@_W@__crt_stdio_input@@QBE_NXZ 1007f7ca f i libucrt:input.obj
 0001:0007e7e6       ?validate@?$input_adapter_character_source@V?$stream_input_adapter@D@__crt_stdio_input@@@__crt_strtox@@QBE_NXZ 1007f7e6 f i libucrt:input.obj
 0001:0007e807       ?validate@?$input_adapter_character_source@V?$stream_input_adapter@_W@__crt_stdio_input@@@__crt_strtox@@QBE_NXZ 1007f807 f i libucrt:input.obj
 0001:0007e828       ?validate@?$input_adapter_character_source@V?$string_input_adapter@D@__crt_stdio_input@@@__crt_strtox@@QBE_NXZ 1007f828 f i libucrt:input.obj
 0001:0007e849       ?validate@?$input_adapter_character_source@V?$string_input_adapter@_W@__crt_stdio_input@@@__crt_strtox@@QBE_NXZ 1007f849 f i libucrt:input.obj
 0001:0007e86a       ?validate@?$stream_input_adapter@D@__crt_stdio_input@@QBE_NXZ 1007f86a f i libucrt:input.obj
 0001:0007e88b       ?validate@?$stream_input_adapter@_W@__crt_stdio_input@@QBE_NXZ 1007f88b f i libucrt:input.obj
 0001:0007e8a6       ?validate@?$string_input_adapter@D@__crt_stdio_input@@QAE_NXZ 1007f8a6 f i libucrt:input.obj
 0001:0007e8c8       ?validate@?$string_input_adapter@_W@__crt_stdio_input@@QAE_NXZ 1007f8c8 f i libucrt:input.obj
 0001:0007e8ea       ?wide_character_to_digit@__crt_strtox@@YAH_W@Z 1007f8ea f i libucrt:input.obj
 0001:0007ea8b       ?width@?$format_string_parser@D@__crt_stdio_input@@QBE_KXZ 1007fa8b f i libucrt:input.obj
 0001:0007ea92       ?width@?$format_string_parser@_W@__crt_stdio_input@@QBE_KXZ 1007fa92 f i libucrt:input.obj
 0001:0007ea99       ?write_character@?$input_processor@DV?$stream_input_adapter@D@__crt_stdio_input@@@__crt_stdio_input@@AAE_NQADIAAPADAAID@Z 1007fa99 f i libucrt:input.obj
 0001:0007eab5       ?write_character@?$input_processor@DV?$stream_input_adapter@D@__crt_stdio_input@@@__crt_stdio_input@@AAE_NQA_WIAAPA_WAAID@Z 1007fab5 f i libucrt:input.obj
 0001:0007eb2d       ?write_character@?$input_processor@DV?$string_input_adapter@D@__crt_stdio_input@@@__crt_stdio_input@@AAE_NQADIAAPADAAID@Z 1007fb2d f i libucrt:input.obj
 0001:0007eb49       ?write_character@?$input_processor@DV?$string_input_adapter@D@__crt_stdio_input@@@__crt_stdio_input@@AAE_NQA_WIAAPA_WAAID@Z 1007fb49 f i libucrt:input.obj
 0001:0007ebb8       ?write_character@?$input_processor@_WV?$stream_input_adapter@_W@__crt_stdio_input@@@__crt_stdio_input@@AAE_NQADIAAPADAAI_W@Z 1007fbb8 f i libucrt:input.obj
 0001:0007ec40       ?write_character@?$input_processor@_WV?$stream_input_adapter@_W@__crt_stdio_input@@@__crt_stdio_input@@AAE_NQA_WIAAPA_WAAI_W@Z 1007fc40 f i libucrt:input.obj
 0001:0007ec5f       ?write_character@?$input_processor@_WV?$string_input_adapter@_W@__crt_stdio_input@@@__crt_stdio_input@@AAE_NQADIAAPADAAI_W@Z 1007fc5f f i libucrt:input.obj
 0001:0007ece7       ?write_character@?$input_processor@_WV?$string_input_adapter@_W@__crt_stdio_input@@@__crt_stdio_input@@AAE_NQA_WIAAPA_WAAI_W@Z 1007fce7 f i libucrt:input.obj
 0001:0007ed06       ?write_integer@?$input_processor@DV?$stream_input_adapter@D@__crt_stdio_input@@@__crt_stdio_input@@AAE_N_K@Z 1007fd06 f i libucrt:input.obj
 0001:0007ed74       ?write_integer@?$input_processor@DV?$string_input_adapter@D@__crt_stdio_input@@@__crt_stdio_input@@AAE_N_K@Z 1007fd74 f i libucrt:input.obj
 0001:0007ede2       ?write_integer@?$input_processor@_WV?$stream_input_adapter@_W@__crt_stdio_input@@@__crt_stdio_input@@AAE_N_K@Z 1007fde2 f i libucrt:input.obj
 0001:0007ee50       ?write_integer@?$input_processor@_WV?$string_input_adapter@_W@__crt_stdio_input@@@__crt_stdio_input@@AAE_N_K@Z 1007fe50 f i libucrt:input.obj
 0001:0007eebe       ___acrt_get_locale_data_prefix 1007febe f i libucrt:input.obj
 0001:0007eeca       ___stdio_common_vfscanf    1007feca f   libucrt:input.obj
 0001:0007ef4f       ___stdio_common_vfwscanf   1007ff4f f   libucrt:input.obj
 0001:0007efd4       ___stdio_common_vsscanf    1007ffd4 f   libucrt:input.obj
 0001:0007eff8       ___stdio_common_vswscanf   1007fff8 f   libucrt:input.obj
 0001:0007f01c       __chvalidchk_l             1008001c f i libucrt:input.obj
 0001:0007f046       __invoke_watson_if_oneof   10080046 f i libucrt:input.obj
 0001:0007f073       __ischartype_l             10080073 f i libucrt:input.obj
 0001:0007f127       _free                      10080127 f   libucrt:free.obj
 0001:0007f144       _malloc                    10080144 f   libucrt:malloc.obj
 0001:0007f14f       ??$?B$$A6GXPAXK0@Z@__crt_fast_encoded_nullptr_t@@QBEP6GXPAXK0@ZXZ 1008014f f i libucrt:exit.obj
 0001:0007f1d2       ??$__crt_fast_decode_pointer@P6GXPAXK0@Z@@YAP6GXPAXK0@ZQ6GX0K0@Z@Z 100801d2 f i libucrt:exit.obj
 0001:0007f1e8       ??$__crt_fast_encode_pointer@P6GXPAXK0@Z@@YAP6GXPAXK0@ZQ6GX0K0@Z@Z 100801e8 f i libucrt:exit.obj
 0001:0007f207       ??$__crt_get_proc_address@P6GXI@Z@@YAP6GXI@ZQAUHINSTANCE__@@QBD@Z 10080207 f i libucrt:exit.obj
 0001:0007f25a       ??0?$__crt_unique_handle_t@U__crt_hmodule_traits@@@@QAE@QAUHINSTANCE__@@@Z 1008025a f i libucrt:exit.obj
 0001:0007f26a       ??1?$__crt_unique_handle_t@U__crt_hmodule_traits@@@@QAE@XZ 1008026a f i libucrt:exit.obj
 0001:0007f36f       ?__acrt_select_exit_lock@@YA?AW4__acrt_lock_id@@XZ 1008036f f i libucrt:exit.obj
 0001:0007f386       ?close@?$__crt_unique_handle_t@U__crt_hmodule_traits@@@@QAEXXZ 10080386 f i libucrt:exit.obj
 0001:0007f39d       ?close@__crt_hmodule_traits@@SA_NPAUHINSTANCE__@@@Z 1008039d f i libucrt:exit.obj
 0001:0007f45b       ?get@?$__crt_unique_handle_t@U__crt_hmodule_traits@@@@QBEPAUHINSTANCE__@@XZ 1008045b f i libucrt:exit.obj
 0001:0007f45e       ?get_address_of@?$__crt_unique_handle_t@U__crt_hmodule_traits@@@@QAEPAPAUHINSTANCE__@@XZ 1008045e f i libucrt:exit.obj
 0001:0007f461       ?get_invalid_value@__crt_hmodule_traits@@SAPAUHINSTANCE__@@XZ 10080461 f i libucrt:exit.obj
 0001:0007f530       __Exit                     10080530 f   libucrt:exit.obj
 0001:0007f546       ___acrt_initialize_thread_local_exit_callback 10080546 f   libucrt:exit.obj
 0001:0007f555       __c_exit                   10080555 f   libucrt:exit.obj
 0001:0007f564       __cexit                    10080564 f   libucrt:exit.obj
 0001:0007f573       __exit                     10080573 f   libucrt:exit.obj
 0001:0007f589       __is_c_termination_complete 10080589 f   libucrt:exit.obj
 0001:0007f58f       __register_thread_local_exe_atexit_callback 1008058f f   libucrt:exit.obj
 0001:0007f5c7       _exit                      100805c7 f   libucrt:exit.obj
 0001:0007f5dd       _quick_exit                100805dd f   libucrt:exit.obj
 0001:0007fad7       ??$gmtime_s@ABQAUtm@@ABQBJ@?$__crt_integer_traits@J@@SAHABQAUtm@@ABQBJ@Z 10080ad7 f i libucrt:localtime.obj
 0001:0007faef       ??$gmtime_s@ABQAUtm@@ABQB_J@?$__crt_integer_traits@_J@@SAHABQAUtm@@ABQB_J@Z 10080aef f i libucrt:localtime.obj
 0001:0007fb07       ??$gmtime_s@ABQAUtm@@PAJ@?$__crt_integer_traits@J@@SAHABQAUtm@@$$QAPAJ@Z 10080b07 f i libucrt:localtime.obj
 0001:0007fb1f       ??$gmtime_s@ABQAUtm@@PA_J@?$__crt_integer_traits@_J@@SAHABQAUtm@@$$QAPA_J@Z 10080b1f f i libucrt:localtime.obj
 0001:0007fb37       ??$localtime_s@ABQAUtm@@ABQBJ@?$__crt_integer_traits@J@@SAHABQAUtm@@ABQBJ@Z 10080b37 f i libucrt:localtime.obj
 0001:0007fb50       ??$localtime_s@ABQAUtm@@ABQB_J@?$__crt_integer_traits@_J@@SAHABQAUtm@@ABQB_J@Z 10080b50 f i libucrt:localtime.obj
 0001:0007fb69       __invoke_watson_if_error   10080b69 f i libucrt:localtime.obj
 0001:0007fb8b       __localtime32              10080b8b f   libucrt:localtime.obj
 0001:0007fbb2       __localtime32_s            10080bb2 f   libucrt:localtime.obj
 0001:0007fbbd       __localtime64              10080bbd f   libucrt:localtime.obj
 0001:0007fbe4       __localtime64_s            10080be4 f   libucrt:localtime.obj
 0001:0007fbef       ??$?R_W@__crt_internal_free_policy@@QBEXQB_W@Z 10080bef f i libucrt:strftime.obj
 0001:0007fc01       ??0?$__crt_unique_heap_ptr@_WU__crt_internal_free_policy@@@@QAE@QA_W@Z 10080c01 f i libucrt:strftime.obj
 0001:0007fc11       ??1?$__crt_unique_heap_ptr@_WU__crt_internal_free_policy@@@@QAE@XZ 10080c11 f i libucrt:strftime.obj
 0001:0007fc23       ?detach@?$__crt_unique_heap_ptr@DU__crt_internal_free_policy@@@@QAEPADXZ 10080c23 f i libucrt:strftime.obj
 0001:0007fc29       ?get@?$__crt_unique_heap_ptr@_WU__crt_internal_free_policy@@@@QBEPA_WXZ 10080c29 f i libucrt:strftime.obj
 0001:0007fc2c       ?release@?$__crt_unique_heap_ptr@_WU__crt_internal_free_policy@@@@QAEXXZ 10080c2c f i libucrt:strftime.obj
 0001:0007fc3e       __Getdays                  10080c3e f   libucrt:strftime.obj
 0001:0007fc47       __Getdays_l                10080c47 f   libucrt:strftime.obj
 0001:0007fd4f       __Getmonths                10080d4f f   libucrt:strftime.obj
 0001:0007fd58       __Getmonths_l              10080d58 f   libucrt:strftime.obj
 0001:0007fe6e       __Gettnames                10080e6e f   libucrt:strftime.obj
 0001:0007fe73       __Strftime                 10080e73 f   libucrt:strftime.obj
 0001:0007fe93       __Strftime_l               10080e93 f   libucrt:strftime.obj
 0001:0007ffbf       __strftime_l               10080fbf f   libucrt:strftime.obj
 0001:0007ffdf       _strftime                  10080fdf f   libucrt:strftime.obj
 0001:00080173       __time32                   10081173 f   libucrt:time.obj
 0001:000801a5       __time64                   100811a5 f   libucrt:time.obj
 0001:000801e7       __timespec32_get           100811e7 f   libucrt:time.obj
 0001:000801f2       __timespec64_get           100811f2 f   libucrt:time.obj
 0001:00080200       __libm_sse2_cos_precise    10081200 f   libucrt:cos_sse2_precise.obj
 0001:000803c0       __libm_sse2_pow_precise    100813c0 f   libucrt:pow_sse2_precise.obj
 0001:00080f10       __libm_sse2_sin_precise    10081f10 f   libucrt:sin_sse2_precise.obj
 0001:000810e0       __libm_sse2_sqrt_precise   100820e0 f   libucrt:sqrt_sse2_precise.obj
 0001:000813aa       ??$make_c_string_character_source@D$$T@__crt_strtox@@YA?AV?$c_string_character_source@D@0@QBD$$T@Z 100823aa f i libucrt:atof.obj
 0001:000813c5       ??$make_c_string_character_source@_W$$T@__crt_strtox@@YA?AV?$c_string_character_source@_W@0@QB_W$$T@Z 100823c5 f i libucrt:atof.obj
 0001:000813e0       ??$parse_floating_point@V?$c_string_character_source@D@__crt_strtox@@M@__crt_strtox@@YA?AW4SLD_STATUS@@QAU__crt_locale_pointers@@V?$c_string_character_source@D@0@QAM@Z 100823e0 f i libucrt:atof.obj
 0001:00081456       ??$parse_floating_point@V?$c_string_character_source@D@__crt_strtox@@N@__crt_strtox@@YA?AW4SLD_STATUS@@QAU__crt_locale_pointers@@V?$c_string_character_source@D@0@QAN@Z 10082456 f i libucrt:atof.obj
 0001:000814cc       ??$parse_floating_point@V?$c_string_character_source@_W@__crt_strtox@@N@__crt_strtox@@YA?AW4SLD_STATUS@@QAU__crt_locale_pointers@@V?$c_string_character_source@_W@0@QAN@Z 100824cc f i libucrt:atof.obj
 0001:00081542       ??$parse_floating_point_from_source@V?$c_string_character_source@D@__crt_strtox@@@__crt_strtox@@YA?AW4floating_point_parse_result@0@QAU__crt_locale_pointers@@AAV?$c_string_character_source@D@0@AAUfloating_point_string@0@@Z 10082542 f i libucrt:atof.obj
 0001:0008191a       ??$parse_floating_point_from_source@V?$c_string_character_source@_W@__crt_strtox@@@__crt_strtox@@YA?AW4floating_point_parse_result@0@QAU__crt_locale_pointers@@AAV?$c_string_character_source@_W@0@AAUfloating_point_string@0@@Z 1008291a f i libucrt:atof.obj
 0001:00082742       ??$parse_floating_point_possible_infinity@DV?$c_string_character_source@D@__crt_strtox@@PBD@__crt_strtox@@YA?AW4floating_point_parse_result@0@AADAAV?$c_string_character_source@D@0@PBD@Z 10083742 f i libucrt:atof.obj
 0001:000827dc       ??$parse_floating_point_possible_infinity@_WV?$c_string_character_source@_W@__crt_strtox@@PB_W@__crt_strtox@@YA?AW4floating_point_parse_result@0@AA_WAAV?$c_string_character_source@_W@0@PB_W@Z 100837dc f i libucrt:atof.obj
 0001:00082893       ??$parse_floating_point_possible_nan@DV?$c_string_character_source@D@__crt_strtox@@PBD@__crt_strtox@@YA?AW4floating_point_parse_result@0@AADAAV?$c_string_character_source@D@0@PBD@Z 10083893 f i libucrt:atof.obj
 0001:000829ae       ??$parse_floating_point_possible_nan@_WV?$c_string_character_source@_W@__crt_strtox@@PB_W@__crt_strtox@@YA?AW4floating_point_parse_result@0@AA_WAAV?$c_string_character_source@_W@0@PB_W@Z 100839ae f i libucrt:atof.obj
 0001:00082ad2       ??$parse_floating_point_possible_nan_is_ind@DV?$c_string_character_source@D@__crt_strtox@@@__crt_strtox@@YA_NAADAAV?$c_string_character_source@D@0@@Z 10083ad2 f i libucrt:atof.obj
 0001:00082b0e       ??$parse_floating_point_possible_nan_is_ind@_WV?$c_string_character_source@_W@__crt_strtox@@@__crt_strtox@@YA_NAA_WAAV?$c_string_character_source@_W@0@@Z 10083b0e f i libucrt:atof.obj
 0001:00082b53       ??$parse_floating_point_possible_nan_is_snan@DV?$c_string_character_source@D@__crt_strtox@@@__crt_strtox@@YA_NAADAAV?$c_string_character_source@D@0@@Z 10083b53 f i libucrt:atof.obj
 0001:00082b8f       ??$parse_floating_point_possible_nan_is_snan@_WV?$c_string_character_source@_W@__crt_strtox@@@__crt_strtox@@YA_NAA_WAAV?$c_string_character_source@_W@0@@Z 10083b8f f i libucrt:atof.obj
 0001:00082bd4       ??$parse_next_characters_from_source@DV?$c_string_character_source@D@__crt_strtox@@@__crt_strtox@@YA_NQBD0IAADAAV?$c_string_character_source@D@0@@Z 10083bd4 f i libucrt:atof.obj
 0001:00082c1d       ??$parse_next_characters_from_source@_WV?$c_string_character_source@_W@__crt_strtox@@@__crt_strtox@@YA_NQB_W0IAA_WAAV?$c_string_character_source@_W@0@@Z 10083c1d f i libucrt:atof.obj
 0001:00082d17       ??0?$c_string_character_source@D@__crt_strtox@@QAE@QBDQAPBD@Z 10083d17 f i libucrt:atof.obj
 0001:00082d33       ??0?$c_string_character_source@_W@__crt_strtox@@QAE@QB_WQAPB_W@Z 10083d33 f i libucrt:atof.obj
 0001:00082d4f       ??1?$c_string_character_source@D@__crt_strtox@@QAE@XZ 10083d4f f i libucrt:atof.obj
 0001:00082d5b       ??1?$c_string_character_source@_W@__crt_strtox@@QAE@XZ 10083d5b f i libucrt:atof.obj
 0001:00082e51       ?get@?$c_string_character_source@D@__crt_strtox@@QAEDXZ 10083e51 f i libucrt:atof.obj
 0001:00082e59       ?get@?$c_string_character_source@_W@__crt_strtox@@QAE_WXZ 10083e59 f i libucrt:atof.obj
 0001:00082e64       ?restore_state@?$c_string_character_source@D@__crt_strtox@@QAE_NQBD@Z 10083e64 f i libucrt:atof.obj
 0001:00082e74       ?restore_state@?$c_string_character_source@_W@__crt_strtox@@QAE_NQB_W@Z 10083e74 f i libucrt:atof.obj
 0001:00082e84       ?save_state@?$c_string_character_source@D@__crt_strtox@@QBEPBDXZ 10083e84 f i libucrt:atof.obj
 0001:00082e87       ?save_state@?$c_string_character_source@_W@__crt_strtox@@QBEPB_WXZ 10083e87 f i libucrt:atof.obj
 0001:00082e8a       ?unget@?$c_string_character_source@D@__crt_strtox@@QAEXD@Z 10083e8a f i libucrt:atof.obj
 0001:00082eb2       ?unget@?$c_string_character_source@_W@__crt_strtox@@QAEX_W@Z 10083eb2 f i libucrt:atof.obj
 0001:00082ede       ?validate@?$c_string_character_source@D@__crt_strtox@@QBE_NXZ 10083ede f i libucrt:atof.obj
 0001:00082ef9       ?validate@?$c_string_character_source@_W@__crt_strtox@@QBE_NXZ 10083ef9 f i libucrt:atof.obj
 0001:00082f14       __atodbl                   10083f14 f   libucrt:atof.obj
 0001:00082f2b       __atodbl_l                 10083f2b f   libucrt:atof.obj
 0001:00082f36       __atof_l                   10083f36 f   libucrt:atof.obj
 0001:00082f41       __atoflt                   10083f41 f   libucrt:atof.obj
 0001:00082f58       __atoflt_l                 10083f58 f   libucrt:atof.obj
 0001:00082f63       __wtof                     10083f63 f   libucrt:atof.obj
 0001:00082f76       __wtof_l                   10083f76 f   libucrt:atof.obj
 0001:00082f81       _atof                      10083f81 f   libucrt:atof.obj
 0001:00083015       ??$is_overflow_condition@K@__crt_strtox@@YA_NIK@Z 10084015 f i libucrt:atox.obj
 0001:00083046       ??$parse_integer@KV?$c_string_character_source@D@__crt_strtox@@@__crt_strtox@@YAKQAU__crt_locale_pointers@@V?$c_string_character_source@D@0@H_N@Z 10084046 f i libucrt:atox.obj
 0001:0008326f       ??$parse_integer@KV?$c_string_character_source@_W@__crt_strtox@@@__crt_strtox@@YAKQAU__crt_locale_pointers@@V?$c_string_character_source@_W@0@H_N@Z 1008426f f i libucrt:atox.obj
 0001:00083950       ??$parse_integer@_KV?$c_string_character_source@D@__crt_strtox@@@__crt_strtox@@YA_KQAU__crt_locale_pointers@@V?$c_string_character_source@D@0@H_N@Z 10084950 f i libucrt:atox.obj
 0001:00083bf6       ??$parse_integer@_KV?$c_string_character_source@_W@__crt_strtox@@@__crt_strtox@@YA_KQAU__crt_locale_pointers@@V?$c_string_character_source@_W@0@H_N@Z 10084bf6 f i libucrt:atox.obj
 0001:000841e9       ??$parse_integer_from_string@JD$$T@__crt_strtox@@YAJQBD$$THQAU__crt_locale_pointers@@@Z 100851e9 f i libucrt:atox.obj
 0001:00084216       ??$parse_integer_from_string@J_W$$T@__crt_strtox@@YAJQB_W$$THQAU__crt_locale_pointers@@@Z 10085216 f i libucrt:atox.obj
 0001:00084243       ??$parse_integer_from_string@_JD$$T@__crt_strtox@@YA_JQBD$$THQAU__crt_locale_pointers@@@Z 10085243 f i libucrt:atox.obj
 0001:00084270       ??$parse_integer_from_string@_J_W$$T@__crt_strtox@@YA_JQB_W$$THQAU__crt_locale_pointers@@@Z 10085270 f i libucrt:atox.obj
 0001:0008429d       ?maximum_signed_value@__crt_strtox@@YAJK@Z 1008529d f i libucrt:atox.obj
 0001:000842a3       ?minimum_signed_value@__crt_strtox@@YAJK@Z 100852a3 f i libucrt:atox.obj
 0001:000842a9       __atoi64                   100852a9 f   libucrt:atox.obj
 0001:000842d3       __atoi64_l                 100852d3 f   libucrt:atox.obj
 0001:000842fe       __atoi_l                   100852fe f   libucrt:atox.obj
 0001:00084329       __atol_l                   10085329 f   libucrt:atox.obj
 0001:00084354       __atoll_l                  10085354 f   libucrt:atox.obj
 0001:0008437f       __wtoi                     1008537f f   libucrt:atox.obj
 0001:000843a9       __wtoi64                   100853a9 f   libucrt:atox.obj
 0001:000843d3       __wtoi64_l                 100853d3 f   libucrt:atox.obj
 0001:000843fe       __wtoi_l                   100853fe f   libucrt:atox.obj
 0001:00084429       __wtol                     10085429 f   libucrt:atox.obj
 0001:00084453       __wtol_l                   10085453 f   libucrt:atox.obj
 0001:0008447e       __wtoll                    1008547e f   libucrt:atox.obj
 0001:000844a8       __wtoll_l                  100854a8 f   libucrt:atox.obj
 0001:000844d3       _atoi                      100854d3 f   libucrt:atox.obj
 0001:000844fd       _atol                      100854fd f   libucrt:atox.obj
 0001:00084527       _atoll                     10085527 f   libucrt:atox.obj
 0001:0008479d       ??0__crt_stdio_stream@@QAE@QAU__crt_stdio_stream_data@@@Z 1008579d f i libucrt:fflush.obj
 0001:00084947       ?has_all_of@__crt_stdio_stream@@QBE_NJ@Z 10085947 f i libucrt:fflush.obj
 0001:000849ac       ?unset_flags@__crt_stdio_stream@@QBE_NJ@Z 100859ac f i libucrt:fflush.obj
 0001:000849d5       ___acrt_stdio_flush_nolock 100859d5 f   libucrt:fflush.obj
 0001:00084a38       __fflush_nolock            10085a38 f   libucrt:fflush.obj
 0001:00084a7f       __flushall                 10085a7f f   libucrt:fflush.obj
 0001:00084a88       _fflush                    10085a88 f   libucrt:fflush.obj
 0001:00084c59       _fgets                     10085c59 f   libucrt:fgets.obj
 0001:00084c64       _fgetws                    10085c64 f   libucrt:fgets.obj
 0001:00084c6f       ?LongLongSub@@YAJ_J0PA_J@Z 10085c6f f i libucrt:fseek.obj
 0001:00084f23       ?lowio_handle@__crt_stdio_stream@@QBEHXZ 10085f23 f i libucrt:fseek.obj
 0001:00084f29       __fseek_nolock             10085f29 f   libucrt:fseek.obj
 0001:00084f44       __fseeki64                 10085f44 f   libucrt:fseek.obj
 0001:00084f5f       __fseeki64_nolock          10085f5f f   libucrt:fseek.obj
 0001:00084f7a       _fseek                     10085f7a f   libucrt:fseek.obj
 0001:00085661       ?ctrl_z@__crt_stdio_stream@@QBE_NXZ 10086661 f i libucrt:ftell.obj
 0001:0008566d       ?has_crt_buffer@__crt_stdio_stream@@QBE_NXZ 1008666d f i libucrt:ftell.obj
 0001:00085679       ?has_setvbuf_buffer@__crt_stdio_stream@@QBE_NXZ 10086679 f i libucrt:ftell.obj
 0001:00085685       __ftell_nolock             10086685 f   libucrt:ftell.obj
 0001:00085690       __ftelli64                 10086690 f   libucrt:ftell.obj
 0001:0008569b       __ftelli64_nolock          1008669b f   libucrt:ftell.obj
 0001:000856a6       _ftell                     100866a6 f   libucrt:ftell.obj
 0001:000857f5       ??$?R_W@__crt_public_free_policy@@QBEXQB_W@Z 100867f5 f i libucrt:stat.obj
 0001:000869a4       ??$loctotime@AAGAAGAAGAAGAAGAAGH@?$__crt_integer_traits@J@@SAJAAG00000$$QAH@Z 100879a4 f i libucrt:stat.obj
 0001:000869e2       ??$loctotime@AAGAAGAAGAAGAAGAAGH@?$__crt_integer_traits@_J@@SA_JAAG00000$$QAH@Z 100879e2 f i libucrt:stat.obj
 0001:00086a20       ??$loctotime@HHHHHHH@?$__crt_integer_traits@J@@SAJ$$QAH000000@Z 10087a20 f i libucrt:stat.obj
 0001:00086a52       ??$loctotime@HHHHHHH@?$__crt_integer_traits@_J@@SA_J$$QAH000000@Z 10087a52 f i libucrt:stat.obj
 0001:00086b6c       ??0?$__crt_unique_handle_t@U__crt_handle_traits@@@@QAE@QAX@Z 10087b6c f i libucrt:stat.obj
 0001:00086b7c       ??0?$__crt_unique_heap_ptr@_WU__crt_public_free_policy@@@@QAE@QA_W@Z 10087b7c f i libucrt:stat.obj
 0001:00086b8c       ??1?$__crt_unique_handle_t@U__crt_handle_traits@@@@QAE@XZ 10087b8c f i libucrt:stat.obj
 0001:00086ba3       ??1?$__crt_unique_heap_ptr@_WU__crt_public_free_policy@@@@QAE@XZ 10087ba3 f i libucrt:stat.obj
 0001:00086bb5       ??B?$__crt_unique_handle_t@U__crt_handle_traits@@@@QBE_NXZ 10087bb5 f i libucrt:stat.obj
 0001:00086e4b       ?close@?$__crt_unique_handle_t@U__crt_handle_traits@@@@QAEXXZ 10087e4b f i libucrt:stat.obj
 0001:00086e62       ?close@__crt_handle_traits@@SA_NPAX@Z 10087e62 f i libucrt:stat.obj
 0001:00086f50       ?get@?$__crt_unique_handle_t@U__crt_handle_traits@@@@QBEPAXXZ 10087f50 f i libucrt:stat.obj
 0001:00086f53       ?get_address_of@?$__crt_unique_heap_ptr@_WU__crt_internal_free_policy@@@@QAEPAPA_WXZ 10087f53 f i libucrt:stat.obj
 0001:00086f56       ?get_address_of@?$__crt_unique_heap_ptr@_WU__crt_public_free_policy@@@@QAEPAPA_WXZ 10087f56 f i libucrt:stat.obj
 0001:00086fc6       ?get_invalid_value@__crt_handle_traits@@SAPAXXZ 10087fc6 f i libucrt:stat.obj
 0001:0008721f       ?is_valid@?$__crt_unique_handle_t@U__crt_handle_traits@@@@QBE_NXZ 1008821f f i libucrt:stat.obj
 0001:00087226       ?release@?$__crt_unique_heap_ptr@_WU__crt_public_free_policy@@@@QAEXXZ 10088226 f i libucrt:stat.obj
 0001:00087238       __fstat32                  10088238 f   libucrt:stat.obj
 0001:00087243       __fstat32i64               10088243 f   libucrt:stat.obj
 0001:0008724e       __fstat64                  1008824e f   libucrt:stat.obj
 0001:00087259       __fstat64i32               10088259 f   libucrt:stat.obj
 0001:00087264       __stat32                   10088264 f   libucrt:stat.obj
 0001:000872c4       __stat32i64                100882c4 f   libucrt:stat.obj
 0001:00087324       __stat64                   10088324 f   libucrt:stat.obj
 0001:00087384       __stat64i32                10088384 f   libucrt:stat.obj
 0001:000873e4       __wstat32                  100883e4 f   libucrt:stat.obj
 0001:000873ef       __wstat32i64               100883ef f   libucrt:stat.obj
 0001:000873fa       __wstat64                  100883fa f   libucrt:stat.obj
 0001:00087405       __wstat64i32               10088405 f   libucrt:stat.obj
 0001:00087426       ___isascii                 10088426 f i libucrt:_ctype.obj
 0001:00087438       ___iscsym                  10088438 f i libucrt:_ctype.obj
 0001:0008745a       ___iscsymf                 1008845a f i libucrt:_ctype.obj
 0001:00087479       ___toascii                 10088479 f i libucrt:_ctype.obj
 0001:00087486       __isalnum_l                10088486 f i libucrt:_ctype.obj
 0001:000874c1       __isalpha_l                100884c1 f i libucrt:_ctype.obj
 0001:000874fc       __isblank_l                100884fc f i libucrt:_ctype.obj
 0001:0008753f       __iscntrl_l                1008853f f i libucrt:_ctype.obj
 0001:00087577       __iscsym_l                 10088577 f i libucrt:_ctype.obj
 0001:0008759a       __iscsymf_l                1008859a f i libucrt:_ctype.obj
 0001:000875bd       __isdigit_l                100885bd f i libucrt:_ctype.obj
 0001:000875f5       __isgraph_l                100885f5 f i libucrt:_ctype.obj
 0001:00087630       __islower_l                10088630 f i libucrt:_ctype.obj
 0001:00087668       __isprint_l                10088668 f i libucrt:_ctype.obj
 0001:000876a3       __ispunct_l                100886a3 f i libucrt:_ctype.obj
 0001:000876db       __isspace_l                100886db f i libucrt:_ctype.obj
 0001:00087713       __isupper_l                10088713 f i libucrt:_ctype.obj
 0001:0008774b       __isxdigit_l               1008874b f i libucrt:_ctype.obj
 0001:00087786       _isalnum                   10088786 f i libucrt:_ctype.obj
 0001:000877b5       _isalpha                   100887b5 f i libucrt:_ctype.obj
 0001:000877e4       _isblank                   100887e4 f i libucrt:_ctype.obj
 0001:0008781b       _iscntrl                   1008881b f i libucrt:_ctype.obj
 0001:00087848       _isdigit                   10088848 f i libucrt:_ctype.obj
 0001:00087875       _isgraph                   10088875 f i libucrt:_ctype.obj
 0001:000878a4       _islower                   100888a4 f i libucrt:_ctype.obj
 0001:000878d1       _isprint                   100888d1 f i libucrt:_ctype.obj
 0001:00087900       _ispunct                   10088900 f i libucrt:_ctype.obj
 0001:0008792d       _isspace                   1008892d f i libucrt:_ctype.obj
 0001:0008795a       _isupper                   1008895a f i libucrt:_ctype.obj
 0001:00087987       _isxdigit                  10088987 f i libucrt:_ctype.obj
 0001:00087cb6       __tolower                  10088cb6 f   libucrt:tolower_toupper.obj
 0001:00087cc3       __tolower_l                10088cc3 f   libucrt:tolower_toupper.obj
 0001:00087cdd       __toupper                  10088cdd f   libucrt:tolower_toupper.obj
 0001:00087cea       __toupper_l                10088cea f   libucrt:tolower_toupper.obj
 0001:00087d04       _tolower                   10088d04 f   libucrt:tolower_toupper.obj
 0001:00087d34       _toupper                   10088d34 f   libucrt:tolower_toupper.obj
 0001:00087d64       _strtok                    10088d64 f   libucrt:strtok.obj
 0001:00087d82       _realloc                   10088d82 f   libucrt:realloc.obj
 0001:00087d90       __libm_sse2_exp_precise    10088d90 f   libucrt:exp_sse2_precise.obj
 0001:00088070       __libm_sse2_acos_precise   10089070 f   libucrt:acos_sse2_precise.obj
 0001:00088590       ??$?B$$A6AHI@Z@__crt_fast_encoded_nullptr_t@@QBEP6AHI@ZXZ 10089590 f i libucrt:new_handler.obj
 0001:000885a8       ??$__crt_fast_decode_pointer@P6AHI@Z@@YAP6AHI@ZQ6AHI@Z@Z 100895a8 f i libucrt:new_handler.obj
 0001:000885be       ??$__crt_fast_encode_pointer@P6AHI@Z@@YAP6AHI@ZQ6AHI@Z@Z 100895be f i libucrt:new_handler.obj
 0001:000885dd       ?_set_new_handler@@YAP6AHI@ZH@Z 100895dd f   libucrt:new_handler.obj
 0001:000885fc       ?initialize@?$dual_state_global@P6AHI@Z@__crt_state_management@@QAEXQ6AHI@Z@Z 100895fc f i libucrt:new_handler.obj
 0001:0008862d       ?value@?$dual_state_global@P6AHI@Z@__crt_state_management@@QAEAAP6AHI@ZXZ 1008962d f i libucrt:new_handler.obj
 0001:00088630       ___acrt_initialize_new_handler 10089630 f   libucrt:new_handler.obj
 0001:00088644       __callnewh                 10089644 f   libucrt:new_handler.obj
 0001:00088688       __query_new_handler        10089688 f   libucrt:new_handler.obj
 0001:000886da       __set_new_handler          100896da f   libucrt:new_handler.obj
 0001:00088750       __get_terminate            10089750 f   libucrt:terminate.obj
 0001:00088762       _set_terminate             10089762 f   libucrt:terminate.obj
 0001:00088782       _terminate                 10089782 f   libucrt:terminate.obj
 0001:000887e2       __seh_filter_dll           100897e2 f   libucrt:exception_filter.obj
 0001:00088802       __seh_filter_exe           10089802 f   libucrt:exception_filter.obj
 0001:00088975       ??$?RPAD@__crt_internal_free_policy@@QBEXQBQAD@Z 10089975 f i libucrt:argv_parsing.obj
 0001:00088987       ??$?RPA_W@__crt_internal_free_policy@@QBEXQBQA_W@Z 10089987 f i libucrt:argv_parsing.obj
 0001:00088c00       ??$get_module_file_name@$$TAAY0BAF@DH@?$__crt_char_traits@D@@SAK$$QA$$TAAY0BAF@D$$QAH@Z 10089c00 f i libucrt:argv_parsing.obj
 0001:00088c1a       ??$get_module_file_name@$$TAAY0BAF@_WH@?$__crt_char_traits@_W@@SAK$$QA$$TAAY0BAF@_W$$QAH@Z 10089c1a f i libucrt:argv_parsing.obj
 0001:00088f2f       ??$set_program_name@PAD@?$__crt_char_traits@D@@SAX$$QAPAD@Z 10089f2f f i libucrt:argv_parsing.obj
 0001:00088f40       ??$set_program_name@PA_W@?$__crt_char_traits@_W@@SAX$$QAPA_W@Z 10089f40 f i libucrt:argv_parsing.obj
 0001:00088f71       ??0?$__crt_unique_heap_ptr@PADU__crt_internal_free_policy@@@@QAE@QAPAD@Z 10089f71 f i libucrt:argv_parsing.obj
 0001:00088f81       ??0?$__crt_unique_heap_ptr@PA_WU__crt_internal_free_policy@@@@QAE@QAPA_W@Z 10089f81 f i libucrt:argv_parsing.obj
 0001:00088f91       ??1?$__crt_unique_heap_ptr@PADU__crt_internal_free_policy@@@@QAE@XZ 10089f91 f i libucrt:argv_parsing.obj
 0001:00088fa3       ??1?$__crt_unique_heap_ptr@PA_WU__crt_internal_free_policy@@@@QAE@XZ 10089fa3 f i libucrt:argv_parsing.obj
 0001:00088fe1       ?detach@?$__crt_unique_heap_ptr@EU__crt_internal_free_policy@@@@QAEPAEXZ 10089fe1 f i libucrt:argv_parsing.obj
 0001:00088fe7       ?detach@?$__crt_unique_heap_ptr@PADU__crt_internal_free_policy@@@@QAEPAPADXZ 10089fe7 f i libucrt:argv_parsing.obj
 0001:00088fed       ?detach@?$__crt_unique_heap_ptr@PA_WU__crt_internal_free_policy@@@@QAEPAPA_WXZ 10089fed f i libucrt:argv_parsing.obj
 0001:0008900f       ?get@?$__crt_unique_heap_ptr@PADU__crt_internal_free_policy@@@@QBEPAPADXZ 1008a00f f i libucrt:argv_parsing.obj
 0001:00089012       ?get@?$__crt_unique_heap_ptr@PA_WU__crt_internal_free_policy@@@@QBEPAPA_WXZ 1008a012 f i libucrt:argv_parsing.obj
 0001:00089015       ?get_address_of@?$__crt_unique_heap_ptr@PADU__crt_internal_free_policy@@@@QAEPAPAPADXZ 1008a015 f i libucrt:argv_parsing.obj
 0001:00089018       ?get_address_of@?$__crt_unique_heap_ptr@PA_WU__crt_internal_free_policy@@@@QAEPAPAPA_WXZ 1008a018 f i libucrt:argv_parsing.obj
 0001:00089033       ?release@?$__crt_unique_heap_ptr@PADU__crt_internal_free_policy@@@@QAEXXZ 1008a033 f i libucrt:argv_parsing.obj
 0001:00089045       ?release@?$__crt_unique_heap_ptr@PA_WU__crt_internal_free_policy@@@@QAEXXZ 1008a045 f i libucrt:argv_parsing.obj
 0001:00089072       ___acrt_allocate_buffer_for_argv 1008a072 f   libucrt:argv_parsing.obj
 0001:000890c1       __configure_narrow_argv    1008a0c1 f   libucrt:argv_parsing.obj
 0001:000890cc       __configure_wide_argv      1008a0cc f   libucrt:argv_parsing.obj
 0001:000890d7       __set_pgmptr               1008a0d7 f i libucrt:argv_parsing.obj
 0001:000890e6       __set_wpgmptr              1008a0e6 f i libucrt:argv_parsing.obj
 0001:000894c6       ??$get_environment_from_os@$$V@?$__crt_char_traits@D@@SAPADXZ 1008a4c6 f i libucrt:environment_initialization.obj
 0001:000894cb       ??$get_environment_from_os@$$V@?$__crt_char_traits@_W@@SAPA_WXZ 1008a4cb f i libucrt:environment_initialization.obj
 0001:000895c8       ??$set_variable_in_environment_nolock@PADH@?$__crt_char_traits@D@@SAH$$QAPAD$$QAH@Z 1008a5c8 f i libucrt:environment_initialization.obj
 0001:000895e0       ??$set_variable_in_environment_nolock@PA_WH@?$__crt_char_traits@_W@@SAH$$QAPA_W$$QAH@Z 1008a5e0 f i libucrt:environment_initialization.obj
 0001:000895f8       ??$tcscpy_s@PADABIAAPAD@?$__crt_char_traits@D@@SAH$$QAPADABIAAPAD@Z 1008a5f8 f i libucrt:environment_initialization.obj
 0001:00089616       ??$tcscpy_s@PA_WABIAAPA_W@?$__crt_char_traits@_W@@SAH$$QAPA_WABIAAPA_W@Z 1008a616 f i libucrt:environment_initialization.obj
 0001:00089634       ??$tcslen@AAPAD@?$__crt_char_traits@D@@SAIAAPAD@Z 1008a634 f i libucrt:environment_initialization.obj
 0001:0008964c       ??$tcslen@AAPA_W@?$__crt_char_traits@_W@@SAIAAPA_W@Z 1008a64c f i libucrt:environment_initialization.obj
 0001:0008966a       ??$uninitialize@A6AXAAPAPAD@Z@?$dual_state_global@PAPAD@__crt_state_management@@QAEXA6AXAAPAPAD@Z@Z 1008a66a f i libucrt:environment_initialization.obj
 0001:000896aa       ??$uninitialize@A6AXAAPAPA_W@Z@?$dual_state_global@PAPA_W@__crt_state_management@@QAEXA6AXAAPAPA_W@Z@Z 1008a6aa f i libucrt:environment_initialization.obj
 0001:00089720       ??B?$__crt_unique_heap_ptr@PADU__crt_internal_free_policy@@@@QBE_NXZ 1008a720 f i libucrt:environment_initialization.obj
 0001:00089727       ??B?$__crt_unique_heap_ptr@PA_WU__crt_internal_free_policy@@@@QBE_NXZ 1008a727 f i libucrt:environment_initialization.obj
 0001:0008972e       ??B?$__crt_unique_heap_ptr@_WU__crt_internal_free_policy@@@@QBE_NXZ 1008a72e f i libucrt:environment_initialization.obj
 0001:00089735       ?__crt_compute_required_transform_buffer_count@@YAIIQBD@Z 1008a735 f i libucrt:environment_initialization.obj
 0001:0008974f       ?__crt_compute_required_transform_buffer_count@@YAIIQB_W@Z 1008a74f f i libucrt:environment_initialization.obj
 0001:0008976b       ?__crt_transform_string@@YAIIQBDQA_WI@Z 1008a76b f i libucrt:environment_initialization.obj
 0001:00089788       ?__crt_transform_string@@YAIIQB_WQADI@Z 1008a788 f i libucrt:environment_initialization.obj
 0001:000897a8       ?detach@?$__crt_unique_heap_ptr@_WU__crt_internal_free_policy@@@@QAEPA_WXZ 1008a7a8 f i libucrt:environment_initialization.obj
 0001:000897d2       ?initialize@?$dual_state_global@PAPAD@__crt_state_management@@QAEXQAPAD@Z 1008a7d2 f i libucrt:environment_initialization.obj
 0001:00089803       ?initialize@?$dual_state_global@PAPA_W@__crt_state_management@@QAEXQAPA_W@Z 1008a803 f i libucrt:environment_initialization.obj
 0001:00089834       ?is_valid@?$__crt_unique_heap_ptr@PADU__crt_internal_free_policy@@@@QBE_NXZ 1008a834 f i libucrt:environment_initialization.obj
 0001:0008983b       ?is_valid@?$__crt_unique_heap_ptr@PA_WU__crt_internal_free_policy@@@@QBE_NXZ 1008a83b f i libucrt:environment_initialization.obj
 0001:00089842       ?is_valid@?$__crt_unique_heap_ptr@_WU__crt_internal_free_policy@@@@QBE_NXZ 1008a842 f i libucrt:environment_initialization.obj
 0001:0008984f       ?value@?$dual_state_global@PAPAD@__crt_state_management@@QAEAAPAPADXZ 1008a84f f i libucrt:environment_initialization.obj
 0001:00089852       ?value@?$dual_state_global@PAPA_W@__crt_state_management@@QAEAAPAPA_WXZ 1008a852 f i libucrt:environment_initialization.obj
 0001:00089855       ___dcrt_get_or_create_narrow_environment_nolock 1008a855 f   libucrt:environment_initialization.obj
 0001:0008985a       ___dcrt_get_or_create_wide_environment_nolock 1008a85a f   libucrt:environment_initialization.obj
 0001:0008985f       ___dcrt_uninitialize_environments_nolock 1008a85f f   libucrt:environment_initialization.obj
 0001:00089896       ___p__environ              1008a896 f   libucrt:environment_initialization.obj
 0001:0008989c       ___p__wenviron             1008a89c f   libucrt:environment_initialization.obj
 0001:000898a2       __get_initial_narrow_environment 1008a8a2 f   libucrt:environment_initialization.obj
 0001:000898b6       __get_initial_wide_environment 1008a8b6 f   libucrt:environment_initialization.obj
 0001:000898ca       __initialize_narrow_environment 1008a8ca f   libucrt:environment_initialization.obj
 0001:000898cf       __initialize_wide_environment 1008a8cf f   libucrt:environment_initialization.obj
 0001:000898d4       ??$?BP6AXXZ@__crt_fast_encoded_nullptr_t@@QBEPAP6AXXZXZ 1008a8d4 f i libucrt:onexit.obj
 0001:000898ec       ??$?RP6AXXZ@__crt_internal_free_policy@@QBEXQBQ6AXXZ@Z 1008a8ec f i libucrt:onexit.obj
 0001:000899f0       ??$__crt_fast_encode_pointer@P6AHXZ@@YAP6AHXZQ6AHXZ@Z 1008a9f0 f i libucrt:onexit.obj
 0001:00089a7d       ??0?$__crt_unique_heap_ptr@P6AXXZU__crt_internal_free_policy@@@@QAE@QAP6AXXZ@Z 1008aa7d f i libucrt:onexit.obj
 0001:00089a8d       ??1?$__crt_unique_heap_ptr@P6AXXZU__crt_internal_free_policy@@@@QAE@XZ 1008aa8d f i libucrt:onexit.obj
 0001:00089a9f       ??1scoped_global_state_reset@__crt_state_management@@QAE@XZ 1008aa9f f i libucrt:onexit.obj
 0001:00089d23       ?detach@?$__crt_unique_heap_ptr@P6AXXZU__crt_internal_free_policy@@@@QAEPAP6AXXZXZ 1008ad23 f i libucrt:onexit.obj
 0001:00089d29       ?release@?$__crt_unique_heap_ptr@P6AXXZU__crt_internal_free_policy@@@@QAEXXZ 1008ad29 f i libucrt:onexit.obj
 0001:00089d3b       __crt_at_quick_exit        1008ad3b f   libucrt:onexit.obj
 0001:00089d51       __crt_atexit               1008ad51 f   libucrt:onexit.obj
 0001:00089d67       __execute_onexit_table     1008ad67 f   libucrt:onexit.obj
 0001:00089d96       __initialize_onexit_table  1008ad96 f   libucrt:onexit.obj
 0001:00089dd3       __register_onexit_function 1008add3 f   libucrt:onexit.obj
 0001:00089f47       ?initialize@?$dual_state_global@PAU__crt_locale_data@@@__crt_state_management@@QAEXQAU__crt_locale_data@@@Z 1008af47 f i libucrt:initialization.obj
 0001:00089f78       ___acrt_initialize         1008af78 f   libucrt:initialization.obj
 0001:00089f8a       ___acrt_thread_attach      1008af8a f   libucrt:initialization.obj
 0001:00089f95       ___acrt_thread_detach      1008af95 f   libucrt:initialization.obj
 0001:00089f9d       ___acrt_uninitialize       1008af9d f   libucrt:initialization.obj
 0001:00089faf       ___acrt_uninitialize_critical 1008afaf f   libucrt:initialization.obj
 0001:00089fc4       __initterm                 1008afc4 f   libucrt:initterm.obj
 0001:0008a020       __initterm_e               1008b020 f   libucrt:initterm.obj
 0001:0008a065       ___ascii_stricmp           1008b065 f   libucrt:stricmp.obj
 0001:0008a0a0       _strcmpi                   1008b0a0 f   libucrt:stricmp.obj
 0001:0008a0a0       __stricmp                  1008b0a0 f   libucrt:stricmp.obj
 0001:0008a0e9       __stricmp_l                1008b0e9 f   libucrt:stricmp.obj
 0001:0008a183       __strdup                   1008b183 f   libucrt:strdup.obj
 0001:0008a183       _strdup                    1008b183 f   libucrt:strdup.obj
 0001:0008a1d9       __set_abort_behavior       1008b1d9 f   libucrt:abort.obj
 0001:0008a1fa       _abort                     1008b1fa f   libucrt:abort.obj
 0001:0008a298       _strcpy_s                  1008b298 f   libucrt:strcpy_s.obj
 0001:0008a2f2       _wcsncmp                   1008b2f2 f   libucrt:wcsncmp.obj
 0001:0008a32c       ??$__crt_interlocked_exchange_pointer@X$$T@@YAPAXPDSAX$$T@Z 1008b32c f i libucrt:free_base.obj
 0001:0008a341       ___acrt_get_msvcrt_heap_handle 1008b341 f   libucrt:free_base.obj
 0001:0008a3b5       __free_base                1008b3b5 f   libucrt:free_base.obj
 0001:0008a3ef       __malloc_base              1008b3ef f   libucrt:malloc_base.obj
 0001:0008a43d       __calloc_base              1008b43d f   libucrt:calloc_base.obj
 0001:0008a49a       ___acrt_errno_from_os_error 1008b49a f   libucrt:errno.obj
 0001:0008a4dd       ___acrt_errno_map_os_error 1008b4dd f   libucrt:errno.obj
 0001:0008a500       ___doserrno                1008b500 f   libucrt:errno.obj
 0001:0008a513       __errno                    1008b513 f   libucrt:errno.obj
 0001:0008a526       __get_doserrno             1008b526 f   libucrt:errno.obj
 0001:0008a54b       __get_errno                1008b54b f   libucrt:errno.obj
 0001:0008a570       __set_doserrno             1008b570 f   libucrt:errno.obj
 0001:0008a591       __set_errno                1008b591 f   libucrt:errno.obj
 0001:0008a5b2       __fileno                   1008b5b2 f   libucrt:fileno.obj
 0001:0008aaf1       __read                     1008baf1 f   libucrt:read.obj
 0001:0008abfb       __read_nolock              1008bbfb f   libucrt:read.obj
 0001:0008b3a0       ___acrt_stdio_refill_and_read_narrow_nolock 1008c3a0 f   libucrt:_filbuf.obj
 0001:0008b3ab       ___acrt_stdio_refill_and_read_wide_nolock 1008c3ab f   libucrt:_filbuf.obj
 0001:0008b9a5       __write                    1008c9a5 f   libucrt:write.obj
 0001:0008ba8d       __write_nolock             1008ca8d f   libucrt:write.obj
 0001:0008c061       ___acrt_stdio_flush_and_write_narrow_nolock 1008d061 f   libucrt:_flsbuf.obj
 0001:0008c06c       ___acrt_stdio_flush_and_write_wide_nolock 1008d06c f   libucrt:_flsbuf.obj
 0001:0008c077       ?has_temporary_buffer@__crt_stdio_stream@@QBE_NXZ 1008d077 f i libucrt:_sftbuf.obj
 0001:0008c083       ___acrt_stdio_begin_temporary_buffering_nolock 1008d083 f   libucrt:_sftbuf.obj
 0001:0008c138       ___acrt_stdio_end_temporary_buffering_nolock 1008d138 f   libucrt:_sftbuf.obj
 0001:0008c171       ??$make_c_string_character_source@DPAPAD@__crt_strtox@@YA?AV?$c_string_character_source@D@0@QBDQAPAD@Z 1008d171 f i libucrt:strtox.obj
 0001:0008c18c       ??$make_c_string_character_source@_WPAPA_W@__crt_strtox@@YA?AV?$c_string_character_source@_W@0@QB_WQAPA_W@Z 1008d18c f i libucrt:strtox.obj
 0001:0008c1a7       ??$parse_integer_from_string@JDPAPAD@__crt_strtox@@YAJQBDQAPADHQAU__crt_locale_pointers@@@Z 1008d1a7 f i libucrt:strtox.obj
 0001:0008c1d4       ??$parse_integer_from_string@J_WPAPA_W@__crt_strtox@@YAJQB_WQAPA_WHQAU__crt_locale_pointers@@@Z 1008d1d4 f i libucrt:strtox.obj
 0001:0008c201       ??$parse_integer_from_string@KDPAPAD@__crt_strtox@@YAKQBDQAPADHQAU__crt_locale_pointers@@@Z 1008d201 f i libucrt:strtox.obj
 0001:0008c22e       ??$parse_integer_from_string@K_WPAPA_W@__crt_strtox@@YAKQB_WQAPA_WHQAU__crt_locale_pointers@@@Z 1008d22e f i libucrt:strtox.obj
 0001:0008c25b       ??$parse_integer_from_string@_JDPAPAD@__crt_strtox@@YA_JQBDQAPADHQAU__crt_locale_pointers@@@Z 1008d25b f i libucrt:strtox.obj
 0001:0008c288       ??$parse_integer_from_string@_J_WPAPA_W@__crt_strtox@@YA_JQB_WQAPA_WHQAU__crt_locale_pointers@@@Z 1008d288 f i libucrt:strtox.obj
 0001:0008c2b5       ??$parse_integer_from_string@_KDPAPAD@__crt_strtox@@YA_KQBDQAPADHQAU__crt_locale_pointers@@@Z 1008d2b5 f i libucrt:strtox.obj
 0001:0008c2e2       ??$parse_integer_from_string@_K_WPAPA_W@__crt_strtox@@YA_KQB_WQAPA_WHQAU__crt_locale_pointers@@@Z 1008d2e2 f i libucrt:strtox.obj
 0001:0008c30f       __strtoi64                 1008d30f f   libucrt:strtox.obj
 0001:0008c33b       __strtoi64_l               1008d33b f   libucrt:strtox.obj
 0001:0008c368       __strtoimax_l              1008d368 f   libucrt:strtox.obj
 0001:0008c395       __strtol_l                 1008d395 f   libucrt:strtox.obj
 0001:0008c3c2       __strtoll_l                1008d3c2 f   libucrt:strtox.obj
 0001:0008c3ef       __strtoui64                1008d3ef f   libucrt:strtox.obj
 0001:0008c41b       __strtoui64_l              1008d41b f   libucrt:strtox.obj
 0001:0008c448       __strtoul_l                1008d448 f   libucrt:strtox.obj
 0001:0008c475       __strtoull_l               1008d475 f   libucrt:strtox.obj
 0001:0008c4a2       __strtoumax_l              1008d4a2 f   libucrt:strtox.obj
 0001:0008c4cf       __wcstoi64                 1008d4cf f   libucrt:strtox.obj
 0001:0008c4fb       __wcstoi64_l               1008d4fb f   libucrt:strtox.obj
 0001:0008c528       __wcstoimax_l              1008d528 f   libucrt:strtox.obj
 0001:0008c555       __wcstol_l                 1008d555 f   libucrt:strtox.obj
 0001:0008c582       __wcstoll_l                1008d582 f   libucrt:strtox.obj
 0001:0008c5af       __wcstoui64                1008d5af f   libucrt:strtox.obj
 0001:0008c5db       __wcstoui64_l              1008d5db f   libucrt:strtox.obj
 0001:0008c608       __wcstoul_l                1008d608 f   libucrt:strtox.obj
 0001:0008c635       __wcstoull_l               1008d635 f   libucrt:strtox.obj
 0001:0008c662       __wcstoumax_l              1008d662 f   libucrt:strtox.obj
 0001:0008c68f       _strtoimax                 1008d68f f   libucrt:strtox.obj
 0001:0008c6bb       _strtol                    1008d6bb f   libucrt:strtox.obj
 0001:0008c6e7       _strtoll                   1008d6e7 f   libucrt:strtox.obj
 0001:0008c713       _strtoul                   1008d713 f   libucrt:strtox.obj
 0001:0008c73f       _strtoull                  1008d73f f   libucrt:strtox.obj
 0001:0008c76b       _strtoumax                 1008d76b f   libucrt:strtox.obj
 0001:0008c797       _wcstoimax                 1008d797 f   libucrt:strtox.obj
 0001:0008c7c3       _wcstol                    1008d7c3 f   libucrt:strtox.obj
 0001:0008c7ef       _wcstoll                   1008d7ef f   libucrt:strtox.obj
 0001:0008c81b       _wcstoul                   1008d81b f   libucrt:strtox.obj
 0001:0008c847       _wcstoull                  1008d847 f   libucrt:strtox.obj
 0001:0008c873       _wcstoumax                 1008d873 f   libucrt:strtox.obj
 0001:0008c89f       __mbtowc_l                 1008d89f f   libucrt:mbtowc.obj
 0001:0008c999       _mbtowc                    1008d999 f   libucrt:mbtowc.obj
 0001:0008c9b3       __wctomb_l                 1008d9b3 f   libucrt:wctomb.obj
 0001:0008ca06       __wctomb_s_l               1008da06 f   libucrt:wctomb.obj
 0001:0008cb27       _wctomb                    1008db27 f   libucrt:wctomb.obj
 0001:0008cb5b       _wctomb_s                  1008db5b f   libucrt:wctomb.obj
 0001:0008d363       ??1?$__crt_simd_cleanup_guard@$00@@QAE@XZ 1008e363 f i libucrt:strnlen.obj
 0001:0008d367       ??1?$__crt_simd_cleanup_guard@$0A@@@QAE@XZ 1008e367 f i libucrt:strnlen.obj
 0001:0008d368       ?compare_equals@?$__crt_simd_traits@$00E@@SA?AT__m256i@@T2@0@Z 1008e368 f i libucrt:strnlen.obj
 0001:0008d36d       ?compare_equals@?$__crt_simd_traits@$00G@@SA?AT__m256i@@T2@0@Z 1008e36d f i libucrt:strnlen.obj
 0001:0008d372       ?compare_equals@?$__crt_simd_traits@$0A@E@@SA?AT__m128i@@T2@0@Z 1008e372 f i libucrt:strnlen.obj
 0001:0008d377       ?compare_equals@?$__crt_simd_traits@$0A@G@@SA?AT__m128i@@T2@0@Z 1008e377 f i libucrt:strnlen.obj
 0001:0008d37c       ?compute_byte_mask@?$__crt_simd_pack_traits@$00@@SAHT__m256i@@@Z 1008e37c f i libucrt:strnlen.obj
 0001:0008d381       ?compute_byte_mask@?$__crt_simd_pack_traits@$0A@@@SAHT__m128i@@@Z 1008e381 f i libucrt:strnlen.obj
 0001:0008d386       ?get_zero_pack@?$__crt_simd_pack_traits@$00@@SA?AT__m256i@@XZ 1008e386 f i libucrt:strnlen.obj
 0001:0008d38b       ?get_zero_pack@?$__crt_simd_pack_traits@$0A@@@SA?AT__m128i@@XZ 1008e38b f i libucrt:strnlen.obj
 0001:0008d38f       _strnlen                   1008e38f f   libucrt:strnlen.obj
 0001:0008d4b1       _wcslen                    1008e4b1 f   libucrt:strnlen.obj
 0001:0008d5d9       _wcsnlen                   1008e5d9 f   libucrt:strnlen.obj
 0001:0008d784       ??$?RU__acrt_ptd@@@__crt_internal_free_policy@@QBEXQBU__acrt_ptd@@@Z 1008e784 f i libucrt:per_thread_data.obj
 0001:0008da50       ??0?$__crt_unique_heap_ptr@U__acrt_ptd@@U__crt_internal_free_policy@@@@QAE@QAU__acrt_ptd@@@Z 1008ea50 f i libucrt:per_thread_data.obj
 0001:0008da60       ??0__crt_scoped_get_last_error_reset@@QAE@XZ 1008ea60 f i libucrt:per_thread_data.obj
 0001:0008da71       ??1?$__crt_unique_heap_ptr@U__acrt_ptd@@U__crt_internal_free_policy@@@@QAE@XZ 1008ea71 f i libucrt:per_thread_data.obj
 0001:0008da83       ??1__crt_scoped_get_last_error_reset@@QAE@XZ 1008ea83 f i libucrt:per_thread_data.obj
 0001:0008da8c       ??B?$__crt_unique_heap_ptr@U__acrt_ptd@@U__crt_internal_free_policy@@@@QBE_NXZ 1008ea8c f i libucrt:per_thread_data.obj
 0001:0008dbdc       ?dangerous_get_state_array@?$dual_state_global@PAU__crt_locale_data@@@__crt_state_management@@QAEPAPAU__crt_locale_data@@XZ 1008ebdc f i libucrt:per_thread_data.obj
 0001:0008dcd4       ?detach@?$__crt_unique_heap_ptr@U__acrt_ptd@@U__crt_internal_free_policy@@@@QAEPAU__acrt_ptd@@XZ 1008ecd4 f i libucrt:per_thread_data.obj
 0001:0008dcda       ?get@?$__crt_unique_heap_ptr@U__acrt_ptd@@U__crt_internal_free_policy@@@@QBEPAU__acrt_ptd@@XZ 1008ecda f i libucrt:per_thread_data.obj
 0001:0008dcdd       ?get_current_state_index@__crt_state_management@@YAIABV__crt_scoped_get_last_error_reset@@@Z 1008ecdd f i libucrt:per_thread_data.obj
 0001:0008de11       ?is_valid@?$__crt_unique_heap_ptr@U__acrt_ptd@@U__crt_internal_free_policy@@@@QBE_NXZ 1008ee11 f i libucrt:per_thread_data.obj
 0001:0008de18       ?release@?$__crt_unique_heap_ptr@U__acrt_ptd@@U__crt_internal_free_policy@@@@QAEXXZ 1008ee18 f i libucrt:per_thread_data.obj
 0001:0008de89       ?value@?$dual_state_global@PAU__crt_locale_data@@@__crt_state_management@@QAEAAPAU__crt_locale_data@@XZ 1008ee89 f i libucrt:per_thread_data.obj
 0001:0008de8c       ___acrt_freeptd            1008ee8c f   libucrt:per_thread_data.obj
 0001:0008deb8       ___acrt_getptd             1008eeb8 f   libucrt:per_thread_data.obj
 0001:0008df6c       ___acrt_getptd_head        1008ef6c f   libucrt:per_thread_data.obj
 0001:0008e006       ___acrt_getptd_noexit      1008f006 f   libucrt:per_thread_data.obj
 0001:0008e0b9       ___acrt_initialize_ptd     1008f0b9 f   libucrt:per_thread_data.obj
 0001:0008e0e5       ___acrt_uninitialize_ptd   1008f0e5 f   libucrt:per_thread_data.obj
 0001:0008e0ff       ___threadhandle            1008f0ff f   libucrt:per_thread_data.obj
 0001:0008e105       ___threadid                1008f105 f   libucrt:per_thread_data.obj
 0001:0008e10b       ?value@?$dual_state_global@PAU__crt_multibyte_data@@@__crt_state_management@@QAEAAPAU__crt_multibyte_data@@XZ 1008f10b f i libucrt:locale_update.obj
 0001:0008e10e       ___acrt_update_locale_info 1008f10e f   libucrt:locale_update.obj
 0001:0008e13b       ___acrt_update_multibyte_info 1008f13b f   libucrt:locale_update.obj
 0001:0008e168       ?__acrt_fp_classify@@YA?AW4__acrt_fp_class@@ABN@Z 1008f168 f i libucrt:cvt.obj
 0001:0008e1ce       ?__acrt_fp_is_negative@@YA_NABN@Z 1008f1ce f i libucrt:cvt.obj
 0001:0008ea3c       ?strrchr@@YAPADQADH@Z      1008fa3c f i libucrt:cvt.obj
 0001:0008ea47       ___acrt_fp_format          1008fa47 f   libucrt:cvt.obj
 0001:0008ebc3       __fputwc_nolock            1008fbc3 f   libucrt:fputwc.obj
 0001:0008eced       __fputwchar                1008fced f   libucrt:fputwc.obj
 0001:0008ed07       __putwc_nolock             1008fd07 f   libucrt:fputwc.obj
 0001:0008ed12       _fputwc                    1008fd12 f   libucrt:fputwc.obj
 0001:0008ed86       _putwc                     1008fd86 f   libucrt:fputwc.obj
 0001:0008ed91       _putwchar                  1008fd91 f   libucrt:fputwc.obj
 0001:0008ed9c       __fputc_nolock             1008fd9c f   libucrt:fputc.obj
 0001:0008edc5       __fputchar                 1008fdc5 f   libucrt:fputc.obj
 0001:0008eddf       __putc_nolock              1008fddf f   libucrt:fputc.obj
 0001:0008edea       _fputc                     1008fdea f   libucrt:fputc.obj
 0001:0008eee7       _putc                      1008fee7 f   libucrt:fputc.obj
 0001:0008eef2       _putchar                   1008fef2 f   libucrt:fputc.obj
 0001:0008eefd       __get_printf_count_output  1008fefd f   libucrt:printf_count_output.obj
 0001:0008ef12       __set_printf_count_output  1008ff12 f   libucrt:printf_count_output.obj
 0001:0008ef3f       ??$?RU__crt_locale_data@@@__crt_internal_free_policy@@QBEXQBU__crt_locale_data@@@Z 1008ff3f f i libucrt:wsetlocale.obj
 0001:0008ef51       ??$?RU__crt_locale_pointers@@@__crt_internal_free_policy@@QBEXQBU__crt_locale_pointers@@@Z 1008ff51 f i libucrt:wsetlocale.obj
 0001:0008ef63       ??$?RU__crt_multibyte_data@@@__crt_internal_free_policy@@QBEXQBU__crt_multibyte_data@@@Z 1008ff63 f i libucrt:wsetlocale.obj
 0001:0008f1a5       ??$__vcrt_va_start_verify_argument_type@H@@YAXXZ 100901a5 f i libucrt:wsetlocale.obj
 0001:0008f2e5       ??0?$__crt_unique_heap_ptr@U__crt_locale_data@@U__crt_internal_free_policy@@@@QAE@QAU__crt_locale_data@@@Z 100902e5 f i libucrt:wsetlocale.obj
 0001:0008f2f5       ??0?$__crt_unique_heap_ptr@U__crt_locale_pointers@@U__crt_internal_free_policy@@@@QAE@QAU__crt_locale_pointers@@@Z 100902f5 f i libucrt:wsetlocale.obj
 0001:0008f305       ??0?$__crt_unique_heap_ptr@U__crt_multibyte_data@@U__crt_internal_free_policy@@@@QAE@QAU__crt_multibyte_data@@@Z 10090305 f i libucrt:wsetlocale.obj
 0001:0008f315       ??1?$__crt_unique_heap_ptr@U__crt_locale_data@@U__crt_internal_free_policy@@@@QAE@XZ 10090315 f i libucrt:wsetlocale.obj
 0001:0008f327       ??1?$__crt_unique_heap_ptr@U__crt_locale_pointers@@U__crt_internal_free_policy@@@@QAE@XZ 10090327 f i libucrt:wsetlocale.obj
 0001:0008f339       ??1?$__crt_unique_heap_ptr@U__crt_multibyte_data@@U__crt_internal_free_policy@@@@QAE@XZ 10090339 f i libucrt:wsetlocale.obj
 0001:0008f34b       ??B?$__crt_unique_heap_ptr@U__crt_locale_data@@U__crt_internal_free_policy@@@@QBE_NXZ 1009034b f i libucrt:wsetlocale.obj
 0001:0008f352       ??B?$__crt_unique_heap_ptr@U__crt_locale_pointers@@U__crt_internal_free_policy@@@@QBE_NXZ 10090352 f i libucrt:wsetlocale.obj
 0001:0008f359       ??B?$__crt_unique_heap_ptr@U__crt_multibyte_data@@U__crt_internal_free_policy@@@@QBE_NXZ 10090359 f i libucrt:wsetlocale.obj
 0001:0008f579       ?detach@?$__crt_unique_heap_ptr@U__crt_locale_data@@U__crt_internal_free_policy@@@@QAEPAU__crt_locale_data@@XZ 10090579 f i libucrt:wsetlocale.obj
 0001:0008f57f       ?detach@?$__crt_unique_heap_ptr@U__crt_locale_pointers@@U__crt_internal_free_policy@@@@QAEPAU__crt_locale_pointers@@XZ 1009057f f i libucrt:wsetlocale.obj
 0001:0008f585       ?detach@?$__crt_unique_heap_ptr@U__crt_multibyte_data@@U__crt_internal_free_policy@@@@QAEPAU__crt_multibyte_data@@XZ 10090585 f i libucrt:wsetlocale.obj
 0001:0008f58b       ?get@?$__crt_unique_heap_ptr@U__crt_locale_data@@U__crt_internal_free_policy@@@@QBEPAU__crt_locale_data@@XZ 1009058b f i libucrt:wsetlocale.obj
 0001:0008f58e       ?get@?$__crt_unique_heap_ptr@U__crt_locale_pointers@@U__crt_internal_free_policy@@@@QBEPAU__crt_locale_pointers@@XZ 1009058e f i libucrt:wsetlocale.obj
 0001:0008f591       ?get@?$__crt_unique_heap_ptr@U__crt_multibyte_data@@U__crt_internal_free_policy@@@@QBEPAU__crt_multibyte_data@@XZ 10090591 f i libucrt:wsetlocale.obj
 0001:0008f594       ?is_valid@?$__crt_unique_heap_ptr@U__crt_locale_data@@U__crt_internal_free_policy@@@@QBE_NXZ 10090594 f i libucrt:wsetlocale.obj
 0001:0008f59b       ?is_valid@?$__crt_unique_heap_ptr@U__crt_locale_pointers@@U__crt_internal_free_policy@@@@QBE_NXZ 1009059b f i libucrt:wsetlocale.obj
 0001:0008f5a2       ?is_valid@?$__crt_unique_heap_ptr@U__crt_multibyte_data@@U__crt_internal_free_policy@@@@QBE_NXZ 100905a2 f i libucrt:wsetlocale.obj
 0001:0008f5a9       ?release@?$__crt_unique_heap_ptr@U__crt_locale_data@@U__crt_internal_free_policy@@@@QAEXXZ 100905a9 f i libucrt:wsetlocale.obj
 0001:0008f5bb       ?release@?$__crt_unique_heap_ptr@U__crt_locale_pointers@@U__crt_internal_free_policy@@@@QAEXXZ 100905bb f i libucrt:wsetlocale.obj
 0001:0008f5cd       ?release@?$__crt_unique_heap_ptr@U__crt_multibyte_data@@U__crt_internal_free_policy@@@@QAEXXZ 100905cd f i libucrt:wsetlocale.obj
 0001:0008f5df       ___acrt_copy_locale_name   100905df f   libucrt:wsetlocale.obj
 0001:0008f645       ___acrt_set_locale_changed 10090645 f   libucrt:wsetlocale.obj
 0001:0008f650       ___acrt_uninitialize_locale 10090650 f   libucrt:wsetlocale.obj
 0001:0008f679       ___lc_lctowcs              10090679 f   libucrt:wsetlocale.obj
 0001:0008f6e9       ___lc_wcstolc              100906e9 f   libucrt:wsetlocale.obj
 0001:0008f818       __configthreadlocale       10090818 f   libucrt:wsetlocale.obj
 0001:0008f8a9       __create_locale            100908a9 f   libucrt:wsetlocale.obj
 0001:0008f90d       __expandlocale             1009090d f   libucrt:wsetlocale.obj
 0001:0008fc84       __free_locale              10090c84 f   libucrt:wsetlocale.obj
 0001:0008fd3c       __get_current_locale       10090d3c f   libucrt:wsetlocale.obj
 0001:0008fdd9       __wcreate_locale           10090dd9 f   libucrt:wsetlocale.obj
 0001:0008fee2       __wcscats                  10090ee2 f   libucrt:wsetlocale.obj
 0001:0008ff23       __wsetlocale               10090f23 f   libucrt:wsetlocale.obj
 0001:00090814       ___p___mb_cur_max          10091814 f   libucrt:nlsdata.obj
 0001:000909c7       ___acrt_initialize_lowio   100919c7 f   libucrt:ioinit.obj
 0001:00090a1d       ___acrt_uninitialize_lowio 10091a1d f   libucrt:ioinit.obj
 0001:00090a56       ??$?B$$A6GHPA_WKJ@Z@__crt_fast_encoded_nullptr_t@@QBEP6GHPA_WKJ@ZXZ 10091a56 f i libucrt:winapi_thunks.obj
 0001:00090b1a       ??$__crt_fast_decode_pointer@P6GHPA_WKJ@Z@@YAP6GHPA_WKJ@ZQ6GH0KJ@Z@Z 10091b1a f i libucrt:winapi_thunks.obj
 0001:00090b30       ??$__crt_fast_encode_pointer@P6GHPA_WKJ@Z@@YAP6GHPA_WKJ@ZQ6GH0KJ@Z@Z 10091b30 f i libucrt:winapi_thunks.obj
 0001:000911f6       _GetCurrentThreadEffectiveToken 100921f6 f i libucrt:winapi_thunks.obj
 0001:000911fa       ___acrt_AppPolicyGetProcessTerminationMethodInternal@4 100921fa f   libucrt:winapi_thunks.obj
 0001:00091251       ___acrt_AppPolicyGetShowDeveloperDiagnosticInternal@4 10092251 f   libucrt:winapi_thunks.obj
 0001:000912a8       ___acrt_AppPolicyGetThreadInitializationTypeInternal@4 100922a8 f   libucrt:winapi_thunks.obj
 0001:000912ff       ___acrt_AppPolicyGetWindowingModelInternal@4 100922ff f   libucrt:winapi_thunks.obj
 0001:00091356       ___acrt_AreFileApisANSI@0  10092356 f   libucrt:winapi_thunks.obj
 0001:00091390       ___acrt_CompareStringEx@36 10092390 f   libucrt:winapi_thunks.obj
 0001:00091404       ___acrt_EnumSystemLocalesEx@16 10092404 f   libucrt:winapi_thunks.obj
 0001:0009146e       ___acrt_FlsAlloc@4         1009246e f   libucrt:winapi_thunks.obj
 0001:000914c4       ___acrt_FlsFree@4          100924c4 f   libucrt:winapi_thunks.obj
 0001:0009151a       ___acrt_FlsGetValue@4      1009251a f   libucrt:winapi_thunks.obj
 0001:00091570       ___acrt_FlsSetValue@8      10092570 f   libucrt:winapi_thunks.obj
 0001:000915c9       ___acrt_GetDateFormatEx@28 100925c9 f   libucrt:winapi_thunks.obj
 0001:00091637       ___acrt_GetEnabledXStateFeatures@0 10092637 f   libucrt:winapi_thunks.obj
 0001:00091686       ___acrt_GetLocaleInfoEx@16 10092686 f   libucrt:winapi_thunks.obj
 0001:000916dc       ___acrt_GetSystemTimePreciseAsFileTime@4 100926dc f   libucrt:winapi_thunks.obj
 0001:00091732       ___acrt_GetTimeFormatEx@24 10092732 f   libucrt:winapi_thunks.obj
 0001:0009178e       ___acrt_GetUserDefaultLocaleName@8 1009278e f   libucrt:winapi_thunks.obj
 0001:000917e1       ___acrt_GetXStateFeaturesMask@8 100927e1 f   libucrt:winapi_thunks.obj
 0001:00091838       ___acrt_InitializeCriticalSectionEx@12 10092838 f   libucrt:winapi_thunks.obj
 0001:0009189a       ___acrt_IsValidLocaleName@4 1009289a f   libucrt:winapi_thunks.obj
 0001:000918e9       ___acrt_LCIDToLocaleName@16 100928e9 f   libucrt:winapi_thunks.obj
 0001:0009193f       ___acrt_LCMapStringEx@36   1009293f f   libucrt:winapi_thunks.obj
 0001:000919b3       ___acrt_LocaleNameToLCID@8 100929b3 f   libucrt:winapi_thunks.obj
 0001:000919fb       ___acrt_LocateXStateFeature@12 100929fb f   libucrt:winapi_thunks.obj
 0001:00091a41       ___acrt_MessageBoxA@16     10092a41 f   libucrt:winapi_thunks.obj
 0001:00091a8a       ___acrt_MessageBoxW@16     10092a8a f   libucrt:winapi_thunks.obj
 0001:00091ad3       ___acrt_RoInitialize@4     10092ad3 f   libucrt:winapi_thunks.obj
 0001:00091b25       ___acrt_RoUninitialize@0   10092b25 f   libucrt:winapi_thunks.obj
 0001:00091b6e       ___acrt_RtlGenRandom@8     10092b6e f   libucrt:winapi_thunks.obj
 0001:00091bc5       ___acrt_SetThreadStackGuarantee@4 10092bc5 f   libucrt:winapi_thunks.obj
 0001:00091c17       ___acrt_can_show_message_box 10092c17 f   libucrt:winapi_thunks.obj
 0001:00091c3e       ___acrt_can_use_vista_locale_apis 10092c3e f   libucrt:winapi_thunks.obj
 0001:00091c4a       ___acrt_can_use_xstate_apis 10092c4a f   libucrt:winapi_thunks.obj
 0001:00091c56       ___acrt_eagerly_load_locale_apis 10092c56 f   libucrt:winapi_thunks.obj
 0001:00091c8d       ___acrt_get_parent_window  10092c8d f   libucrt:winapi_thunks.obj
 0001:00091d0c       ___acrt_initialize_winapi_thunks 10092d0c f   libucrt:winapi_thunks.obj
 0001:00091d48       ___acrt_is_interactive     10092d48 f   libucrt:winapi_thunks.obj
 0001:00091dee       ___acrt_uninitialize_winapi_thunks 10092dee f   libucrt:winapi_thunks.obj
 0001:00091e24       __fcloseall                10092e24 f   libucrt:closeall.obj
 0001:00091ec4       ___acrt_stdio_free_buffer_nolock 10092ec4 f   libucrt:_freebuf.obj
 0001:00092095       __close                    10093095 f   libucrt:close.obj
 0001:00092124       __close_nolock             10093124 f   libucrt:close.obj
 0001:000921c0       ??$?RU__crt_stdio_stream_data@@@__crt_internal_free_policy@@QBEXQBU__crt_stdio_stream_data@@@Z 100931c0 f i libucrt:stream.obj
 0001:000921d2       ??0?$__crt_unique_heap_ptr@U__crt_stdio_stream_data@@U__crt_internal_free_policy@@@@QAE@QAU__crt_stdio_stream_data@@@Z 100931d2 f i libucrt:stream.obj
 0001:000921e2       ??0__crt_stdio_stream@@QAE@XZ 100931e2 f i libucrt:stream.obj
 0001:000921e8       ??1?$__crt_unique_heap_ptr@U__crt_stdio_stream_data@@U__crt_internal_free_policy@@@@QAE@XZ 100931e8 f i libucrt:stream.obj
 0001:000921fa       ?__acrt_stdio_allocate_stream@@YA?AV__crt_stdio_stream@@XZ 100931fa f   libucrt:stream.obj
 0001:00092259       ?__acrt_stdio_free_stream@@YAXV__crt_stdio_stream@@@Z 10093259 f   libucrt:stream.obj
 0001:00092294       ?deallocate@__crt_stdio_stream@@QAEXXZ 10093294 f i libucrt:stream.obj
 0001:0009229e       ?detach@?$__crt_unique_heap_ptr@U__crt_stdio_stream_data@@U__crt_internal_free_policy@@@@QAEPAU__crt_stdio_stream_data@@XZ 1009329e f i libucrt:stream.obj
 0001:00092367       ?lock@__crt_stdio_stream@@QBEXXZ 10093367 f i libucrt:stream.obj
 0001:00092370       ?release@?$__crt_unique_heap_ptr@U__crt_stdio_stream_data@@U__crt_internal_free_policy@@@@QAEXXZ 10093370 f i libucrt:stream.obj
 0001:00092382       ?try_allocate@__crt_stdio_stream@@QAE_NXZ 10093382 f i libucrt:stream.obj
 0001:000923a3       ??$__acrt_stdio_parse_mode@D@@YA?AU__acrt_stdio_stream_mode@@QBD@Z 100933a3 f i libucrt:openfile.obj
 0001:000925ca       ??$__acrt_stdio_parse_mode@_W@@YA?AU__acrt_stdio_stream_mode@@QB_W@Z 100935ca f i libucrt:openfile.obj
 0001:0009290f       ??$tcsncmp@AAPBDAAY02$$CBDI@?$__crt_char_traits@D@@SAHAAPBDAAY02$$CBD$$QAI@Z 1009390f f i libucrt:openfile.obj
 0001:0009292b       ??$tcsncmp@AAPB_WAAY02$$CB_WI@?$__crt_char_traits@_W@@SAHAAPB_WAAY02$$CB_W$$QAI@Z 1009392b f i libucrt:openfile.obj
 0001:00092947       ??$tcsnicmp@AAPBDAAY04$$CBDI@?$__crt_char_traits@D@@SAHAAPBDAAY04$$CBD$$QAI@Z 10093947 f i libucrt:openfile.obj
 0001:00092963       ??$tcsnicmp@AAPBDAAY06$$CBDI@?$__crt_char_traits@D@@SAHAAPBDAAY06$$CBD$$QAI@Z 10093963 f i libucrt:openfile.obj
 0001:0009297f       ??$tcsnicmp@AAPBDAAY07$$CBDI@?$__crt_char_traits@D@@SAHAAPBDAAY07$$CBD$$QAI@Z 1009397f f i libucrt:openfile.obj
 0001:0009299b       ??$tcsnicmp@AAPB_WAAY04$$CB_WI@?$__crt_char_traits@_W@@SAHAAPB_WAAY04$$CB_W$$QAI@Z 1009399b f i libucrt:openfile.obj
 0001:000929b7       ??$tcsnicmp@AAPB_WAAY06$$CB_WI@?$__crt_char_traits@_W@@SAHAAPB_WAAY06$$CB_W$$QAI@Z 100939b7 f i libucrt:openfile.obj
 0001:000929d3       ??$tcsnicmp@AAPB_WAAY07$$CB_WI@?$__crt_char_traits@_W@@SAHAAPB_WAAY07$$CB_W$$QAI@Z 100939d3 f i libucrt:openfile.obj
 0001:000929ef       ??$tsopen_s@PAHABQBDABHABHH@?$__crt_char_traits@D@@SAH$$QAPAHABQBDABH2$$QAH@Z 100939ef f i libucrt:openfile.obj
 0001:00092a17       ??$tsopen_s@PAHABQB_WABHABHH@?$__crt_char_traits@_W@@SAH$$QAPAHABQB_WABH2$$QAH@Z 10093a17 f i libucrt:openfile.obj
 0001:00092a3f       ?__acrt_stdio_parse_mode_D@@YA_NAAU__acrt_stdio_stream_mode@@@Z 10093a3f f i libucrt:openfile.obj
 0001:00092a5a       ?__acrt_stdio_parse_mode_N@@YA_NAAU__acrt_stdio_stream_mode@@@Z 10093a5a f i libucrt:openfile.obj
 0001:00092a6c       ?__acrt_stdio_parse_mode_R@@YA_NAAU__acrt_stdio_stream_mode@@AA_N@Z 10093a6c f i libucrt:openfile.obj
 0001:00092a8a       ?__acrt_stdio_parse_mode_S@@YA_NAAU__acrt_stdio_stream_mode@@AA_N@Z 10093a8a f i libucrt:openfile.obj
 0001:00092aa8       ?__acrt_stdio_parse_mode_T@@YA_NAAU__acrt_stdio_stream_mode@@@Z 10093aa8 f i libucrt:openfile.obj
 0001:00092ac7       ?__acrt_stdio_parse_mode_b@@YA_NAAU__acrt_stdio_stream_mode@@@Z 10093ac7 f i libucrt:openfile.obj
 0001:00092ae7       ?__acrt_stdio_parse_mode_c@@YA_NAAU__acrt_stdio_stream_mode@@AA_N@Z 10093ae7 f i libucrt:openfile.obj
 0001:00092b09       ?__acrt_stdio_parse_mode_n@@YA_NAAU__acrt_stdio_stream_mode@@AA_N@Z 10093b09 f i libucrt:openfile.obj
 0001:00092b2b       ?__acrt_stdio_parse_mode_plus@@YA_NAAU__acrt_stdio_stream_mode@@AA_N@Z 10093b2b f i libucrt:openfile.obj
 0001:00092b60       ?__acrt_stdio_parse_mode_t@@YA_NAAU__acrt_stdio_stream_mode@@@Z 10093b60 f i libucrt:openfile.obj
 0001:00092b80       __openfile                 10093b80 f   libucrt:openfile.obj
 0001:00092b8b       __wopenfile                10093b8b f   libucrt:openfile.obj
 0001:00092b96       ___pctype_func             10093b96 f   libucrt:ctype.obj
 0001:00092bbc       ___pwctype_func            10093bbc f   libucrt:ctype.obj
 0001:00092bc2       __iswctype_l               10093bc2 f   libucrt:iswctype.obj
 0001:00092bd6       _iswctype                  10093bd6 f   libucrt:iswctype.obj
 0001:00092c35       __isctype                  10093c35 f   libucrt:isctype.obj
 0001:00092c66       __isctype_l                10093c66 f   libucrt:isctype.obj
 0001:00092d38       __fgetwc_nolock            10093d38 f   libucrt:fgetwc.obj
 0001:00092eaa       __fgetwchar                10093eaa f   libucrt:fgetwc.obj
 0001:00092eba       __getwc_nolock             10093eba f   libucrt:fgetwc.obj
 0001:00092ec5       _fgetwc                    10093ec5 f   libucrt:fgetwc.obj
 0001:00092f32       _getwc                     10093f32 f   libucrt:fgetwc.obj
 0001:00092f3d       _getwchar                  10093f3d f   libucrt:fgetwc.obj
 0001:000930c0       __ungetwc_nolock           100940c0 f   libucrt:ungetwc.obj
 0001:00093176       _ungetwc                   10094176 f   libucrt:ungetwc.obj
 0001:000931ea       __fgetc_nolock             100941ea f   libucrt:fgetc.obj
 0001:00093226       __fgetchar                 10094226 f   libucrt:fgetc.obj
 0001:00093236       __getc_nolock              10094236 f   libucrt:fgetc.obj
 0001:00093241       _fgetc                     10094241 f   libucrt:fgetc.obj
 0001:0009333c       _getc                      1009433c f   libucrt:fgetc.obj
 0001:00093347       _getchar                   10094347 f   libucrt:fgetc.obj
 0001:0009334c       __ungetc_nolock            1009434c f   libucrt:ungetc.obj
 0001:0009343b       _ungetc                    1009443b f   libucrt:ungetc.obj
 0001:000934a4       ___fpe_flt_rounds          100944a4 f   libucrt:fegetround.obj
 0001:000934d8       _fegetround                100944d8 f   libucrt:fegetround.obj
 0001:000934e5       ___acrt_initialize_locks   100944e5 f   libucrt:locks.obj
 0001:00093526       ___acrt_lock               10094526 f   libucrt:locks.obj
 0001:0009353d       ___acrt_uninitialize_locks 1009453d f   libucrt:locks.obj
 0001:0009356e       ___acrt_unlock             1009456e f   libucrt:locks.obj
 0001:00093585       __lock_locales             10094585 f   libucrt:locks.obj
 0001:00093593       __unlock_locales           10094593 f   libucrt:locks.obj
 0001:00093748       ___acrt_get_begin_thread_init_policy 10094748 f   libucrt:win_policies.obj
 0001:0009378d       ___acrt_get_developer_information_policy 1009478d f   libucrt:win_policies.obj
 0001:000937d2       ___acrt_get_process_end_policy 100947d2 f   libucrt:win_policies.obj
 0001:00093805       ___acrt_get_windowing_model_policy 10094805 f   libucrt:win_policies.obj
 0001:00093862       ?dangerous_get_state_array@?$dual_state_global@PAPAD@__crt_state_management@@QAEPAPAPADXZ 10094862 f i libucrt:timeset.obj
 0001:00093865       ?initialize@?$dual_state_global@H@__crt_state_management@@QAEXH@Z 10094865 f i libucrt:timeset.obj
 0001:00093896       ?initialize@?$dual_state_global@J@__crt_state_management@@QAEXJ@Z 10094896 f i libucrt:timeset.obj
 0001:000938c7       ?value@?$dual_state_global@H@__crt_state_management@@QAEAAHXZ 100948c7 f i libucrt:timeset.obj
 0001:000938ca       ?value@?$dual_state_global@J@__crt_state_management@@QAEAAJXZ 100948ca f i libucrt:timeset.obj
 0001:000938cd       ___acrt_initialize_timeset 100948cd f   libucrt:timeset.obj
 0001:00093904       ___daylight                10094904 f   libucrt:timeset.obj
 0001:0009390a       ___dstbias                 1009490a f   libucrt:timeset.obj
 0001:00093910       ___timezone                10094910 f   libucrt:timeset.obj
 0001:00093916       ___tzname                  10094916 f   libucrt:timeset.obj
 0001:0009391c       __get_daylight             1009491c f   libucrt:timeset.obj
 0001:00093948       __get_dstbias              10094948 f   libucrt:timeset.obj
 0001:00093974       __get_timezone             10094974 f   libucrt:timeset.obj
 0001:000939a0       __get_tzname               100949a0 f   libucrt:timeset.obj
 0001:00093a53       ??$?RUtm@@@__crt_internal_free_policy@@QBEXQBUtm@@@Z 10094a53 f i libucrt:gmtime.obj
 0001:00093a65       ??$__crt_time_elapsed_leap_years@H@@YAHH@Z 10094a65 f i libucrt:gmtime.obj
 0001:00093a9f       ??$__crt_time_is_leap_year@H@@YA_NH@Z 10094a9f f i libucrt:gmtime.obj
 0001:00093d95       ??0?$__crt_unique_heap_ptr@Utm@@U__crt_internal_free_policy@@@@QAE@QAUtm@@@Z 10094d95 f i libucrt:gmtime.obj
 0001:00093da5       ??1?$__crt_unique_heap_ptr@Utm@@U__crt_internal_free_policy@@@@QAE@XZ 10094da5 f i libucrt:gmtime.obj
 0001:00093eb6       ?detach@?$__crt_unique_heap_ptr@Utm@@U__crt_internal_free_policy@@@@QAEPAUtm@@XZ 10094eb6 f i libucrt:gmtime.obj
 0001:00093ebc       ?release@?$__crt_unique_heap_ptr@Utm@@U__crt_internal_free_policy@@@@QAEXXZ 10094ebc f i libucrt:gmtime.obj
 0001:00093ece       ___getgmtimebuf            10094ece f   libucrt:gmtime.obj
 0001:00093f0c       __gmtime32                 10094f0c f   libucrt:gmtime.obj
 0001:00093f33       __gmtime32_s               10094f33 f   libucrt:gmtime.obj
 0001:00093f3e       __gmtime64                 10094f3e f   libucrt:gmtime.obj
 0001:00093f65       __gmtime64_s               10094f65 f   libucrt:gmtime.obj
 0001:00094158       ?_set_daylight@@YAXH@Z     10095158 f i libucrt:tzset.obj
 0001:00094169       ?_set_dstbias@@YAXJ@Z      10095169 f i libucrt:tzset.obj
 0001:0009417a       ?_set_timezone@@YAXJ@Z     1009517a f i libucrt:tzset.obj
 0001:00094759       ___tzset                   10095759 f   libucrt:tzset.obj
 0001:000947aa       __isindst                  100957aa f   libucrt:tzset.obj
 0001:000947f4       __tzset                    100957f4 f   libucrt:tzset.obj
 0001:0009482c       ??0?$__crt_scoped_stack_ptr@_W@@QAE@U?$__crt_scoped_stack_ptr_tag@_W@@@Z 1009582c f i libucrt:wcsftime.obj
 0001:0009483c       ??0?$__crt_scoped_stack_ptr_tag@_W@@QAE@QA_W@Z 1009583c f i libucrt:wcsftime.obj
 0001:0009484c       ??1?$__crt_scoped_stack_ptr@_W@@QAE@XZ 1009584c f i libucrt:wcsftime.obj
 0001:00094855       ?__crt_get_2digit_year@@YAHH@Z 10095855 f i libucrt:wcsftime.obj
 0001:0009486c       ?__crt_get_century@@YAHH@Z 1009586c f i libucrt:wcsftime.obj
 0001:00095486       ?get@?$__crt_scoped_stack_ptr@_W@@QBEPA_WXZ 10096486 f i libucrt:wcsftime.obj
 0001:00095a0f       __MallocaComputeSize       10096a0f f i libucrt:wcsftime.obj
 0001:00095a22       __MarkAllocaS              10096a22 f i libucrt:wcsftime.obj
 0001:00095a38       __W_Getdays                10096a38 f   libucrt:wcsftime.obj
 0001:00095b99       __W_Getmonths              10096b99 f   libucrt:wcsftime.obj
 0001:00095cfa       __W_Gettnames              10096cfa f   libucrt:wcsftime.obj
 0001:000963f8       __Wcsftime                 100973f8 f   libucrt:wcsftime.obj
 0001:00096418       __Wcsftime_l               10097418 f   libucrt:wcsftime.obj
 0001:00096596       __freea_crt                10097596 f i libucrt:wcsftime.obj
 0001:000965b6       __wcsftime_l               100975b6 f   libucrt:wcsftime.obj
 0001:000965d6       _wcsftime                  100975d6 f   libucrt:wcsftime.obj
 0001:00096600       _cos                       10097600 f   libucrt:cos.obj
 0001:00096640       __CIcos                    10097640 f   libucrt:cos.obj
 0001:0009667b       __CIcos_default            1009767b f   libucrt:cos.obj
 0001:0009668f       __cos_default              1009768f     libucrt:cos.obj
 0001:00096722       ___libm_error_support      10097722 f   libucrt:libm_error.obj
 0001:0009693a       ___libm_setusermatherr     1009793a f   libucrt:libm_error.obj
 0001:00096970       _pow                       10097970 f   libucrt:pow.obj
 0001:000969b0       __CIpow                    100979b0 f   libucrt:pow.obj
 0001:000969eb       __CIpow_default            100979eb f   libucrt:pow.obj
 0001:00096a04       __pow_default              10097a04     libucrt:pow.obj
 0001:00096c00       _sin                       10097c00 f   libucrt:sin.obj
 0001:00096c40       __CIsin                    10097c40 f   libucrt:sin.obj
 0001:00096c7b       __CIsin_default            10097c7b f   libucrt:sin.obj
 0001:00096c8f       __sin_default              10097c8f     libucrt:sin.obj
 0001:00096d30       __CIsqrt                   10097d30 f   libucrt:sqrt.obj
 0001:00096d44       _sqrt                      10097d44     libucrt:sqrt.obj
 0001:00096f45       __commit                   10097f45 f   libucrt:commit.obj
 0001:00097346       __lseek                    10098346 f   libucrt:lseek.obj
 0001:00097351       __lseek_nolock             10098351 f   libucrt:lseek.obj
 0001:0009735c       __lseeki64                 1009835c f   libucrt:lseek.obj
 0001:00097377       __lseeki64_nolock          10098377 f   libucrt:lseek.obj
 0001:000973bf       __chdrive                  100983bf f   libucrt:drive.obj
 0001:0009743f       __getdrive                 1009843f f   libucrt:drive.obj
 0001:0009773a       ??$tgetcwd@ABQADH@?$__crt_char_traits@D@@SAPADABQAD$$QAH@Z 1009873a f i libucrt:fullpath.obj
 0001:00097752       ??$tgetcwd@ABQA_WH@?$__crt_char_traits@_W@@SAPA_WABQA_W$$QAH@Z 10098752 f i libucrt:fullpath.obj
 0001:0009776a       ??B?$__crt_unique_heap_ptr@_WU__crt_public_free_policy@@@@QBE_NXZ 1009876a f i libucrt:fullpath.obj
 0001:00097771       ?detach@?$__crt_unique_heap_ptr@_WU__crt_public_free_policy@@@@QAEPA_WXZ 10098771 f i libucrt:fullpath.obj
 0001:00097777       ?get@?$__crt_unique_heap_ptr@_WU__crt_public_free_policy@@@@QBEPA_WXZ 10098777 f i libucrt:fullpath.obj
 0001:000977aa       ?is_valid@?$__crt_unique_heap_ptr@_WU__crt_public_free_policy@@@@QBE_NXZ 100987aa f i libucrt:fullpath.obj
 0001:000977b1       __fullpath                 100987b1 f   libucrt:fullpath.obj
 0001:00097808       __wfullpath                10098808 f   libucrt:fullpath.obj
 0001:0009785e       _wcspbrk                   1009885e f   libucrt:wcspbrk.obj
 0001:000978a3       __wcsicmp                  100988a3 f   libucrt:wcsicmp.obj
 0001:00097938       __wcsicmp_l                10098938 f   libucrt:wcsicmp.obj
 0001:00097a18       ___acrt_copy_path_to_wide_string 10098a18 f   libucrt:string_utilities.obj
 0001:00097adf       ___acrt_copy_to_char       10098adf f   libucrt:string_utilities.obj
 0001:00097b9b       ??$?RU__crt_lowio_handle_data@@@__crt_internal_free_policy@@QBEXQBU__crt_lowio_handle_data@@@Z 10098b9b f i libucrt:osfinfo.obj
 0001:00097bad       ??0?$__crt_unique_heap_ptr@U__crt_lowio_handle_data@@U__crt_internal_free_policy@@@@QAE@QAU__crt_lowio_handle_data@@@Z 10098bad f i libucrt:osfinfo.obj
 0001:00097bbd       ??1?$__crt_unique_heap_ptr@U__crt_lowio_handle_data@@U__crt_internal_free_policy@@@@QAE@XZ 10098bbd f i libucrt:osfinfo.obj
 0001:00097bcf       ??B?$__crt_unique_heap_ptr@U__crt_lowio_handle_data@@U__crt_internal_free_policy@@@@QBE_NXZ 10098bcf f i libucrt:osfinfo.obj
 0001:00097bd6       ?detach@?$__crt_unique_heap_ptr@U__crt_lowio_handle_data@@U__crt_internal_free_policy@@@@QAEPAU__crt_lowio_handle_data@@XZ 10098bd6 f i libucrt:osfinfo.obj
 0001:00097bdc       ?get@?$__crt_unique_heap_ptr@U__crt_lowio_handle_data@@U__crt_internal_free_policy@@@@QBEPAU__crt_lowio_handle_data@@XZ 10098bdc f i libucrt:osfinfo.obj
 0001:00097bdf       ?is_valid@?$__crt_unique_heap_ptr@U__crt_lowio_handle_data@@U__crt_internal_free_policy@@@@QBE_NXZ 10098bdf f i libucrt:osfinfo.obj
 0001:00097be6       ?release@?$__crt_unique_heap_ptr@U__crt_lowio_handle_data@@U__crt_internal_free_policy@@@@QAEXXZ 10098be6 f i libucrt:osfinfo.obj
 0001:00097bf8       ___acrt_lowio_create_handle_array 10098bf8 f   libucrt:osfinfo.obj
 0001:00097c72       ___acrt_lowio_destroy_handle_array 10098c72 f   libucrt:osfinfo.obj
 0001:00097ca7       ___acrt_lowio_ensure_fh_exists 10098ca7 f   libucrt:osfinfo.obj
 0001:00097d3b       ___acrt_lowio_lock_fh      10098d3b f   libucrt:osfinfo.obj
 0001:00097d5e       ___acrt_lowio_set_os_handle 10098d5e f   libucrt:osfinfo.obj
 0001:00097df2       ___acrt_lowio_unlock_fh    10098df2 f   libucrt:osfinfo.obj
 0001:00097e15       __alloc_osfhnd             10098e15 f   libucrt:osfinfo.obj
 0001:00097f1e       __free_osfhnd              10098f1e f   libucrt:osfinfo.obj
 0001:00097faf       __get_osfhandle            10098faf f   libucrt:osfinfo.obj
 0001:00098019       __open_osfhandle           10099019 f   libucrt:osfinfo.obj
 0001:0009847c       ?__crt_time_is_day_valid@@YA_NHHH@Z 1009947c f i libucrt:loctotime.obj
 0001:000984c3       ___loctotime32_t           100994c3 f   libucrt:loctotime.obj
 0001:000984ce       ___loctotime64_t           100994ce f   libucrt:loctotime.obj
 0001:000984d9       ___iswcsym                 100994d9 f i libucrt:_wctype.obj
 0001:000984ff       ___iswcsymf                100994ff f i libucrt:_wctype.obj
 0001:00098525       __isleadbyte_l             10099525 f i libucrt:_wctype.obj
 0001:0009855e       __iswalnum_l               1009955e f i libucrt:_wctype.obj
 0001:00098574       __iswalpha_l               10099574 f i libucrt:_wctype.obj
 0001:0009858a       __iswblank_l               1009958a f i libucrt:_wctype.obj
 0001:000985a7       __iswcntrl_l               100995a7 f i libucrt:_wctype.obj
 0001:000985ba       __iswcsym_l                100995ba f i libucrt:_wctype.obj
 0001:000985e0       __iswcsymf_l               100995e0 f i libucrt:_wctype.obj
 0001:00098606       __iswdigit_l               10099606 f i libucrt:_wctype.obj
 0001:00098619       __iswgraph_l               10099619 f i libucrt:_wctype.obj
 0001:0009862f       __iswlower_l               1009962f f i libucrt:_wctype.obj
 0001:00098642       __iswprint_l               10099642 f i libucrt:_wctype.obj
 0001:00098658       __iswpunct_l               10099658 f i libucrt:_wctype.obj
 0001:0009866b       __iswspace_l               1009966b f i libucrt:_wctype.obj
 0001:0009867e       __iswupper_l               1009967e f i libucrt:_wctype.obj
 0001:00098691       __iswxdigit_l              10099691 f i libucrt:_wctype.obj
 0001:000986a7       _isleadbyte                100996a7 f i libucrt:_wctype.obj
 0001:000986ba       _iswalnum                  100996ba f i libucrt:_wctype.obj
 0001:000986d0       _iswalpha                  100996d0 f i libucrt:_wctype.obj
 0001:000986e6       _iswascii                  100996e6 f i libucrt:_wctype.obj
 0001:000986fa       _iswblank                  100996fa f i libucrt:_wctype.obj
 0001:00098717       _iswcntrl                  10099717 f i libucrt:_wctype.obj
 0001:0009872a       _iswdigit                  1009972a f i libucrt:_wctype.obj
 0001:0009873d       _iswgraph                  1009973d f i libucrt:_wctype.obj
 0001:00098753       _iswlower                  10099753 f i libucrt:_wctype.obj
 0001:00098766       _iswprint                  10099766 f i libucrt:_wctype.obj
 0001:0009877c       _iswpunct                  1009977c f i libucrt:_wctype.obj
 0001:0009878f       _iswspace                  1009978f f i libucrt:_wctype.obj
 0001:000987a2       _iswupper                  100997a2 f i libucrt:_wctype.obj
 0001:000987b5       _iswxdigit                 100997b5 f i libucrt:_wctype.obj
 0001:000987cb       ??B?$__crt_scoped_stack_ptr@_W@@QBE_NXZ 100997cb f i libucrt:lcmapstringa.obj
 0001:000989e4       ___acrt_LCMapStringA       100999e4 f   libucrt:lcmapstringa.obj
 0001:00098a2f       ___acrt_strtok_s_novalidation 10099a2f f   libucrt:strtok_s.obj
 0001:00098b0e       _strtok_s                  10099b0e f   libucrt:strtok_s.obj
 0001:00098b50       __realloc_base             10099b50 f   libucrt:realloc_base.obj
 0001:00098bc0       _exp                       10099bc0 f   libucrt:87ctran.obj
 0001:00098bfc       __CIexp                    10099bfc f   libucrt:87ctran.obj
 0001:00098c37       __exp_default              10099c37 f   libucrt:87ctran.obj
 0001:00098c41       __CIexp_default            10099c41 f   libucrt:87ctran.obj
 0001:00098c50       _acos                      10099c50 f   libucrt:acos.obj
 0001:00098c90       __CIacos                   10099c90 f   libucrt:acos.obj
 0001:00098ccb       __CIacos_default           10099ccb f   libucrt:acos.obj
 0001:00098cdf       __acos_default             10099cdf     libucrt:acos.obj
 0001:0009963b       ??$find_first_file_ex@ABQADW4_FINDEX_INFO_LEVELS@@PAU_WIN32_FIND_DATAA@@W4_FINDEX_SEARCH_OPS@@$$TH@?$__crt_char_traits@D@@SAPAXABQAD$$QAW4_FINDEX_INFO_LEVELS@@$$QAPAU_WIN32_FIND_DATAA@@$$QAW4_FINDEX_SEARCH_OPS@@$$QA$$T$$QAH@Z 1009a63b f i libucrt:argv_wildcards.obj
 0001:00099666       ??$find_first_file_ex@ABQA_WW4_FINDEX_INFO_LEVELS@@PAU_WIN32_FIND_DATAW@@W4_FINDEX_SEARCH_OPS@@$$TH@?$__crt_char_traits@_W@@SAPAXABQA_W$$QAW4_FINDEX_INFO_LEVELS@@$$QAPAU_WIN32_FIND_DATAW@@$$QAW4_FINDEX_SEARCH_OPS@@$$QA$$T$$QAH@Z 1009a666 f i libucrt:argv_wildcards.obj
 0001:00099691       ??$find_next_file@PAXPAU_WIN32_FIND_DATAA@@@?$__crt_char_traits@D@@SAH$$QAPAX$$QAPAU_WIN32_FIND_DATAA@@@Z 1009a691 f i libucrt:argv_wildcards.obj
 0001:000996a8       ??$find_next_file@PAXPAU_WIN32_FIND_DATAW@@@?$__crt_char_traits@_W@@SAH$$QAPAX$$QAPAU_WIN32_FIND_DATAW@@@Z 1009a6a8 f i libucrt:argv_wildcards.obj
 0001:000996bf       ??$tcslen@ABQBD@?$__crt_char_traits@D@@SAIABQBD@Z 1009a6bf f i libucrt:argv_wildcards.obj
 0001:000996d7       ??$tcslen@ABQB_W@?$__crt_char_traits@_W@@SAIABQB_W@Z 1009a6d7 f i libucrt:argv_wildcards.obj
 0001:000996f5       ??$tcsncpy_s@AAPADIAAPADABI@?$__crt_char_traits@D@@SAHAAPAD$$QAI0ABI@Z 1009a6f5 f i libucrt:argv_wildcards.obj
 0001:00099718       ??$tcsncpy_s@AAPA_WIAAPA_WABI@?$__crt_char_traits@_W@@SAHAAPA_W$$QAI0ABI@Z 1009a718 f i libucrt:argv_wildcards.obj
 0001:0009973b       ??$tcsncpy_s@PADABIABQBDABI@?$__crt_char_traits@D@@SAH$$QAPADABIABQBD1@Z 1009a73b f i libucrt:argv_wildcards.obj
 0001:0009975e       ??$tcsncpy_s@PADIABQBDABI@?$__crt_char_traits@D@@SAH$$QAPAD$$QAIABQBDABI@Z 1009a75e f i libucrt:argv_wildcards.obj
 0001:00099781       ??$tcsncpy_s@PA_WABIABQB_WABI@?$__crt_char_traits@_W@@SAH$$QAPA_WABIABQB_W1@Z 1009a781 f i libucrt:argv_wildcards.obj
 0001:000997a4       ??$tcsncpy_s@PA_WIABQB_WABI@?$__crt_char_traits@_W@@SAH$$QAPA_W$$QAIABQB_WABI@Z 1009a7a4 f i libucrt:argv_wildcards.obj
 0001:000997c7       ??$tcspbrk@AAPADAAY02$$CBD@?$__crt_char_traits@D@@SAPADAAPADAAY02$$CBD@Z 1009a7c7 f i libucrt:argv_wildcards.obj
 0001:000997dd       ??$tcspbrk@AAPA_WAAY02$$CB_W@?$__crt_char_traits@_W@@SAPA_WAAPA_WAAY02$$CB_W@Z 1009a7dd f i libucrt:argv_wildcards.obj
 0001:000997f3       ??0?$__crt_unique_handle_t@U__crt_findfile_traits@@@@QAE@QAX@Z 1009a7f3 f i libucrt:argv_wildcards.obj
 0001:0009981d       ??1?$__crt_unique_handle_t@U__crt_findfile_traits@@@@QAE@XZ 1009a81d f i libucrt:argv_wildcards.obj
 0001:00099972       ?close@?$__crt_unique_handle_t@U__crt_findfile_traits@@@@QAEXXZ 1009a972 f i libucrt:argv_wildcards.obj
 0001:00099989       ?close@__crt_findfile_traits@@SA_NPAX@Z 1009a989 f i libucrt:argv_wildcards.obj
 0001:00099ab5       ?get@?$__crt_unique_handle_t@U__crt_findfile_traits@@@@QBEPAXXZ 1009aab5 f i libucrt:argv_wildcards.obj
 0001:00099ab8       ?get_invalid_value@__crt_findfile_traits@@SAPAXXZ 1009aab8 f i libucrt:argv_wildcards.obj
 0001:00099ae6       ?strpbrk@@YAPADQADQBD@Z    1009aae6 f i libucrt:argv_wildcards.obj
 0001:00099af1       ?wcspbrk@@YAPA_WPA_WPB_W@Z 1009aaf1 f i libucrt:argv_wildcards.obj
 0001:00099afc       ___acrt_expand_narrow_argv_wildcards 1009aafc f   libucrt:argv_wildcards.obj
 0001:00099b07       ___acrt_expand_wide_argv_wildcards 1009ab07 f   libucrt:argv_wildcards.obj
 0001:00099b7d       ??$initialize_from_array@$$BY10BAA@E@?$dual_state_global@PAE@__crt_state_management@@QAAXAAY10BAA@E@Z 1009ab7d f i libucrt:mbctype.obj
 0001:00099b8c       ??$initialize_from_array@$$BY10BAB@E@?$dual_state_global@PAE@__crt_state_management@@QAAXAAY10BAB@E@Z 1009ab8c f i libucrt:mbctype.obj
 0001:00099ca8       ?dangerous_get_state_array@?$dual_state_global@PAE@__crt_state_management@@QAEPAPAEXZ 1009aca8 f i libucrt:mbctype.obj
 0001:00099cab       ?dangerous_get_state_array@?$dual_state_global@PAU__crt_multibyte_data@@@__crt_state_management@@QAEPAPAU__crt_multibyte_data@@XZ 1009acab f i libucrt:mbctype.obj
 0001:00099d21       ?initialize@?$dual_state_global@PAU__crt_multibyte_data@@@__crt_state_management@@QAEXQAU__crt_multibyte_data@@@Z 1009ad21 f i libucrt:mbctype.obj
 0001:0009a0fb       ?value@?$dual_state_global@PAE@__crt_state_management@@QAEAAPAEXZ 1009b0fb f i libucrt:mbctype.obj
 0001:0009a0fe       ___acrt_initialize_multibyte 1009b0fe f   libucrt:mbctype.obj
 0001:0009a14b       ___acrt_update_thread_multibyte_data 1009b14b f   libucrt:mbctype.obj
 0001:0009a15f       ___p__mbcasemap            1009b15f f   libucrt:mbctype.obj
 0001:0009a165       ___p__mbctype              1009b165 f   libucrt:mbctype.obj
 0001:0009a16b       __getmbcp                  1009b16b f   libucrt:mbctype.obj
 0001:0009a1a1       __setmbcp                  1009b1a1 f   libucrt:mbctype.obj
 0001:0009a1c0       __setmbcp_nolock           1009b1c0 f   libucrt:mbctype.obj
 0001:0009a48b       __ismbbalnum               1009b48b f   libucrt:ismbbyte.obj
 0001:0009a4a6       __ismbbalnum_l             1009b4a6 f   libucrt:ismbbyte.obj
 0001:0009a4c2       __ismbbalpha               1009b4c2 f   libucrt:ismbbyte.obj
 0001:0009a4dd       __ismbbalpha_l             1009b4dd f   libucrt:ismbbyte.obj
 0001:0009a4f9       __ismbbblank               1009b4f9 f   libucrt:ismbbyte.obj
 0001:0009a51c       __ismbbblank_l             1009b51c f   libucrt:ismbbyte.obj
 0001:0009a540       __ismbbgraph               1009b540 f   libucrt:ismbbyte.obj
 0001:0009a55b       __ismbbgraph_l             1009b55b f   libucrt:ismbbyte.obj
 0001:0009a577       __ismbbkalnum              1009b577 f   libucrt:ismbbyte.obj
 0001:0009a58f       __ismbbkalnum_l            1009b58f f   libucrt:ismbbyte.obj
 0001:0009a5a8       __ismbbkana                1009b5a8 f   libucrt:ismbbyte.obj
 0001:0009a5bb       __ismbbkana_l              1009b5bb f   libucrt:ismbbyte.obj
 0001:0009a60c       __ismbbkprint              1009b60c f   libucrt:ismbbyte.obj
 0001:0009a624       __ismbbkprint_l            1009b624 f   libucrt:ismbbyte.obj
 0001:0009a63d       __ismbbkpunct              1009b63d f   libucrt:ismbbyte.obj
 0001:0009a655       __ismbbkpunct_l            1009b655 f   libucrt:ismbbyte.obj
 0001:0009a66e       __ismbblead                1009b66e f   libucrt:ismbbyte.obj
 0001:0009a686       __ismbblead_l              1009b686 f   libucrt:ismbbyte.obj
 0001:0009a69f       __ismbbprint               1009b69f f   libucrt:ismbbyte.obj
 0001:0009a6ba       __ismbbprint_l             1009b6ba f   libucrt:ismbbyte.obj
 0001:0009a6d6       __ismbbpunct               1009b6d6 f   libucrt:ismbbyte.obj
 0001:0009a6ee       __ismbbpunct_l             1009b6ee f   libucrt:ismbbyte.obj
 0001:0009a707       __ismbbtrail               1009b707 f   libucrt:ismbbyte.obj
 0001:0009a71f       __ismbbtrail_l             1009b71f f   libucrt:ismbbyte.obj
 0001:0009a738       ___acrt_initialize_command_line 1009b738 f   libucrt:argv_data.obj
 0001:0009a751       ___acrt_uninitialize_command_line 1009b751 f   libucrt:argv_data.obj
 0001:0009a754       ___p___argc                1009b754 f   libucrt:argv_data.obj
 0001:0009a75a       ___p___argv                1009b75a f   libucrt:argv_data.obj
 0001:0009a760       ___p___wargv               1009b760 f   libucrt:argv_data.obj
 0001:0009a766       ___p__acmdln               1009b766 f   libucrt:argv_data.obj
 0001:0009a76c       ___p__pgmptr               1009b76c f   libucrt:argv_data.obj
 0001:0009a772       ___p__wcmdln               1009b772 f   libucrt:argv_data.obj
 0001:0009a778       ___p__wpgmptr              1009b778 f   libucrt:argv_data.obj
 0001:0009a77e       __get_pgmptr               1009b77e f   libucrt:argv_data.obj
 0001:0009a7af       __get_wpgmptr              1009b7af f   libucrt:argv_data.obj
 0001:0009a840       _wcscpy_s                  1009b840 f   libucrt:wcscpy_s.obj
 0001:0009a93f       ___dcrt_get_narrow_environment_from_os 1009b93f f   libucrt:get_environment_from_os.obj
 0001:0009a9c2       ___dcrt_get_wide_environment_from_os 1009b9c2 f   libucrt:get_environment_from_os.obj
 0001:0009b0fa       ??$get_or_create_environment_nolock@$$V@?$__crt_char_traits@D@@SAPAPADXZ 1009c0fa f i libucrt:setenv.obj
 0001:0009b0ff       ??$get_or_create_environment_nolock@$$V@?$__crt_char_traits@_W@@SAPAPA_WXZ 1009c0ff f i libucrt:setenv.obj
 0001:0009b104       ??$set_environment_variable@ABQADQAD@?$__crt_char_traits@D@@SAHABQAD$$QBQAD@Z 1009c104 f i libucrt:setenv.obj
 0001:0009b11b       ??$set_environment_variable@ABQA_WQA_W@?$__crt_char_traits@_W@@SAHABQA_W$$QBQA_W@Z 1009c11b f i libucrt:setenv.obj
 0001:0009b132       ??$tcschr@ABQADD@?$__crt_char_traits@D@@SAPADABQAD$$QAD@Z 1009c132 f i libucrt:setenv.obj
 0001:0009b14c       ??$tcschr@ABQA_WD@?$__crt_char_traits@_W@@SAPA_WABQA_W$$QAD@Z 1009c14c f i libucrt:setenv.obj
 0001:0009b16a       ??$tcscpy_s@AAPADABIAAPAD@?$__crt_char_traits@D@@SAHAAPADABI0@Z 1009c16a f i libucrt:setenv.obj
 0001:0009b188       ??$tcscpy_s@AAPA_WABIAAPA_W@?$__crt_char_traits@_W@@SAHAAPA_WABI0@Z 1009c188 f i libucrt:setenv.obj
 0001:0009b1a6       ??$tcscpy_s@ABQADABIABQAD@?$__crt_char_traits@D@@SAHABQADABI0@Z 1009c1a6 f i libucrt:setenv.obj
 0001:0009b1c4       ??$tcscpy_s@ABQA_WABIABQA_W@?$__crt_char_traits@_W@@SAHABQA_WABI0@Z 1009c1c4 f i libucrt:setenv.obj
 0001:0009b1e2       ??$tcslen@ABQAD@?$__crt_char_traits@D@@SAIABQAD@Z 1009c1e2 f i libucrt:setenv.obj
 0001:0009b1fa       ??$tcslen@ABQA_W@?$__crt_char_traits@_W@@SAIABQA_W@Z 1009c1fa f i libucrt:setenv.obj
 0001:0009b218       ??$tcsnicoll@ABQBDAAPADABI@?$__crt_char_traits@D@@SAHABQBDAAPADABI@Z 1009c218 f i libucrt:setenv.obj
 0001:0009b236       ??$tcsnicoll@ABQB_WAAPA_WABI@?$__crt_char_traits@_W@@SAHABQB_WAAPA_WABI@Z 1009c236 f i libucrt:setenv.obj
 0001:0009b278       ?strchr@@YAPADQADH@Z       1009c278 f i libucrt:setenv.obj
 0001:0009b283       ?wcschr@@YAPA_WPA_W_W@Z    1009c283 f i libucrt:setenv.obj
 0001:0009b28e       ___dcrt_set_variable_in_narrow_environment_nolock 1009c28e f   libucrt:setenv.obj
 0001:0009b299       ___dcrt_set_variable_in_wide_environment_nolock 1009c299 f   libucrt:setenv.obj
 0001:0009b2a4       __recalloc                 1009c2a4 f   libucrt:recalloc.obj
 0001:0009b2af       __recalloc_base            1009c2af f   libucrt:recalloc.obj
 0001:0009b31c       ___acrt_getheap            1009c31c f   libucrt:heap_handle.obj
 0001:0009b322       ___acrt_initialize_heap    1009c322 f   libucrt:heap_handle.obj
 0001:0009b333       ___acrt_uninitialize_heap  1009c333 f   libucrt:heap_handle.obj
 0001:0009b33d       __get_heap_handle          1009c33d f   libucrt:heap_handle.obj
 0001:0009b343       ___acrt_execute_initializers 1009c343 f   libucrt:shared_initialization.obj
 0001:0009b3c6       ___acrt_execute_uninitializers 1009c3c6 f   libucrt:shared_initialization.obj
 0001:0009b413       ??$?B$$A6AXH@Z@__crt_fast_encoded_nullptr_t@@QBEP6AXH@ZXZ 1009c413 f i libucrt:signal.obj
 0001:0009b4ad       ??$__crt_fast_decode_pointer@P6AXH@Z@@YAP6AXH@ZQ6AXH@Z@Z 1009c4ad f i libucrt:signal.obj
 0001:0009b4c3       ??$__crt_fast_encode_pointer@P6AXH@Z@@YAP6AXH@ZQ6AXH@Z@Z 1009c4c3 f i libucrt:signal.obj
 0001:0009b61b       ?initialize@?$dual_state_global@P6AXH@Z@__crt_state_management@@QAEXQ6AXH@Z@Z 1009c61b f i libucrt:signal.obj
 0001:0009b6a5       ?value@?$dual_state_global@P6AXH@Z@__crt_state_management@@QAEAAP6AXH@ZXZ 1009c6a5 f i libucrt:signal.obj
 0001:0009b6a8       ___acrt_get_sigabrt_handler 1009c6a8 f   libucrt:signal.obj
